(dp0
S'1DEAMZT'
p1
S'DEGC'
p2
sS'PLINE16T'
p3
S'DEGF'
p4
sS'EORTDMN18D'
p5
S'DEGF'
p6
sS'LUNAREPHEM1_TIME'
p7
S's'
p8
sS'OHRTHR38'
p9
S'DEGF'
p10
sS'PR1TV02T'
p11
S'DEGF'
p12
sS'OHRTHR30'
p13
S'DEGF'
p14
sS'OHRTHR31'
p15
S'DEGF'
p16
sS'OHRTHR33'
p17
S'DEGF'
p18
sS'OHRTHR34'
p19
S'DEGF'
p20
sS'OHRTHR35'
p21
S'DEGF'
p22
sS'OHRTHR36'
p23
S'DEGF'
p24
sS'OHRTHR37'
p25
S'DEGF'
p26
sS'EORTDMN11D'
p27
S'DEGF'
p28
sS'AFLC11BI'
p29
S'MAMP'
p30
sS'AORWMC3_1'
p31
S'FTLBSEC'
p32
sS'3TTHRC1T'
p33
S'DEGC'
p34
sS'OHRTHR08_WIDE'
p35
S'DEGF'
p36
sS'PLAED4FT'
p37
S'DEGF'
p38
sS'4RT562T'
p39
S'DEGF'
p40
sS'PLINE06T'
p41
S'DEGF'
p42
sS'POR2TV02T'
p43
S'DEGF'
p44
sS'1DAHAVO'
p45
S'V'
p46
sS'OOBTHR36_WIDE'
p47
S'DEGF'
p48
sS'OOBTHR24_WIDE'
p49
S'DEGF'
p50
sS'AI1AX1X'
p51
S'DEGPS'
p52
sS'OHRTHR39'
p53
S'DEGF'
p54
sS'PHOFP1T'
p55
S'DEGF'
p56
sS'OHRTHR41_WIDE'
p57
S'DEGF'
p58
sS'OOBTHR17_WIDE'
p59
S'DEGF'
p60
sS'OHRTHR31_WIDE'
p61
S'DEGF'
p62
sS'OOBTHR46'
p63
S'DEGF'
p64
sS'EOESAC1C'
p65
S'AMP'
p66
sS'OOBTHR18'
p67
S'DEGF'
p68
sS'SOLAREPHEM1_TIME'
p69
S's'
p70
sS'OOBTHR15'
p71
S'DEGF'
p72
sS'OOBTHR14'
p73
S'DEGF'
p74
sS'OOBTHR17'
p75
S'DEGF'
p76
sS'OOBTHR11'
p77
S'DEGF'
p78
sS'OOBTHR10'
p79
S'DEGF'
p80
sS'OOBTHR13'
p81
S'DEGF'
p82
sS'OOBTHR12'
p83
S'DEGF'
p84
sS'4HLL2BT'
p85
S'DEGF'
p86
sS'OOBTHR10_WIDE'
p87
S'DEGF'
p88
sS'4HLL1AT'
p89
S'DEGF'
p90
sS'ESAMYI'
p91
S'AMP'
p92
sS'TMYSADA'
p93
S'DEGF'
p94
sS'OHRTHR43_WIDE'
p95
S'DEGF'
p96
sS'AACH2T'
p97
S'DEGF'
p98
sS'AFLCA5AI'
p99
S'MAMP'
p100
sS'HKP6I'
p101
S'mA'
p102
sS'PMFP01T'
p103
S'DEGF'
p104
sS'CVEER'
p105
g46
sS'4RT584T'
p106
S'DEGF'
p107
sS'HKP6V'
p108
S'V'
p109
sS'2P05VBVL'
p110
S'VDC'
p111
sS'PLAED3IT'
p112
S'DEGF'
p113
sS'4RT592T'
p114
S'DEGF'
p115
sS'AIRU1BT'
p116
S'DEGF'
p117
sS'PR2TV01T'
p118
S'DEGF'
p119
sS'TCM_SSR1'
p120
S'DEGF'
p121
sS'6DRFTQC2'
p122
S'FTLB'
p123
sS'6DRFTQC3'
p124
S'FTLB'
p125
sS'6DRFTQC1'
p126
S'FTLB'
p127
sS'5EPHINT'
p128
S'DEGC'
p129
sS'4VRMOBV'
p130
S'VDC'
p131
sS'OOBTHR60'
p132
S'DEGF'
p133
sS'OOBTHR61'
p134
S'DEGF'
p135
sS'OOBTHR62'
p136
S'DEGF'
p137
sS'OOBTHR63'
p138
S'DEGF'
p139
sS'PLINE11T'
p140
S'DEGF'
p141
sS'OHRTHR55_WIDE'
p142
S'DEGF'
p143
sS'AOALPANG'
p144
S'DEG'
p145
sS'OOBTHR45_WIDE'
p146
S'DEGF'
p147
sS'TCYLPCP'
p148
S'DEGF'
p149
sS'OHRTHR62_WIDE'
p150
S'DEGF'
p151
sS'PLAED1BT'
p152
S'DEGF'
p153
sS'TCYLPCM'
p154
S'DEGF'
p155
sS'AFLC12AI'
p156
S'MAMP'
p157
sS'AOSACMD2'
p158
S'RAD'
p159
sS'2UVLSPXT'
p160
S'DEGC'
p161
sS'4HLL2AT'
p162
S'DEGF'
p163
sS'ACPA5CV'
p164
g46
sS'3FAPYZAT'
p165
S'DEGC'
p166
sS'ORBITEPHEM0_TIME'
p167
S's'
p168
sS'PLAED3GT'
p169
S'DEGF'
p170
sS'EOECNV3C'
p171
g46
sS'3TTACS2T'
p172
S'DEGC'
p173
sS'4HFSPBT'
p174
S'DEGF'
p175
sS'EEPB5V'
p176
g46
sS'3FAFLAAT'
p177
S'DEGC'
p178
sS'4MP28BV'
p179
S'VDC'
p180
sS'AWD3CV5V'
p181
g46
sS'4LFSPAT'
p182
S'DEGF'
p183
sS'AOACZAN4'
p184
S'ASEC'
p185
sS'4RT706T'
p186
S'DEGF'
p187
sS'TPCM_RW5'
p188
S'DEGF'
p189
sS'2CEAHVPT'
p190
S'DEGC'
p191
sS'PLAEV2AT'
p192
S'DEGF'
p193
sS'AOSUNER1'
p194
S'RAD'
p195
sS'AOSUNER3'
p196
S'RAD'
p197
sS'AOSUNER2'
p198
S'RAD'
p199
sS'AAOTAPMT'
p200
S'DEGF'
p201
sS'TMZP_PY'
p202
S'DEGF'
p203
sS'OHRTHR54_WIDE'
p204
S'DEGF'
p205
sS'1DPAMYT'
p206
S'DEGC'
p207
sS'1DACTBT'
p208
S'DEGC'
p209
sS'AORWBTQ1'
p210
S'FTLB'
p211
sS'AORWBTQ2'
p212
S'FTLB'
p213
sS'AORWBTQ3'
p214
S'FTLB'
p215
sS'AORWBTQ4'
p216
S'FTLB'
p217
sS'AGWS1V'
p218
g46
sS'AORWBTQ6'
p219
S'FTLB'
p220
sS'AWD6CV5V'
p221
g46
sS'TRSPMTPC'
p222
S'DEGF'
p223
sS'ANGLEEPHEM_POINT_EARTHLIMBANG'
p224
S'deg'
p225
sS'OOBTHR20_WIDE'
p226
S'DEGF'
p227
sS'TCM_CTU'
p228
S'DEGF'
p229
sS'3FABRCAT'
p230
S'DEGC'
p231
sS'1DPP0AVO'
p232
g46
sS'CPCB5V'
p233
g46
sS'OOBTHR37_WIDE'
p234
S'DEGF'
p235
sS'CPCA5V'
p236
g46
sS'CXPNAIT'
p237
S'DEGF'
p238
sS'TEIO'
p239
S'DEGF'
p240
sS'AORWMC2_1'
p241
S'FTLBSEC'
p242
sS'OHRTHR47_WIDE'
p243
S'DEGF'
p244
sS'OOBTHR52_WIDE'
p245
S'DEGF'
p246
sS'PFDM202T'
p247
S'DEGF'
p248
sS'AACBPRT'
p249
S'DEGF'
p250
sS'TPCM_RW4'
p251
S'DEGF'
p252
sS'4VRMHBV'
p253
S'VDC'
p254
sS'OOBTHR04'
p255
S'DEGF'
p256
sS'TMP_FEP0_MONG'
p257
S'DEGC'
p258
sS'TPYSADA'
p259
S'DEGF'
p260
sS'TB2T1'
p261
S'DEGF'
p262
sS'PLAED4ET'
p263
S'DEGF'
p264
sS'1DAHACU'
p265
S'AMP'
p266
sS'AOMANTIM'
p267
S'SEC'
p268
sS'CTUB5V'
p269
g46
sS'PLAED3DT'
p270
S'DEGF'
p271
sS'OOBTHR19'
p272
S'DEGF'
p273
sS'CPCB15V'
p274
g46
sS'OOBTHR38_WIDE'
p275
S'DEGF'
p276
sS'EORTDMN26D'
p277
S'DEGF'
p278
sS'EB1V'
p279
g46
sS'3SFLXCST'
p280
S'DEGC'
p281
sS'PLINE07T'
p282
S'DEGF'
p283
sS'AOSCVEL1'
p284
S'KMPS'
p285
sS'AOSCVEL3'
p286
S'KMPS'
p287
sS'AOSCVEL2'
p288
S'KMPS'
p289
sS'1DE28AVO'
p290
g46
sS'EOEB3DIC'
p291
S'AMP'
p292
sS'AFLC13BI'
p293
S'MAMP'
p294
sS'PR4TV02T'
p295
S'DEGF'
p296
sS'AOGBIAS1'
p297
S'RADPS'
p298
sS'AOGBIAS2'
p299
S'RADPS'
p300
sS'AOGBIAS3'
p301
S'RADPS'
p302
sS'1DEN1AVO'
p303
g46
sS'1DEN0AVO'
p304
g46
sS'4LPOSBRO'
p305
S'DEG'
p306
sS'1DPICBCU'
p307
S'AMP'
p308
sS'PLINE03T'
p309
S'DEGF'
p310
sS'4CSDHAV'
p311
S'VDC'
p312
sS'AORWCMD5'
p313
S'FTLB'
p314
sS'POR1TV02T'
p315
S'DEGF'
p316
sS'OHRTHR29'
p317
S'DEGF'
p318
sS'AORWCMD6'
p319
S'FTLB'
p320
sS'AORWCMD1'
p321
S'FTLB'
p322
sS'AORWCMD3'
p323
S'FTLB'
p324
sS'AORWCMD2'
p325
S'FTLB'
p326
sS'OHRTHR23'
p327
S'DEGF'
p328
sS'OHRTHR22'
p329
S'DEGF'
p330
sS'OHRTHR21'
p331
S'DEGF'
p332
sS'OHRTHR20'
p333
S'DEGF'
p334
sS'OHRTHR27'
p335
S'DEGF'
p336
sS'OHRTHR26'
p337
S'DEGF'
p338
sS'OHRTHR25'
p339
S'DEGF'
p340
sS'POM2THV2T'
p341
S'DEGF'
p342
sS'4IN15BV'
p343
S'VDC'
p344
sS'TCYLFMZP'
p345
S'DEGF'
p346
sS'TCYLFMZM'
p347
S'DEGF'
p348
sS'TEP_RCTU'
p349
S'DEGF'
p350
sS'ASPEFSW1B'
p351
S'DEG'
p352
sS'1VAHOAT'
p353
S'DEGC'
p354
sS'4PRT2AT'
p355
S'DEGF'
p356
sS'TPC_ESE'
p357
S'DEGF'
p358
sS'HKCBIASLEAKI'
p359
S'uA'
p360
sS'CTSB5V'
p361
g46
sS'AOADACH1A_PCAD'
p362
S'DEG'
p363
sS'PR4TV01T'
p364
S'DEGF'
p365
sS'PLINE10T'
p366
S'DEGF'
p367
sS'AOBETANG'
p368
S'DEG'
p369
sS'1DE28BVO'
p370
g46
sS'AORWMOM2'
p371
S'FTLBSEC'
p372
sS'4LLL2BT'
p373
S'DEGF'
p374
sS'LUNAREPHEM0_VX'
p375
S'm/s'
p376
sS'LUNAREPHEM0_VY'
p377
S'm/s'
p378
sS'LUNAREPHEM0_VZ'
p379
S'm/s'
p380
sS'PFTANKIP'
p381
S'PSIA'
p382
sS'3TRMTRAT'
p383
S'DEGC'
p384
sS'TFSPCMM'
p385
S'DEGF'
p386
sS'EORTDMN19D'
p387
S'DEGF'
p388
sS'OOBTHR02_WIDE'
p389
S'DEGF'
p390
sS'4MP5BV'
p391
S'VDC'
p392
sS'3TTRALAT'
p393
S'DEGC'
p394
sS'TFSPCMP'
p395
S'DEGF'
p396
sS'3TTHRC2T'
p397
S'DEGC'
p398
sS'AOYABR'
p399
S'RAD'
p400
sS'TIME'
p401
S's'
p402
sS'EORTDMN12D'
p403
S'DEGF'
p404
sS'AOSAEST1'
p405
S'RAD'
p406
sS'AOSAEST2'
p407
S'RAD'
p408
sS'4RT565T'
p409
S'DEGF'
p410
sS'1DEP2BVO'
p411
g46
sS'4RT594T'
p412
S'DEGF'
p413
sS'4RT701T'
p414
S'DEGF'
p415
sS'AORWINT6'
p416
S'MSEC'
p417
sS'SOLAREPHEM1_VZ'
p418
S'm/s'
p419
sS'OOBTHR08_WIDE'
p420
S'DEGF'
p421
sS'SOLAREPHEM1_VX'
p422
S'm/s'
p423
sS'SOLAREPHEM1_VY'
p424
S'm/s'
p425
sS'AOADACH2A_NBG'
p426
S'DEG'
p427
sS'AFLC10BI'
p428
S'MAMP'
p429
sS'CSSR1CAV'
p430
g46
sS'EOEB2DIC'
p431
S'AMP'
p432
sS'EOEBCC'
p433
S'AMP'
p434
sS'4IP5AV'
p435
S'VDC'
p436
sS'1DACTAT'
p437
S'DEG'
p438
sS'4SP51V'
p439
S'VDC'
p440
sS'C10VREFB'
p441
S'VDC'
p442
sS'C10VREFA'
p443
S'VDC'
p444
sS'EOEB2VC'
p445
g46
sS'AWD1CV5V'
p446
g46
sS'AFLCA8BI'
p447
S'MAMP'
p448
sS'PLAED1DT'
p449
S'DEGF'
p450
sS'EOEB1VC'
p451
g46
sS'TESH2'
p452
S'DEGF'
p453
sS'3BTU_BPT'
p454
S'DEGC'
p455
sS'EOESAC2C'
p456
S'AMP'
p457
sS'6BETANG'
p458
S'DEG'
p459
sS'EOEBCC_LOW'
p460
S'AMP'
p461
sS'HKP5I'
p462
S'mA'
p463
sS'1OAHBT'
p464
S'DEGC'
p465
sS'1DAHBCU'
p466
S'AMP'
p467
sS'PMTANKP'
p468
S'PSIA'
p469
sS'AFLCA5BI'
p470
S'MAMP'
p471
sS'PLAED3HT'
p472
S'DEGF'
p473
sS'4RT583T'
p474
S'DEGF'
p475
sS'HKP5V'
p476
S'V'
p477
sS'OHRTHR51_WIDE'
p478
S'DEGF'
p479
sS'AIOAP5CV'
p480
g46
sS'HKN6V'
p481
S'V'
p482
sS'4RT593T'
p483
S'DEGF'
p484
sS'TATECDRT'
p485
S'DEGF'
p486
sS'OOBTHR44_WIDE'
p487
S'DEGF'
p488
sS'HKGHV'
p489
S'V'
p490
sS'4PRT5BT'
p491
S'DEGF'
p492
sS'4LLL1BT'
p493
S'DEGF'
p494
sS'TCM_RFAS'
p495
S'DEGF'
p496
sS'OHRTHR11_WIDE'
p497
S'DEGF'
p498
sS'ANGLEEPHEM_POINT_SUNLIMBANG'
p499
S'deg'
p500
sS'TESH1'
p501
S'DEGF'
p502
sS'6SARATC1'
p503
S'RADPS'
p504
sS'PMTANK3T'
p505
S'DEGF'
p506
sS'PR3TV02T'
p507
S'DEGF'
p508
sS'3TSPZSPT'
p509
S'DEGC'
p510
sS'1DEP3BVO'
p511
g46
sS'ORBITEPHEM1_TIME'
p512
S's'
p513
sS'PLAED4BT'
p514
S'DEGF'
p515
sS'ADE1P5CV'
p516
g46
sS'6RWSPD1'
p517
S'RADPS'
p518
sS'6RWSPD3'
p519
S'RADPS'
p520
sS'6RWSPD2'
p521
S'RADPS'
p522
sS'6RWSPD5'
p523
S'RADPS'
p524
sS'6RWSPD4'
p525
S'RADPS'
p526
sS'POLINE03T'
p527
S'DEGF'
p528
sS'OHRTHR21_WIDE'
p529
S'DEGF'
p530
sS'TFSSBKT1'
p531
S'DEGF'
p532
sS'EB2DI'
p533
S'AMP'
p534
sS'TFSSBKT2'
p535
S'DEGF'
p536
sS'TRSPRWBB'
p537
S'DEGF'
p538
sS'TRSPRWBC'
p539
S'DEGF'
p540
sS'ANGLEEPHEM_POINT_MOONLIMBANG'
p541
S'deg'
p542
sS'FPTEMP_11'
p543
g258
sS'FPTEMP_12'
p544
g258
sS'AORWPI1B'
p545
S'MSEC'
p546
sS'EB1DI'
p547
S'AMP'
p548
sS'PLAED3FT'
p549
S'DEGF'
p550
sS'LUNAREPHEM1_X'
p551
S'm'
p552
sS'LUNAREPHEM1_Y'
p553
S'm'
p554
sS'LUNAREPHEM1_Z'
p555
S'm'
p556
sS'TSCIUSF2'
p557
S'DEGF'
p558
sS'TSCIUSF5'
p559
S'DEGF'
p560
sS'AVD1CV5V'
p561
g46
sS'AOACINTT'
p562
S'MSEC'
p563
sS'TSCIUSF8'
p564
S'DEGF'
p565
sS'2SHEV2RT'
p566
S'HZ'
p567
sS'1HOPRAPR'
p568
S'TORR'
p569
sS'ADE2P5CV'
p570
g46
sS'OOBTHR06_WIDE'
p571
S'DEGF'
p572
sS'OHRTHR02_WIDE'
p573
S'DEGF'
p574
sS'3TTACS3T'
p575
S'DEGC'
p576
sS'CTSA15V'
p577
g46
sS'PFDM102T'
p578
S'DEGF'
p579
sS'4MP28AV'
p580
S'VDC'
p581
sS'OOBTHR26_WIDE'
p582
S'DEGF'
p583
sS'OHRTHR60'
p584
S'DEGF'
p585
sS'PLAED2AT'
p586
S'DEGF'
p587
sS'TAPEA1T'
p588
S'DEGF'
p589
sS'OOBTHR31_WIDE'
p590
S'DEGF'
p591
sS'2P24VBVL'
p592
S'VDC'
p593
sS'OOBTHR04_WIDE'
p594
S'DEGF'
p595
sS'1DEP3AVO'
p596
g46
sS'AIRU1G2T'
p597
S'DEGF'
p598
sS'TPC_CEA'
p599
S'DEGF'
p600
sS'AIRU1G2I'
p601
S'MAMP'
p602
sS'TSAMYT'
p603
S'DEGF'
p604
sS'TEP_PSU2'
p605
S'DEGF'
p606
sS'TPZLGABM'
p607
S'DEGF'
p608
sS'TEP_PSU1'
p609
S'DEGF'
p610
sS'AOCSSI1'
p611
S'MAMP'
p612
sS'AOCSSI3'
p613
S'MAMP'
p614
sS'AIRU2G1T'
p615
S'DEGF'
p616
sS'AOCSSI4'
p617
S'MAMP'
p618
sS'AIRU2G1I'
p619
S'MAMP'
p620
sS'CTUB15V'
p621
g46
sS'TB3T1'
p622
S'DEGF'
p623
sS'TB3T2'
p624
S'DEGF'
p625
sS'TB3T3'
p626
S'DEGF'
p627
sS'1DP28BVO'
p628
g46
sS'PFDM201T'
p629
S'DEGF'
p630
sS'OOBTHR21_WIDE'
p631
S'DEGF'
p632
sS'1PDEABT'
p633
S'DEGC'
p634
sS'PLAED2HT'
p635
S'DEGF'
p636
sS'TFSSHDT1'
p637
S'DEGF'
p638
sS'TFSSHDT2'
p639
S'DEGF'
p640
sS'3SDFAMT'
p641
g258
sS'OOBTHR14_WIDE'
p642
S'DEGF'
p643
sS'TCM_SSR2'
p644
S'DEGF'
p645
sS'3FLCABPT'
p646
S'DEGC'
p647
sS'OHRTHR18'
p648
S'DEGF'
p649
sS'OHRTHR19'
p650
S'DEGF'
p651
sS'PFTANK2T'
p652
S'DEGF'
p653
sS'OHRTHR14'
p654
S'DEGF'
p655
sS'OHRTHR15'
p656
S'DEGF'
p657
sS'OHRTHR12'
p658
S'DEGF'
p659
sS'OHRTHR13'
p660
S'DEGF'
p661
sS'OHRTHR10'
p662
S'DEGF'
p663
sS'OHRTHR11'
p664
S'DEGF'
p665
sS'4PRTBV'
p666
S'VDC'
p667
sS'CIUB15V'
p668
g46
sS'SOLAREPHEM1_Y'
p669
S'm'
p670
sS'HKFBIASLEAKI'
p671
S'uA'
p672
sS'ANGLEEPHEM_POINT_EARTHCENTANG'
p673
S'deg'
p674
sS'OHRTHR33_WIDE'
p675
S'DEGF'
p676
sS'EORTDMN24D'
p677
S'DEGF'
p678
sS'AIRU2BT'
p679
S'DEGF'
p680
sS'AORWSPD1'
p681
S'RADPS'
p682
sS'AORWSPD2'
p683
S'RADPS'
p684
sS'AORWSPD3'
p685
S'RADPS'
p686
sS'AORWSPD4'
p687
S'RADPS'
p688
sS'AORWSPD5'
p689
S'RADPS'
p690
sS'OOBTHR23_WIDE'
p691
S'DEGF'
p692
sS'PM1THV1T'
p693
S'DEGF'
p694
sS'DEAM6VOLTA'
p695
S'V'
p696
sS'DEAM6VOLTB'
p697
S'V'
p698
sS'EORTDMN13D'
p699
S'DEGF'
p700
sS'4RT564T'
p701
S'DEGF'
p702
sS'TMP_BEP_PCB'
p703
g258
sS'OOBTHR33_WIDE'
p704
S'DEGF'
p705
sS'EORTDMN21D'
p706
S'DEGF'
p707
sS'PM3THV2T'
p708
S'DEGF'
p709
sS'PLINE04T'
p710
S'DEGF'
p711
sS'OHRTHR07_WIDE'
p712
S'DEGF'
p713
sS'EORTDMN28D'
p714
S'DEGF'
p715
sS'AOFFTQ3'
p716
S'FTLB'
p717
sS'4RT578T'
p718
S'DEGF'
p719
sS'AOSPBCS2B'
p720
S'MAMP'
p721
sS'4CSDOAV'
p722
S'VDC'
p723
sS'1WRAT'
p724
S'DEGC'
p725
sS'PLAED1GT'
p726
S'DEGF'
p727
sS'AORESY6_1'
p728
S'RAD'
p729
sS'6RWCMD4'
p730
S'FTLB'
p731
sS'6RWCMD5'
p732
S'FTLB'
p733
sS'6RWCMD6'
p734
S'FTLB'
p735
sS'AFLCA8AI'
p736
S'MAMP'
p737
sS'AORTERR1'
p738
S'RADPS'
p739
sS'6RWCMD1'
p740
S'FTLB'
p741
sS'AORTERR3'
p742
S'RADPS'
p743
sS'6RWCMD3'
p744
S'FTLB'
p745
sS'OOBTHR40_WIDE'
p746
S'DEGF'
p747
sS'TSCTSF4'
p748
S'DEGF'
p749
sS'OOBTHR25_WIDE'
p750
S'DEGF'
p751
sS'4OAVOBAT'
p752
S'DEGF'
p753
sS'6SINTER3'
p754
S'RAD'
p755
sS'3SDFLXAT'
p756
g258
sS'3SDBOXT'
p757
g258
sS'4RT709T'
p758
S'DEGF'
p759
sS'OHRTHR13_WIDE'
p760
S'DEGF'
p761
sS'4RT582T'
p762
S'DEGF'
p763
sS'OOBTHR15_WIDE'
p764
S'DEGF'
p765
sS'AFLCA6AI'
p766
S'MAMP'
p767
sS'4PRT2BT'
p768
S'DEGF'
p769
sS'1DEP2AVO'
p770
g46
sS'3RCTUBPT'
p771
S'DEGC'
p772
sS'6SURTER3'
p773
S'RADPS'
p774
sS'6SURTER2'
p775
S'RADPS'
p776
sS'6SURTER1'
p777
S'RADPS'
p778
sS'OOBTHR49'
p779
S'DEGF'
p780
sS'CRXBV'
p781
g46
sS'OOBTHR47'
p782
S'DEGF'
p783
sS'OOBTHR44'
p784
S'DEGF'
p785
sS'OOBTHR45'
p786
S'DEGF'
p787
sS'OOBTHR42'
p788
S'DEGF'
p789
sS'OOBTHR43'
p790
S'DEGF'
p791
sS'OOBTHR40'
p792
S'DEGF'
p793
sS'OOBTHR41'
p794
S'DEGF'
p795
sS'ASPEB5CV'
p796
g46
sS'CVEEP'
p797
g46
sS'OOBTHR27'
p798
S'DEGF'
p799
sS'AWD2CV5V'
p800
g46
sS'EORTDMN14D'
p801
S'DEGF'
p802
sS'3FAFLBAT'
p803
S'DEGC'
p804
sS'AFLCA7BI'
p805
S'MAMP'
p806
sS'LUNAREPHEM0_Y'
p807
S'm'
p808
sS'LUNAREPHEM0_X'
p809
S'm'
p810
sS'LUNAREPHEM0_Z'
p811
S'm'
p812
sS'3FASEAAT'
p813
S'DEGC'
p814
sS'OOBTHR09_WIDE'
p815
S'DEGF'
p816
sS'OHRTHR29_WIDE'
p817
S'DEGF'
p818
sS'TPC_FSSE'
p819
S'DEGF'
p820
sS'2P15VAVL'
p821
S'VDC'
p822
sS'TRSPRWCM'
p823
S'DEGF'
p824
sS'AORWPI2B'
p825
S'MSEC'
p826
sS'PLAED3ET'
p827
S'DEGF'
p828
sS'3FAPOS'
p829
S'FASTEP'
p830
sS'OHRTHR18_WIDE'
p831
S'DEGF'
p832
sS'CPA1V'
p833
g46
sS'PXTANK1T'
p834
S'DEGF'
p835
sS'OOBTHR02'
p836
S'DEGF'
p837
sS'1DPICACU'
p838
S'AMP'
p839
sS'SOLAREPHEM0_TIME'
p840
S's'
p841
sS'OOBTHR35_WIDE'
p842
S'DEGF'
p843
sS'TOXTSUPN'
p844
S'DEGF'
p845
sS'AOSACMD1'
p846
S'RAD'
p847
sS'4RT589T'
p848
S'DEGF'
p849
sS'TCYLRWC'
p850
S'DEGF'
p851
sS'4RT595T'
p852
S'DEGF'
p853
sS'TCYLAFT5'
p854
S'DEGF'
p855
sS'4RT700T'
p856
S'DEGF'
p857
sS'4OAVHRMT_WIDE'
p858
S'DEGF'
p859
sS'TCYLAFT4'
p860
S'DEGF'
p861
sS'1CBAT'
p862
S'DEGC'
p863
sS'CPA2BPT'
p864
S'DEGF'
p865
sS'PLAED4IT'
p866
S'DEGF'
p867
sS'4PRT4AT'
p868
S'DEGF'
p869
sS'TCYLAFT6'
p870
S'DEGF'
p871
sS'AFLC10AI'
p872
S'MAMP'
p873
sS'4IP5BV'
p874
S'VDC'
p875
sS'1MAHOAT'
p876
S'DEGC'
p877
sS'6SARATC2'
p878
S'RADPS'
p879
sS'POLINE05T'
p880
S'DEGF'
p881
sS'AIRU2G2T'
p882
S'DEGF'
p883
sS'DEA28VOLTA'
p884
S'V'
p885
sS'DEA28VOLTB'
p886
S'V'
p887
sS'3FAFLCAT'
p888
S'DEGC'
p889
sS'AOTQCMD1'
p890
S'FTLB'
p891
sS'AOTQCMD3'
p892
S'FTLB'
p893
sS'AOTQCMD2'
p894
S'FTLB'
p895
sS'CXPNBIT'
p896
S'DEGF'
p897
sS'AIRU2G2I'
p898
S'MAMP'
p899
sS'LUNAREPHEM0_TIME'
p900
S's'
p901
sS'AOSPACS1B'
p902
S'MAMP'
p903
sS'EOEBC'
p904
S'AMP'
p905
sS'AOACYAN7'
p906
S'ASEC'
p907
sS'AFSSPC2V'
p908
g46
sS'TASPRWC'
p909
S'DEGF'
p910
sS'4RT558T'
p911
S'DEGF'
p912
sS'OOBTHR11_WIDE'
p913
S'DEGF'
p914
sS'OOBTHR54_WIDE'
p915
S'DEGF'
p916
sS'1SSPYT'
p917
S'DEGC'
p918
sS'AFLC11AI'
p919
S'MAMP'
p920
sS'AOCMDAC3'
p921
S'RADSS'
p922
sS'PLAED2IT'
p923
S'DEGF'
p924
sS'PLAED4HT'
p925
S'DEGF'
p926
sS'2DTSTATT'
p927
S'DEGC'
p928
sS'AI2AX1Y'
p929
S'DEGPS'
p930
sS'AI2AX1X'
p931
S'DEGPS'
p932
sS'AAOTASMT'
p933
S'DEGF'
p934
sS'6RWSPD6'
p935
S'RADPS'
p936
sS'4LLL1AT'
p937
S'DEGF'
p938
sS'EOESAT2C'
p939
S'DEGF'
p940
sS'PR3TV01T'
p941
S'DEGF'
p942
sS'TBOLTCUT'
p943
S'DEGF'
p944
sS'AFLCAAH'
p945
g46
sS'OHRTHR23_WIDE'
p946
S'DEGF'
p947
sS'PLAED4CT'
p948
S'DEGF'
p949
sS'POLINE02T'
p950
S'DEGF'
p951
sS'EB2CI'
p952
S'AMP'
p953
sS'AORESZ2_1'
p954
S'RAD'
p955
sS'POLAEV2BT'
p956
S'DEGF'
p957
sS'CSSR2CBV'
p958
g46
sS'PLINE05T'
p959
S'DEGF'
p960
sS'CUSOB28V'
p961
g46
sS'TMP_FEP1_ACTEL'
p962
g258
sS'4RT555T'
p963
S'DEGF'
p964
sS'6RWNLTQ1'
p965
S'FTLB'
p966
sS'6RWNLTQ2'
p967
S'FTLB'
p968
sS'ARWA5BT'
p969
S'DEGF'
p970
sS'CSITB5V'
p971
g46
sS'4RT579T'
p972
S'DEGF'
p973
sS'TCM_USO'
p974
S'DEGF'
p975
sS'AOATTER1'
p976
S'RAD'
p977
sS'AOATTER2'
p978
S'RAD'
p979
sS'AOATTER3'
p980
S'RAD'
p981
sS'6RWNLTQ6'
p982
S'FTLB'
p983
sS'AWD5TQI'
p984
S'AMP'
p985
sS'ECNV1V'
p986
g46
sS'PLAED2BT'
p987
S'DEGF'
p988
sS'OHRTHR03'
p989
S'DEGF'
p990
sS'OHRTHR02'
p991
S'DEGF'
p992
sS'OHRTHR05'
p993
S'DEGF'
p994
sS'OHRTHR04'
p995
S'DEGF'
p996
sS'OHRTHR07'
p997
S'DEGF'
p998
sS'OHRTHR06'
p999
S'DEGF'
p1000
sS'OHRTHR09'
p1001
S'DEGF'
p1002
sS'OHRTHR08'
p1003
S'DEGF'
p1004
sS'AIRU1VFT'
p1005
S'DEGF'
p1006
sS'AORESZ6_6'
p1007
S'RAD'
p1008
sS'AORESZ6_7'
p1009
S'RAD'
p1010
sS'AORESZ6_4'
p1011
S'RAD'
p1012
sS'AORESZ6_5'
p1013
S'RAD'
p1014
sS'AORESZ6_2'
p1015
S'RAD'
p1016
sS'AORESZ6_3'
p1017
S'RAD'
p1018
sS'AORESZ6_1'
p1019
S'RAD'
p1020
sS'4RT570T'
p1021
S'DEGF'
p1022
sS'3FABRAAT'
p1023
S'DEGC'
p1024
sS'4RT705T'
p1025
S'DEGF'
p1026
sS'ELBI'
p1027
S'AMP'
p1028
sS'AORESZ6_8'
p1029
S'RAD'
p1030
sS'AORESY5_1'
p1031
S'RAD'
p1032
sS'ELBV'
p1033
g46
sS'3SDFATSV'
p1034
S'V'
p1035
sS'3LDRTPOS'
p1036
S'TSCSTEP'
p1037
sS'1DEP0BVO'
p1038
g46
sS'4PRTAV'
p1039
S'VDC'
p1040
sS'AOCMDRT1'
p1041
S'RADPS'
p1042
sS'CPCA15V'
p1043
g46
sS'TMYHNG'
p1044
S'DEGF'
p1045
sS'SIM_Y'
p1046
S'mm'
p1047
sS'SIM_X'
p1048
S'mm'
p1049
sS'SIM_Z'
p1050
S'mm'
p1051
sS'DPAGNDREF1'
p1052
S'V'
p1053
sS'DPAGNDREF2'
p1054
S'V'
p1055
sS'PLINE12T'
p1056
S'DEGF'
p1057
sS'CRXAV'
p1058
g46
sS'C28VMONA'
p1059
g46
sS'AOADACH2A_PCAD'
p1060
S'DEG'
p1061
sS'EORTDMN15D'
p1062
S'DEGF'
p1063
sS'6RWNLTQ5'
p1064
S'FTLB'
p1065
sS'OOBTHR34_WIDE'
p1066
S'DEGF'
p1067
sS'PHETANKP'
p1068
S'PSIA'
p1069
sS'AFLC12BI'
p1070
S'MAMP'
p1071
sS'PFTANK1T'
p1072
S'DEGF'
p1073
sS'AOADBCH1A_PCAD'
p1074
S'DEG'
p1075
sS'AFLCA3AI'
p1076
S'MAMP'
p1077
sS'3SDM15V'
p1078
S'V'
p1079
sS'PFTANKOP'
p1080
S'PSIA'
p1081
sS'AORESZ7'
p1082
S'RAD'
p1083
sS'3TTRALCT'
p1084
S'DEGC'
p1085
sS'2P15VBVL'
p1086
S'VDC'
p1087
sS'AORESZ4'
p1088
S'RAD'
p1089
sS'AORESZ3'
p1090
S'RAD'
p1091
sS'OOBTHR41_WIDE'
p1092
S'DEGF'
p1093
sS'AORESZ0'
p1094
S'RAD'
p1095
sS'AOSPBCS4B'
p1096
S'MAMP'
p1097
sS'4RT567T'
p1098
S'DEGF'
p1099
sS'PFDM101T'
p1100
S'DEGF'
p1101
sS'6RATE2'
p1102
S'RADPS'
p1103
sS'6RATE3'
p1104
S'RADPS'
p1105
sS'6RATE1'
p1106
S'RADPS'
p1107
sS'6SAEST1'
p1108
S'RAD'
p1109
sS'TPCP_RW2'
p1110
S'DEGF'
p1111
sS'6SAEST2'
p1112
S'RAD'
p1113
sS'TPCP_RW3'
p1114
S'DEGF'
p1115
sS'PM1THV2T'
p1116
S'DEGF'
p1117
sS'AOACYAN1'
p1118
S'ASEC'
p1119
sS'AOSCPOS1'
p1120
S'KM'
p1121
sS'AOSCPOS2'
p1122
S'KM'
p1123
sS'AOSCPOS3'
p1124
S'KM'
p1125
sS'4RT588T'
p1126
S'DEGF'
p1127
sS'4MP5AV'
p1128
S'VDC'
p1129
sS'4RT596T'
p1130
S'DEGF'
p1131
sS'PLAED1IT'
p1132
S'DEGF'
p1133
sS'OOBTHR50'
p1134
S'DEGF'
p1135
sS'OOBTHR53'
p1136
S'DEGF'
p1137
sS'OOBTHR52'
p1138
S'DEGF'
p1139
sS'OOBTHR55'
p1140
S'DEGF'
p1141
sS'OOBTHR54'
p1142
S'DEGF'
p1143
sS'OOBTHR57'
p1144
S'DEGF'
p1145
sS'OOBTHR56'
p1146
S'DEGF'
p1147
sS'OOBTHR59'
p1148
S'DEGF'
p1149
sS'OOBTHR58'
p1150
S'DEGF'
p1151
sS'CTXBV'
p1152
g46
sS'ARWA6BT'
p1153
S'DEGF'
p1154
sS'EB3DI'
p1155
S'AMP'
p1156
sS'TPC_PAN'
p1157
S'DEGF'
p1158
sS'6CSSI3'
p1159
S'MAMP'
p1160
sS'1DPAMZT'
p1161
S'DEGC'
p1162
sS'4RT703T'
p1163
S'DEGF'
p1164
sS'1DEP1AVO'
p1165
g46
sS'1MAHOBT'
p1166
S'DEGC'
p1167
sS'4ALL1AT'
p1168
S'DEGF'
p1169
sS'OHRTHR44_WIDE'
p1170
S'DEGF'
p1171
sS'4OAVOBAT_WIDE'
p1172
S'DEGF'
p1173
sS'62RCSTMR'
p1174
S'MIN'
p1175
sS'4RT708T'
p1176
S'DEGF'
p1177
sS'OOBAGRD6'
p1178
S'DEGF'
p1179
sS'TB1T3'
p1180
S'DEGF'
p1181
sS'OHRTHR20_WIDE'
p1182
S'DEGF'
p1183
sS'TB1T1'
p1184
S'DEGF'
p1185
sS'OOBAGRD3'
p1186
S'DEGF'
p1187
sS'EB3CI'
p1188
S'AMP'
p1189
sS'AORESZ1_1'
p1190
S'RAD'
p1191
sS'TATECDPT'
p1192
S'DEGF'
p1193
sS'4RT581T'
p1194
S'DEGF'
p1195
sS'1HOPRBPR'
p1196
S'TORR'
p1197
sS'1CRBT'
p1198
S'DEGC'
p1199
sS'AORWPI4B'
p1200
S'MSEC'
p1201
sS'TCM_PAN'
p1202
S'DEGF'
p1203
sS'CTXAV'
p1204
g46
sS'3SDP15V'
p1205
S'V'
p1206
sS'TFSPPCM'
p1207
S'DEGF'
p1208
sS'EB1CI'
p1209
S'AMP'
p1210
sS'TFSPPCP'
p1211
S'DEGF'
p1212
sS'CUSOAOVN'
p1213
S'W'
p1214
sS'1DPP0BVO'
p1215
g46
sS'POM1THV2T'
p1216
S'DEGF'
p1217
sS'ANGLEEPHEM_SUN_EARTHCENTANG'
p1218
S'deg'
p1219
sS'TEPHIN'
p1220
S'DEGF'
p1221
sS'ELBI_LOW'
p1222
S'AMP'
p1223
sS'4PRT1AT'
p1224
S'DEGF'
p1225
sS'4RT710T'
p1226
S'DEGF'
p1227
sS'TMP_FEP0_RAM'
p1228
g258
sS'AOZABR'
p1229
S'RAD'
p1230
sS'AORESZ5_1'
p1231
S'RAD'
p1232
sS'TB2T3'
p1233
S'DEGF'
p1234
sS'TB2T2'
p1235
S'DEGF'
p1236
sS'4HLL1BT'
p1237
S'DEGF'
p1238
sS'ANGLEEPHEM_SUN_EARTHLIMBANG'
p1239
S'deg'
p1240
sS'AORWPI3B'
p1241
S'MSEC'
p1242
sS'ORBITEPHEM0_VX'
p1243
S'm/s'
p1244
sS'PXTANK2T'
p1245
S'DEGF'
p1246
sS'3TSMYDPT'
p1247
S'DEGC'
p1248
sS'ORBITEPHEM0_VY'
p1249
S'm/s'
p1250
sS'3TTACS1T'
p1251
S'DEGC'
p1252
sS'AORESY2_1'
p1253
S'RAD'
p1254
sS'ORBITEPHEM0_VZ'
p1255
S'm/s'
p1256
sS'CUSOA28V'
p1257
g46
sS'2TLEV2RT'
p1258
S'HZ'
p1259
sS'OOBTHR33'
p1260
S'DEGF'
p1261
sS'AORWSPD6'
p1262
S'RADPS'
p1263
sS'ES1P5CV'
p1264
g46
sS'6SUNER2'
p1265
S'RAD'
p1266
sS'OHRTHR05_WIDE'
p1267
S'DEGF'
p1268
sS'POR1TV01T'
p1269
S'DEGF'
p1270
sS'PLAED2CT'
p1271
S'DEGF'
p1272
sS'OOBTHR30'
p1273
S'DEGF'
p1274
sS'ECNV2V'
p1275
g46
sS'EOEB1CIC'
p1276
S'AMP'
p1277
sS'AACCCDRT'
p1278
S'DEGF'
p1279
sS'3TSMXSPT'
p1280
S'DEGC'
p1281
sS'PLINE15T'
p1282
S'DEGF'
p1283
sS'AHKNATPR'
p1284
g46
sS'HKDBIASLEAKI'
p1285
S'uA'
p1286
sS'61RCSTMR'
p1287
S'MIN'
p1288
sS'AORWBTQ5'
p1289
S'FTLB'
p1290
sS'TMP_FEP1_FB'
p1291
g258
sS'SOLAREPHEM1_Z'
p1292
S'm'
p1293
sS'POLINE04T'
p1294
S'DEGF'
p1295
sS'SOLAREPHEM1_X'
p1296
S'm'
p1297
sS'OOBTHR29_WIDE'
p1298
S'DEGF'
p1299
sS'OOBTHR53_WIDE'
p1300
S'DEGF'
p1301
sS'PLAEV3AT'
p1302
S'DEGF'
p1303
sS'AFLCA1AI'
p1304
S'MAMP'
p1305
sS'4RT585T'
p1306
S'DEGF'
p1307
sS'OHRTHR36_WIDE'
p1308
S'DEGF'
p1309
sS'2DCENTRT'
p1310
S'DEGC'
p1311
sS'TPC_WDA'
p1312
S'DEGF'
p1313
sS'EPA15V'
p1314
g46
sS'3SDP5V'
p1315
S'V'
p1316
sS'AOSPACS2B'
p1317
S'MAMP'
p1318
sS'AODVTIME'
p1319
S'SEC'
p1320
sS'AODITHR3'
p1321
S'RAD'
p1322
sS'AODITHR2'
p1323
S'RAD'
p1324
sS'AODITHR1'
p1325
S'RAD'
p1326
sS'POLINE16T'
p1327
S'DEGF'
p1328
sS'AORESY1_1'
p1329
S'RAD'
p1330
sS'ANGLEEPHEM_POINT_SUNCENTANG'
p1331
S'deg'
p1332
sS'EPB15V'
p1333
g46
sS'3FARALAT'
p1334
S'DEGC'
p1335
sS'TMP_FEP0_FB'
p1336
g258
sS'TCM_PA2'
p1337
S'DEGF'
p1338
sS'HKABIASLEAKI'
p1339
S'uA'
p1340
sS'TMP_FEP1_RAM'
p1341
g258
sS'OHRTHR49_WIDE'
p1342
S'DEGF'
p1343
sS'AORATE1'
p1344
S'RADPS'
p1345
sS'AORATE3'
p1346
S'RADPS'
p1347
sS'AORATE2'
p1348
S'RADPS'
p1349
sS'ESAPYI'
p1350
S'AMP'
p1351
sS'PHETANKT'
p1352
S'DEGF'
p1353
sS'OHRTHR09_WIDE'
p1354
S'DEGF'
p1355
sS'EORTDMN23D'
p1356
S'DEGF'
p1357
sS'TFSPPCU'
p1358
S'DEGF'
p1359
sS'PLINE02T'
p1360
S'DEGF'
p1361
sS'2VLEV2RT'
p1362
S'HZ'
p1363
sS'AWD3TQI'
p1364
S'AMP'
p1365
sS'AAOTH2MT'
p1366
S'DEGF'
p1367
sS'PLAED2DT'
p1368
S'DEGF'
p1369
sS'POR2TV01T'
p1370
S'DEGF'
p1371
sS'TCYLCMM'
p1372
S'DEGF'
p1373
sS'4RT556T'
p1374
S'DEGF'
p1375
sS'AFLCA4BI'
p1376
S'MAMP'
p1377
sS'PM4THV1T'
p1378
S'DEGF'
p1379
sS'CSITA15V'
p1380
g46
sS'AFLC13AI'
p1381
S'MAMP'
p1382
sS'AWD4CV5V'
p1383
g46
sS'4RT576T'
p1384
S'DEGF'
p1385
sS'AIRU1G1T'
p1386
S'DEGF'
p1387
sS'PR2TV02T'
p1388
S'DEGF'
p1389
sS'DEAM15VOLTB'
p1390
S'V'
p1391
sS'DEAM15VOLTA'
p1392
S'V'
p1393
sS'2P05VAVL'
p1394
S'VDC'
p1395
sS'1VAHCBT'
p1396
S'DEGC'
p1397
sS'PM2THV1T'
p1398
S'DEGF'
p1399
sS'OHRTHR34_WIDE'
p1400
S'DEGF'
p1401
sS'6RWCMD2'
p1402
S'FTLB'
p1403
sS'PLAED1AT'
p1404
S'DEGF'
p1405
sS'5EIOT'
p1406
S'DEGC'
p1407
sS'4RT580T'
p1408
S'DEGF'
p1409
sS'TEP_PCU'
p1410
S'DEGF'
p1411
sS'TAPE1PST'
p1412
S'DEGF'
p1413
sS'AOCSSI2'
p1414
S'MAMP'
p1415
sS'AIRU1G1I'
p1416
S'MAMP'
p1417
sS'OOBTHR24'
p1418
S'DEGF'
p1419
sS'6TQCMD1'
p1420
S'FTLB'
p1421
sS'6TQCMD2'
p1422
S'FTLB'
p1423
sS'6TQCMD3'
p1424
S'FTLB'
p1425
sS'OOBTHR20'
p1426
S'DEGF'
p1427
sS'OOBTHR21'
p1428
S'DEGF'
p1429
sS'OOBTHR22'
p1430
S'DEGF'
p1431
sS'OOBTHR23'
p1432
S'DEGF'
p1433
sS'PR1TV01T'
p1434
S'DEGF'
p1435
sS'AVD2CV5V'
p1436
g46
sS'OOBTHR28'
p1437
S'DEGF'
p1438
sS'OOBTHR29'
p1439
S'DEGF'
p1440
sS'OOBTHR12_WIDE'
p1441
S'DEGF'
p1442
sS'3TTHRC3T'
p1443
S'DEGC'
p1444
sS'EORTDMN16D'
p1445
S'DEGF'
p1446
sS'2FHTRMZT'
p1447
S'DEGC'
p1448
sS'AOSAANG1'
p1449
S'RAD'
p1450
sS'AOSAANG2'
p1451
S'RAD'
p1452
sS'6MUPCNT3'
p1453
S'SEC'
p1454
sS'6MUPCNT2'
p1455
S'SEC'
p1456
sS'6MUPCNT1'
p1457
S'SEC'
p1458
sS'4RT561T'
p1459
S'DEGF'
p1460
sS'6MUPCNT4'
p1461
S'SEC'
p1462
sS'AWD4TQI'
p1463
S'AMP'
p1464
sS'4LLL2AT'
p1465
S'DEGF'
p1466
sS'AWD5CV5V'
p1467
g46
sS'HKBBIASLEAKI'
p1468
S'uA'
p1469
sS'4ALL1BT'
p1470
S'DEGF'
p1471
sS'AFLCA2BI'
p1472
S'MAMP'
p1473
sS'4RT711T'
p1474
S'DEGF'
p1475
sS'OHRTHR52_WIDE'
p1476
S'DEGF'
p1477
sS'AGWS2V'
p1478
g46
sS'3SDTSTSV'
p1479
S'V'
p1480
sS'AOIRERL1'
p1481
S'RAD'
p1482
sS'AOIRERL2'
p1483
S'RAD'
p1484
sS'AOIRERL3'
p1485
S'RAD'
p1486
sS'PLAEV2BT'
p1487
S'DEGF'
p1488
sS'4RT598T'
p1489
S'DEGF'
p1490
sS'POLAEV1AT'
p1491
S'DEGF'
p1492
sS'ASPEFSW3B'
p1493
S'DEG'
p1494
sS'ANGLEEPHEM_TIME'
p1495
S's'
p1496
sS'LUNAREPHEM1_VZ'
p1497
S'm/s'
p1498
sS'LUNAREPHEM1_VY'
p1499
S'm/s'
p1500
sS'LUNAREPHEM1_VX'
p1501
S'm/s'
p1502
sS'AI1AX1Y'
p1503
S'DEGPS'
p1504
sS'1DP28AVO'
p1505
g46
sS'OHRTHR26_WIDE'
p1506
S'DEGF'
p1507
sS'3SDPST'
p1508
g258
sS'4RT587T'
p1509
S'DEGF'
p1510
sS'AI1AX2Y'
p1511
S'DEGPS'
p1512
sS'AI1AX2X'
p1513
S'DEGPS'
p1514
sS'SOLAREPHEM0_X'
p1515
S'm'
p1516
sS'SOLAREPHEM0_Y'
p1517
S'm'
p1518
sS'1PIN1AT'
p1519
S'DEGC'
p1520
sS'OOBTHR28_WIDE'
p1521
S'DEGF'
p1522
sS'63RCSTMR'
p1523
S'MIN'
p1524
sS'OOBTHR13_WIDE'
p1525
S'DEGF'
p1526
sS'TCNR_BRM'
p1527
S'DEGF'
p1528
sS'TCM_IFU'
p1529
S'DEGF'
p1530
sS'4RT569T'
p1531
S'DEGF'
p1532
sS'4RT597T'
p1533
S'DEGF'
p1534
sS'4RT702T'
p1535
S'DEGF'
p1536
sS'AACH1T'
p1537
S'DEGF'
p1538
sS'POLINE07T'
p1539
S'DEGF'
p1540
sS'AFLCA9AI'
p1541
S'MAMP'
p1542
sS'HKP27I'
p1543
S'mA'
p1544
sS'AFLCA1BI'
p1545
S'MAMP'
p1546
sS'HKP27V'
p1547
S'V'
p1548
sS'3SDFLXBT'
p1549
g258
sS'4VRMHAV'
p1550
S'VDC'
p1551
sS'2FRADPYT'
p1552
S'DEGC'
p1553
sS'PCM01T'
p1554
S'DEGF'
p1555
sS'C28VMONB'
p1556
g46
sS'OHRTHR22_WIDE'
p1557
S'DEGF'
p1558
sS'1DEP1BVO'
p1559
g46
sS'AOSPACS3B'
p1560
S'MAMP'
p1561
sS'ES2P5CV'
p1562
g46
sS'AORWPI5B'
p1563
S'MSEC'
p1564
sS'CUSOBOVN'
p1565
g1214
sS'4HFSPAT'
p1566
S'DEGF'
p1567
sS'OOBTHR25'
p1568
S'DEGF'
p1569
sS'POM1THV1T'
p1570
S'DEGF'
p1571
sS'OOBTHR50_WIDE'
p1572
S'DEGF'
p1573
sS'AOACZAN5'
p1574
S'ASEC'
p1575
sS'PLAED4AT'
p1576
S'DEGF'
p1577
sS'AOACZAN7'
p1578
S'ASEC'
p1579
sS'AOACZAN6'
p1580
S'ASEC'
p1581
sS'AOACZAN1'
p1582
S'ASEC'
p1583
sS'AOACZAN0'
p1584
S'ASEC'
p1585
sS'AOACZAN3'
p1586
S'ASEC'
p1587
sS'AOACZAN2'
p1588
S'ASEC'
p1589
sS'OOBTHR26'
p1590
S'DEGF'
p1591
sS'CRXALS'
p1592
S'KHZ'
p1593
sS'AOSRERR1'
p1594
S'RADPS'
p1595
sS'AOSRERR2'
p1596
S'RADPS'
p1597
sS'AOSRERR3'
p1598
S'RADPS'
p1599
sS'CXO5VOBB'
p1600
g46
sS'TPC_RCTU'
p1601
S'DEGF'
p1602
sS'CXO5VOBA'
p1603
g46
sS'EORTDMN22D'
p1604
S'DEGF'
p1605
sS'PM3THV1T'
p1606
S'DEGF'
p1607
sS'3SDMAJFP'
p1608
S's'
p1609
sS'OHRTHR03_WIDE'
p1610
S'DEGF'
p1611
sS'AOETIMEX'
p1612
S'SEC'
p1613
sS'2CONDMXT'
p1614
S'DEGC'
p1615
sS'6SARES2'
p1616
S'DEG'
p1617
sS'6SARES1'
p1618
S'DEG'
p1619
sS'1DEN0BVO'
p1620
g46
sS'4IP15BV'
p1621
S'VDC'
p1622
sS'4ALL2BT'
p1623
S'DEGF'
p1624
sS'CIUB5V'
p1625
g46
sS'3FAMTRAT'
p1626
S'DEGC'
p1627
sS'CTUA15V'
p1628
g46
sS'4CSDHBV'
p1629
S'VDC'
p1630
sS'OHRTHR42_WIDE'
p1631
S'DEGF'
p1632
sS'PLAED2ET'
p1633
S'DEGF'
p1634
sS'AOINTTIM'
p1635
S'SEC'
p1636
sS'3TTBRGBT'
p1637
S'DEGC'
p1638
sS'AORWINT1'
p1639
S'MSEC'
p1640
sS'AORWINT2'
p1641
S'MSEC'
p1642
sS'AORWINT3'
p1643
S'MSEC'
p1644
sS'AORWINT4'
p1645
S'MSEC'
p1646
sS'AORWINT5'
p1647
S'MSEC'
p1648
sS'4RT557T'
p1649
S'DEGF'
p1650
sS'AFLCA4AI'
p1651
S'MAMP'
p1652
sS'EORTDMN25D'
p1653
S'DEGF'
p1654
sS'AORESY3'
p1655
S'RAD'
p1656
sS'4RT577T'
p1657
S'DEGF'
p1658
sS'4IN15AV'
p1659
S'VDC'
p1660
sS'4PRT3BT'
p1661
S'DEGF'
p1662
sS'OOBTHR03_WIDE'
p1663
S'DEGF'
p1664
sS'ARWA3BT'
p1665
S'DEGF'
p1666
sS'OHRTHR63'
p1667
S'DEGF'
p1668
sS'OHRTHR62'
p1669
S'DEGF'
p1670
sS'OHRTHR61'
p1671
S'DEGF'
p1672
sS'EOEB3CIC'
p1673
S'AMP'
p1674
sS'AOSYMOM3'
p1675
S'FTLBSEC'
p1676
sS'AOSYMOM2'
p1677
S'FTLBSEC'
p1678
sS'AOSYMOM1'
p1679
S'FTLBSEC'
p1680
sS'AFLCA2AI'
p1681
S'MAMP'
p1682
sS'PLAEV1BT'
p1683
S'DEGF'
p1684
sS'TCYLAFT1'
p1685
S'DEGF'
p1686
sS'3MRMMXMV'
p1687
S'PWMSTEP'
p1688
sS'OOBTHR63_WIDE'
p1689
S'DEGF'
p1690
sS'OHRTHR04_WIDE'
p1691
S'DEGF'
p1692
sS'ECNV3V'
p1693
g46
sS'4RT559T'
p1694
S'DEGF'
p1695
sS'TSCTSF1'
p1696
S'DEGF'
p1697
sS'TSCTSF2'
p1698
S'DEGF'
p1699
sS'TSCTSF3'
p1700
S'DEGF'
p1701
sS'OHRTHR53_WIDE'
p1702
S'DEGF'
p1703
sS'TSCTSF5'
p1704
S'DEGF'
p1705
sS'TSCTSF6'
p1706
S'DEGF'
p1707
sS'AFLCA6BI'
p1708
S'MAMP'
p1709
sS'TEP_PPAN'
p1710
S'DEGF'
p1711
sS'PLINE14T'
p1712
S'DEGF'
p1713
sS'1DEICACU'
p1714
S'AMP'
p1715
sS'OHRTHR17'
p1716
S'DEGF'
p1717
sS'1MAHCAT'
p1718
S'DEGC'
p1719
sS'HKEBOXTEMP'
p1720
S'DEGF'
p1721
sS'AOAVGDTQ'
p1722
S'FTLB'
p1723
sS'EORTDMN17D'
p1724
S'DEGF'
p1725
sS'TMP_FEP1_PCB'
p1726
g258
sS'4RT560T'
p1727
S'DEGF'
p1728
sS'AOMANANG'
p1729
S'RAD'
p1730
sS'OHRTHR06_WIDE'
p1731
S'DEGF'
p1732
sS'AFLCA7AI'
p1733
S'MAMP'
p1734
sS'ORBITEPHEM1_X'
p1735
S'm'
p1736
sS'ORBITEPHEM1_Y'
p1737
S'm'
p1738
sS'ORBITEPHEM1_Z'
p1739
S'm'
p1740
sS'ANGLEEPHEM_DIST_SATEARTH'
p1741
S'm'
p1742
sS'OOBTHR19_WIDE'
p1743
S'DEGF'
p1744
sS'PLINE08T'
p1745
S'DEGF'
p1746
sS'OHRTHR27_WIDE'
p1747
S'DEGF'
p1748
sS'AFSSPC1V'
p1749
g46
sS'TMP_FEP1_MONG'
p1750
g258
sS'DEAP6VOLTA'
p1751
S'V'
p1752
sS'DEAP6VOLTB'
p1753
S'V'
p1754
sS'AORWNTQ1'
p1755
S'FTLB'
p1756
sS'4RT586T'
p1757
S'DEGF'
p1758
sS'AORWNTQ3'
p1759
S'FTLB'
p1760
sS'OOBTHR37'
p1761
S'DEGF'
p1762
sS'OOBTHR36'
p1763
S'DEGF'
p1764
sS'OOBTHR35'
p1765
S'DEGF'
p1766
sS'OOBTHR34'
p1767
S'DEGF'
p1768
sS'CUSOBIT'
p1769
S'DEGF'
p1770
sS'OHRTHR25_WIDE'
p1771
S'DEGF'
p1772
sS'OOBTHR31'
p1773
S'DEGF'
p1774
sS'6SUNER3'
p1775
S'RAD'
p1776
sS'OOBTHR39'
p1777
S'DEGF'
p1778
sS'OOBTHR38'
p1779
S'DEGF'
p1780
sS'OOBTHR51_WIDE'
p1781
S'DEGF'
p1782
sS'PM2THV2T'
p1783
S'DEGF'
p1784
sS'AVACMONV'
p1785
g46
sS'4RT590T'
p1786
S'DEGF'
p1787
sS'1OAHAT'
p1788
S'DEGC'
p1789
sS'ARWA4BT'
p1790
S'DEGF'
p1791
sS'PLAEV4AT'
p1792
S'DEGF'
p1793
sS'AOMANRT'
p1794
S'RADPS'
p1795
sS'4PRT1BT'
p1796
S'DEGF'
p1797
sS'OOBTHR07_WIDE'
p1798
S'DEGF'
p1799
sS'1VAHCAT'
p1800
S'DEGC'
p1801
sS'TRSPOTPC'
p1802
S'DEGF'
p1803
sS'PLAED3CT'
p1804
S'DEGF'
p1805
sS'AIOBP5CV'
p1806
g46
sS'AOFFTQ1'
p1807
S'FTLB'
p1808
sS'AOFFTQ2'
p1809
S'FTLB'
p1810
sS'SOLAREPHEM0_VY'
p1811
S'm/s'
p1812
sS'SOLAREPHEM0_VX'
p1813
S'm/s'
p1814
sS'SOLAREPHEM0_VZ'
p1815
S'm/s'
p1816
sS'ORBITEPHEM1_VZ'
p1817
S'm/s'
p1818
sS'ORBITEPHEM1_VY'
p1819
S'm/s'
p1820
sS'ORBITEPHEM1_VX'
p1821
S'm/s'
p1822
sS'AOADBCH2A_PCAD'
p1823
S'DEG'
p1824
sS'AORWPI6B'
p1825
S'MSEC'
p1826
sS'EOECNV1C'
p1827
g46
sS'AFLCABH'
p1828
g46
sS'AFLCA3BI'
p1829
S'MAMP'
p1830
sS'POLAEV1BT'
p1831
S'DEGF'
p1832
sS'AAOTALT'
p1833
S'DEGF'
p1834
sS'OHRTHR50_WIDE'
p1835
S'DEGF'
p1836
sS'3TSPYFET'
p1837
S'DEGC'
p1838
sS'AOCMDRT2'
p1839
S'RADPS'
p1840
sS'AOCMDRT3'
p1841
S'RADPS'
p1842
sS'AI2AX2X'
p1843
S'DEGPS'
p1844
sS'OOBTHR46_WIDE'
p1845
S'DEGF'
p1846
sS'4RT704T'
p1847
S'DEGF'
p1848
sS'1DEN1BVO'
p1849
g46
sS'4SP52V'
p1850
S'VDC'
p1851
sS'EORTDMN29D'
p1852
S'DEGF'
p1853
sS'PLAED3BT'
p1854
S'DEGF'
p1855
sS'OOBTHR39_WIDE'
p1856
S'DEGF'
p1857
sS'PXTANKOP'
p1858
S'PSIA'
p1859
sS'4OAVHRMT'
p1860
S'DEGF'
p1861
sS'PFFP01T'
p1862
S'DEGF'
p1863
sS'2N15VAVL'
p1864
S'VDC'
p1865
sS'2N15VBVL'
p1866
S'VDC'
p1867
sS'OOBTHR27_WIDE'
p1868
S'DEGF'
p1869
sS'ASPEFSW2B'
p1870
S'DEG'
p1871
sS'HKEBIASLEAKI'
p1872
S'uA'
p1873
sS'1DEP0AVO'
p1874
g46
sS'OOBTHR18_WIDE'
p1875
S'DEGF'
p1876
sS'4PRT3AT'
p1877
S'DEGF'
p1878
sS'PMTANK2T'
p1879
S'DEGF'
p1880
sS'AACBPPT'
p1881
S'DEGF'
p1882
sS'4HPOSBRO'
p1883
S'DEG'
p1884
sS'1PDEAAT'
p1885
S'DEGC'
p1886
sS'PCM02T'
p1887
S'DEGF'
p1888
sS'3FAMYZAT'
p1889
S'DEGC'
p1890
sS'AACCCDPT'
p1891
S'DEGF'
p1892
sS'OHRTHR56_WIDE'
p1893
S'DEGF'
p1894
sS'OOBTHR51'
p1895
S'DEGF'
p1896
sS'AOSPBCS3B'
p1897
S'MAMP'
p1898
sS'AWD1TQI'
p1899
S'AMP'
p1900
sS'TCM_TX2'
p1901
S'DEGF'
p1902
sS'TCM_TX1'
p1903
S'DEGF'
p1904
sS'CTUA5V'
p1905
g46
sS'TMZP_CNT'
p1906
S'DEGF'
p1907
sS'DPA5VHKA'
p1908
S'V'
p1909
sS'AHKNATRD'
p1910
g46
sS'EOEB3VC'
p1911
g46
sS'DPA5VHKB'
p1912
S'V'
p1913
sS'ORBITEPHEM0_Y'
p1914
S'm'
p1915
sS'ORBITEPHEM0_X'
p1916
S'm'
p1917
sS'ORBITEPHEM0_Z'
p1918
S'm'
p1919
sS'4CSDOBV'
p1920
S'VDC'
p1921
sS'6SUNER1'
p1922
S'RAD'
p1923
sS'AFLCA9BI'
p1924
S'MAMP'
p1925
sS'4LPOSARO'
p1926
S'DEG'
p1927
sS'TEP_BPAN'
p1928
S'DEGF'
p1929
sS'3SDFLXCT'
p1930
g258
sS'OHRTHR58_WIDE'
p1931
S'DEGF'
p1932
sS'4PRT5AT'
p1933
S'DEGF'
p1934
sS'TMP_BEP_OSC'
p1935
g258
sS'6SINTER2'
p1936
S'RAD'
p1937
sS'6SINTER1'
p1938
S'RAD'
p1939
sS'ARWA1BT'
p1940
S'DEGF'
p1941
sS'PLAED4GT'
p1942
S'DEGF'
p1943
sS'AFLC14BI'
p1944
S'MAMP'
p1945
sS'OHRTHR30_WIDE'
p1946
S'DEGF'
p1947
sS'POLINE06T'
p1948
S'DEGF'
p1949
sS'AOSPACS4B'
p1950
S'MAMP'
p1951
sS'OHRTHR58'
p1952
S'DEGF'
p1953
sS'OHRTHR59'
p1954
S'DEGF'
p1955
sS'OHRTHR52'
p1956
S'DEGF'
p1957
sS'OHRTHR53'
p1958
S'DEGF'
p1959
sS'OHRTHR50'
p1960
S'DEGF'
p1961
sS'OHRTHR51'
p1962
S'DEGF'
p1963
sS'OHRTHR56'
p1964
S'DEGF'
p1965
sS'OHRTHR57'
p1966
S'DEGF'
p1967
sS'OHRTHR54'
p1968
S'DEGF'
p1969
sS'OHRTHR55'
p1970
S'DEGF'
p1971
sS'TCYZ_RW1'
p1972
S'DEGF'
p1973
sS'3TSMXCET'
p1974
S'DEGC'
p1975
sS'TCYZ_RW6'
p1976
S'DEGF'
p1977
sS'PLINE09T'
p1978
S'DEGF'
p1979
sS'TSAPYT'
p1980
S'DEGF'
p1981
sS'AI2AX2Y'
p1982
S'DEGPS'
p1983
sS'ASPEA5CV'
p1984
g46
sS'4RT568T'
p1985
S'DEGF'
p1986
sS'4LFSPBT'
p1987
S'DEGF'
p1988
sS'ACPB5CV'
p1989
g46
sS'TSCIUSF1'
p1990
S'DEGF'
p1991
sS'AOSPBCS1B'
p1992
S'MAMP'
p1993
sS'TCM_PA1'
p1994
S'DEGF'
p1995
sS'SOLAREPHEM0_Z'
p1996
S'm'
p1997
sS'AORWMOM1'
p1998
S'FTLBSEC'
p1999
sS'4IP15AV'
p2000
S'VDC'
p2001
sS'4ALL2AT'
p2002
S'DEGF'
p2003
sS'PLAED2FT'
p2004
S'DEGF'
p2005
sS'OOBTHR22_WIDE'
p2006
S'DEGF'
p2007
sS'TAPEA2T'
p2008
S'DEGF'
p2009
sS'AORWCMD4'
p2010
S'FTLB'
p2011
sS'2PMT2T'
p2012
S'DEGC'
p2013
sS'EIACVAV'
p2014
g46
sS'EB3V'
p2015
g46
sS'6CSSI4'
p2016
S'MAMP'
p2017
sS'PLAED1HT'
p2018
S'DEGF'
p2019
sS'6CSSI2'
p2020
S'MAMP'
p2021
sS'HKN6I'
p2022
S'mA'
p2023
sS'3TTVALVT'
p2024
S'DEGC'
p2025
sS'6CSSI1'
p2026
S'MAMP'
p2027
sS'CUSOAIT'
p2028
S'DEGF'
p2029
sS'4HPOSARO'
p2030
S'DEG'
p2031
sS'OHRMGRD6'
p2032
S'DEGF'
p2033
sS'OHRMGRD3'
p2034
S'DEGF'
p2035
sS'OHRTHR35_WIDE'
p2036
S'DEGF'
p2037
sS'EOEB3V'
p2038
g46
sS'OHRTHR37_WIDE'
p2039
S'DEGF'
p2040
sS'CIUA15V'
p2041
g46
sS'TRSPOTEP'
p2042
S'DEGF'
p2043
sS'TRSPOTEX'
p2044
S'DEGF'
p2045
sS'TFUTSUPN'
p2046
S'DEGF'
p2047
sS'OHRTHR14_WIDE'
p2048
S'DEGF'
p2049
sS'1CRAT'
p2050
S'DEGC'
p2051
sS'AOCMDAC1'
p2052
S'RADSS'
p2053
sS'ANGLEEPHEM_POINT_RAMVECTORANG'
p2054
S'deg'
p2055
sS'TMP_FEP0_PCB'
p2056
g258
sS'DEA24VOLTA'
p2057
S'V'
p2058
sS'AOCMDAC2'
p2059
S'RADSS'
p2060
sS'PLAED1CT'
p2061
S'DEGF'
p2062
sS'DEA24VOLTB'
p2063
S'V'
p2064
sS'OHRTHR24'
p2065
S'DEGF'
p2066
sS'PLAEV4BT'
p2067
S'DEGF'
p2068
sS'OOBTHR08'
p2069
S'DEGF'
p2070
sS'OOBTHR09'
p2071
S'DEGF'
p2072
sS'ARWA2BT'
p2073
S'DEGF'
p2074
sS'CSITA5V'
p2075
g46
sS'OOBTHR03'
p2076
S'DEGF'
p2077
sS'TCYLAFT3'
p2078
S'DEGF'
p2079
sS'TCYLAFT2'
p2080
S'DEGF'
p2081
sS'OOBTHR06'
p2082
S'DEGF'
p2083
sS'OOBTHR07'
p2084
S'DEGF'
p2085
sS'OHRTHR24_WIDE'
p2086
S'DEGF'
p2087
sS'OOBTHR05'
p2088
S'DEGF'
p2089
sS'OHRTHR10_WIDE'
p2090
S'DEGF'
p2091
sS'AOACYAN4'
p2092
S'ASEC'
p2093
sS'AOACYAN5'
p2094
S'ASEC'
p2095
sS'AOACYAN6'
p2096
S'ASEC'
p2097
sS'AORTERR2'
p2098
S'RADPS'
p2099
sS'AOACYAN0'
p2100
S'ASEC'
p2101
sS'1MAHCBT'
p2102
S'DEGC'
p2103
sS'AOACYAN2'
p2104
S'ASEC'
p2105
sS'AOACYAN3'
p2106
S'ASEC'
p2107
sS'OOBTHR62_WIDE'
p2108
S'DEGF'
p2109
sS'3SFLXAST'
p2110
S'DEGC'
p2111
sS'AORESY7'
p2112
S'RAD'
p2113
sS'AORESY4'
p2114
S'RAD'
p2115
sS'6RWNLTQ3'
p2116
S'FTLB'
p2117
sS'6RWNLTQ4'
p2118
S'FTLB'
p2119
sS'4RT563T'
p2120
S'DEGF'
p2121
sS'AORESY0'
p2122
S'RAD'
p2123
sS'CSITB15V'
p2124
g46
sS'1DAHBVO'
p2125
g46
sS'PLAED1ET'
p2126
S'DEGF'
p2127
sS'POLAEV4AT'
p2128
S'DEGF'
p2129
sS'4RT707T'
p2130
S'DEGF'
p2131
sS'PLAED3AT'
p2132
S'DEGF'
p2133
sS'TAPE2PST'
p2134
S'DEGF'
p2135
sS'4PRT4BT'
p2136
S'DEGF'
p2137
sS'1DAHHAVO'
p2138
g46
sS'3SDTSMT'
p2139
g258
sS'OOBTHR05_WIDE'
p2140
S'DEGF'
p2141
sS'TPC_DEA'
p2142
S'DEGF'
p2143
sS'PXTANKIP'
p2144
S'PSIA'
p2145
sS'3TSCPOS'
p2146
g1037
sS'PXDM01T'
p2147
S'DEGF'
p2148
sS'2CHTRPZT'
p2149
S'DEGC'
p2150
sS'OHRTHR46_WIDE'
p2151
S'DEGF'
p2152
sS'PLINE13T'
p2153
S'DEGF'
p2154
sS'AVACMON'
p2155
S'DEGC'
p2156
sS'TMZLGABM'
p2157
S'DEGF'
p2158
sS'2P24VAVL'
p2159
S'VDC'
p2160
sS'AOADACH1A_NBG'
p2161
S'DEG'
p2162
sS'EEPA5V'
p2163
g46
sS'PLAEV1AT'
p2164
S'DEGF'
p2165
sS'GND_1'
p2166
S'V'
p2167
sS'GND_2'
p2168
S'V'
p2169
sS'1WRBT'
p2170
S'DEGC'
p2171
sS'AOADBCH1A_NBG'
p2172
S'DEG'
p2173
sS'CTSA5V'
p2174
g46
sS'3SFLXBST'
p2175
S'DEGC'
p2176
sS'1CBBT'
p2177
S'DEGC'
p2178
sS'3SDAGV'
p2179
S'V'
p2180
sS'TMP_FEP0_ACTEL'
p2181
g258
sS'AOSARES2'
p2182
S'DEG'
p2183
sS'DEAP15VOLTA'
p2184
S'V'
p2185
sS'DEAP15VOLTB'
p2186
S'V'
p2187
sS'AOSARES1'
p2188
S'DEG'
p2189
sS'4RT591T'
p2190
S'DEGF'
p2191
sS'ANGLEEPHEM_POINT_MOONCENTANG'
p2192
S'deg'
p2193
sS'TMZP_MY'
p2194
S'DEGF'
p2195
sS'CTSB15V'
p2196
g46
sS'PXDM02T'
p2197
S'DEGF'
p2198
sS'PLAEV3BT'
p2199
S'DEGF'
p2200
sS'1DEICBCU'
p2201
S'AMP'
p2202
sS'AIRU2VFT'
p2203
S'DEGF'
p2204
sS'EOESAT1C'
p2205
S'DEGF'
p2206
sS'TASPPCP'
p2207
S'DEGF'
p2208
sS'AOADBCH2A_NBG'
p2209
S'DEG'
p2210
sS'OHRTHR12_WIDE'
p2211
S'DEGF'
p2212
sS'3TSPZDET'
p2213
S'DEGC'
p2214
sS'PLAED4DT'
p2215
S'DEGF'
p2216
sS'OOBTHR49_WIDE'
p2217
S'DEGF'
p2218
sS'POLINE01T'
p2219
S'DEGF'
p2220
sS'CIUA5V'
p2221
g46
sS'AFLC14AI'
p2222
S'MAMP'
p2223
sS'3FAPSAT'
p2224
S'DEGC'
p2225
sS'OHRTHR45_WIDE'
p2226
S'DEGF'
p2227
sS'PCM04T'
p2228
S'DEGF'
p2229
sS'AORWNTQ4'
p2230
S'FTLB'
p2231
sS'AORWNTQ5'
p2232
S'FTLB'
p2233
sS'AORWNTQ6'
p2234
S'FTLB'
p2235
sS'AORWMC6_1'
p2236
S'FTLBSEC'
p2237
sS'EOECNV2C'
p2238
g46
sS'AORWNTQ2'
p2239
S'FTLB'
p2240
sS'CPA2V'
p2241
g46
sS'ASPEFSW4B'
p2242
S'DEG'
p2243
sS'TFSPRWC'
p2244
S'DEGF'
p2245
sS'TCM_OBC'
p2246
S'DEGF'
p2247
sS'AORWMC1'
p2248
S'FTLBSEC'
p2249
sS'AORWMC4'
p2250
S'FTLBSEC'
p2251
sS'AORWMC5'
p2252
S'FTLBSEC'
p2253
sS'6ALPANG'
p2254
S'DEG'
p2255
sS'TB1T2'
p2256
S'DEGF'
p2257
sS'PLINE01T'
p2258
S'DEGF'
p2259
sS'OHRTHR57_WIDE'
p2260
S'DEGF'
p2261
sS'PLAED2GT'
p2262
S'DEGF'
p2263
sS'1SSMYT'
p2264
S'DEGC'
p2265
sS'4RT575T'
p2266
S'DEGF'
p2267
sS'CPA1BPT'
p2268
S'DEGF'
p2269
sS'PM4THV2T'
p2270
S'DEGF'
p2271
sS'4VRMOAV'
p2272
S'VDC'
p2273
sS'2PMT1T'
p2274
S'DEGC'
p2275
sS'EB2V'
p2276
g46
sS'EIACVBV'
p2277
g46
sS'EORTDMN27D'
p2278
S'DEGF'
p2279
sS'1DAHHBVO'
p2280
g46
sS'1VAHOBT'
p2281
S'DEGC'
p2282
sS'CRXBLS'
p2283
S'KHZ'
p2284
sS'PMTANK1T'
p2285
S'DEGF'
p2286
sS'OHRTHR49'
p2287
S'DEGF'
p2288
sS'POLINE12T'
p2289
S'DEGF'
p2290
sS'TASPPCM'
p2291
S'DEGF'
p2292
sS'OHRTHR45'
p2293
S'DEGF'
p2294
sS'OHRTHR44'
p2295
S'DEGF'
p2296
sS'OHRTHR47'
p2297
S'DEGF'
p2298
sS'OHRTHR46'
p2299
S'DEGF'
p2300
sS'OHRTHR41'
p2301
S'DEGF'
p2302
sS'OHRTHR40'
p2303
S'DEGF'
p2304
sS'OHRTHR43'
p2305
S'DEGF'
p2306
sS'OHRTHR42'
p2307
S'DEGF'
p2308
sS'AWD2TQI'
p2309
S'AMP'
p2310
sS'PCM03T'
p2311
S'DEGF'
p2312
sS'EOEB1DIC'
p2313
S'AMP'
p2314
sS'TASPPCU'
p2315
S'DEGF'
p2316
sS'POM2THV1T'
p2317
S'DEGF'
p2318
sS'64RCSTMR'
p2319
S'MIN'
p2320
sS'TEP_EIA'
p2321
S'DEGF'
p2322
sS'PLAED1FT'
p2323
S'DEGF'
p2324
sS'OOBTHR30_WIDE'
p2325
S'DEGF'
p2326
sS'AWD6TQI'
p2327
S'AMP'
p2328
s.