(dp1
S'AORWPI4B'
p2
S'ms'
p3
sS'1DEAMZT'
p4
S'K'
sS'4RT709T'
p5
S'K'
sS'PLINE16T'
p6
S'K'
sS'EORTDMN18D'
p7
S'K'
sS'AOSUNER2'
p8
S'rad'
p9
sS'LUNAREPHEM1_TIME'
p10
S's'
sS'TFSPPCM'
p11
S'K'
sS'EB1CI'
p12
S'A'
sS'OHRTHR38'
p13
S'K'
sS'OHRTHR39'
p14
S'K'
sS'TFSPPCP'
p15
S'K'
sS'ASPEFSW3B'
p16
S'deg'
p17
sS'CUSOAOVN'
p18
S'W'
sS'OHRTHR30'
p19
S'K'
sS'OHRTHR31'
p20
S'K'
sS'OHRTHR33'
p21
S'K'
sS'1DPP0BVO'
p22
S'V'
sS'OHRTHR35'
p23
S'K'
sS'OHRTHR36'
p24
S'K'
sS'OHRTHR37'
p25
S'K'
sS'EORTDMN11D'
p26
S'K'
sS'AFLC11BI'
p27
S'mA'
p28
sS'ANGLEEPHEM_SUN_EARTHLIMBANG'
p29
S'deg'
p30
sS'ANGLEEPHEM_SUN_EARTHCENTANG'
p31
S'deg'
p32
sS'AORWMC3_1'
p33
S'J*s'
p34
sS'TEPHIN'
p35
S'K'
sS'3TTHRC1T'
p36
S'K'
sS'PXDM01T'
p37
S'K'
sS'ORBITEPHEM0_VZ'
p38
S'm/s'
p39
sS'4RT562T'
p40
S'K'
sS'AFLCA2BI'
p41
S'mA'
p42
sS'ANGLEEPHEM_POINT_MOONCENTANG'
p43
S'deg'
p44
sS'4RT710T'
p45
S'K'
sS'ASPEB5CV'
p46
S'V'
sS'TMP_FEP0_RAM'
p47
S'K'
sS'TPC_PAN'
p48
S'K'
sS'AOZABR'
p49
S'rad'
p50
sS'AORESZ5_1'
p51
S'rad'
p52
sS'LUNAREPHEM0_VX'
p53
S'm/s'
p54
sS'TB2T3'
p55
S'K'
sS'TB2T2'
p56
S'K'
sS'PLINE06T'
p57
S'K'
sS'AOADBCH1A_PCAD'
p58
S'deg'
p59
sS'AORWPI3B'
p60
S'ms'
p61
sS'1DAHAVO'
p62
S'V'
sS'LUNAREPHEM0_VZ'
p63
S'm/s'
p64
sS'ORBITEPHEM0_VX'
p65
S'm/s'
p66
sS'PXTANK2T'
p67
S'K'
sS'3TSMYDPT'
p68
S'K'
sS'PR1TV02T'
p69
S'K'
sS'3TTACS1T'
p70
S'K'
sS'AORESY2_1'
p71
S'rad'
p72
sS'PHOFP1T'
p73
S'K'
sS'PR4TV01T'
p74
S'K'
sS'AORTERR2'
p75
S'rad/s'
p76
sS'CUSOA28V'
p77
S'V'
sS'PLAED2AT'
p78
S'K'
sS'AVACMON'
p79
S'K'
sS'OOBTHR33'
p80
S'K'
sS'3TRMTRAT'
p81
S'K'
sS'6SUNER1'
p82
S'rad'
p83
sS'ES1P5CV'
p84
S'V'
sS'OOBTHR19'
p85
S'K'
sS'OOBTHR18'
p86
S'K'
sS'PFTANKIP'
p87
S'kPa'
p88
sS'OOBTHR15'
p89
S'K'
sS'OOBTHR14'
p90
S'K'
sS'OOBTHR17'
p91
S'K'
sS'6SUNER3'
p92
S'rad'
p93
sS'OOBTHR11'
p94
S'K'
sS'OOBTHR10'
p95
S'K'
sS'ECNV2V'
p96
S'V'
sS'OOBTHR12'
p97
S'K'
sS'AGWS1V'
p98
S'V'
sS'4HLL2BT'
p99
S'K'
sS'EOEB1CIC'
p100
S'A'
sS'TB3T1'
p101
S'K'
sS'4HLL1AT'
p102
S'K'
sS'AACCCDRT'
p103
S'K'
sS'ESAMYI'
p104
S'A'
sS'4RT581T'
p105
S'K'
sS'TMYSADA'
p106
S'K'
sS'1HOPRAPR'
p107
S'kPa'
p108
sS'OHRTHR34'
p109
S'K'
sS'AFLCA5AI'
p110
S'mA'
p111
sS'HKP6I'
p112
S'mA'
p113
sS'3TSMXSPT'
p114
S'K'
sS'PMFP01T'
p115
S'K'
sS'CVEER'
p116
S'V'
sS'CVEEP'
p117
S'V'
sS'PLINE15T'
p118
S'K'
sS'2P05VBVL'
p119
S'V'
sS'PLAED3IT'
p120
S'K'
sS'4RT592T'
p121
S'K'
sS'HKDBIASLEAKI'
p122
S'uA'
p123
sS'PLAED4AT'
p124
S'K'
sS'AIRU1BT'
p125
S'K'
sS'PR2TV01T'
p126
S'K'
sS'TCM_SSR1'
p127
S'K'
sS'PFTANK2T'
p128
S'K'
sS'6DRFTQC3'
p129
S'J'
sS'SOLAREPHEM1_Y'
p130
S'm'
sS'6DRFTQC1'
p131
S'J'
sS'5EPHINT'
p132
S'K'
sS'4VRMOBV'
p133
S'V'
sS'PLAEV3AT'
p134
S'K'
sS'AFLCA1AI'
p135
S'mA'
p136
sS'6TQCMD1'
p137
S'J'
sS'2DCENTRT'
p138
S'K'
sS'LUNAREPHEM0_X'
p139
S'm'
sS'OOBTHR60'
p140
S'K'
sS'OOBTHR61'
p141
S'K'
sS'OOBTHR62'
p142
S'K'
sS'OOBTHR63'
p143
S'K'
sS'PLINE11T'
p144
S'K'
sS'EPA15V'
p145
S'V'
sS'AOALPANG'
p146
S'deg'
p147
sS'TRSPMTPC'
p148
S'K'
sS'AOSPACS2B'
p149
S'mA'
p150
sS'4RT584T'
p151
S'K'
sS'AODVTIME'
p152
S's'
sS'3FASEAAT'
p153
S'K'
sS'AODITHR3'
p154
S'rad'
p155
sS'AAOTH2MT'
p156
S'K'
sS'AODITHR1'
p157
S'rad'
p158
sS'PLAED1BT'
p159
S'K'
sS'3TTRALAT'
p160
S'K'
sS'AFLC12AI'
p161
S'mA'
p162
sS'AOSACMD2'
p163
S'rad'
p164
sS'AOADACH1A_PCAD'
p165
S'deg'
p166
sS'AORESY1_1'
p167
S'rad'
p168
sS'ANGLEEPHEM_POINT_SUNCENTANG'
p169
S'deg'
p170
sS'EPB15V'
p171
S'V'
sS'2UVLSPXT'
p172
S'K'
sS'TFSSBKT2'
p173
S'K'
sS'3FARALAT'
p174
S'K'
sS'TMP_FEP0_FB'
p175
S'K'
sS'4HLL2AT'
p176
S'K'
sS'TCM_PA2'
p177
S'K'
sS'ACPA5CV'
p178
S'V'
sS'6TQCMD3'
p179
S'J'
sS'4PRT5AT'
p180
S'K'
sS'HKABIASLEAKI'
p181
S'uA'
p182
sS'TMP_FEP1_RAM'
p183
S'K'
sS'3FAPYZAT'
p184
S'K'
sS'OHRTHR08'
p185
S'K'
sS'TFUTSUPN'
p186
S'K'
sS'PLAED3GT'
p187
S'K'
sS'6RWCMD1'
p188
S'J'
sS'AORATE1'
p189
S'rad/s'
p190
sS'AORATE3'
p191
S'rad/s'
p192
sS'AORATE2'
p193
S'rad/s'
p194
sS'EORTDMN12D'
p195
S'K'
sS'4RT598T'
p196
S'K'
sS'EOECNV3C'
p197
S'V'
sS'3TTACS2T'
p198
S'K'
sS'TCM_CTU'
p199
S'K'
sS'ESAPYI'
p200
S'A'
sS'4HFSPBT'
p201
S'K'
sS'EEPB5V'
p202
S'V'
sS'3FAFLAAT'
p203
S'K'
sS'4MP28BV'
p204
S'V'
sS'PFDM101T'
p205
S'K'
sS'AESACHD1'
p206
S'deg'
p207
sS'PLAED3DT'
p208
S'K'
sS'4LFSPAT'
p209
S'K'
sS'EORTDMN23D'
p210
S'K'
sS'AWD3CV5V'
p211
S'V'
sS'PLINE02T'
p212
S'K'
sS'4ALL1AT'
p213
S'K'
sS'TPCM_RW5'
p214
S'K'
sS'LUNAREPHEM0_TIME'
p215
S's'
sS'2CEAHVPT'
p216
S'K'
sS'PLAEV2AT'
p217
S'K'
sS'AORESZ6_5'
p218
S'rad'
p219
sS'AWD3TQI'
p220
S'A'
sS'TRSPRWCM'
p221
S'K'
sS'AOSUNER3'
p222
S'rad'
p223
sS'CTXAV'
p224
S'V'
sS'DEAM15VOLTB'
p225
S'V'
sS'AAOTAPMT'
p226
S'K'
sS'PLAED2DT'
p227
S'K'
sS'TMZP_PY'
p228
S'K'
sS'TESH2'
p229
S'K'
sS'4PRT1AT'
p230
S'K'
sS'PFTANK1T'
p231
S'K'
sS'1DPAMYT'
p232
S'K'
sS'1DACTBT'
p233
S'K'
sS'4RT556T'
p234
S'K'
sS'AFLCA4BI'
p235
S'mA'
p236
sS'3SFLXBST'
p237
S'K'
sS'PM4THV1T'
p238
S'K'
sS'CSITA15V'
p239
S'V'
sS'DEAP6VOLTB'
p240
S'V'
sS'AFLC13AI'
p241
S'mA'
p242
sS'AORWBTQ1'
p243
S'J'
sS'AORWBTQ2'
p244
S'J'
sS'AORWBTQ3'
p245
S'J'
sS'AORWBTQ4'
p246
S'J'
sS'AORWBTQ5'
p247
S'J'
sS'AORWBTQ6'
p248
S'J'
sS'AWD6CV5V'
p249
S'V'
sS'3FABRCAT'
p250
S'K'
sS'AWD4CV5V'
p251
S'V'
sS'4RT576T'
p252
S'K'
sS'AWD1TQI'
p253
S'A'
sS'ANGLEEPHEM_POINT_EARTHLIMBANG'
p254
S'deg'
p255
sS'TCYZ_RW6'
p256
S'K'
sS'PR2TV02T'
p257
S'K'
sS'6RWNLTQ5'
p258
S'J'
sS'DEAM15VOLTA'
p259
S'V'
sS'2P05VAVL'
p260
S'V'
sS'1VAHCBT'
p261
S'K'
sS'PM2THV1T'
p262
S'K'
sS'PLINE09T'
p263
S'K'
sS'1DPP0AVO'
p264
S'V'
sS'3FAFLBAT'
p265
S'K'
sS'5EIOT'
p266
S'K'
sS'CPCB5V'
p267
S'V'
sS'PLAED1IT'
p268
S'K'
sS'3MRMMXMV'
p269
S'PWM'
p270
sS'CPCA5V'
p271
S'V'
sS'CXPNAIT'
p272
S'K'
sS'TEIO'
p273
S'K'
sS'AORWMC2_1'
p274
S'J*s'
p275
sS'AOSARES1'
p276
S'deg'
p277
sS'AACBPRT'
p278
S'K'
sS'PLAED1AT'
p279
S'K'
sS'TPCM_RW4'
p280
S'K'
sS'4RT580T'
p281
S'K'
sS'3LDRTPOS'
p282
S'mm'
p283
sS'AESACHD2'
p284
S'deg'
p285
sS'PHETANKT'
p286
S'K'
sS'TAPE1PST'
p287
S'K'
sS'AOCSSI2'
p288
S'mA'
p289
sS'AOSRERR3'
p290
S'rad/s'
p291
sS'OOBTHR24'
p292
S'K'
sS'OOBTHR25'
p293
S'K'
sS'OOBTHR26'
p294
S'K'
sS'OOBTHR27'
p295
S'K'
sS'OOBTHR20'
p296
S'K'
sS'OOBTHR21'
p297
S'K'
sS'OOBTHR22'
p298
S'K'
sS'OOBTHR23'
p299
S'K'
sS'PR1TV01T'
p300
S'K'
sS'AVD2CV5V'
p301
S'V'
sS'OOBTHR28'
p302
S'K'
sS'OOBTHR29'
p303
S'K'
sS'AIOBP5CV'
p304
S'V'
sS'EORTDMN16D'
p305
S'K'
sS'2FHTRMZT'
p306
S'K'
sS'AOSAANG1'
p307
S'rad'
p308
sS'AOSAANG2'
p309
S'rad'
p310
sS'4RT577T'
p311
S'K'
sS'6MUPCNT3'
p312
S's'
sS'TCYLCMM'
p313
S'K'
sS'6MUPCNT1'
p314
S's'
sS'4RT561T'
p315
S'K'
sS'EOEBCC_LOW'
p316
S'A'
sS'6MUPCNT4'
p317
S's'
sS'OHRTHR57'
p318
S'K'
sS'AOMANTIM'
p319
S's'
sS'CTUB5V'
p320
S'V'
sS'AWD4TQI'
p321
S'A'
sS'4LLL2AT'
p322
S'K'
sS'AWD5CV5V'
p323
S'V'
sS'CRXBV'
p324
S'V'
sS'HKBBIASLEAKI'
p325
S'uA'
p326
sS'4ALL1BT'
p327
S'K'
sS'CPCB15V'
p328
S'V'
sS'4RT711T'
p329
S'K'
sS'AAOTALT'
p330
S'K'
sS'AGWS2V'
p331
S'V'
sS'EORTDMN26D'
p332
S'K'
sS'EB1V'
p333
S'V'
sS'AOIRERL1'
p334
S'rad'
p335
sS'AOIRERL2'
p336
S'rad'
p337
sS'AOIRERL3'
p338
S'rad'
p339
sS'3SFLXCST'
p340
S'K'
sS'PLINE07T'
p341
S'K'
sS'PLAEV2BT'
p342
S'K'
sS'AOSCVEL1'
p343
S'km/s'
p344
sS'AOSCVEL3'
p345
S'km/s'
p346
sS'AOSCVEL2'
p347
S'km/s'
p348
sS'1DE28AVO'
p349
S'V'
sS'EOEB3DIC'
p350
S'A'
sS'AFLC13BI'
p351
S'mA'
p352
sS'PR4TV02T'
p353
S'K'
sS'4RT563T'
p354
S'K'
sS'AOGBIAS1'
p355
S'rad/s'
p356
sS'AOGBIAS2'
p357
S'rad/s'
p358
sS'AOGBIAS3'
p359
S'rad/s'
p360
sS'1DEN1AVO'
p361
S'V'
sS'1DEN0AVO'
p362
S'V'
sS'4LPOSBRO'
p363
S'deg'
p364
sS'TMP_FEP1_FB'
p365
S'K'
sS'ANGLEEPHEM_TIME'
p366
S's'
sS'1DPICBCU'
p367
S'A'
sS'LUNAREPHEM1_VY'
p368
S'm/s'
p369
sS'LUNAREPHEM1_VX'
p370
S'm/s'
p371
sS'SOLAREPHEM0_Z'
p372
S'm'
sS'1DP28AVO'
p373
S'V'
sS'PLINE03T'
p374
S'K'
sS'4CSDHAV'
p375
S'V'
sS'4RT587T'
p376
S'K'
sS'AI1AX2Y'
p377
S'deg/s'
p378
sS'AI1AX2X'
p379
S'deg/s'
p380
sS'AOSYMOM2'
p381
S'J*s'
p382
sS'SOLAREPHEM0_Y'
p383
S'm'
sS'AORWCMD5'
p384
S'J'
sS'AORWCMD4'
p385
S'J'
sS'OHRTHR29'
p386
S'K'
sS'AORWCMD6'
p387
S'J'
sS'AORWCMD1'
p388
S'J'
sS'AORWCMD3'
p389
S'J'
sS'AORWCMD2'
p390
S'J'
sS'OHRTHR23'
p391
S'K'
sS'OHRTHR22'
p392
S'K'
sS'OHRTHR21'
p393
S'K'
sS'OHRTHR20'
p394
S'K'
sS'OHRTHR27'
p395
S'K'
sS'OHRTHR26'
p396
S'K'
sS'OHRTHR25'
p397
S'K'
sS'OHRTHR24'
p398
S'K'
sS'4IN15BV'
p399
S'V'
sS'63RCSTMR'
p400
S's'
sS'LUNAREPHEM1_X'
p401
S'm'
sS'4RT594T'
p402
S'K'
sS'TMP_FEP0_MONG'
p403
S'K'
sS'TCNR_BRM'
p404
S'K'
sS'TCM_IFU'
p405
S'K'
sS'TCYLFMZP'
p406
S'K'
sS'4RT569T'
p407
S'K'
sS'TCYLFMZM'
p408
S'K'
sS'4RT597T'
p409
S'K'
sS'TEP_RCTU'
p410
S'K'
sS'4RT702T'
p411
S'K'
sS'ASPEFSW1B'
p412
S'deg'
p413
sS'SOLAREPHEM0_X'
p414
S'm'
sS'1VAHOAT'
p415
S'K'
sS'AACH1T'
p416
S'K'
sS'4PRT2AT'
p417
S'K'
sS'4VRMHBV'
p418
S'V'
sS'LUNAREPHEM1_Y'
p419
S'm'
sS'TPC_ESE'
p420
S'K'
sS'HKCBIASLEAKI'
p421
S'uA'
p422
sS'AFLCA9AI'
p423
S'mA'
p424
sS'HKP27I'
p425
S'mA'
p426
sS'CTSB5V'
p427
S'V'
sS'3FAMTRAT'
p428
S'K'
sS'AFLCA1BI'
p429
S'mA'
p430
sS'HKP27V'
p431
S'V'
sS'4VRMHAV'
p432
S'V'
sS'4MP5AV'
p433
S'V'
sS'SOLAREPHEM1_VX'
p434
S'm/s'
p435
sS'PLINE10T'
p436
S'K'
sS'TPC_RCTU'
p437
S'K'
sS'TCM_PA1'
p438
S'K'
sS'AESAPHA1'
p439
S'deg'
p440
sS'AOBETANG'
p441
S'deg'
p442
sS'2FRADPYT'
p443
S'K'
sS'1DE28BVO'
p444
S'V'
sS'C28VMONB'
p445
S'V'
sS'4RT595T'
p446
S'K'
sS'SOLAREPHEM0_VZ'
p447
S'm/s'
p448
sS'PLAED4FT'
p449
S'K'
sS'AOADBCH2A_NBG'
p450
S'deg'
p451
sS'4LLL2BT'
p452
S'K'
sS'1DEP1BVO'
p453
S'V'
sS'LUNAREPHEM0_VY'
p454
S'm/s'
p455
sS'AOSPACS3B'
p456
S'mA'
p457
sS'PLAEV4BT'
p458
S'K'
sS'ES2P5CV'
p459
S'V'
sS'ORBITEPHEM1_VZ'
p460
S'm/s'
p461
sS'AORWPI5B'
p462
S'ms'
p463
sS'4PRT4AT'
p464
S'K'
sS'CUSOBOVN'
p465
S'W'
sS'ORBITEPHEM1_VY'
p466
S'm/s'
p467
sS'TFSPCMM'
p468
S'K'
sS'EORTDMN19D'
p469
S'K'
sS'ORBITEPHEM1_VX'
p470
S'm/s'
p471
sS'4HFSPAT'
p472
S'K'
sS'4MP5BV'
p473
S'V'
sS'AOINTTIM'
p474
S's'
sS'TFSPCMP'
p475
S'K'
sS'AOCMDRT1'
p476
S'rad/s'
p477
sS'AOACZAN5'
p478
S'arcsec'
p479
sS'AOACZAN4'
p480
S'arcsec'
p481
sS'AOACZAN7'
p482
S'arcsec'
p483
sS'AOACZAN6'
p484
S'arcsec'
p485
sS'AOACZAN1'
p486
S'arcsec'
p487
sS'AOACZAN0'
p488
S'arcsec'
p489
sS'AOACZAN3'
p490
S'arcsec'
p491
sS'AOACZAN2'
p492
S'arcsec'
p493
sS'3TTHRC2T'
p494
S'K'
sS'6TQCMD2'
p495
S'J'
sS'TCYLAFT4'
p496
S'K'
sS'6RWCMD3'
p497
S'J'
sS'CRXALS'
p498
S'kHz'
p499
sS'AOYABR'
p500
S'rad'
p501
sS'AOSRERR1'
p502
S'rad/s'
p503
sS'AOSRERR2'
p504
S'rad/s'
p505
sS'TIME'
p506
S's'
sS'PLAED2GT'
p507
S'K'
sS'HKN6V'
p508
S'V'
sS'CXO5VOBB'
p509
S'V'
sS'AOSAEST1'
p510
S'rad'
p511
sS'1DAHACU'
p512
S'A'
sS'CXO5VOBA'
p513
S'V'
sS'EORTDMN22D'
p514
S'K'
sS'PM3THV1T'
p515
S'K'
sS'1DEP2BVO'
p516
S'V'
sS'AOETIMEX'
p517
S's'
sS'2CONDMXT'
p518
S'K'
sS'6SARES2'
p519
S'deg'
p520
sS'6SARES1'
p521
S'deg'
p522
sS'AORWINT5'
p523
S'ms'
p524
sS'1DEN0BVO'
p525
S'V'
sS'4IP15BV'
p526
S'V'
sS'4ALL2BT'
p527
S'K'
sS'4RT557T'
p528
S'K'
sS'CIUB5V'
p529
S'V'
sS'4ALL2AT'
p530
S'K'
sS'SOLAREPHEM1_VZ'
p531
S'm/s'
p532
sS'EOESAC1C'
p533
S'A'
sS'CTUA15V'
p534
S'V'
sS'SOLAREPHEM1_VY'
p535
S'm/s'
p536
sS'AOADACH2A_NBG'
p537
S'deg'
p538
sS'AFLC10BI'
p539
S'mA'
p540
sS'PLAED2ET'
p541
S'K'
sS'CSSR1CAV'
p542
S'V'
sS'TMP_BEP_OSC'
p543
S'K'
sS'EOEB2DIC'
p544
S'A'
sS'3TTBRGBT'
p545
S'K'
sS'EOEBCC'
p546
S'A'
sS'AORWINT2'
p547
S'ms'
p548
sS'AORWINT3'
p549
S'ms'
p550
sS'AORWINT4'
p551
S'ms'
p552
sS'1DACTAT'
p553
S'deg'
p554
sS'AORWINT6'
p555
S'ms'
p556
sS'AFLCA4AI'
p557
S'mA'
p558
sS'4SP51V'
p559
S'V'
sS'EORTDMN25D'
p560
S'K'
sS'PLAED2CT'
p561
S'K'
sS'EOEB1VC'
p562
S'V'
sS'C10VREFB'
p563
S'V'
sS'C10VREFA'
p564
S'V'
sS'DEAP15VOLTA'
p565
S'V'
sS'EOEB2VC'
p566
S'V'
sS'4PRT3BT'
p567
S'K'
sS'AWD1CV5V'
p568
S'V'
sS'PMTANK3T'
p569
S'K'
sS'SOLAREPHEM1_Z'
p570
S'm'
sS'AFLCA8BI'
p571
S'mA'
p572
sS'PLAED1DT'
p573
S'K'
sS'ARWA3BT'
p574
S'K'
sS'AOACINTT'
p575
S'ms'
p576
sS'DEA24VOLTA'
p577
S'V'
sS'OHRTHR63'
p578
S'K'
sS'OOBTHR13'
p579
S'K'
sS'OHRTHR61'
p580
S'K'
sS'EOEB3CIC'
p581
S'A'
sS'AOSYMOM3'
p582
S'J*s'
p583
sS'EOESAC2C'
p584
S'A'
sS'AOSYMOM1'
p585
S'J*s'
p586
sS'4RT701T'
p587
S'K'
sS'AFLCA2AI'
p588
S'mA'
p589
sS'HKP5I'
p590
S'mA'
p591
sS'1OAHBT'
p592
S'K'
sS'TCYLAFT1'
p593
S'K'
sS'1DAHBCU'
p594
S'A'
sS'PMTANKP'
p595
S'kPa'
p596
sS'ORBITEPHEM0_Y'
p597
S'm'
sS'AFLCA5BI'
p598
S'mA'
p599
sS'ECNV3V'
p600
S'V'
sS'ORBITEPHEM0_VY'
p601
S'm/s'
p602
sS'4RT583T'
p603
S'K'
sS'HKP5V'
p604
S'V'
sS'AIOAP5CV'
p605
S'V'
sS'TFSPRWC'
p606
S'K'
sS'4RT593T'
p607
S'K'
sS'TATECDRT'
p608
S'K'
sS'4RT559T'
p609
S'K'
sS'TSCTSF1'
p610
S'K'
sS'TSCTSF2'
p611
S'K'
sS'TSCTSF3'
p612
S'K'
sS'TSCTSF4'
p613
S'K'
sS'TSCTSF5'
p614
S'K'
sS'4PRT5BT'
p615
S'K'
sS'AFLCA6BI'
p616
S'mA'
p617
sS'TCM_RFAS'
p618
S'K'
sS'PLAED4ET'
p619
S'K'
sS'PLINE14T'
p620
S'K'
sS'TESH1'
p621
S'K'
sS'1DEICACU'
p622
S'A'
sS'CXPNBIT'
p623
S'K'
sS'1MAHCAT'
p624
S'K'
sS'PR3TV02T'
p625
S'K'
sS'3TSPZSPT'
p626
S'K'
sS'HKEBOXTEMP'
p627
S'K'
sS'1DEP3BVO'
p628
S'V'
sS'ORBITEPHEM1_TIME'
p629
S's'
sS'AOAVGDTQ'
p630
S'J'
sS'EORTDMN17D'
p631
S'K'
sS'PLAED4BT'
p632
S'K'
sS'ADE1P5CV'
p633
S'V'
sS'TFSPPCU'
p634
S'K'
sS'4RT560T'
p635
S'K'
sS'AOMANANG'
p636
S'rad'
p637
sS'6RWSPD3'
p638
S'rad/s'
p639
sS'6RWSPD2'
p640
S'rad/s'
p641
sS'6RWSPD5'
p642
S'rad/s'
p643
sS'6RWSPD4'
p644
S'rad/s'
p645
sS'6RWSPD6'
p646
S'rad/s'
p647
sS'6CSSI2'
p648
S'mA'
p649
sS'AFLCA7AI'
p650
S'mA'
p651
sS'EB2DI'
p652
S'A'
sS'1DAHAT'
p653
S'K'
sS'TRSPRWBB'
p654
S'K'
sS'TRSPRWBC'
p655
S'K'
sS'AOSACMD1'
p656
S'rad'
p657
sS'AORWNTQ3'
p658
S'J'
sS'ANGLEEPHEM_POINT_MOONLIMBANG'
p659
S'deg'
p660
sS'ORBITEPHEM1_X'
p661
S'm'
sS'ORBITEPHEM1_Y'
p662
S'm'
sS'ORBITEPHEM1_Z'
p663
S'm'
sS'ANGLEEPHEM_DIST_SATEARTH'
p664
S'm'
sS'AFLCA3BI'
p665
S'mA'
p666
sS'FPTEMP_12'
p667
S'K'
sS'AORWPI1B'
p668
S'ms'
p669
sS'EB1DI'
p670
S'A'
sS'PLAED3FT'
p671
S'K'
sS'AFLCA3AI'
p672
S'mA'
p673
sS'AFSSPC1V'
p674
S'V'
sS'LUNAREPHEM1_Z'
p675
S'm'
sS'TSCIUSF2'
p676
S'K'
sS'TSCIUSF5'
p677
S'K'
sS'AVD1CV5V'
p678
S'V'
sS'DEAP6VOLTA'
p679
S'V'
sS'TSCIUSF8'
p680
S'K'
sS'AACH2T'
p681
S'K'
sS'ADE2P5CV'
p682
S'V'
sS'TASPPCP'
p683
S'K'
sS'3TTACS3T'
p684
S'K'
sS'CTSA15V'
p685
S'V'
sS'PFDM102T'
p686
S'K'
sS'3FAPSAT'
p687
S'K'
sS'PFDM202T'
p688
S'K'
sS'OHRTHR62'
p689
S'K'
sS'6DRFTQC2'
p690
S'J'
sS'4RT586T'
p691
S'K'
sS'TEP_PSU1'
p692
S'K'
sS'OHRTHR60'
p693
S'K'
sS'OOBTHR37'
p694
S'K'
sS'OOBTHR36'
p695
S'K'
sS'OOBTHR35'
p696
S'K'
sS'OOBTHR34'
p697
S'K'
sS'CUSOBIT'
p698
S'K'
sS'TAPEA1T'
p699
S'K'
sS'OOBTHR31'
p700
S'K'
sS'OOBTHR30'
p701
S'K'
sS'6BETANG'
p702
S'deg'
p703
sS'OOBTHR39'
p704
S'K'
sS'OOBTHR38'
p705
S'K'
sS'2P24VBVL'
p706
S'V'
sS'AIRU2G2T'
p707
S'K'
sS'3FABRAAT'
p708
S'K'
sS'1DEP3AVO'
p709
S'V'
sS'AIRU1G2T'
p710
S'K'
sS'TPC_CEA'
p711
S'K'
sS'AIRU1G2I'
p712
S'mA'
p713
sS'PM2THV2T'
p714
S'K'
sS'TSAMYT'
p715
S'K'
sS'AVACMONV'
p716
S'V'
sS'4RT590T'
p717
S'K'
sS'HKP6V'
p718
S'V'
sS'TEP_PSU2'
p719
S'K'
sS'TPZLGABM'
p720
S'K'
sS'1OAHAT'
p721
S'K'
sS'AHKNATPR'
p722
S'V'
sS'ASPEFSW4B'
p723
S'deg'
p724
sS'ARWA4BT'
p725
S'K'
sS'PLAEV4AT'
p726
S'K'
sS'4CSDHBV'
p727
S'V'
sS'AOMANRT'
p728
S'rad/s'
p729
sS'AOCSSI1'
p730
S'mA'
p731
sS'AOCSSI3'
p732
S'mA'
p733
sS'AIRU2G1T'
p734
S'K'
sS'AOCSSI4'
p735
S'mA'
p736
sS'AIRU2G1I'
p737
S'mA'
p738
sS'CTUB15V'
p739
S'V'
sS'1VAHCAT'
p740
S'K'
sS'TB3T2'
p741
S'K'
sS'TB3T3'
p742
S'K'
sS'DEAM6VOLTB'
p743
S'V'
sS'6RATE3'
p744
S'rad/s'
p745
sS'PLAED3CT'
p746
S'K'
sS'1PIN1AT'
p747
S'K'
sS'1DP28BVO'
p748
S'V'
sS'AOFFTQ1'
p749
S'J'
sS'PLAEV1BT'
p750
S'K'
sS'AOFFTQ2'
p751
S'J'
sS'PFDM201T'
p752
S'K'
sS'SOLAREPHEM0_VY'
p753
S'm/s'
p754
sS'TPCP_RW3'
p755
S'K'
sS'AOFFTQ3'
p756
S'J'
sS'AI2AX1Y'
p757
S'deg/s'
p758
sS'61RCSTMR'
p759
S's'
sS'1PDEABT'
p760
S'K'
sS'TPCP_RW2'
p761
S'K'
sS'PLAED2HT'
p762
S'K'
sS'AOADBCH2A_PCAD'
p763
S'deg'
p764
sS'4RT704T'
p765
S'K'
sS'6SAEST2'
p766
S'rad'
p767
sS'AORWPI6B'
p768
S'ms'
p769
sS'TCM_PAN'
p770
S'K'
sS'TCM_SSR2'
p771
S'K'
sS'EOECNV1C'
p772
S'V'
sS'AFLCABH'
p773
S'V'
sS'6MUPCNT2'
p774
S's'
sS'3FLCABPT'
p775
S'K'
sS'OHRTHR18'
p776
S'K'
sS'OHRTHR19'
p777
S'K'
sS'OHRTHR17'
p778
S'K'
sS'OHRTHR14'
p779
S'K'
sS'OHRTHR15'
p780
S'K'
sS'OHRTHR12'
p781
S'K'
sS'OHRTHR13'
p782
S'K'
sS'OHRTHR10'
p783
S'K'
sS'OHRTHR11'
p784
S'K'
sS'4PRTBV'
p785
S'V'
sS'CIUB15V'
p786
S'V'
sS'3TTHRC3T'
p787
S'K'
sS'HKFBIASLEAKI'
p788
S'uA'
p789
sS'PLAED3HT'
p790
S'K'
sS'SOLAREPHEM1_X'
p791
S'm'
sS'AIRU2BT'
p792
S'K'
sS'AORWSPD1'
p793
S'rad/s'
p794
sS'AORWSPD2'
p795
S'rad/s'
p796
sS'AORWSPD3'
p797
S'rad/s'
p798
sS'AORWSPD4'
p799
S'rad/s'
p800
sS'AORWSPD5'
p801
S'rad/s'
p802
sS'AORWSPD6'
p803
S'rad/s'
p804
sS'PM1THV1T'
p805
S'K'
sS'AOCMDRT2'
p806
S'rad/s'
p807
sS'AOCMDRT3'
p808
S'rad/s'
p809
sS'AI2AX2X'
p810
S'deg/s'
p811
sS'EORTDMN13D'
p812
S'K'
sS'4RT564T'
p813
S'K'
sS'EORTDMN21D'
p814
S'K'
sS'PMTANK1T'
p815
S'K'
sS'4SP52V'
p816
S'V'
sS'1DEN1BVO'
p817
S'V'
sS'PM3THV2T'
p818
S'K'
sS'EORTDMN29D'
p819
S'K'
sS'PLINE04T'
p820
S'K'
sS'PLAED3BT'
p821
S'K'
sS'AI2AX2Y'
p822
S'deg/s'
p823
sS'TB2T1'
p824
S'K'
sS'PXTANKOP'
p825
S'kPa'
p826
sS'4OAVHRMT'
p827
S'K'
sS'EORTDMN28D'
p828
S'K'
sS'PFFP01T'
p829
S'K'
sS'2N15VAVL'
p830
S'V'
sS'2N15VBVL'
p831
S'V'
sS'4LFSPBT'
p832
S'K'
sS'TMP_FEP1_PCB'
p833
S'K'
sS'AOSPBCS2B'
p834
S'mA'
p835
sS'HKEBIASLEAKI'
p836
S'uA'
p837
sS'1DEP0AVO'
p838
S'V'
sS'4CSDOAV'
p839
S'V'
sS'TEP_BPAN'
p840
S'K'
sS'1WRAT'
p841
S'K'
sS'PLAED1GT'
p842
S'K'
sS'TASPRWC'
p843
S'K'
sS'AORESY6_1'
p844
S'rad'
p845
sS'PLINE01T'
p846
S'K'
sS'6RWCMD4'
p847
S'J'
sS'6RWCMD5'
p848
S'J'
sS'6RWCMD6'
p849
S'J'
sS'AFLCA8AI'
p850
S'mA'
p851
sS'AACBPPT'
p852
S'K'
sS'4HPOSBRO'
p853
S'deg'
p854
sS'AORTERR3'
p855
S'rad/s'
p856
sS'1PDEAAT'
p857
S'K'
sS'PCM02T'
p858
S'K'
sS'3FAMYZAT'
p859
S'K'
sS'AACCCDPT'
p860
S'K'
sS'4OAVOBAT'
p861
S'K'
sS'HKGHV'
p862
S'V'
sS'PLAEV1AT'
p863
S'K'
sS'TPC_WDA'
p864
S'K'
sS'TSCTSF6'
p865
S'K'
sS'AOSPBCS3B'
p866
S'mA'
p867
sS'TCM_TX2'
p868
S'K'
sS'TCM_TX1'
p869
S'K'
sS'CTUA5V'
p870
S'V'
sS'4LLL1BT'
p871
S'K'
sS'TMZP_CNT'
p872
S'K'
sS'4RT582T'
p873
S'K'
sS'TMP_BEP_PCB'
p874
S'K'
sS'AHKNATRD'
p875
S'V'
sS'EOEB3VC'
p876
S'V'
sS'DPA5VHKB'
p877
S'V'
sS'6SINTER3'
p878
S'rad'
p879
sS'6SINTER2'
p880
S'rad'
p881
sS'AFLCA6AI'
p882
S'mA'
p883
sS'ORBITEPHEM0_Z'
p884
S'm'
sS'4CSDOBV'
p885
S'V'
sS'AFLCA9BI'
p886
S'mA'
p887
sS'1DEP2AVO'
p888
S'V'
sS'3RCTUBPT'
p889
S'K'
sS'6SURTER3'
p890
S'rad/s'
p891
sS'6SURTER2'
p892
S'rad/s'
p893
sS'6SURTER1'
p894
S'rad/s'
p895
sS'TMP_FEP0_ACTEL'
p896
S'K'
sS'6RWNLTQ2'
p897
S'J'
sS'OOBTHR49'
p898
S'K'
sS'OOBTHR46'
p899
S'K'
sS'OOBTHR47'
p900
S'K'
sS'OOBTHR44'
p901
S'K'
sS'OOBTHR45'
p902
S'K'
sS'OOBTHR42'
p903
S'K'
sS'OOBTHR43'
p904
S'K'
sS'OOBTHR40'
p905
S'K'
sS'OOBTHR41'
p906
S'K'
sS'AI1AX1X'
p907
S'deg/s'
p908
sS'PLAED2IT'
p909
S'K'
sS'AI1AX1Y'
p910
S'deg/s'
p911
sS'4HLL1BT'
p912
S'K'
sS'AWD2CV5V'
p913
S'V'
sS'6SINTER1'
p914
S'rad'
p915
sS'EORTDMN14D'
p916
S'K'
sS'LUNAREPHEM1_VZ'
p917
S'm/s'
p918
sS'6SAEST1'
p919
S'rad'
p920
sS'ANGLEEPHEM_POINT_EARTHCENTANG'
p921
S'deg'
p922
sS'ARWA1BT'
p923
S'K'
sS'AFLCA7BI'
p924
S'mA'
p925
sS'AORWNTQ1'
p926
S'J'
sS'PLAED4GT'
p927
S'K'
sS'LUNAREPHEM0_Y'
p928
S'm'
sS'6SARATC2'
p929
S'rad/s'
p930
sS'AFLC14BI'
p931
S'mA'
p932
sS'LUNAREPHEM0_Z'
p933
S'm'
sS'AOSPACS4B'
p934
S'mA'
p935
sS'OHRTHR58'
p936
S'K'
sS'OHRTHR59'
p937
S'K'
sS'OHRTHR52'
p938
S'K'
sS'OHRTHR53'
p939
S'K'
sS'OHRTHR50'
p940
S'K'
sS'OHRTHR51'
p941
S'K'
sS'OHRTHR56'
p942
S'K'
sS'2P15VAVL'
p943
S'V'
sS'OHRTHR54'
p944
S'K'
sS'OHRTHR55'
p945
S'K'
sS'AORWPI2B'
p946
S'ms'
p947
sS'TCYZ_RW1'
p948
S'K'
sS'AI2AX1X'
p949
S'deg/s'
p950
sS'3TSMXCET'
p951
S'K'
sS'AODITHR2'
p952
S'rad'
p953
sS'DPA5VHKA'
p954
S'V'
sS'ARWA2BT'
p955
S'K'
sS'PLAED3ET'
p956
S'K'
sS'3FAPOS'
p957
S'mm'
p958
sS'TSAPYT'
p959
S'K'
sS'CPA1V'
p960
S'V'
sS'ASPEA5CV'
p961
S'V'
sS'4IP15AV'
p962
S'V'
sS'PXTANK1T'
p963
S'K'
sS'4RT568T'
p964
S'K'
sS'HKN6I'
p965
S'mA'
p966
sS'ACPB5CV'
p967
S'V'
sS'OOBTHR02'
p968
S'K'
sS'1DPICACU'
p969
S'A'
sS'TCYLPCM'
p970
S'K'
sS'SOLAREPHEM0_TIME'
p971
S's'
sS'TOXTSUPN'
p972
S'K'
sS'AOSPBCS1B'
p973
S'mA'
p974
sS'4RT589T'
p975
S'K'
sS'ASPEFSW2B'
p976
S'deg'
p977
sS'TCYLRWC'
p978
S'K'
sS'AORWMOM2'
p979
S'J*s'
p980
sS'TCYLAFT5'
p981
S'K'
sS'AORWMOM1'
p982
S'J*s'
p983
sS'4RT700T'
p984
S'K'
sS'4LLL1AT'
p985
S'K'
sS'1CBAT'
p986
S'K'
sS'CPA2BPT'
p987
S'K'
sS'PLAED4IT'
p988
S'K'
sS'EB3DI'
p989
S'A'
sS'PLAED2FT'
p990
S'K'
sS'TCYLAFT6'
p991
S'K'
sS'6SUNER2'
p992
S'rad'
p993
sS'TAPEA2T'
p994
S'K'
sS'AFLC10AI'
p995
S'mA'
p996
sS'2PMT2T'
p997
S'K'
sS'EIACVAV'
p998
S'V'
sS'6RWNLTQ3'
p999
S'J'
sS'EB3V'
p1000
S'V'
sS'6CSSI4'
p1001
S'mA'
p1002
sS'PLAED1HT'
p1003
S'K'
sS'1MAHOAT'
p1004
S'K'
sS'EORTDMN24D'
p1005
S'K'
sS'3TTVALVT'
p1006
S'K'
sS'6CSSI1'
p1007
S'mA'
p1008
sS'PXDM02T'
p1009
S'K'
sS'AOCMDAC1'
p1010
S'rad/s**2'
p1011
sS'CUSOAIT'
p1012
S'K'
sS'4HPOSARO'
p1013
S'deg'
p1014
sS'OHRMGRD6'
p1015
S'deltaK'
p1016
sS'OHRMGRD3'
p1017
g1016
sS'DEA28VOLTA'
p1018
S'V'
sS'EOEB3V'
p1019
S'V'
sS'DEA28VOLTB'
p1020
S'V'
sS'4IN15AV'
p1021
S'V'
sS'3FAFLCAT'
p1022
S'K'
sS'CIUA15V'
p1023
S'V'
sS'AOTQCMD1'
p1024
S'J'
sS'AOTQCMD3'
p1025
S'J'
sS'AOTQCMD2'
p1026
S'J'
sS'TRSPOTEP'
p1027
S'K'
sS'AIRU2G2I'
p1028
S'mA'
p1029
sS'AOCMDAC2'
p1030
S'rad/s**2'
p1031
sS'TRSPOTEX'
p1032
S'K'
sS'AORTERR1'
p1033
S'rad/s'
p1034
sS'4PRT3AT'
p1035
S'K'
sS'AOSPACS1B'
p1036
S'mA'
p1037
sS'EOEBC'
p1038
S'A'
sS'TB1T1'
p1039
S'K'
sS'AFLCAAH'
p1040
S'V'
sS'1CRAT'
p1041
S'K'
sS'AFSSPC2V'
p1042
S'V'
sS'PMTANK2T'
p1043
S'K'
sS'4RT558T'
p1044
S'K'
sS'AOACYAN1'
p1045
S'arcsec'
p1046
sS'ANGLEEPHEM_POINT_RAMVECTORANG'
p1047
S'deg'
p1048
sS'TMP_FEP0_PCB'
p1049
S'K'
sS'1SSPYT'
p1050
S'K'
sS'AFLC11AI'
p1051
S'mA'
p1052
sS'PLAED1CT'
p1053
S'K'
sS'DEA24VOLTB'
p1054
S'V'
sS'AOCMDAC3'
p1055
S'rad/s**2'
p1056
sS'PLAED4HT'
p1057
S'K'
sS'2DTSTATT'
p1058
S'K'
sS'OOBTHR08'
p1059
S'K'
sS'OOBTHR09'
p1060
S'K'
sS'AAOTASMT'
p1061
S'K'
sS'CSITA5V'
p1062
S'V'
sS'OOBTHR03'
p1063
S'K'
sS'TCYLAFT3'
p1064
S'K'
sS'TCYLAFT2'
p1065
S'K'
sS'OOBTHR06'
p1066
S'K'
sS'OOBTHR07'
p1067
S'K'
sS'OOBTHR04'
p1068
S'K'
sS'OOBTHR05'
p1069
S'K'
sS'1DAHBT'
p1070
S'K'
sS'EOESAT2C'
p1071
S'K'
sS'6SARATC1'
p1072
S'rad/s'
p1073
sS'6RWCMD2'
p1074
S'J'
sS'PR3TV01T'
p1075
S'K'
sS'TBOLTCUT'
p1076
S'K'
sS'AOACYAN4'
p1077
S'arcsec'
p1078
sS'AOACYAN5'
p1079
S'arcsec'
p1080
sS'AOACYAN6'
p1081
S'arcsec'
p1082
sS'AOACYAN7'
p1083
S'arcsec'
p1084
sS'AOACYAN0'
p1085
S'arcsec'
p1086
sS'1MAHCBT'
p1087
S'K'
sS'AOACYAN2'
p1088
S'arcsec'
p1089
sS'AOACYAN3'
p1090
S'arcsec'
p1091
sS'TFSSBKT1'
p1092
S'K'
sS'PLAED4CT'
p1093
S'K'
sS'CUSOB28V'
p1094
S'V'
sS'AORESY7'
p1095
S'rad'
p1096
sS'AORESY4'
p1097
S'rad'
p1098
sS'CSITB5V'
p1099
S'V'
sS'6RWNLTQ4'
p1100
S'J'
sS'AORESY3'
p1101
S'rad'
p1102
sS'AORESY0'
p1103
S'rad'
p1104
sS'CSITB15V'
p1105
S'V'
sS'EB2CI'
p1106
S'A'
sS'TEP_PPAN'
p1107
S'K'
sS'AORESZ2_1'
p1108
S'rad'
p1109
sS'1DAHBVO'
p1110
S'V'
sS'4RT565T'
p1111
S'K'
sS'PLAED1ET'
p1112
S'K'
sS'CSSR2CBV'
p1113
S'V'
sS'4RT707T'
p1114
S'K'
sS'ORBITEPHEM0_TIME'
p1115
S's'
sS'PLINE05T'
p1116
S'K'
sS'PLAED3AT'
p1117
S'K'
sS'TAPE2PST'
p1118
S'K'
sS'4IP5BV'
p1119
S'V'
sS'4PRT4BT'
p1120
S'K'
sS'1DAHHAVO'
p1121
S'V'
sS'3TSPYFET'
p1122
S'K'
sS'3SFLXAST'
p1123
S'K'
sS'TMP_FEP1_ACTEL'
p1124
S'K'
sS'4RT555T'
p1125
S'K'
sS'6RWSPD1'
p1126
S'rad/s'
p1127
sS'TPC_DEA'
p1128
S'K'
sS'PXTANKIP'
p1129
S'kPa'
p1130
sS'3TSCPOS'
p1131
S'mm'
p1132
sS'AORWINT1'
p1133
S'ms'
p1134
sS'GND_2'
p1135
S'V'
sS'ARWA5BT'
p1136
S'K'
sS'ELBI_LOW'
p1137
S'A'
sS'2CHTRPZT'
p1138
S'K'
sS'4RT579T'
p1139
S'K'
sS'6RWNLTQ1'
p1140
S'J'
sS'TCM_USO'
p1141
S'K'
sS'PLINE13T'
p1142
S'K'
sS'AOATTER1'
p1143
S'rad'
p1144
sS'AOATTER2'
p1145
S'rad'
p1146
sS'AOATTER3'
p1147
S'rad'
p1148
sS'TMZLGABM'
p1149
S'K'
sS'2P24VAVL'
p1150
S'V'
sS'AWD5TQI'
p1151
S'A'
sS'AOADACH1A_NBG'
p1152
S'deg'
p1153
sS'ECNV1V'
p1154
S'V'
sS'EEPA5V'
p1155
S'V'
sS'4RT585T'
p1156
S'K'
sS'PLAED2BT'
p1157
S'K'
sS'OHRTHR03'
p1158
S'K'
sS'OHRTHR02'
p1159
S'K'
sS'OHRTHR05'
p1160
S'K'
sS'OHRTHR04'
p1161
S'K'
sS'OHRTHR07'
p1162
S'K'
sS'OHRTHR06'
p1163
S'K'
sS'OHRTHR09'
p1164
S'K'
sS'1WRBT'
p1165
S'K'
sS'AIRU1VFT'
p1166
S'K'
sS'AORESZ6_6'
p1167
S'rad'
p1168
sS'AORESZ6_7'
p1169
S'rad'
p1170
sS'AORESZ6_4'
p1171
S'rad'
p1172
sS'AOADBCH1A_NBG'
p1173
S'deg'
p1174
sS'AORESZ6_2'
p1175
S'rad'
p1176
sS'AORESZ6_3'
p1177
S'rad'
p1178
sS'CTSA5V'
p1179
S'V'
sS'AORESZ6_1'
p1180
S'rad'
p1181
sS'4RT570T'
p1182
S'K'
sS'AIRU1G1T'
p1183
S'K'
sS'4RT705T'
p1184
S'K'
sS'ELBI'
p1185
S'A'
sS'1CBBT'
p1186
S'K'
sS'AORESZ6_8'
p1187
S'rad'
p1188
sS'3BTU_BPT'
p1189
S'K'
sS'AOSARES2'
p1190
S'deg'
p1191
sS'AORESY5_1'
p1192
S'rad'
p1193
sS'DEAP15VOLTB'
p1194
S'V'
sS'ELBV'
p1195
S'V'
sS'4RT591T'
p1196
S'K'
sS'TEP_PCU'
p1197
S'K'
sS'1DEP0BVO'
p1198
S'V'
sS'4PRTAV'
p1199
S'V'
sS'SOLAREPHEM1_TIME'
p1200
S's'
sS'TMZP_MY'
p1201
S'K'
sS'CTSB15V'
p1202
S'V'
sS'GND_1'
p1203
S'V'
sS'CPCA15V'
p1204
S'V'
sS'TMYHNG'
p1205
S'K'
sS'SIM_Y'
p1206
S'mm'
p1207
sS'PLAEV3BT'
p1208
S'K'
sS'SIM_Z'
p1209
S'mm'
p1210
sS'1DEICBCU'
p1211
S'A'
sS'DPAGNDREF1'
p1212
S'V'
sS'FPTEMP_11'
p1213
S'K'
sS'DPAGNDREF2'
p1214
S'V'
sS'PLINE12T'
p1215
S'K'
sS'AIRU2VFT'
p1216
S'K'
sS'EOESAT1C'
p1217
S'K'
sS'CRXAV'
p1218
S'V'
sS'C28VMONA'
p1219
S'V'
sS'AOADACH2A_PCAD'
p1220
S'deg'
p1221
sS'3TSPZDET'
p1222
S'K'
sS'TPYSADA'
p1223
S'K'
sS'EORTDMN15D'
p1224
S'K'
sS'AIRU1G1I'
p1225
S'mA'
p1226
sS'PLAED4DT'
p1227
S'K'
sS'PHETANKP'
p1228
S'kPa'
p1229
sS'PLINE08T'
p1230
S'K'
sS'TPC_FSSE'
p1231
S'K'
sS'AFLC12BI'
p1232
S'mA'
p1233
sS'CIUA5V'
p1234
S'V'
sS'AFLC14AI'
p1235
S'mA'
p1236
sS'TSCIUSF1'
p1237
S'K'
sS'PFTANKOP'
p1238
S'kPa'
p1239
sS'AORESZ7'
p1240
S'rad'
p1241
sS'3TTRALCT'
p1242
S'K'
sS'2P15VBVL'
p1243
S'V'
sS'AORESZ4'
p1244
S'rad'
p1245
sS'AORESZ3'
p1246
S'rad'
p1247
sS'6RWNLTQ6'
p1248
S'J'
sS'AORESZ0'
p1249
S'rad'
p1250
sS'AORWNTQ4'
p1251
S'J'
sS'AORWNTQ5'
p1252
S'J'
sS'AORWNTQ6'
p1253
S'J'
sS'TMP_FEP1_MONG'
p1254
S'K'
sS'AORWMC6_1'
p1255
S'J*s'
p1256
sS'EOECNV2C'
p1257
S'V'
sS'AORWNTQ2'
p1258
S'J'
sS'CPA2V'
p1259
S'V'
sS'DEAM6VOLTA'
p1260
S'V'
sS'SOLAREPHEM0_VX'
p1261
S'm/s'
p1262
sS'AOSPBCS4B'
p1263
S'mA'
p1264
sS'4RT567T'
p1265
S'K'
sS'4PRT1BT'
p1266
S'K'
sS'6RATE2'
p1267
S'rad/s'
p1268
sS'TRSPOTPC'
p1269
S'K'
sS'6RATE1'
p1270
S'rad/s'
p1271
sS'TCM_OBC'
p1272
S'K'
sS'AORWMC1'
p1273
S'J*s'
p1274
sS'4RT578T'
p1275
S'K'
sS'AORWMC4'
p1276
S'J*s'
p1277
sS'AORWMC5'
p1278
S'J*s'
p1279
sS'6ALPANG'
p1280
S'deg'
p1281
sS'TCYLPCP'
p1282
S'K'
sS'PM1THV2T'
p1283
S'K'
sS'TB1T2'
p1284
S'K'
sS'AOSCPOS1'
p1285
S'km'
p1286
sS'AOSCPOS2'
p1287
S'km'
p1288
sS'AOSCPOS3'
p1289
S'km'
p1290
sS'4RT588T'
p1291
S'K'
sS'ORBITEPHEM0_X'
p1292
S'm'
sS'PCM01T'
p1293
S'K'
sS'4RT596T'
p1294
S'K'
sS'OOBTHR51'
p1295
S'K'
sS'OOBTHR50'
p1296
S'K'
sS'OOBTHR53'
p1297
S'K'
sS'OOBTHR52'
p1298
S'K'
sS'OOBTHR55'
p1299
S'K'
sS'OOBTHR54'
p1300
S'K'
sS'OOBTHR57'
p1301
S'K'
sS'OOBTHR56'
p1302
S'K'
sS'OOBTHR59'
p1303
S'K'
sS'OOBTHR58'
p1304
S'K'
sS'SIM_X'
p1305
S'mm'
p1306
sS'1SSMYT'
p1307
S'K'
sS'CTXBV'
p1308
S'V'
sS'4PRT2BT'
p1309
S'K'
sS'ARWA6BT'
p1310
S'K'
sS'4RT575T'
p1311
S'K'
sS'CPA1BPT'
p1312
S'K'
sS'PM4THV2T'
p1313
S'K'
sS'4IP5AV'
p1314
S'V'
sS'4VRMOAV'
p1315
S'V'
sS'6CSSI3'
p1316
S'mA'
p1317
sS'2PMT1T'
p1318
S'K'
sS'EB2V'
p1319
S'V'
sS'1DPAMZT'
p1320
S'K'
sS'EIACVBV'
p1321
S'V'
sS'EORTDMN27D'
p1322
S'K'
sS'4RT703T'
p1323
S'K'
sS'1DAHHBVO'
p1324
S'V'
sS'1DEP1AVO'
p1325
S'V'
sS'1VAHOBT'
p1326
S'K'
sS'1MAHOBT'
p1327
S'K'
sS'4RT706T'
p1328
S'K'
sS'CRXBLS'
p1329
S'kHz'
p1330
sS'AOSAEST2'
p1331
S'rad'
p1332
sS'OHRTHR49'
p1333
S'K'
sS'TASPPCM'
p1334
S'K'
sS'OHRTHR45'
p1335
S'K'
sS'OHRTHR44'
p1336
S'K'
sS'OHRTHR47'
p1337
S'K'
sS'OHRTHR46'
p1338
S'K'
sS'OHRTHR41'
p1339
S'K'
sS'OHRTHR40'
p1340
S'K'
sS'OHRTHR43'
p1341
S'K'
sS'OHRTHR42'
p1342
S'K'
sS'AWD2TQI'
p1343
S'A'
sS'4LPOSARO'
p1344
S'deg'
p1345
sS'PCM03T'
p1346
S'K'
sS'EOEB1DIC'
p1347
S'A'
sS'ANGLEEPHEM_POINT_SUNLIMBANG'
p1348
S'deg'
p1349
sS'62RCSTMR'
p1350
S's'
sS'TASPPCU'
p1351
S'K'
sS'PCM04T'
p1352
S'K'
sS'64RCSTMR'
p1353
S's'
sS'4RT708T'
p1354
S'K'
sS'OOBAGRD6'
p1355
g1016
sS'TB1T3'
p1356
S'K'
sS'TEP_EIA'
p1357
S'K'
sS'AESAPHA2'
p1358
S'deg'
p1359
sS'OOBAGRD3'
p1360
g1016
sS'PLAED1FT'
p1361
S'K'
sS'EB3CI'
p1362
S'A'
sS'AORESZ1_1'
p1363
S'rad'
p1364
sS'TATECDPT'
p1365
S'K'
sS'AOSUNER1'
p1366
S'rad'
p1367
sS'4MP28AV'
p1368
S'V'
sS'1HOPRBPR'
p1369
S'kPa'
p1370
sS'1CRBT'
p1371
S'K'
sS'AWD6TQI'
p1372
S'A'
s.