(dp1
S'TCYLAFT1'
p2
S'K'
sS'AORWPI4B'
p3
S'ms'
p4
sS'1DEAMZT'
p5
S'K'
sS'4RT709T'
p6
S'K'
sS'PLINE16T'
p7
S'K'
sS'EORTDMN18D'
p8
S'K'
sS'AOSUNER2'
p9
S'rad'
p10
sS'LUNAREPHEM1_TIME'
p11
S's'
sS'3SDP15V'
p12
S'V'
sS'TFSPPCM'
p13
S'K'
sS'EB1CI'
p14
S'A'
sS'OHRTHR38'
p15
S'K'
sS'OHRTHR39'
p16
S'K'
sS'TFSPPCP'
p17
S'K'
sS'ASPEFSW3B'
p18
S'deg'
p19
sS'CUSOAOVN'
p20
S'W'
sS'OOBTHR47'
p21
S'K'
sS'OHRTHR30'
p22
S'K'
sS'OHRTHR31'
p23
S'K'
sS'OHRTHR33'
p24
S'K'
sS'1DPP0BVO'
p25
S'V'
sS'OHRTHR35'
p26
S'K'
sS'POM1THV2T'
p27
S'K'
sS'OHRTHR37'
p28
S'K'
sS'EORTDMN11D'
p29
S'K'
sS'AFLC11BI'
p30
S'mA'
p31
sS'ANGLEEPHEM_SUN_EARTHCENTANG'
p32
S'deg'
p33
sS'AORWMC3_1'
p34
S'J*s'
p35
sS'TEPHIN'
p36
S'K'
sS'3TTHRC1T'
p37
S'K'
sS'ELBI_LOW'
p38
S'A'
sS'OHRTHR08_WIDE'
p39
S'K'
sS'PLAED4FT'
p40
S'K'
sS'4RT562T'
p41
S'K'
sS'AFLCA2BI'
p42
S'mA'
p43
sS'4RT710T'
p44
S'K'
sS'ASPEB5CV'
p45
S'V'
sS'TMP_FEP0_RAM'
p46
S'K'
sS'TPC_PAN'
p47
S'K'
sS'AOZABR'
p48
S'rad'
p49
sS'AORESZ5_1'
p50
S'rad'
p51
sS'1DEP1BVO'
p52
S'V'
sS'AORTERR3'
p53
S'rad/s'
p54
sS'TB2T2'
p55
S'K'
sS'PLINE06T'
p56
S'K'
sS'ANGLEEPHEM_SUN_EARTHLIMBANG'
p57
S'deg'
p58
sS'AORWPI3B'
p59
S'ms'
p60
sS'POR2TV02T'
p61
S'K'
sS'1DAHAVO'
p62
S'V'
sS'OOBTHR36_WIDE'
p63
S'K'
sS'AOSPACS3B'
p64
S'mA'
p65
sS'ORBITEPHEM0_VX'
p66
S'm/s'
p67
sS'PXTANK2T'
p68
S'K'
sS'OOBTHR24_WIDE'
p69
S'K'
sS'AI1AX1X'
p70
S'deg/s'
p71
sS'3TSMYDPT'
p72
S'K'
sS'ORBITEPHEM0_VY'
p73
S'm/s'
p74
sS'3TTACS1T'
p75
S'K'
sS'AIRU2G2T'
p76
S'K'
sS'ORBITEPHEM0_VZ'
p77
S'm/s'
p78
sS'OHRTHR41_WIDE'
p79
S'K'
sS'AORTERR2'
p80
S'rad/s'
p81
sS'CUSOA28V'
p82
S'V'
sS'PLAED2AT'
p83
S'K'
sS'OHRTHR31_WIDE'
p84
S'K'
sS'AVACMON'
p85
S'K'
sS'4RT556T'
p86
S'K'
sS'OOBTHR33'
p87
S'K'
sS'3TRMTRAT'
p88
S'K'
sS'OHRTHR25_WIDE'
p89
S'K'
sS'ES1P5CV'
p90
S'V'
sS'EOESAC1C'
p91
S'A'
sS'OOBTHR18'
p92
S'K'
sS'OHRTHR05_WIDE'
p93
S'K'
sS'POR1TV01T'
p94
S'K'
sS'OOBTHR14'
p95
S'K'
sS'OOBTHR17'
p96
S'K'
sS'OOBTHR30'
p97
S'K'
sS'OOBTHR11'
p98
S'K'
sS'OOBTHR10'
p99
S'K'
sS'ECNV2V'
p100
S'V'
sS'OOBTHR12'
p101
S'K'
sS'4HLL2BT'
p102
S'K'
sS'EOEB1CIC'
p103
S'A'
sS'TB3T1'
p104
S'K'
sS'OOBTHR10_WIDE'
p105
S'K'
sS'4HLL1AT'
p106
S'K'
sS'AACCCDRT'
p107
S'K'
sS'ESAMYI'
p108
S'A'
sS'4RT581T'
p109
S'K'
sS'TMYSADA'
p110
S'K'
sS'OHRTHR43_WIDE'
p111
S'K'
sS'1HOPRAPR'
p112
S'kPa'
p113
sS'OHRTHR34'
p114
S'K'
sS'AFLCA5AI'
p115
S'mA'
p116
sS'HKP6I'
p117
S'mA'
p118
sS'3TSMXSPT'
p119
S'K'
sS'AORESY3'
p120
S'rad'
p121
sS'CVEER'
p122
S'V'
sS'CVEEP'
p123
S'V'
sS'HKP6V'
p124
S'V'
sS'2P05VBVL'
p125
S'V'
sS'PLAED3IT'
p126
S'K'
sS'4RT592T'
p127
S'K'
sS'HKDBIASLEAKI'
p128
S'uA'
p129
sS'61RCSTMR'
p130
S's'
sS'AIRU1BT'
p131
S'K'
sS'PR2TV01T'
p132
S'K'
sS'TCM_SSR1'
p133
S'K'
sS'6DRFTQC2'
p134
S'J'
sS'6DRFTQC3'
p135
S'J'
sS'POLINE04T'
p136
S'K'
sS'6DRFTQC1'
p137
S'J'
sS'OOBTHR29_WIDE'
p138
S'K'
sS'OOBTHR53_WIDE'
p139
S'K'
sS'5EPHINT'
p140
S'K'
sS'4VRMOBV'
p141
S'V'
sS'PLAEV3AT'
p142
S'K'
sS'AORESY0'
p143
S'rad'
p144
sS'AFLCA1AI'
p145
S'mA'
p146
sS'AOSRERR3'
p147
S'rad/s'
p148
sS'TEP_PSU1'
p149
S'K'
sS'OHRTHR36_WIDE'
p150
S'K'
sS'2DCENTRT'
p151
S'K'
sS'OOBTHR60'
p152
S'K'
sS'OOBTHR61'
p153
S'K'
sS'OOBTHR62'
p154
S'K'
sS'OOBTHR63'
p155
S'K'
sS'PLINE11T'
p156
S'K'
sS'AFLC14BI'
p157
S'mA'
p158
sS'EPA15V'
p159
S'V'
sS'AOALPANG'
p160
S'deg'
p161
sS'AFLCAAH'
p162
S'V'
sS'OHRTHR30_WIDE'
p163
S'K'
sS'3SDP5V'
p164
S'V'
sS'AOSPACS2B'
p165
S'mA'
p166
sS'4RT584T'
p167
S'K'
sS'AODVTIME'
p168
S's'
sS'OOBTHR45_WIDE'
p169
S'K'
sS'AODITHR3'
p170
S'rad'
p171
sS'AAOTH2MT'
p172
S'K'
sS'AODITHR1'
p173
S'rad'
p174
sS'OHRTHR62_WIDE'
p175
S'K'
sS'PLAED1BT'
p176
S'K'
sS'3TTRALAT'
p177
S'K'
sS'AFLC12AI'
p178
S'mA'
p179
sS'AOSACMD2'
p180
S'rad'
p181
sS'POLINE16T'
p182
S'K'
sS'OOBTHR31'
p183
S'K'
sS'TRSPMTPC'
p184
S'K'
sS'4PRT1BT'
p185
S'K'
sS'AORESY1_1'
p186
S'rad'
p187
sS'ANGLEEPHEM_POINT_SUNCENTANG'
p188
S'deg'
p189
sS'OOBTHR46'
p190
S'K'
sS'EPB15V'
p191
S'V'
sS'2UVLSPXT'
p192
S'K'
sS'TFSSBKT2'
p193
S'K'
sS'3FARALAT'
p194
S'K'
sS'TMP_FEP0_FB'
p195
S'K'
sS'AOCMDRT1'
p196
S'rad/s'
p197
sS'4HLL2AT'
p198
S'K'
sS'TCM_PA2'
p199
S'K'
sS'OOBTHR09_WIDE'
p200
S'K'
sS'AOADACH1A_PCAD'
p201
S'deg'
p202
sS'ANGLEEPHEM_POINT_EARTHLIMBANG'
p203
S'deg'
p204
sS'TMP_FEP1_RAM'
p205
S'K'
sS'3FAPYZAT'
p206
S'K'
sS'OHRTHR08'
p207
S'K'
sS'TFUTSUPN'
p208
S'K'
sS'PLAED3GT'
p209
S'K'
sS'AORATE1'
p210
S'rad/s'
p211
sS'SOLAREPHEM1_X'
p212
S'm'
sS'AORATE3'
p213
S'rad/s'
p214
sS'AORATE2'
p215
S'rad/s'
p216
sS'EORTDMN12D'
p217
S'K'
sS'4RT598T'
p218
S'K'
sS'EOECNV3C'
p219
S'V'
sS'3TTACS2T'
p220
S'K'
sS'TCM_CTU'
p221
S'K'
sS'ESAPYI'
p222
S'A'
sS'4HFSPBT'
p223
S'K'
sS'EEPB5V'
p224
S'V'
sS'3FAFLAAT'
p225
S'K'
sS'4MP28BV'
p226
S'V'
sS'OHRTHR09_WIDE'
p227
S'K'
sS'PLAED3DT'
p228
S'K'
sS'OHRTHR51'
p229
S'K'
sS'EORTDMN23D'
p230
S'K'
sS'AOACZAN4'
p231
S'arcsec'
p232
sS'PLINE02T'
p233
S'K'
sS'4ALL1AT'
p234
S'K'
sS'PLAED4DT'
p235
S'K'
sS'2CEAHVPT'
p236
S'K'
sS'PLAEV2AT'
p237
S'K'
sS'PXTANKOP'
p238
S'kPa'
p239
sS'AORESZ6_5'
p240
S'rad'
p241
sS'AWD3TQI'
p242
S'A'
sS'TRSPRWCM'
p243
S'K'
sS'AOSUNER3'
p244
S'rad'
p245
sS'CTXAV'
p246
S'V'
sS'AAOTAPMT'
p247
S'K'
sS'PLAED2DT'
p248
S'K'
sS'TMZP_PY'
p249
S'K'
sS'POR2TV01T'
p250
S'K'
sS'AORWPI6B'
p251
S'ms'
p252
sS'4PRT1AT'
p253
S'K'
sS'OHRTHR54_WIDE'
p254
S'K'
sS'1DPAMYT'
p255
S'K'
sS'1DACTBT'
p256
S'K'
sS'2TLEV2RT'
p257
S'count'
p258
sS'AFLCA4BI'
p259
S'mA'
p260
sS'AOACZAN2'
p261
S'arcsec'
p262
sS'PM4THV1T'
p263
S'K'
sS'CSITA15V'
p264
S'V'
sS'TPZLGABM'
p265
S'K'
sS'AFLC13AI'
p266
S'mA'
p267
sS'AORWBTQ1'
p268
S'J'
sS'AORWBTQ2'
p269
S'J'
sS'AORWBTQ3'
p270
S'J'
sS'AORWBTQ4'
p271
S'J'
sS'AGWS1V'
p272
S'V'
sS'AORWBTQ6'
p273
S'J'
sS'AWD6CV5V'
p274
S'V'
sS'3FABRCAT'
p275
S'K'
sS'AWD4CV5V'
p276
S'V'
sS'4RT576T'
p277
S'K'
sS'AWD1TQI'
p278
S'A'
sS'OHRTHR53'
p279
S'K'
sS'HKABIASLEAKI'
p280
S'uA'
p281
sS'TCYZ_RW6'
p282
S'K'
sS'OOBTHR20_WIDE'
p283
S'K'
sS'PR2TV02T'
p284
S'K'
sS'PLAED4AT'
p285
S'K'
sS'DEAM15VOLTB'
p286
S'V'
sS'DEAM15VOLTA'
p287
S'V'
sS'2P05VAVL'
p288
S'V'
sS'PLAEV4AT'
p289
S'K'
sS'1VAHCBT'
p290
S'K'
sS'PM2THV1T'
p291
S'K'
sS'PLINE09T'
p292
S'K'
sS'4PRT5AT'
p293
S'K'
sS'1DPP0AVO'
p294
S'V'
sS'3FAFLBAT'
p295
S'K'
sS'5EIOT'
p296
S'K'
sS'CPCB5V'
p297
S'V'
sS'PLAED1IT'
p298
S'K'
sS'OOBTHR37_WIDE'
p299
S'K'
sS'3MRMMXMV'
p300
S'PWM'
p301
sS'3FAPOS'
p302
S'mm'
p303
sS'CPCA5V'
p304
S'V'
sS'CXPNAIT'
p305
S'K'
sS'TEIO'
p306
S'K'
sS'TSAPYT'
p307
S'K'
sS'AORWMC2_1'
p308
S'J*s'
p309
sS'OHRTHR47_WIDE'
p310
S'K'
sS'OOBTHR52_WIDE'
p311
S'K'
sS'AOSARES1'
p312
S'deg'
p313
sS'AACBPRT'
p314
S'K'
sS'PLAED1AT'
p315
S'K'
sS'4RT591T'
p316
S'K'
sS'OHRTHR34_WIDE'
p317
S'K'
sS'TPCM_RW4'
p318
S'K'
sS'4RT580T'
p319
S'K'
sS'TEP_PCU'
p320
S'K'
sS'4VRMHBV'
p321
S'V'
sS'PHETANKT'
p322
S'K'
sS'TAPE1PST'
p323
S'K'
sS'AOCSSI2'
p324
S'mA'
p325
sS'AIRU1G1I'
p326
S'mA'
p327
sS'OOBTHR24'
p328
S'K'
sS'6TQCMD1'
p329
S'J'
sS'6TQCMD2'
p330
S'J'
sS'6TQCMD3'
p331
S'J'
sS'OOBTHR20'
p332
S'K'
sS'OOBTHR21'
p333
S'K'
sS'OOBTHR22'
p334
S'K'
sS'OOBTHR23'
p335
S'K'
sS'PR1TV01T'
p336
S'K'
sS'AVD2CV5V'
p337
S'V'
sS'TPCM_RW5'
p338
S'K'
sS'OOBTHR28'
p339
S'K'
sS'OOBTHR29'
p340
S'K'
sS'OOBTHR12_WIDE'
p341
S'K'
sS'AIOBP5CV'
p342
S'V'
sS'EORTDMN16D'
p343
S'K'
sS'2FHTRMZT'
p344
S'K'
sS'AOSAANG1'
p345
S'rad'
p346
sS'AOSAANG2'
p347
S'rad'
p348
sS'4RT577T'
p349
S'K'
sS'6MUPCNT3'
p350
S's'
sS'6MUPCNT2'
p351
S's'
sS'6MUPCNT1'
p352
S's'
sS'4RT561T'
p353
S'K'
sS'EOEBCC_LOW'
p354
S'A'
sS'AOADBCH1A_NBG'
p355
S'deg'
p356
sS'6MUPCNT4'
p357
S's'
sS'OHRTHR57'
p358
S'K'
sS'AOMANTIM'
p359
S's'
sS'CTUB5V'
p360
S'V'
sS'AWD4TQI'
p361
S'A'
sS'4LLL2AT'
p362
S'K'
sS'AWD5CV5V'
p363
S'V'
sS'HKBBIASLEAKI'
p364
S'uA'
p365
sS'4ALL1BT'
p366
S'K'
sS'PR1TV02T'
p367
S'K'
sS'CPCB15V'
p368
S'V'
sS'4RT711T'
p369
S'K'
sS'OHRTHR52_WIDE'
p370
S'K'
sS'AGWS2V'
p371
S'V'
sS'OOBTHR38_WIDE'
p372
S'K'
sS'EORTDMN26D'
p373
S'K'
sS'EB1V'
p374
S'V'
sS'AOIRERL1'
p375
S'rad'
p376
sS'AOIRERL2'
p377
S'rad'
p378
sS'AOIRERL3'
p379
S'rad'
p380
sS'3SFLXCST'
p381
S'K'
sS'PLINE07T'
p382
S'K'
sS'PLAEV2BT'
p383
S'K'
sS'AOSCVEL1'
p384
S'km/s'
p385
sS'AOSCVEL3'
p386
S'km/s'
p387
sS'AOSCVEL2'
p388
S'km/s'
p389
sS'1DE28AVO'
p390
S'V'
sS'TSCTSF1'
p391
S'K'
sS'EOEB3DIC'
p392
S'A'
sS'AFLC13BI'
p393
S'mA'
p394
sS'PR4TV02T'
p395
S'K'
sS'ACPA5CV'
p396
S'V'
sS'4RT563T'
p397
S'K'
sS'AOGBIAS1'
p398
S'rad/s'
p399
sS'AOGBIAS2'
p400
S'rad/s'
p401
sS'AOGBIAS3'
p402
S'rad/s'
p403
sS'1DEN1AVO'
p404
S'V'
sS'1DEN0AVO'
p405
S'V'
sS'OHRTHR03_WIDE'
p406
S'K'
sS'PFTANKIP'
p407
S'kPa'
p408
sS'ANGLEEPHEM_TIME'
p409
S's'
sS'1DPICBCU'
p410
S'A'
sS'LUNAREPHEM1_VY'
p411
S'm/s'
p412
sS'LUNAREPHEM1_VX'
p413
S'm/s'
p414
sS'AI1AX1Y'
p415
S'deg/s'
p416
sS'1DP28AVO'
p417
S'V'
sS'OOBTHR15_WIDE'
p418
S'K'
sS'4CSDHAV'
p419
S'V'
sS'OHRTHR26_WIDE'
p420
S'K'
sS'3SDPST'
p421
S'K'
sS'4RT587T'
p422
S'K'
sS'AI1AX2Y'
p423
S'deg/s'
p424
sS'AI1AX2X'
p425
S'deg/s'
p426
sS'AOSYMOM2'
p427
S'J*s'
p428
sS'SOLAREPHEM0_Y'
p429
S'm'
sS'AORWCMD5'
p430
S'J'
sS'POR1TV02T'
p431
S'K'
sS'OHRTHR29'
p432
S'K'
sS'AORWCMD6'
p433
S'J'
sS'AORWCMD1'
p434
S'J'
sS'OOBTHR46_WIDE'
p435
S'K'
sS'AORWCMD3'
p436
S'J'
sS'AORWCMD2'
p437
S'J'
sS'OHRTHR23'
p438
S'K'
sS'OHRTHR22'
p439
S'K'
sS'OHRTHR21'
p440
S'K'
sS'OHRTHR20'
p441
S'K'
sS'OHRTHR27'
p442
S'K'
sS'OHRTHR26'
p443
S'K'
sS'OHRTHR25'
p444
S'K'
sS'POM2THV2T'
p445
S'K'
sS'4IN15BV'
p446
S'V'
sS'63RCSTMR'
p447
S's'
sS'OOBTHR13_WIDE'
p448
S'K'
sS'4RT594T'
p449
S'K'
sS'TCNR_BRM'
p450
S'K'
sS'AOSYMOM1'
p451
S'J*s'
p452
sS'TCYLFMZP'
p453
S'K'
sS'4RT569T'
p454
S'K'
sS'4RT578T'
p455
S'K'
sS'4RT597T'
p456
S'K'
sS'TEP_RCTU'
p457
S'K'
sS'4RT702T'
p458
S'K'
sS'ASPEFSW1B'
p459
S'deg'
p460
sS'SOLAREPHEM0_X'
p461
S'm'
sS'1VAHOAT'
p462
S'K'
sS'AACH1T'
p463
S'K'
sS'4PRT2AT'
p464
S'K'
sS'POLINE07T'
p465
S'K'
sS'TPC_ESE'
p466
S'K'
sS'HKCBIASLEAKI'
p467
S'uA'
p468
sS'AFLCA9AI'
p469
S'mA'
p470
sS'OHRTHR36'
p471
S'K'
sS'HKP27I'
p472
S'mA'
p473
sS'CTSB5V'
p474
S'V'
sS'PHOFP1T'
p475
S'K'
sS'SOLAREPHEM1_VZ'
p476
S'm/s'
p477
sS'AFLCA1BI'
p478
S'mA'
p479
sS'HKP27V'
p480
S'V'
sS'3SDFLXBT'
p481
S'K'
sS'3SFLXAST'
p482
S'K'
sS'PR4TV01T'
p483
S'K'
sS'TAPEA1T'
p484
S'K'
sS'SOLAREPHEM1_VX'
p485
S'm/s'
p486
sS'PLINE10T'
p487
S'K'
sS'SOLAREPHEM0_VY'
p488
S'm/s'
p489
sS'TCM_PA1'
p490
S'K'
sS'OOBTHR17_WIDE'
p491
S'K'
sS'PLINE03T'
p492
S'K'
sS'2FRADPYT'
p493
S'K'
sS'1DE28BVO'
p494
S'V'
sS'C28VMONB'
p495
S'V'
sS'4RT595T'
p496
S'K'
sS'SOLAREPHEM0_VZ'
p497
S'm/s'
p498
sS'OHRTHR22_WIDE'
p499
S'K'
sS'AFLC10BI'
p500
S'mA'
p501
sS'4LLL2BT'
p502
S'K'
sS'LUNAREPHEM0_VX'
p503
S'm/s'
p504
sS'LUNAREPHEM0_VY'
p505
S'm/s'
p506
sS'LUNAREPHEM0_VZ'
p507
S'm/s'
p508
sS'AOADACH2A_PCAD'
p509
S'deg'
p510
sS'ES2P5CV'
p511
S'V'
sS'AORWPI5B'
p512
S'ms'
p513
sS'4PRT4AT'
p514
S'K'
sS'CUSOBOVN'
p515
S'W'
sS'ORBITEPHEM1_VY'
p516
S'm/s'
p517
sS'TFSPCMM'
p518
S'K'
sS'EORTDMN19D'
p519
S'K'
sS'OOBTHR02_WIDE'
p520
S'K'
sS'4HFSPAT'
p521
S'K'
sS'4MP5BV'
p522
S'V'
sS'AOINTTIM'
p523
S's'
sS'TFSPCMP'
p524
S'K'
sS'POM1THV1T'
p525
S'K'
sS'OOBTHR50_WIDE'
p526
S'K'
sS'4LLL1BT'
p527
S'K'
sS'AOACZAN5'
p528
S'arcsec'
p529
sS'OHRTHR21_WIDE'
p530
S'K'
sS'AOACZAN7'
p531
S'arcsec'
p532
sS'AOACZAN6'
p533
S'arcsec'
p534
sS'AOACZAN1'
p535
S'arcsec'
p536
sS'AOACZAN0'
p537
S'arcsec'
p538
sS'AOACZAN3'
p539
S'arcsec'
p540
sS'OOBTHR25'
p541
S'K'
sS'3TTHRC2T'
p542
S'K'
sS'OOBTHR26'
p543
S'K'
sS'TCYLAFT4'
p544
S'K'
sS'CRXALS'
p545
S'kHz'
p546
sS'AOYABR'
p547
S'rad'
p548
sS'AOSRERR1'
p549
S'rad/s'
p550
sS'AOSRERR2'
p551
S'rad/s'
p552
sS'TIME'
p553
S's'
sS'PLAED2GT'
p554
S'K'
sS'TESH1'
p555
S'K'
sS'CXO5VOBB'
p556
S'V'
sS'AOSAEST1'
p557
S'rad'
p558
sS'1DAHACU'
p559
S'A'
sS'CXO5VOBA'
p560
S'V'
sS'EORTDMN22D'
p561
S'K'
sS'PM3THV1T'
p562
S'K'
sS'3SDMAJFP'
p563
S's'
sS'1DEP2BVO'
p564
S'V'
sS'AOETIMEX'
p565
S's'
sS'2CONDMXT'
p566
S'K'
sS'6SARES2'
p567
S'deg'
p568
sS'6SARES1'
p569
S'deg'
p570
sS'AORWINT5'
p571
S'ms'
p572
sS'1DEN0BVO'
p573
S'V'
sS'4IP15BV'
p574
S'V'
sS'4ALL2BT'
p575
S'K'
sS'AORWINT6'
p576
S'ms'
p577
sS'CIUB5V'
p578
S'V'
sS'4ALL2AT'
p579
S'K'
sS'3FAMTRAT'
p580
S'K'
sS'OOBTHR08_WIDE'
p581
S'K'
sS'CTUA15V'
p582
S'V'
sS'SOLAREPHEM1_VY'
p583
S'm/s'
p584
sS'AOADACH2A_NBG'
p585
S'deg'
p586
sS'OHRTHR42_WIDE'
p587
S'K'
sS'PLAED2ET'
p588
S'K'
sS'CSSR1CAV'
p589
S'V'
sS'TMP_BEP_OSC'
p590
S'K'
sS'EOEB2DIC'
p591
S'A'
sS'3TTBRGBT'
p592
S'K'
sS'EOEBCC'
p593
S'A'
sS'AORWINT2'
p594
S'ms'
p595
sS'AORWINT3'
p596
S'ms'
p597
sS'AORWINT4'
p598
S'ms'
p599
sS'1DACTAT'
p600
S'deg'
p601
sS'OOBTHR13'
p602
S'K'
sS'AFLCA4AI'
p603
S'mA'
p604
sS'OOBTHR15'
p605
S'K'
sS'4SP51V'
p606
S'V'
sS'EORTDMN25D'
p607
S'K'
sS'PLAED2CT'
p608
S'K'
sS'EOEB1VC'
p609
S'V'
sS'C10VREFB'
p610
S'V'
sS'C10VREFA'
p611
S'V'
sS'DEAP15VOLTA'
p612
S'V'
sS'EOEB2VC'
p613
S'V'
sS'ORBITEPHEM0_TIME'
p614
S's'
sS'AWD1CV5V'
p615
S'V'
sS'OOBTHR03_WIDE'
p616
S'K'
sS'SOLAREPHEM1_Z'
p617
S'm'
sS'AFLCA8BI'
p618
S'mA'
p619
sS'PLAED1DT'
p620
S'K'
sS'ARWA3BT'
p621
S'K'
sS'AOACINTT'
p622
S'ms'
p623
sS'POLAEV1AT'
p624
S'K'
sS'OHRTHR63'
p625
S'K'
sS'OHRTHR62'
p626
S'K'
sS'OHRTHR61'
p627
S'K'
sS'EOEB3CIC'
p628
S'A'
sS'AOSYMOM3'
p629
S'J*s'
p630
sS'EOESAC2C'
p631
S'A'
sS'6BETANG'
p632
S'deg'
p633
sS'4RT701T'
p634
S'K'
sS'AFLCA2AI'
p635
S'mA'
p636
sS'HKP5I'
p637
S'mA'
p638
sS'1OAHBT'
p639
S'K'
sS'OOBTHR19'
p640
S'K'
sS'1DAHBCU'
p641
S'A'
sS'OOBTHR63_WIDE'
p642
S'K'
sS'PMFP01T'
p643
S'K'
sS'AFLCA5BI'
p644
S'mA'
p645
sS'OHRTHR04_WIDE'
p646
S'K'
sS'ECNV3V'
p647
S'V'
sS'PLINE15T'
p648
S'K'
sS'4RT583T'
p649
S'K'
sS'HKP5V'
p650
S'V'
sS'OHRTHR51_WIDE'
p651
S'K'
sS'AIOAP5CV'
p652
S'V'
sS'HKN6V'
p653
S'V'
sS'AOMANRT'
p654
S'rad/s'
p655
sS'TATECDRT'
p656
S'K'
sS'4RT559T'
p657
S'K'
sS'4PRT3BT'
p658
S'K'
sS'TSCTSF2'
p659
S'K'
sS'TSCTSF3'
p660
S'K'
sS'OHRTHR53_WIDE'
p661
S'K'
sS'HKGHV'
p662
S'V'
sS'4PRT5BT'
p663
S'K'
sS'OHRTHR13_WIDE'
p664
S'K'
sS'TCM_RFAS'
p665
S'K'
sS'OHRTHR11_WIDE'
p666
S'K'
sS'PLAED4ET'
p667
S'K'
sS'TCM_TX1'
p668
S'K'
sS'ANGLEEPHEM_POINT_SUNLIMBANG'
p669
S'deg'
p670
sS'6SARATC2'
p671
S'rad/s'
p672
sS'1DEICACU'
p673
S'A'
sS'6SARATC1'
p674
S'rad/s'
p675
sS'1MAHCAT'
p676
S'K'
sS'PMTANK3T'
p677
S'K'
sS'PR3TV02T'
p678
S'K'
sS'TESH2'
p679
S'K'
sS'3TSPZSPT'
p680
S'K'
sS'HKEBOXTEMP'
p681
S'K'
sS'AORWINT1'
p682
S'ms'
p683
sS'1DEP3BVO'
p684
S'V'
sS'ORBITEPHEM1_TIME'
p685
S's'
sS'AOAVGDTQ'
p686
S'J'
sS'EORTDMN17D'
p687
S'K'
sS'PLAED4BT'
p688
S'K'
sS'ADE1P5CV'
p689
S'V'
sS'TFSPPCU'
p690
S'K'
sS'6RWSPD1'
p691
S'rad/s'
p692
sS'AOMANANG'
p693
S'rad'
p694
sS'6RWSPD3'
p695
S'rad/s'
p696
sS'6RWSPD2'
p697
S'rad/s'
p698
sS'6RWSPD5'
p699
S'rad/s'
p700
sS'6RWSPD4'
p701
S'rad/s'
p702
sS'OHRTHR06_WIDE'
p703
S'K'
sS'POLINE03T'
p704
S'K'
sS'1MAHOAT'
p705
S'K'
sS'OHRTHR11'
p706
S'K'
sS'AFLCA7AI'
p707
S'mA'
p708
sS'EB2DI'
p709
S'A'
sS'HKN6I'
p710
S'mA'
p711
sS'TRSPRWBB'
p712
S'K'
sS'AORESZ4'
p713
S'rad'
p714
sS'AOSACMD1'
p715
S'rad'
p716
sS'AORWNTQ3'
p717
S'J'
sS'ANGLEEPHEM_POINT_MOONLIMBANG'
p718
S'deg'
p719
sS'ORBITEPHEM1_X'
p720
S'm'
sS'ORBITEPHEM1_Y'
p721
S'm'
sS'ORBITEPHEM1_Z'
p722
S'm'
sS'ANGLEEPHEM_DIST_SATEARTH'
p723
S'm'
sS'OOBTHR19_WIDE'
p724
S'K'
sS'AFLCA3BI'
p725
S'mA'
p726
sS'FPTEMP_12'
p727
S'K'
sS'AORWPI1B'
p728
S'ms'
p729
sS'EB1DI'
p730
S'A'
sS'OHRTHR27_WIDE'
p731
S'K'
sS'LUNAREPHEM1_X'
p732
S'm'
sS'LUNAREPHEM1_Y'
p733
S'm'
sS'LUNAREPHEM1_Z'
p734
S'm'
sS'TASPRWC'
p735
S'K'
sS'TSCIUSF5'
p736
S'K'
sS'AVD1CV5V'
p737
S'V'
sS'DEAP6VOLTA'
p738
S'V'
sS'TSCIUSF8'
p739
S'K'
sS'2SHEV2RT'
p740
S'count'
p741
sS'AACH2T'
p742
S'K'
sS'ADE2P5CV'
p743
S'V'
sS'OOBTHR06_WIDE'
p744
S'K'
sS'TASPPCP'
p745
S'K'
sS'OHRTHR02_WIDE'
p746
S'K'
sS'3TTACS3T'
p747
S'K'
sS'CTSA15V'
p748
S'V'
sS'PFDM102T'
p749
S'K'
sS'3FAPSAT'
p750
S'K'
sS'AWD3CV5V'
p751
S'V'
sS'AORTERR1'
p752
S'rad/s'
p753
sS'SOLAREPHEM1_Y'
p754
S'm'
sS'4RT586T'
p755
S'K'
sS'OOBTHR26_WIDE'
p756
S'K'
sS'OHRTHR60'
p757
S'K'
sS'PXDM01T'
p758
S'K'
sS'OOBTHR37'
p759
S'K'
sS'OOBTHR36'
p760
S'K'
sS'OOBTHR35'
p761
S'K'
sS'OOBTHR34'
p762
S'K'
sS'CUSOBIT'
p763
S'K'
sS'6SUNER1'
p764
S'rad'
p765
sS'6SUNER2'
p766
S'rad'
p767
sS'6SUNER3'
p768
S'rad'
p769
sS'OOBTHR31_WIDE'
p770
S'K'
sS'OOBTHR39'
p771
S'K'
sS'OOBTHR38'
p772
S'K'
sS'2P24VBVL'
p773
S'V'
sS'OOBTHR51_WIDE'
p774
S'K'
sS'OOBTHR04_WIDE'
p775
S'K'
sS'3FABRAAT'
p776
S'K'
sS'1DEP3AVO'
p777
S'V'
sS'AIRU1G2T'
p778
S'K'
sS'TPC_CEA'
p779
S'K'
sS'DEA28VOLTA'
p780
S'V'
sS'AIRU1G2I'
p781
S'mA'
p782
sS'PM2THV2T'
p783
S'K'
sS'TSAMYT'
p784
S'K'
sS'AVACMONV'
p785
S'V'
sS'4RT590T'
p786
S'K'
sS'TEP_PSU2'
p787
S'K'
sS'3SDTSTSV'
p788
S'V'
sS'1OAHAT'
p789
S'K'
sS'AHKNATPR'
p790
S'V'
sS'ASPEFSW4B'
p791
S'deg'
p792
sS'ARWA4BT'
p793
S'K'
sS'AAOTALT'
p794
S'K'
sS'4CSDHBV'
p795
S'V'
sS'AORWSPD6'
p796
S'rad/s'
p797
sS'AOCSSI1'
p798
S'mA'
p799
sS'TPC_DEA'
p800
S'K'
sS'AOCSSI3'
p801
S'mA'
p802
sS'AIRU2G1T'
p803
S'K'
sS'AOCSSI4'
p804
S'mA'
p805
sS'3FAFLCAT'
p806
S'K'
sS'AIRU2G1I'
p807
S'mA'
p808
sS'CTUB15V'
p809
S'V'
sS'OOBTHR07_WIDE'
p810
S'K'
sS'1VAHCAT'
p811
S'K'
sS'TB3T2'
p812
S'K'
sS'TB3T3'
p813
S'K'
sS'DEAM6VOLTB'
p814
S'V'
sS'TRSPOTPC'
p815
S'K'
sS'PLAED3CT'
p816
S'K'
sS'1PIN1AT'
p817
S'K'
sS'PFTANK2T'
p818
S'K'
sS'1DP28BVO'
p819
S'V'
sS'AOFFTQ1'
p820
S'J'
sS'TPCP_RW3'
p821
S'K'
sS'PLAEV1BT'
p822
S'K'
sS'AOFFTQ2'
p823
S'J'
sS'PFDM201T'
p824
S'K'
sS'OOBTHR21_WIDE'
p825
S'K'
sS'SOLAREPHEM0_VX'
p826
S'm/s'
p827
sS'AOFFTQ3'
p828
S'J'
sS'AI2AX1Y'
p829
S'deg/s'
p830
sS'ORBITEPHEM1_VZ'
p831
S'm/s'
p832
sS'1PDEABT'
p833
S'K'
sS'ORBITEPHEM1_VX'
p834
S'm/s'
p835
sS'PLAED2HT'
p836
S'K'
sS'4PRTAV'
p837
S'V'
sS'TFSSHDT1'
p838
S'K'
sS'AOADBCH2A_PCAD'
p839
S'deg'
p840
sS'3SDFAMT'
p841
S'K'
sS'OOBTHR14_WIDE'
p842
S'K'
sS'TCM_PAN'
p843
S'K'
sS'TCM_SSR2'
p844
S'K'
sS'PMTANKP'
p845
S'kPa'
p846
sS'EOECNV1C'
p847
S'V'
sS'AFLCABH'
p848
S'V'
sS'3FLCABPT'
p849
S'K'
sS'OHRTHR18'
p850
S'K'
sS'OHRTHR19'
p851
S'K'
sS'OHRTHR17'
p852
S'K'
sS'OHRTHR14'
p853
S'K'
sS'OHRTHR15'
p854
S'K'
sS'OHRTHR12'
p855
S'K'
sS'OHRTHR13'
p856
S'K'
sS'OHRTHR10'
p857
S'K'
sS'POLAEV1BT'
p858
S'K'
sS'4PRTBV'
p859
S'V'
sS'CIUB15V'
p860
S'V'
sS'3TTHRC3T'
p861
S'K'
sS'HKFBIASLEAKI'
p862
S'uA'
p863
sS'ANGLEEPHEM_POINT_EARTHCENTANG'
p864
S'deg'
p865
sS'OHRTHR33_WIDE'
p866
S'K'
sS'OOBTHR33_WIDE'
p867
S'K'
sS'AIRU2BT'
p868
S'K'
sS'AORWSPD1'
p869
S'rad/s'
p870
sS'AORWSPD2'
p871
S'rad/s'
p872
sS'AORWSPD3'
p873
S'rad/s'
p874
sS'AORWSPD4'
p875
S'rad/s'
p876
sS'AORWSPD5'
p877
S'rad/s'
p878
sS'OOBTHR23_WIDE'
p879
S'K'
sS'PM1THV1T'
p880
S'K'
sS'AOCMDRT2'
p881
S'rad/s'
p882
sS'AOCMDRT3'
p883
S'rad/s'
p884
sS'AI2AX2X'
p885
S'deg/s'
p886
sS'EORTDMN13D'
p887
S'K'
sS'4RT564T'
p888
S'K'
sS'EORTDMN21D'
p889
S'K'
sS'PMTANK1T'
p890
S'K'
sS'TPC_RCTU'
p891
S'K'
sS'OHRTHR14_WIDE'
p892
S'K'
sS'4SP52V'
p893
S'V'
sS'1DEN1BVO'
p894
S'V'
sS'PM3THV2T'
p895
S'K'
sS'EORTDMN29D'
p896
S'K'
sS'PLAEV4BT'
p897
S'K'
sS'PLINE04T'
p898
S'K'
sS'PLAED3BT'
p899
S'K'
sS'OOBTHR39_WIDE'
p900
S'K'
sS'TB2T1'
p901
S'K'
sS'OHRTHR07_WIDE'
p902
S'K'
sS'4OAVHRMT'
p903
S'K'
sS'EORTDMN28D'
p904
S'K'
sS'PFFP01T'
p905
S'K'
sS'TPC_WDA'
p906
S'K'
sS'2N15VAVL'
p907
S'V'
sS'2N15VBVL'
p908
S'V'
sS'OOBTHR27_WIDE'
p909
S'K'
sS'TMP_FEP1_PCB'
p910
S'K'
sS'4RT593T'
p911
S'K'
sS'AOSPBCS2B'
p912
S'mA'
p913
sS'HKEBIASLEAKI'
p914
S'uA'
p915
sS'1DEP0AVO'
p916
S'V'
sS'4CSDOAV'
p917
S'V'
sS'TRSPRWBC'
p918
S'K'
sS'TEP_BPAN'
p919
S'K'
sS'1WRAT'
p920
S'K'
sS'PLAED1GT'
p921
S'K'
sS'4RT560T'
p922
S'K'
sS'AORESY6_1'
p923
S'rad'
p924
sS'PLINE01T'
p925
S'K'
sS'6RWCMD4'
p926
S'J'
sS'6RWCMD5'
p927
S'J'
sS'6RWCMD6'
p928
S'J'
sS'AFLCA8AI'
p929
S'mA'
p930
sS'AACBPPT'
p931
S'K'
sS'6RWCMD1'
p932
S'J'
sS'6RWCMD2'
p933
S'J'
sS'6RWCMD3'
p934
S'J'
sS'PCM02T'
p935
S'K'
sS'TCYLPCP'
p936
S'K'
sS'3FAMYZAT'
p937
S'K'
sS'OOBTHR40_WIDE'
p938
S'K'
sS'TCM_OBC'
p939
S'K'
sS'TSCTSF4'
p940
S'K'
sS'TCYZ_RW1'
p941
S'K'
sS'OOBTHR25_WIDE'
p942
S'K'
sS'4OAVOBAT'
p943
S'K'
sS'TSCTSF5'
p944
S'K'
sS'OOBTHR54_WIDE'
p945
S'K'
sS'PLAEV1AT'
p946
S'K'
sS'3SDFLXAT'
p947
S'K'
sS'3SDBOXT'
p948
S'K'
sS'TSCTSF6'
p949
S'K'
sS'AOSPBCS3B'
p950
S'mA'
p951
sS'TCM_TX2'
p952
S'K'
sS'OHRTHR56_WIDE'
p953
S'K'
sS'CTUA5V'
p954
S'V'
sS'AFLCA6BI'
p955
S'mA'
p956
sS'TMZP_CNT'
p957
S'K'
sS'4RT582T'
p958
S'K'
sS'OHRTHR55_WIDE'
p959
S'K'
sS'TMP_BEP_PCB'
p960
S'K'
sS'AHKNATRD'
p961
S'V'
sS'EOEB3VC'
p962
S'V'
sS'DPA5VHKB'
p963
S'V'
sS'ORBITEPHEM0_Y'
p964
S'm'
sS'ORBITEPHEM0_X'
p965
S'm'
sS'ORBITEPHEM0_Z'
p966
S'm'
sS'4CSDOBV'
p967
S'V'
sS'3SDAGV'
p968
S'V'
sS'AFLCA9BI'
p969
S'mA'
p970
sS'3SFLXBST'
p971
S'K'
sS'1DEP2AVO'
p972
S'V'
sS'3RCTUBPT'
p973
S'K'
sS'6SURTER3'
p974
S'rad/s'
p975
sS'6SURTER2'
p976
S'rad/s'
p977
sS'6SURTER1'
p978
S'rad/s'
p979
sS'TMP_FEP0_ACTEL'
p980
S'K'
sS'OOBTHR49'
p981
S'K'
sS'CRXBV'
p982
S'V'
sS'OHRTHR58_WIDE'
p983
S'K'
sS'OOBTHR44'
p984
S'K'
sS'OOBTHR45'
p985
S'K'
sS'OOBTHR42'
p986
S'K'
sS'OOBTHR43'
p987
S'K'
sS'OOBTHR40'
p988
S'K'
sS'OOBTHR41'
p989
S'K'
sS'OOBTHR51'
p990
S'K'
sS'PLAED2IT'
p991
S'K'
sS'DEA24VOLTA'
p992
S'V'
sS'OOBTHR50'
p993
S'K'
sS'OOBTHR27'
p994
S'K'
sS'4HLL1BT'
p995
S'K'
sS'AWD2CV5V'
p996
S'V'
sS'OOBTHR53'
p997
S'K'
sS'EORTDMN14D'
p998
S'K'
sS'LUNAREPHEM1_VZ'
p999
S'm/s'
p1000
sS'ARWA1BT'
p1001
S'K'
sS'4HPOSBRO'
p1002
S'deg'
p1003
sS'AFLCA7BI'
p1004
S'mA'
p1005
sS'AORWNTQ1'
p1006
S'J'
sS'PLAED4GT'
p1007
S'K'
sS'LUNAREPHEM0_Y'
p1008
S'm'
sS'LUNAREPHEM0_X'
p1009
S'm'
sS'OOBTHR28_WIDE'
p1010
S'K'
sS'LUNAREPHEM0_Z'
p1011
S'm'
sS'POLINE06T'
p1012
S'K'
sS'3FASEAAT'
p1013
S'K'
sS'AOSPACS4B'
p1014
S'mA'
p1015
sS'OHRTHR58'
p1016
S'K'
sS'OHRTHR59'
p1017
S'K'
sS'OHRTHR52'
p1018
S'K'
sS'OHRTHR29_WIDE'
p1019
S'K'
sS'OHRTHR50'
p1020
S'K'
sS'CXPNBIT'
p1021
S'K'
sS'OHRTHR56'
p1022
S'K'
sS'2P15VAVL'
p1023
S'V'
sS'OHRTHR54'
p1024
S'K'
sS'OHRTHR55'
p1025
S'K'
sS'AORWPI2B'
p1026
S'ms'
p1027
sS'OOBTHR59'
p1028
S'K'
sS'AI2AX1X'
p1029
S'deg/s'
p1030
sS'3TSMXCET'
p1031
S'K'
sS'AODITHR2'
p1032
S'rad'
p1033
sS'DPA5VHKA'
p1034
S'V'
sS'ARWA2BT'
p1035
S'K'
sS'PLAED3ET'
p1036
S'K'
sS'OOBTHR04'
p1037
S'K'
sS'OHRTHR18_WIDE'
p1038
S'K'
sS'CPA1V'
p1039
S'V'
sS'AI2AX2Y'
p1040
S'deg/s'
p1041
sS'ASPEA5CV'
p1042
S'V'
sS'4IP15AV'
p1043
S'V'
sS'PXTANK1T'
p1044
S'K'
sS'4RT568T'
p1045
S'K'
sS'4LFSPBT'
p1046
S'K'
sS'ACPB5CV'
p1047
S'V'
sS'4PRT3AT'
p1048
S'K'
sS'OOBTHR02'
p1049
S'K'
sS'1DPICACU'
p1050
S'A'
sS'TCYLPCM'
p1051
S'K'
sS'SOLAREPHEM0_TIME'
p1052
S's'
sS'OOBTHR35_WIDE'
p1053
S'K'
sS'TOXTSUPN'
p1054
S'K'
sS'AOSPBCS1B'
p1055
S'mA'
p1056
sS'4RT589T'
p1057
S'K'
sS'TCYLAFT2'
p1058
S'K'
sS'ASPEFSW2B'
p1059
S'deg'
p1060
sS'TFSSHDT2'
p1061
S'K'
sS'TCYLRWC'
p1062
S'K'
sS'AORWMOM2'
p1063
S'J*s'
p1064
sS'SOLAREPHEM0_Z'
p1065
S'm'
sS'AORWMOM1'
p1066
S'J*s'
p1067
sS'4RT700T'
p1068
S'K'
sS'4OAVHRMT_WIDE'
p1069
S'K'
sS'4LLL1AT'
p1070
S'K'
sS'1CBAT'
p1071
S'K'
sS'CPA2BPT'
p1072
S'K'
sS'PLAED4IT'
p1073
S'K'
sS'EB3DI'
p1074
S'A'
sS'PLAED2FT'
p1075
S'K'
sS'TCYLAFT6'
p1076
S'K'
sS'OOBTHR22_WIDE'
p1077
S'K'
sS'TAPEA2T'
p1078
S'K'
sS'AFLC10AI'
p1079
S'mA'
p1080
sS'AORWCMD4'
p1081
S'J'
sS'2PMT2T'
p1082
S'K'
sS'EIACVAV'
p1083
S'V'
sS'4LPOSBRO'
p1084
S'deg'
p1085
sS'EB3V'
p1086
S'V'
sS'6CSSI4'
p1087
S'mA'
p1088
sS'PLAED1HT'
p1089
S'K'
sS'6CSSI2'
p1090
S'mA'
p1091
sS'EORTDMN24D'
p1092
S'K'
sS'3TTVALVT'
p1093
S'K'
sS'6CSSI1'
p1094
S'mA'
p1095
sS'PXDM02T'
p1096
S'K'
sS'TCYLCMM'
p1097
S'K'
sS'AOCMDAC1'
p1098
S'rad/s**2'
p1099
sS'CUSOAIT'
p1100
S'K'
sS'OOBTHR18_WIDE'
p1101
S'K'
sS'4HPOSARO'
p1102
S'deg'
p1103
sS'OHRMGRD6'
p1104
S'deltaK'
p1105
sS'POLINE05T'
p1106
S'K'
sS'OHRMGRD3'
p1107
g1105
sS'TB2T3'
p1108
S'K'
sS'OHRTHR35_WIDE'
p1109
S'K'
sS'EOEB3V'
p1110
S'V'
sS'DEA28VOLTB'
p1111
S'V'
sS'AORESY2_1'
p1112
S'rad'
p1113
sS'4IN15AV'
p1114
S'V'
sS'OHRTHR37_WIDE'
p1115
S'K'
sS'CIUA15V'
p1116
S'V'
sS'AOTQCMD1'
p1117
S'J'
sS'AOTQCMD3'
p1118
S'J'
sS'AOTQCMD2'
p1119
S'J'
sS'TRSPOTEP'
p1120
S'K'
sS'AIRU2G2I'
p1121
S'mA'
p1122
sS'AOCMDAC2'
p1123
S'rad/s**2'
p1124
sS'TRSPOTEX'
p1125
S'K'
sS'LUNAREPHEM0_TIME'
p1126
S's'
sS'AOSPACS1B'
p1127
S'mA'
p1128
sS'EOEBC'
p1129
S'A'
sS'TB1T1'
p1130
S'K'
sS'AOACYAN7'
p1131
S'arcsec'
p1132
sS'1CRAT'
p1133
S'K'
sS'AFSSPC2V'
p1134
S'V'
sS'PMTANK2T'
p1135
S'K'
sS'4RT558T'
p1136
S'K'
sS'OOBTHR11_WIDE'
p1137
S'K'
sS'ANGLEEPHEM_POINT_RAMVECTORANG'
p1138
S'deg'
p1139
sS'TMP_FEP0_PCB'
p1140
S'K'
sS'1SSPYT'
p1141
S'K'
sS'AFLC11AI'
p1142
S'mA'
p1143
sS'PLAED1CT'
p1144
S'K'
sS'DEA24VOLTB'
p1145
S'V'
sS'AOCMDAC3'
p1146
S'rad/s**2'
p1147
sS'OHRTHR24'
p1148
S'K'
sS'PLAED4HT'
p1149
S'K'
sS'2DTSTATT'
p1150
S'K'
sS'OOBTHR08'
p1151
S'K'
sS'OOBTHR09'
p1152
S'K'
sS'AAOTASMT'
p1153
S'K'
sS'CSITA5V'
p1154
S'V'
sS'OOBTHR03'
p1155
S'K'
sS'TCYLAFT3'
p1156
S'K'
sS'6RWSPD6'
p1157
S'rad/s'
p1158
sS'OOBTHR06'
p1159
S'K'
sS'OOBTHR07'
p1160
S'K'
sS'OHRTHR24_WIDE'
p1161
S'K'
sS'OOBTHR05'
p1162
S'K'
sS'EOESAT2C'
p1163
S'K'
sS'GND_1'
p1164
S'V'
sS'OHRTHR10_WIDE'
p1165
S'K'
sS'PR3TV01T'
p1166
S'K'
sS'TBOLTCUT'
p1167
S'K'
sS'AOACYAN4'
p1168
S'arcsec'
p1169
sS'AOACYAN5'
p1170
S'arcsec'
p1171
sS'AOACYAN6'
p1172
S'arcsec'
p1173
sS'1PDEAAT'
p1174
S'K'
sS'AOACYAN0'
p1175
S'arcsec'
p1176
sS'1MAHCBT'
p1177
S'K'
sS'AOACYAN2'
p1178
S'arcsec'
p1179
sS'AOACYAN3'
p1180
S'arcsec'
p1181
sS'OOBTHR62_WIDE'
p1182
S'K'
sS'OHRTHR23_WIDE'
p1183
S'K'
sS'TFSSBKT1'
p1184
S'K'
sS'PLAED4CT'
p1185
S'K'
sS'CUSOB28V'
p1186
S'V'
sS'6RWNLTQ1'
p1187
S'J'
sS'6RWNLTQ2'
p1188
S'J'
sS'CSITB5V'
p1189
S'V'
sS'6RWNLTQ4'
p1190
S'J'
sS'6RWNLTQ5'
p1191
S'J'
sS'6RWNLTQ6'
p1192
S'J'
sS'CSITB15V'
p1193
S'V'
sS'EB2CI'
p1194
S'A'
sS'TEP_PPAN'
p1195
S'K'
sS'AORESZ2_1'
p1196
S'rad'
p1197
sS'1DAHBVO'
p1198
S'V'
sS'AACCCDPT'
p1199
S'K'
sS'POLAEV2BT'
p1200
S'K'
sS'PLAED1ET'
p1201
S'K'
sS'POLAEV4AT'
p1202
S'K'
sS'CSSR2CBV'
p1203
S'V'
sS'4RT707T'
p1204
S'K'
sS'TCM_IFU'
p1205
S'K'
sS'OHRTHR49_WIDE'
p1206
S'K'
sS'PLINE05T'
p1207
S'K'
sS'PLAED3AT'
p1208
S'K'
sS'TAPE2PST'
p1209
S'K'
sS'4IP5BV'
p1210
S'V'
sS'4PRT4BT'
p1211
S'K'
sS'1DAHHAVO'
p1212
S'V'
sS'DEAP6VOLTB'
p1213
S'V'
sS'OHRTHR49'
p1214
S'K'
sS'3TSPYFET'
p1215
S'K'
sS'3SDTSMT'
p1216
S'K'
sS'OOBTHR05_WIDE'
p1217
S'K'
sS'POLINE02T'
p1218
S'K'
sS'TFSPRWC'
p1219
S'K'
sS'4RT555T'
p1220
S'K'
sS'AORESY7'
p1221
S'rad'
p1222
sS'PXTANKIP'
p1223
S'kPa'
p1224
sS'3TSCPOS'
p1225
S'mm'
p1226
sS'AORESY4'
p1227
S'rad'
p1228
sS'GND_2'
p1229
S'V'
sS'ARWA5BT'
p1230
S'K'
sS'PFDM202T'
p1231
S'K'
sS'6RWNLTQ3'
p1232
S'J'
sS'2CHTRPZT'
p1233
S'K'
sS'4RT579T'
p1234
S'K'
sS'TCM_USO'
p1235
S'K'
sS'OHRTHR46_WIDE'
p1236
S'K'
sS'PLINE13T'
p1237
S'K'
sS'AOATTER1'
p1238
S'rad'
p1239
sS'AOATTER2'
p1240
S'rad'
p1241
sS'AOATTER3'
p1242
S'rad'
p1243
sS'TMZLGABM'
p1244
S'K'
sS'TMP_FEP1_FB'
p1245
S'K'
sS'2P24VAVL'
p1246
S'V'
sS'AWD5TQI'
p1247
S'A'
sS'AORWBTQ5'
p1248
S'J'
sS'4VRMHAV'
p1249
S'V'
sS'AOADACH1A_NBG'
p1250
S'deg'
p1251
sS'ECNV1V'
p1252
S'V'
sS'EEPA5V'
p1253
S'V'
sS'4RT585T'
p1254
S'K'
sS'PLAED2BT'
p1255
S'K'
sS'OHRTHR03'
p1256
S'K'
sS'OHRTHR02'
p1257
S'K'
sS'OHRTHR05'
p1258
S'K'
sS'OHRTHR04'
p1259
S'K'
sS'OHRTHR07'
p1260
S'K'
sS'OHRTHR06'
p1261
S'K'
sS'OHRTHR09'
p1262
S'K'
sS'1WRBT'
p1263
S'K'
sS'TMP_FEP1_ACTEL'
p1264
S'K'
sS'AIRU1VFT'
p1265
S'K'
sS'AORESZ6_6'
p1266
S'rad'
p1267
sS'AORESZ6_7'
p1268
S'rad'
p1269
sS'AORESZ6_4'
p1270
S'rad'
p1271
sS'2VLEV2RT'
p1272
S'count'
p1273
sS'AORESZ6_2'
p1274
S'rad'
p1275
sS'AORESZ6_3'
p1276
S'rad'
p1277
sS'CTSA5V'
p1278
S'V'
sS'AORESZ6_1'
p1279
S'rad'
p1280
sS'4RT570T'
p1281
S'K'
sS'AIRU1G1T'
p1282
S'K'
sS'4RT705T'
p1283
S'K'
sS'ELBI'
p1284
S'A'
sS'1CBBT'
p1285
S'K'
sS'AORESZ6_8'
p1286
S'rad'
p1287
sS'3BTU_BPT'
p1288
S'K'
sS'AOSARES2'
p1289
S'deg'
p1290
sS'AORESY5_1'
p1291
S'rad'
p1292
sS'DEAP15VOLTB'
p1293
S'V'
sS'ELBV'
p1294
S'V'
sS'3SDFATSV'
p1295
S'V'
sS'3LDRTPOS'
p1296
S'mm'
p1297
sS'1DEP0BVO'
p1298
S'V'
sS'ANGLEEPHEM_POINT_MOONCENTANG'
p1299
S'deg'
p1300
sS'SOLAREPHEM1_TIME'
p1301
S's'
sS'TMZP_MY'
p1302
S'K'
sS'CTSB15V'
p1303
S'V'
sS'4OAVOBAT_WIDE'
p1304
S'K'
sS'CPCA15V'
p1305
S'V'
sS'TMYHNG'
p1306
S'K'
sS'AOADBCH2A_NBG'
p1307
S'deg'
p1308
sS'SIM_Y'
p1309
S'mm'
p1310
sS'PLAEV3BT'
p1311
S'K'
sS'SIM_Z'
p1312
S'mm'
p1313
sS'TCYLFMZM'
p1314
S'K'
sS'1DEICBCU'
p1315
S'A'
sS'DPAGNDREF1'
p1316
S'V'
sS'PFTANKOP'
p1317
S'kPa'
p1318
sS'DPAGNDREF2'
p1319
S'V'
sS'PLINE12T'
p1320
S'K'
sS'AIRU2VFT'
p1321
S'K'
sS'EOESAT1C'
p1322
S'K'
sS'CRXAV'
p1323
S'V'
sS'C28VMONA'
p1324
S'V'
sS'OHRTHR12_WIDE'
p1325
S'K'
sS'TSCIUSF1'
p1326
S'K'
sS'3TSPZDET'
p1327
S'K'
sS'TPYSADA'
p1328
S'K'
sS'EORTDMN15D'
p1329
S'K'
sS'OOBTHR34_WIDE'
p1330
S'K'
sS'PHETANKP'
p1331
S'kPa'
p1332
sS'PLINE08T'
p1333
S'K'
sS'OOBTHR49_WIDE'
p1334
S'K'
sS'POLINE01T'
p1335
S'K'
sS'TPC_FSSE'
p1336
S'K'
sS'PLAED3FT'
p1337
S'K'
sS'AFLC12BI'
p1338
S'mA'
p1339
sS'CIUA5V'
p1340
S'V'
sS'AOADBCH1A_PCAD'
p1341
S'deg'
p1342
sS'AFLC14AI'
p1343
S'mA'
p1344
sS'AFLCA3AI'
p1345
S'mA'
p1346
sS'TCYLAFT5'
p1347
S'K'
sS'3SDM15V'
p1348
S'V'
sS'OOBTHR44_WIDE'
p1349
S'K'
sS'AORESZ7'
p1350
S'rad'
p1351
sS'3TTRALCT'
p1352
S'K'
sS'2P15VBVL'
p1353
S'V'
sS'OHRTHR45_WIDE'
p1354
S'K'
sS'AORESZ3'
p1355
S'rad'
p1356
sS'PCM04T'
p1357
S'K'
sS'OOBTHR41_WIDE'
p1358
S'K'
sS'AORESZ0'
p1359
S'rad'
p1360
sS'AORWNTQ4'
p1361
S'J'
sS'AORWNTQ5'
p1362
S'J'
sS'AORWNTQ6'
p1363
S'J'
sS'TSCIUSF2'
p1364
S'K'
sS'AORWMC6_1'
p1365
S'J*s'
p1366
sS'EOECNV2C'
p1367
S'V'
sS'AORWNTQ2'
p1368
S'J'
sS'CPA2V'
p1369
S'V'
sS'DEAM6VOLTA'
p1370
S'V'
sS'PLAED3HT'
p1371
S'K'
sS'AOSPBCS4B'
p1372
S'mA'
p1373
sS'4RT567T'
p1374
S'K'
sS'4LFSPAT'
p1375
S'K'
sS'PFDM101T'
p1376
S'K'
sS'6RATE2'
p1377
S'rad/s'
p1378
sS'6RATE3'
p1379
S'rad/s'
p1380
sS'6RATE1'
p1381
S'rad/s'
p1382
sS'6SAEST1'
p1383
S'rad'
p1384
sS'AORWMC1'
p1385
S'J*s'
p1386
sS'6SAEST2'
p1387
S'rad'
p1388
sS'AORWMC4'
p1389
S'J*s'
p1390
sS'AORWMC5'
p1391
S'J*s'
p1392
sS'6ALPANG'
p1393
S'deg'
p1394
sS'FPTEMP_11'
p1395
S'K'
sS'OHRTHR50_WIDE'
p1396
S'K'
sS'PM1THV2T'
p1397
S'K'
sS'TB1T2'
p1398
S'K'
sS'TMP_FEP1_MONG'
p1399
S'K'
sS'TEP_EIA'
p1400
S'K'
sS'AOACYAN1'
p1401
S'arcsec'
p1402
sS'AOSCPOS1'
p1403
S'km'
p1404
sS'AOSCPOS2'
p1405
S'km'
p1406
sS'AOSCPOS3'
p1407
S'km'
p1408
sS'4RT588T'
p1409
S'K'
sS'AFLCA6AI'
p1410
S'mA'
p1411
sS'PCM01T'
p1412
S'K'
sS'4MP5AV'
p1413
S'V'
sS'4RT596T'
p1414
S'K'
sS'TPCP_RW2'
p1415
S'K'
sS'6SINTER3'
p1416
S'rad'
p1417
sS'6SINTER2'
p1418
S'rad'
p1419
sS'6SINTER1'
p1420
S'rad'
p1421
sS'OOBTHR52'
p1422
S'K'
sS'OOBTHR55'
p1423
S'K'
sS'OOBTHR54'
p1424
S'K'
sS'OOBTHR57'
p1425
S'K'
sS'OOBTHR56'
p1426
S'K'
sS'OHRTHR57_WIDE'
p1427
S'K'
sS'OOBTHR58'
p1428
S'K'
sS'SIM_X'
p1429
S'mm'
p1430
sS'PLINE14T'
p1431
S'K'
sS'1SSMYT'
p1432
S'K'
sS'CTXBV'
p1433
S'V'
sS'4PRT2BT'
p1434
S'K'
sS'ARWA6BT'
p1435
S'K'
sS'4RT575T'
p1436
S'K'
sS'CPA1BPT'
p1437
S'K'
sS'PM4THV2T'
p1438
S'K'
sS'4IP5AV'
p1439
S'V'
sS'4VRMOAV'
p1440
S'V'
sS'6CSSI3'
p1441
S'mA'
p1442
sS'2PMT1T'
p1443
S'K'
sS'EB2V'
p1444
S'V'
sS'1DPAMZT'
p1445
S'K'
sS'EIACVBV'
p1446
S'V'
sS'EORTDMN27D'
p1447
S'K'
sS'4RT703T'
p1448
S'K'
sS'1DAHHBVO'
p1449
S'V'
sS'AFSSPC1V'
p1450
S'V'
sS'1DEP1AVO'
p1451
S'V'
sS'1VAHOBT'
p1452
S'K'
sS'1MAHOBT'
p1453
S'K'
sS'4RT706T'
p1454
S'K'
sS'PFTANK1T'
p1455
S'K'
sS'CRXBLS'
p1456
S'kHz'
p1457
sS'AOSAEST2'
p1458
S'rad'
p1459
sS'4RT557T'
p1460
S'K'
sS'OHRTHR44_WIDE'
p1461
S'K'
sS'POLINE12T'
p1462
S'K'
sS'TASPPCM'
p1463
S'K'
sS'OHRTHR45'
p1464
S'K'
sS'OHRTHR44'
p1465
S'K'
sS'OHRTHR47'
p1466
S'K'
sS'OHRTHR46'
p1467
S'K'
sS'OHRTHR41'
p1468
S'K'
sS'OHRTHR40'
p1469
S'K'
sS'OHRTHR43'
p1470
S'K'
sS'OHRTHR42'
p1471
S'K'
sS'AWD2TQI'
p1472
S'A'
sS'4LPOSARO'
p1473
S'deg'
p1474
sS'PCM03T'
p1475
S'K'
sS'EOEB1DIC'
p1476
S'A'
sS'TMP_FEP0_MONG'
p1477
S'K'
sS'62RCSTMR'
p1478
S's'
sS'TASPPCU'
p1479
S'K'
sS'4RT565T'
p1480
S'K'
sS'POM2THV1T'
p1481
S'K'
sS'64RCSTMR'
p1482
S's'
sS'4RT708T'
p1483
S'K'
sS'3SDFLXCT'
p1484
S'K'
sS'OOBAGRD6'
p1485
g1105
sS'TB1T3'
p1486
S'K'
sS'OHRTHR20_WIDE'
p1487
S'K'
sS'AOBETANG'
p1488
S'deg'
p1489
sS'4RT704T'
p1490
S'K'
sS'OOBAGRD3'
p1491
g1105
sS'PLAED1FT'
p1492
S'K'
sS'EB3CI'
p1493
S'A'
sS'AORESZ1_1'
p1494
S'rad'
p1495
sS'TATECDPT'
p1496
S'K'
sS'OOBTHR30_WIDE'
p1497
S'K'
sS'AOSUNER1'
p1498
S'rad'
p1499
sS'4MP28AV'
p1500
S'V'
sS'1HOPRBPR'
p1501
S'kPa'
p1502
sS'1CRBT'
p1503
S'K'
sS'AWD6TQI'
p1504
S'A'
s.