(dp1
S'AORWPI4B'
p2
S'ms'
p3
sS'1DEAMZT'
p4
S'K'
sS'4RT709T'
p5
S'K'
sS'PLINE16T'
p6
S'K'
sS'EORTDMN18D'
p7
S'K'
sS'AOSUNER2'
p8
S'rad'
p9
sS'LUNAREPHEM1_TIME'
p10
S's'
sS'TFSPPCM'
p11
S'K'
sS'EB1CI'
p12
S'A'
sS'OHRTHR38'
p13
S'K'
sS'OHRTHR39'
p14
S'K'
sS'TFSPPCP'
p15
S'K'
sS'ASPEFSW3B'
p16
S'deg'
p17
sS'CUSOAOVN'
p18
S'W'
sS'OHRTHR30'
p19
S'K'
sS'OHRTHR31'
p20
S'K'
sS'OHRTHR33'
p21
S'K'
sS'1DPP0BVO'
p22
S'V'
sS'OHRTHR35'
p23
S'K'
sS'OHRTHR36'
p24
S'K'
sS'OHRTHR37'
p25
S'K'
sS'EORTDMN11D'
p26
S'K'
sS'AFLC11BI'
p27
S'mA'
p28
sS'ANGLEEPHEM_SUN_EARTHLIMBANG'
p29
S'deg'
p30
sS'ANGLEEPHEM_SUN_EARTHCENTANG'
p31
S'deg'
p32
sS'AORWMC3_1'
p33
S'J*s'
p34
sS'TEPHIN'
p35
S'K'
sS'3TTHRC1T'
p36
S'K'
sS'PXDM01T'
p37
S'K'
sS'ORBITEPHEM0_VZ'
p38
S'm/s'
p39
sS'4RT562T'
p40
S'K'
sS'AFLCA2BI'
p41
S'mA'
p42
sS'ANGLEEPHEM_POINT_MOONCENTANG'
p43
S'deg'
p44
sS'4RT710T'
p45
S'K'
sS'ASPEB5CV'
p46
S'V'
sS'TMP_FEP0_RAM'
p47
S'K'
sS'TPC_PAN'
p48
S'K'
sS'AOZABR'
p49
S'rad'
p50
sS'AORESZ5_1'
p51
S'rad'
p52
sS'LUNAREPHEM0_VX'
p53
S'm/s'
p54
sS'TB2T3'
p55
S'K'
sS'TB2T2'
p56
S'K'
sS'PLINE06T'
p57
S'K'
sS'AOADBCH1A_PCAD'
p58
S'deg'
p59
sS'AORWPI3B'
p60
S'ms'
p61
sS'1DAHAVO'
p62
S'V'
sS'LUNAREPHEM0_VZ'
p63
S'm/s'
p64
sS'ORBITEPHEM0_VX'
p65
S'm/s'
p66
sS'PXTANK2T'
p67
S'K'
sS'3TSMYDPT'
p68
S'K'
sS'PR1TV02T'
p69
S'K'
sS'3TTACS1T'
p70
S'K'
sS'AORESY2_1'
p71
S'rad'
p72
sS'PHOFP1T'
p73
S'K'
sS'PR4TV01T'
p74
S'K'
sS'AORTERR2'
p75
S'rad/s'
p76
sS'CUSOA28V'
p77
S'V'
sS'PLAED2AT'
p78
S'K'
sS'AVACMON'
p79
S'K'
sS'OOBTHR33'
p80
S'K'
sS'3TRMTRAT'
p81
S'K'
sS'6SUNER1'
p82
S'rad'
p83
sS'ES1P5CV'
p84
S'V'
sS'OOBTHR19'
p85
S'K'
sS'OOBTHR18'
p86
S'K'
sS'PFTANKIP'
p87
S'kPa'
p88
sS'OOBTHR15'
p89
S'K'
sS'OOBTHR14'
p90
S'K'
sS'OOBTHR17'
p91
S'K'
sS'6SUNER3'
p92
S'rad'
p93
sS'OOBTHR11'
p94
S'K'
sS'OOBTHR10'
p95
S'K'
sS'ECNV2V'
p96
S'V'
sS'OOBTHR12'
p97
S'K'
sS'AGWS1V'
p98
S'V'
sS'4HLL2BT'
p99
S'K'
sS'EOEB1CIC'
p100
S'A'
sS'TB3T1'
p101
S'K'
sS'4HLL1AT'
p102
S'K'
sS'AACCCDRT'
p103
S'K'
sS'ESAMYI'
p104
S'A'
sS'4RT581T'
p105
S'K'
sS'TMYSADA'
p106
S'K'
sS'1HOPRAPR'
p107
S'kPa'
p108
sS'OHRTHR34'
p109
S'K'
sS'AFLCA5AI'
p110
S'mA'
p111
sS'HKP6I'
p112
S'mA'
p113
sS'3TSMXSPT'
p114
S'K'
sS'PMFP01T'
p115
S'K'
sS'CVEER'
p116
S'V'
sS'CVEEP'
p117
S'V'
sS'PLINE15T'
p118
S'K'
sS'2P05VBVL'
p119
S'V'
sS'PLAED3IT'
p120
S'K'
sS'4RT592T'
p121
S'K'
sS'HKDBIASLEAKI'
p122
S'uA'
p123
sS'PLAED4AT'
p124
S'K'
sS'AIRU1BT'
p125
S'K'
sS'PR2TV01T'
p126
S'K'
sS'TCM_SSR1'
p127
S'K'
sS'PFTANK2T'
p128
S'K'
sS'6DRFTQC3'
p129
S'J'
sS'SOLAREPHEM1_Y'
p130
S'm'
sS'6DRFTQC1'
p131
S'J'
sS'5EPHINT'
p132
S'K'
sS'4VRMOBV'
p133
S'V'
sS'PLAEV3AT'
p134
S'K'
sS'AFLCA1AI'
p135
S'mA'
p136
sS'6TQCMD1'
p137
S'J'
sS'2DCENTRT'
p138
S'K'
sS'LUNAREPHEM0_X'
p139
S'm'
sS'OOBTHR60'
p140
S'K'
sS'OOBTHR61'
p141
S'K'
sS'OOBTHR62'
p142
S'K'
sS'OOBTHR63'
p143
S'K'
sS'PLINE11T'
p144
S'K'
sS'EPA15V'
p145
S'V'
sS'AOALPANG'
p146
S'deg'
p147
sS'TRSPMTPC'
p148
S'K'
sS'AOSPACS2B'
p149
S'mA'
p150
sS'4RT584T'
p151
S'K'
sS'AODVTIME'
p152
S's'
sS'3FASEAAT'
p153
S'K'
sS'AODITHR3'
p154
S'rad'
p155
sS'AAOTH2MT'
p156
S'K'
sS'AODITHR1'
p157
S'rad'
p158
sS'PLAED1BT'
p159
S'K'
sS'3TTRALAT'
p160
S'K'
sS'AFLC12AI'
p161
S'mA'
p162
sS'AOSACMD2'
p163
S'rad'
p164
sS'AOADACH1A_PCAD'
p165
S'deg'
p166
sS'AORESY1_1'
p167
S'rad'
p168
sS'ANGLEEPHEM_POINT_SUNCENTANG'
p169
S'deg'
p170
sS'EPB15V'
p171
S'V'
sS'2UVLSPXT'
p172
S'K'
sS'TFSSBKT2'
p173
S'K'
sS'3FARALAT'
p174
S'K'
sS'TMP_FEP0_FB'
p175
S'K'
sS'4HLL2AT'
p176
S'K'
sS'TCM_PA2'
p177
S'K'
sS'ACPA5CV'
p178
S'V'
sS'6TQCMD3'
p179
S'J'
sS'4PRT5AT'
p180
S'K'
sS'HKABIASLEAKI'
p181
S'uA'
p182
sS'TMP_FEP1_RAM'
p183
S'K'
sS'3FAPYZAT'
p184
S'K'
sS'OHRTHR08'
p185
S'K'
sS'TFUTSUPN'
p186
S'K'
sS'PLAED3GT'
p187
S'K'
sS'6RWCMD1'
p188
S'J'
sS'AORATE1'
p189
S'rad/s'
p190
sS'AORATE3'
p191
S'rad/s'
p192
sS'AORATE2'
p193
S'rad/s'
p194
sS'EORTDMN12D'
p195
S'K'
sS'4RT598T'
p196
S'K'
sS'EOECNV3C'
p197
S'V'
sS'3TTACS2T'
p198
S'K'
sS'TCM_CTU'
p199
S'K'
sS'ESAPYI'
p200
S'A'
sS'4HFSPBT'
p201
S'K'
sS'EEPB5V'
p202
S'V'
sS'3FAFLAAT'
p203
S'K'
sS'4MP28BV'
p204
S'V'
sS'PFDM101T'
p205
S'K'
sS'AESACHD1'
p206
S'deg'
p207
sS'PLAED3DT'
p208
S'K'
sS'4LFSPAT'
p209
S'K'
sS'EORTDMN23D'
p210
S'K'
sS'AWD3CV5V'
p211
S'V'
sS'PLINE02T'
p212
S'K'
sS'4ALL1AT'
p213
S'K'
sS'TPCM_RW5'
p214
S'K'
sS'LUNAREPHEM0_TIME'
p215
S's'
sS'2CEAHVPT'
p216
S'K'
sS'PLAEV2AT'
p217
S'K'
sS'AORESZ6_5'
p218
S'rad'
p219
sS'AWD3TQI'
p220
S'A'
sS'TRSPRWCM'
p221
S'K'
sS'AOSUNER3'
p222
S'rad'
p223
sS'CTXAV'
p224
S'V'
sS'DEAM15VOLTB'
p225
S'V'
sS'AAOTAPMT'
p226
S'K'
sS'PLAED2DT'
p227
S'K'
sS'TMZP_PY'
p228
S'K'
sS'TESH2'
p229
S'K'
sS'4PRT1AT'
p230
S'K'
sS'PFTANK1T'
p231
S'K'
sS'1DPAMYT'
p232
S'K'
sS'1DACTBT'
p233
S'K'
sS'4RT556T'
p234
S'K'
sS'AFLCA4BI'
p235
S'mA'
p236
sS'3SFLXBST'
p237
S'K'
sS'PM4THV1T'
p238
S'K'
sS'CSITA15V'
p239
S'V'
sS'DEAP6VOLTB'
p240
S'V'
sS'AFLC13AI'
p241
S'mA'
p242
sS'AORWBTQ1'
p243
S'J'
sS'AORWBTQ2'
p244
S'J'
sS'AORWBTQ3'
p245
S'J'
sS'AORWBTQ4'
p246
S'J'
sS'AORWBTQ5'
p247
S'J'
sS'AORWBTQ6'
p248
S'J'
sS'AWD6CV5V'
p249
S'V'
sS'3FABRCAT'
p250
S'K'
sS'AWD4CV5V'
p251
S'V'
sS'4RT576T'
p252
S'K'
sS'AWD1TQI'
p253
S'A'
sS'ANGLEEPHEM_POINT_EARTHLIMBANG'
p254
S'deg'
p255
sS'TCYZ_RW6'
p256
S'K'
sS'PR2TV02T'
p257
S'K'
sS'6RWNLTQ5'
p258
S'J'
sS'DEAM15VOLTA'
p259
S'V'
sS'2P05VAVL'
p260
S'V'
sS'1VAHCBT'
p261
S'K'
sS'PM2THV1T'
p262
S'K'
sS'PLINE09T'
p263
S'K'
sS'1DPP0AVO'
p264
S'V'
sS'3FAFLBAT'
p265
S'K'
sS'5EIOT'
p266
S'K'
sS'CPCB5V'
p267
S'V'
sS'PLAED1IT'
p268
S'K'
sS'DEAP15VOLTA'
p269
S'V'
sS'CPCA5V'
p270
S'V'
sS'CXPNAIT'
p271
S'K'
sS'TEIO'
p272
S'K'
sS'AORWMC2_1'
p273
S'J*s'
p274
sS'AOSARES1'
p275
S'deg'
p276
sS'AACBPRT'
p277
S'K'
sS'PLAED1AT'
p278
S'K'
sS'TPCM_RW4'
p279
S'K'
sS'4RT580T'
p280
S'K'
sS'3LDRTPOS'
p281
S'mm'
p282
sS'AESACHD2'
p283
S'deg'
p284
sS'PHETANKT'
p285
S'K'
sS'TAPE1PST'
p286
S'K'
sS'AOCSSI2'
p287
S'mA'
p288
sS'AOSRERR3'
p289
S'rad/s'
p290
sS'OOBTHR24'
p291
S'K'
sS'OOBTHR25'
p292
S'K'
sS'OOBTHR26'
p293
S'K'
sS'OOBTHR27'
p294
S'K'
sS'OOBTHR20'
p295
S'K'
sS'OOBTHR21'
p296
S'K'
sS'OOBTHR22'
p297
S'K'
sS'OOBTHR23'
p298
S'K'
sS'PR1TV01T'
p299
S'K'
sS'AVD2CV5V'
p300
S'V'
sS'OOBTHR28'
p301
S'K'
sS'OOBTHR29'
p302
S'K'
sS'AIOBP5CV'
p303
S'V'
sS'EORTDMN16D'
p304
S'K'
sS'2FHTRMZT'
p305
S'K'
sS'AOSAANG1'
p306
S'rad'
p307
sS'AOSAANG2'
p308
S'rad'
p309
sS'4RT577T'
p310
S'K'
sS'6MUPCNT3'
p311
S's'
sS'TCYLCMM'
p312
S'K'
sS'6MUPCNT1'
p313
S's'
sS'4RT561T'
p314
S'K'
sS'EOEBCC_LOW'
p315
S'A'
sS'6MUPCNT4'
p316
S's'
sS'OHRTHR57'
p317
S'K'
sS'AOMANTIM'
p318
S's'
sS'CTUB5V'
p319
S'V'
sS'AWD4TQI'
p320
S'A'
sS'4LLL2AT'
p321
S'K'
sS'AWD5CV5V'
p322
S'V'
sS'CRXBV'
p323
S'V'
sS'HKBBIASLEAKI'
p324
S'uA'
p325
sS'4ALL1BT'
p326
S'K'
sS'CPCB15V'
p327
S'V'
sS'4RT711T'
p328
S'K'
sS'AAOTALT'
p329
S'K'
sS'AGWS2V'
p330
S'V'
sS'EORTDMN26D'
p331
S'K'
sS'EB1V'
p332
S'V'
sS'AOIRERL1'
p333
S'rad'
p334
sS'AOIRERL2'
p335
S'rad'
p336
sS'AOIRERL3'
p337
S'rad'
p338
sS'3SFLXCST'
p339
S'K'
sS'PLINE07T'
p340
S'K'
sS'PLAEV2BT'
p341
S'K'
sS'AOSCVEL1'
p342
S'km/s'
p343
sS'AOSCVEL3'
p344
S'km/s'
p345
sS'AOSCVEL2'
p346
S'km/s'
p347
sS'1DE28AVO'
p348
S'V'
sS'EOEB3DIC'
p349
S'A'
sS'AFLC13BI'
p350
S'mA'
p351
sS'PR4TV02T'
p352
S'K'
sS'4RT563T'
p353
S'K'
sS'AOGBIAS1'
p354
S'rad/s'
p355
sS'AOGBIAS2'
p356
S'rad/s'
p357
sS'AOGBIAS3'
p358
S'rad/s'
p359
sS'1DEN1AVO'
p360
S'V'
sS'1DEN0AVO'
p361
S'V'
sS'4LPOSBRO'
p362
S'deg'
p363
sS'TMP_FEP1_FB'
p364
S'K'
sS'ANGLEEPHEM_TIME'
p365
S's'
sS'1DPICBCU'
p366
S'A'
sS'LUNAREPHEM1_VY'
p367
S'm/s'
p368
sS'LUNAREPHEM1_VX'
p369
S'm/s'
p370
sS'SOLAREPHEM0_Z'
p371
S'm'
sS'1DP28AVO'
p372
S'V'
sS'PLINE03T'
p373
S'K'
sS'4CSDHAV'
p374
S'V'
sS'4RT587T'
p375
S'K'
sS'AI1AX2Y'
p376
S'deg/s'
p377
sS'AI1AX2X'
p378
S'deg/s'
p379
sS'AOSYMOM2'
p380
S'J*s'
p381
sS'SOLAREPHEM0_Y'
p382
S'm'
sS'AORWCMD5'
p383
S'J'
sS'AORWCMD4'
p384
S'J'
sS'OHRTHR29'
p385
S'K'
sS'AORWCMD6'
p386
S'J'
sS'AORWCMD1'
p387
S'J'
sS'AORWCMD3'
p388
S'J'
sS'AORWCMD2'
p389
S'J'
sS'OHRTHR23'
p390
S'K'
sS'OHRTHR22'
p391
S'K'
sS'OHRTHR21'
p392
S'K'
sS'OHRTHR20'
p393
S'K'
sS'OHRTHR27'
p394
S'K'
sS'OHRTHR26'
p395
S'K'
sS'OHRTHR25'
p396
S'K'
sS'OHRTHR24'
p397
S'K'
sS'4IN15BV'
p398
S'V'
sS'63RCSTMR'
p399
S's'
sS'LUNAREPHEM1_X'
p400
S'm'
sS'4RT594T'
p401
S'K'
sS'TMP_FEP0_MONG'
p402
S'K'
sS'TCNR_BRM'
p403
S'K'
sS'TCM_IFU'
p404
S'K'
sS'TCYLFMZP'
p405
S'K'
sS'4RT569T'
p406
S'K'
sS'TCYLFMZM'
p407
S'K'
sS'4RT597T'
p408
S'K'
sS'TEP_RCTU'
p409
S'K'
sS'4RT702T'
p410
S'K'
sS'ASPEFSW1B'
p411
S'deg'
p412
sS'SOLAREPHEM0_X'
p413
S'm'
sS'1VAHOAT'
p414
S'K'
sS'AACH1T'
p415
S'K'
sS'4PRT2AT'
p416
S'K'
sS'4VRMHBV'
p417
S'V'
sS'LUNAREPHEM1_Y'
p418
S'm'
sS'TPC_ESE'
p419
S'K'
sS'HKCBIASLEAKI'
p420
S'uA'
p421
sS'AFLCA9AI'
p422
S'mA'
p423
sS'HKP27I'
p424
S'mA'
p425
sS'CTSB5V'
p426
S'V'
sS'3FAMTRAT'
p427
S'K'
sS'AFLCA1BI'
p428
S'mA'
p429
sS'HKP27V'
p430
S'V'
sS'4VRMHAV'
p431
S'V'
sS'4MP5AV'
p432
S'V'
sS'SOLAREPHEM1_VX'
p433
S'm/s'
p434
sS'PLINE10T'
p435
S'K'
sS'TPC_RCTU'
p436
S'K'
sS'TCM_PA1'
p437
S'K'
sS'AESAPHA1'
p438
S'deg'
p439
sS'AOBETANG'
p440
S'deg'
p441
sS'2FRADPYT'
p442
S'K'
sS'1DE28BVO'
p443
S'V'
sS'C28VMONB'
p444
S'V'
sS'4RT595T'
p445
S'K'
sS'SOLAREPHEM0_VZ'
p446
S'm/s'
p447
sS'PLAED4FT'
p448
S'K'
sS'AOADBCH2A_NBG'
p449
S'deg'
p450
sS'4LLL2BT'
p451
S'K'
sS'1DEP1BVO'
p452
S'V'
sS'LUNAREPHEM0_VY'
p453
S'm/s'
p454
sS'AOSPACS3B'
p455
S'mA'
p456
sS'PLAEV4BT'
p457
S'K'
sS'ES2P5CV'
p458
S'V'
sS'ORBITEPHEM1_VZ'
p459
S'm/s'
p460
sS'AORWPI5B'
p461
S'ms'
p462
sS'4PRT4AT'
p463
S'K'
sS'CUSOBOVN'
p464
S'W'
sS'ORBITEPHEM1_VY'
p465
S'm/s'
p466
sS'TFSPCMM'
p467
S'K'
sS'EORTDMN19D'
p468
S'K'
sS'ORBITEPHEM1_VX'
p469
S'm/s'
p470
sS'4HFSPAT'
p471
S'K'
sS'4MP5BV'
p472
S'V'
sS'AOINTTIM'
p473
S's'
sS'TFSPCMP'
p474
S'K'
sS'AOCMDRT1'
p475
S'rad/s'
p476
sS'AOACZAN5'
p477
S'arcsec'
p478
sS'AOACZAN4'
p479
S'arcsec'
p480
sS'AOACZAN7'
p481
S'arcsec'
p482
sS'AOACZAN6'
p483
S'arcsec'
p484
sS'AOACZAN1'
p485
S'arcsec'
p486
sS'AOACZAN0'
p487
S'arcsec'
p488
sS'AOACZAN3'
p489
S'arcsec'
p490
sS'AOACZAN2'
p491
S'arcsec'
p492
sS'3TTHRC2T'
p493
S'K'
sS'6TQCMD2'
p494
S'J'
sS'TCYLAFT4'
p495
S'K'
sS'6RWCMD3'
p496
S'J'
sS'CRXALS'
p497
S'kHz'
p498
sS'AOYABR'
p499
S'rad'
p500
sS'AOSRERR1'
p501
S'rad/s'
p502
sS'AOSRERR2'
p503
S'rad/s'
p504
sS'TIME'
p505
S's'
sS'PLAED2GT'
p506
S'K'
sS'HKN6V'
p507
S'V'
sS'CXO5VOBB'
p508
S'V'
sS'AOSAEST1'
p509
S'rad'
p510
sS'1DAHACU'
p511
S'A'
sS'CXO5VOBA'
p512
S'V'
sS'EORTDMN22D'
p513
S'K'
sS'PM3THV1T'
p514
S'K'
sS'1DEP2BVO'
p515
S'V'
sS'AOETIMEX'
p516
S's'
sS'2CONDMXT'
p517
S'K'
sS'6SARES2'
p518
S'deg'
p519
sS'6SARES1'
p520
S'deg'
p521
sS'AORWINT5'
p522
S'ms'
p523
sS'1DEN0BVO'
p524
S'V'
sS'4IP15BV'
p525
S'V'
sS'4ALL2BT'
p526
S'K'
sS'4RT557T'
p527
S'K'
sS'CIUB5V'
p528
S'V'
sS'4ALL2AT'
p529
S'K'
sS'SOLAREPHEM1_VZ'
p530
S'm/s'
p531
sS'EOESAC1C'
p532
S'A'
sS'CTUA15V'
p533
S'V'
sS'SOLAREPHEM1_VY'
p534
S'm/s'
p535
sS'AOADACH2A_NBG'
p536
S'deg'
p537
sS'AFLC10BI'
p538
S'mA'
p539
sS'PLAED2ET'
p540
S'K'
sS'CSSR1CAV'
p541
S'V'
sS'TMP_BEP_OSC'
p542
S'K'
sS'EOEB2DIC'
p543
S'A'
sS'3TTBRGBT'
p544
S'K'
sS'EOEBCC'
p545
S'A'
sS'AORWINT2'
p546
S'ms'
p547
sS'AORWINT3'
p548
S'ms'
p549
sS'AORWINT4'
p550
S'ms'
p551
sS'1DACTAT'
p552
S'deg'
p553
sS'AORWINT6'
p554
S'ms'
p555
sS'AFLCA4AI'
p556
S'mA'
p557
sS'4SP51V'
p558
S'V'
sS'EORTDMN25D'
p559
S'K'
sS'PLAED2CT'
p560
S'K'
sS'EOEB1VC'
p561
S'V'
sS'C10VREFB'
p562
S'V'
sS'C10VREFA'
p563
S'V'
sS'EOEB2VC'
p564
S'V'
sS'4PRT3BT'
p565
S'K'
sS'AWD1CV5V'
p566
S'V'
sS'PMTANK3T'
p567
S'K'
sS'SOLAREPHEM1_Z'
p568
S'm'
sS'AFLCA8BI'
p569
S'mA'
p570
sS'PLAED1DT'
p571
S'K'
sS'ARWA3BT'
p572
S'K'
sS'AOACINTT'
p573
S'ms'
p574
sS'DEA24VOLTA'
p575
S'V'
sS'OHRTHR63'
p576
S'K'
sS'OOBTHR13'
p577
S'K'
sS'OHRTHR61'
p578
S'K'
sS'EOEB3CIC'
p579
S'A'
sS'AOSYMOM3'
p580
S'J*s'
p581
sS'EOESAC2C'
p582
S'A'
sS'AOSYMOM1'
p583
S'J*s'
p584
sS'4RT701T'
p585
S'K'
sS'AFLCA2AI'
p586
S'mA'
p587
sS'HKP5I'
p588
S'mA'
p589
sS'1OAHBT'
p590
S'K'
sS'TCYLAFT1'
p591
S'K'
sS'1DAHBCU'
p592
S'A'
sS'PMTANKP'
p593
S'kPa'
p594
sS'ORBITEPHEM0_Y'
p595
S'm'
sS'AFLCA5BI'
p596
S'mA'
p597
sS'ECNV3V'
p598
S'V'
sS'ORBITEPHEM0_VY'
p599
S'm/s'
p600
sS'4RT583T'
p601
S'K'
sS'HKP5V'
p602
S'V'
sS'AIOAP5CV'
p603
S'V'
sS'TFSPRWC'
p604
S'K'
sS'4RT593T'
p605
S'K'
sS'TATECDRT'
p606
S'K'
sS'4RT559T'
p607
S'K'
sS'TSCTSF1'
p608
S'K'
sS'TSCTSF2'
p609
S'K'
sS'TSCTSF3'
p610
S'K'
sS'TSCTSF4'
p611
S'K'
sS'TSCTSF5'
p612
S'K'
sS'4PRT5BT'
p613
S'K'
sS'AFLCA6BI'
p614
S'mA'
p615
sS'TCM_RFAS'
p616
S'K'
sS'PLAED4ET'
p617
S'K'
sS'PLINE14T'
p618
S'K'
sS'TESH1'
p619
S'K'
sS'1DEICACU'
p620
S'A'
sS'CXPNBIT'
p621
S'K'
sS'1MAHCAT'
p622
S'K'
sS'PR3TV02T'
p623
S'K'
sS'3TSPZSPT'
p624
S'K'
sS'HKEBOXTEMP'
p625
S'K'
sS'1DEP3BVO'
p626
S'V'
sS'ORBITEPHEM1_TIME'
p627
S's'
sS'AOAVGDTQ'
p628
S'J'
sS'EORTDMN17D'
p629
S'K'
sS'PLAED4BT'
p630
S'K'
sS'ADE1P5CV'
p631
S'V'
sS'TFSPPCU'
p632
S'K'
sS'4RT560T'
p633
S'K'
sS'AOMANANG'
p634
S'rad'
p635
sS'6RWSPD3'
p636
S'rad/s'
p637
sS'6RWSPD2'
p638
S'rad/s'
p639
sS'6RWSPD5'
p640
S'rad/s'
p641
sS'6RWSPD4'
p642
S'rad/s'
p643
sS'6RWSPD6'
p644
S'rad/s'
p645
sS'6CSSI2'
p646
S'mA'
p647
sS'AFLCA7AI'
p648
S'mA'
p649
sS'EB2DI'
p650
S'A'
sS'1DAHAT'
p651
S'K'
sS'TRSPRWBB'
p652
S'K'
sS'TRSPRWBC'
p653
S'K'
sS'AOSACMD1'
p654
S'rad'
p655
sS'AORWNTQ3'
p656
S'J'
sS'ANGLEEPHEM_POINT_MOONLIMBANG'
p657
S'deg'
p658
sS'ORBITEPHEM1_X'
p659
S'm'
sS'ORBITEPHEM1_Y'
p660
S'm'
sS'ORBITEPHEM1_Z'
p661
S'm'
sS'ANGLEEPHEM_DIST_SATEARTH'
p662
S'm'
sS'AFLCA3BI'
p663
S'mA'
p664
sS'FPTEMP_12'
p665
S'K'
sS'AORWPI1B'
p666
S'ms'
p667
sS'EB1DI'
p668
S'A'
sS'PLAED3FT'
p669
S'K'
sS'AFLCA3AI'
p670
S'mA'
p671
sS'AFSSPC1V'
p672
S'V'
sS'LUNAREPHEM1_Z'
p673
S'm'
sS'TSCIUSF2'
p674
S'K'
sS'TSCIUSF5'
p675
S'K'
sS'AVD1CV5V'
p676
S'V'
sS'DEAP6VOLTA'
p677
S'V'
sS'TSCIUSF8'
p678
S'K'
sS'AACH2T'
p679
S'K'
sS'ADE2P5CV'
p680
S'V'
sS'TASPPCP'
p681
S'K'
sS'3TTACS3T'
p682
S'K'
sS'CTSA15V'
p683
S'V'
sS'PFDM102T'
p684
S'K'
sS'3FAPSAT'
p685
S'K'
sS'PFDM202T'
p686
S'K'
sS'OHRTHR62'
p687
S'K'
sS'6DRFTQC2'
p688
S'J'
sS'4RT586T'
p689
S'K'
sS'TEP_PSU1'
p690
S'K'
sS'OHRTHR60'
p691
S'K'
sS'OOBTHR37'
p692
S'K'
sS'OOBTHR36'
p693
S'K'
sS'OOBTHR35'
p694
S'K'
sS'OOBTHR34'
p695
S'K'
sS'CUSOBIT'
p696
S'K'
sS'TAPEA1T'
p697
S'K'
sS'OOBTHR31'
p698
S'K'
sS'OOBTHR30'
p699
S'K'
sS'6BETANG'
p700
S'deg'
p701
sS'OOBTHR39'
p702
S'K'
sS'OOBTHR38'
p703
S'K'
sS'2P24VBVL'
p704
S'V'
sS'AIRU2G2T'
p705
S'K'
sS'3FABRAAT'
p706
S'K'
sS'1DEP3AVO'
p707
S'V'
sS'AIRU1G2T'
p708
S'K'
sS'TPC_CEA'
p709
S'K'
sS'AIRU1G2I'
p710
S'mA'
p711
sS'PM2THV2T'
p712
S'K'
sS'TSAMYT'
p713
S'K'
sS'AVACMONV'
p714
S'V'
sS'4RT590T'
p715
S'K'
sS'HKP6V'
p716
S'V'
sS'TEP_PSU2'
p717
S'K'
sS'TPZLGABM'
p718
S'K'
sS'1OAHAT'
p719
S'K'
sS'AHKNATPR'
p720
S'V'
sS'ASPEFSW4B'
p721
S'deg'
p722
sS'ARWA4BT'
p723
S'K'
sS'PLAEV4AT'
p724
S'K'
sS'4CSDHBV'
p725
S'V'
sS'AOMANRT'
p726
S'rad/s'
p727
sS'AOCSSI1'
p728
S'mA'
p729
sS'AOCSSI3'
p730
S'mA'
p731
sS'AIRU2G1T'
p732
S'K'
sS'AOCSSI4'
p733
S'mA'
p734
sS'AIRU2G1I'
p735
S'mA'
p736
sS'CTUB15V'
p737
S'V'
sS'1VAHCAT'
p738
S'K'
sS'TB3T2'
p739
S'K'
sS'TB3T3'
p740
S'K'
sS'DEAM6VOLTB'
p741
S'V'
sS'6RATE3'
p742
S'rad/s'
p743
sS'PLAED3CT'
p744
S'K'
sS'1PIN1AT'
p745
S'K'
sS'1DP28BVO'
p746
S'V'
sS'AOFFTQ1'
p747
S'J'
sS'PLAEV1BT'
p748
S'K'
sS'AOFFTQ2'
p749
S'J'
sS'PFDM201T'
p750
S'K'
sS'SOLAREPHEM0_VY'
p751
S'm/s'
p752
sS'TPCP_RW3'
p753
S'K'
sS'AOFFTQ3'
p754
S'J'
sS'AI2AX1Y'
p755
S'deg/s'
p756
sS'61RCSTMR'
p757
S's'
sS'1PDEABT'
p758
S'K'
sS'TPCP_RW2'
p759
S'K'
sS'PLAED2HT'
p760
S'K'
sS'AOADBCH2A_PCAD'
p761
S'deg'
p762
sS'4RT704T'
p763
S'K'
sS'6SAEST2'
p764
S'rad'
p765
sS'AORWPI6B'
p766
S'ms'
p767
sS'TCM_PAN'
p768
S'K'
sS'TCM_SSR2'
p769
S'K'
sS'EOECNV1C'
p770
S'V'
sS'AFLCABH'
p771
S'V'
sS'6MUPCNT2'
p772
S's'
sS'3FLCABPT'
p773
S'K'
sS'OHRTHR18'
p774
S'K'
sS'OHRTHR19'
p775
S'K'
sS'OHRTHR17'
p776
S'K'
sS'OHRTHR14'
p777
S'K'
sS'OHRTHR15'
p778
S'K'
sS'OHRTHR12'
p779
S'K'
sS'OHRTHR13'
p780
S'K'
sS'OHRTHR10'
p781
S'K'
sS'OHRTHR11'
p782
S'K'
sS'4PRTBV'
p783
S'V'
sS'CIUB15V'
p784
S'V'
sS'3TTHRC3T'
p785
S'K'
sS'HKFBIASLEAKI'
p786
S'uA'
p787
sS'PLAED3HT'
p788
S'K'
sS'SOLAREPHEM1_X'
p789
S'm'
sS'AIRU2BT'
p790
S'K'
sS'AORWSPD1'
p791
S'rad/s'
p792
sS'AORWSPD2'
p793
S'rad/s'
p794
sS'AORWSPD3'
p795
S'rad/s'
p796
sS'AORWSPD4'
p797
S'rad/s'
p798
sS'AORWSPD5'
p799
S'rad/s'
p800
sS'AORWSPD6'
p801
S'rad/s'
p802
sS'PM1THV1T'
p803
S'K'
sS'AOCMDRT2'
p804
S'rad/s'
p805
sS'AOCMDRT3'
p806
S'rad/s'
p807
sS'AI2AX2X'
p808
S'deg/s'
p809
sS'EORTDMN13D'
p810
S'K'
sS'4RT564T'
p811
S'K'
sS'EORTDMN21D'
p812
S'K'
sS'PMTANK1T'
p813
S'K'
sS'4SP52V'
p814
S'V'
sS'1DEN1BVO'
p815
S'V'
sS'PM3THV2T'
p816
S'K'
sS'EORTDMN29D'
p817
S'K'
sS'PLINE04T'
p818
S'K'
sS'PLAED3BT'
p819
S'K'
sS'AI2AX2Y'
p820
S'deg/s'
p821
sS'TB2T1'
p822
S'K'
sS'PXTANKOP'
p823
S'kPa'
p824
sS'4OAVHRMT'
p825
S'K'
sS'EORTDMN28D'
p826
S'K'
sS'PFFP01T'
p827
S'K'
sS'2N15VAVL'
p828
S'V'
sS'2N15VBVL'
p829
S'V'
sS'4LFSPBT'
p830
S'K'
sS'TMP_FEP1_PCB'
p831
S'K'
sS'AOSPBCS2B'
p832
S'mA'
p833
sS'HKEBIASLEAKI'
p834
S'uA'
p835
sS'1DEP0AVO'
p836
S'V'
sS'4CSDOAV'
p837
S'V'
sS'TEP_BPAN'
p838
S'K'
sS'1WRAT'
p839
S'K'
sS'PLAED1GT'
p840
S'K'
sS'TASPRWC'
p841
S'K'
sS'AORESY6_1'
p842
S'rad'
p843
sS'PLINE01T'
p844
S'K'
sS'6RWCMD4'
p845
S'J'
sS'6RWCMD5'
p846
S'J'
sS'6RWCMD6'
p847
S'J'
sS'AFLCA8AI'
p848
S'mA'
p849
sS'AACBPPT'
p850
S'K'
sS'4HPOSBRO'
p851
S'deg'
p852
sS'AORTERR3'
p853
S'rad/s'
p854
sS'1PDEAAT'
p855
S'K'
sS'PCM02T'
p856
S'K'
sS'3FAMYZAT'
p857
S'K'
sS'AACCCDPT'
p858
S'K'
sS'4OAVOBAT'
p859
S'K'
sS'HKGHV'
p860
S'V'
sS'PLAEV1AT'
p861
S'K'
sS'TPC_WDA'
p862
S'K'
sS'TSCTSF6'
p863
S'K'
sS'AOSPBCS3B'
p864
S'mA'
p865
sS'TCM_TX2'
p866
S'K'
sS'TCM_TX1'
p867
S'K'
sS'CTUA5V'
p868
S'V'
sS'4LLL1BT'
p869
S'K'
sS'TMZP_CNT'
p870
S'K'
sS'4RT582T'
p871
S'K'
sS'TMP_BEP_PCB'
p872
S'K'
sS'AHKNATRD'
p873
S'V'
sS'EOEB3VC'
p874
S'V'
sS'DPA5VHKB'
p875
S'V'
sS'6SINTER3'
p876
S'rad'
p877
sS'6SINTER2'
p878
S'rad'
p879
sS'AFLCA6AI'
p880
S'mA'
p881
sS'ORBITEPHEM0_Z'
p882
S'm'
sS'4CSDOBV'
p883
S'V'
sS'AFLCA9BI'
p884
S'mA'
p885
sS'1DEP2AVO'
p886
S'V'
sS'3RCTUBPT'
p887
S'K'
sS'6SURTER3'
p888
S'rad/s'
p889
sS'6SURTER2'
p890
S'rad/s'
p891
sS'6SURTER1'
p892
S'rad/s'
p893
sS'TMP_FEP0_ACTEL'
p894
S'K'
sS'6RWNLTQ2'
p895
S'J'
sS'OOBTHR49'
p896
S'K'
sS'OOBTHR46'
p897
S'K'
sS'OOBTHR47'
p898
S'K'
sS'OOBTHR44'
p899
S'K'
sS'OOBTHR45'
p900
S'K'
sS'OOBTHR42'
p901
S'K'
sS'OOBTHR43'
p902
S'K'
sS'OOBTHR40'
p903
S'K'
sS'OOBTHR41'
p904
S'K'
sS'AI1AX1X'
p905
S'deg/s'
p906
sS'PLAED2IT'
p907
S'K'
sS'AI1AX1Y'
p908
S'deg/s'
p909
sS'4HLL1BT'
p910
S'K'
sS'AWD2CV5V'
p911
S'V'
sS'6SINTER1'
p912
S'rad'
p913
sS'EORTDMN14D'
p914
S'K'
sS'LUNAREPHEM1_VZ'
p915
S'm/s'
p916
sS'6SAEST1'
p917
S'rad'
p918
sS'ANGLEEPHEM_POINT_EARTHCENTANG'
p919
S'deg'
p920
sS'ARWA1BT'
p921
S'K'
sS'AFLCA7BI'
p922
S'mA'
p923
sS'AORWNTQ1'
p924
S'J'
sS'PLAED4GT'
p925
S'K'
sS'LUNAREPHEM0_Y'
p926
S'm'
sS'6SARATC2'
p927
S'rad/s'
p928
sS'AFLC14BI'
p929
S'mA'
p930
sS'LUNAREPHEM0_Z'
p931
S'm'
sS'AOSPACS4B'
p932
S'mA'
p933
sS'OHRTHR58'
p934
S'K'
sS'OHRTHR59'
p935
S'K'
sS'OHRTHR52'
p936
S'K'
sS'OHRTHR53'
p937
S'K'
sS'OHRTHR50'
p938
S'K'
sS'OHRTHR51'
p939
S'K'
sS'OHRTHR56'
p940
S'K'
sS'2P15VAVL'
p941
S'V'
sS'OHRTHR54'
p942
S'K'
sS'OHRTHR55'
p943
S'K'
sS'AORWPI2B'
p944
S'ms'
p945
sS'TCYZ_RW1'
p946
S'K'
sS'AI2AX1X'
p947
S'deg/s'
p948
sS'3TSMXCET'
p949
S'K'
sS'AODITHR2'
p950
S'rad'
p951
sS'DPA5VHKA'
p952
S'V'
sS'ARWA2BT'
p953
S'K'
sS'PLAED3ET'
p954
S'K'
sS'3FAPOS'
p955
S'mm'
p956
sS'TSAPYT'
p957
S'K'
sS'CPA1V'
p958
S'V'
sS'ASPEA5CV'
p959
S'V'
sS'4IP15AV'
p960
S'V'
sS'PXTANK1T'
p961
S'K'
sS'4RT568T'
p962
S'K'
sS'HKN6I'
p963
S'mA'
p964
sS'ACPB5CV'
p965
S'V'
sS'OOBTHR02'
p966
S'K'
sS'1DPICACU'
p967
S'A'
sS'TCYLPCM'
p968
S'K'
sS'SOLAREPHEM0_TIME'
p969
S's'
sS'TOXTSUPN'
p970
S'K'
sS'AOSPBCS1B'
p971
S'mA'
p972
sS'4RT589T'
p973
S'K'
sS'ASPEFSW2B'
p974
S'deg'
p975
sS'TCYLRWC'
p976
S'K'
sS'AORWMOM2'
p977
S'J*s'
p978
sS'TCYLAFT5'
p979
S'K'
sS'AORWMOM1'
p980
S'J*s'
p981
sS'4RT700T'
p982
S'K'
sS'4LLL1AT'
p983
S'K'
sS'1CBAT'
p984
S'K'
sS'CPA2BPT'
p985
S'K'
sS'PLAED4IT'
p986
S'K'
sS'EB3DI'
p987
S'A'
sS'PLAED2FT'
p988
S'K'
sS'TCYLAFT6'
p989
S'K'
sS'6SUNER2'
p990
S'rad'
p991
sS'TAPEA2T'
p992
S'K'
sS'AFLC10AI'
p993
S'mA'
p994
sS'2PMT2T'
p995
S'K'
sS'EIACVAV'
p996
S'V'
sS'6RWNLTQ3'
p997
S'J'
sS'EB3V'
p998
S'V'
sS'6CSSI4'
p999
S'mA'
p1000
sS'PLAED1HT'
p1001
S'K'
sS'1MAHOAT'
p1002
S'K'
sS'EORTDMN24D'
p1003
S'K'
sS'3TTVALVT'
p1004
S'K'
sS'6CSSI1'
p1005
S'mA'
p1006
sS'PXDM02T'
p1007
S'K'
sS'AOCMDAC1'
p1008
S'rad/s**2'
p1009
sS'CUSOAIT'
p1010
S'K'
sS'4HPOSARO'
p1011
S'deg'
p1012
sS'OHRMGRD6'
p1013
S'deltaK'
p1014
sS'OHRMGRD3'
p1015
g1014
sS'DEA28VOLTA'
p1016
S'V'
sS'EOEB3V'
p1017
S'V'
sS'DEA28VOLTB'
p1018
S'V'
sS'4IN15AV'
p1019
S'V'
sS'3FAFLCAT'
p1020
S'K'
sS'CIUA15V'
p1021
S'V'
sS'AOTQCMD1'
p1022
S'J'
sS'AOTQCMD3'
p1023
S'J'
sS'AOTQCMD2'
p1024
S'J'
sS'TRSPOTEP'
p1025
S'K'
sS'AIRU2G2I'
p1026
S'mA'
p1027
sS'AOCMDAC2'
p1028
S'rad/s**2'
p1029
sS'TRSPOTEX'
p1030
S'K'
sS'AORTERR1'
p1031
S'rad/s'
p1032
sS'4PRT3AT'
p1033
S'K'
sS'AOSPACS1B'
p1034
S'mA'
p1035
sS'EOEBC'
p1036
S'A'
sS'TB1T1'
p1037
S'K'
sS'AFLCAAH'
p1038
S'V'
sS'1CRAT'
p1039
S'K'
sS'AFSSPC2V'
p1040
S'V'
sS'PMTANK2T'
p1041
S'K'
sS'4RT558T'
p1042
S'K'
sS'AOACYAN1'
p1043
S'arcsec'
p1044
sS'ANGLEEPHEM_POINT_RAMVECTORANG'
p1045
S'deg'
p1046
sS'TMP_FEP0_PCB'
p1047
S'K'
sS'1SSPYT'
p1048
S'K'
sS'AFLC11AI'
p1049
S'mA'
p1050
sS'PLAED1CT'
p1051
S'K'
sS'DEA24VOLTB'
p1052
S'V'
sS'AOCMDAC3'
p1053
S'rad/s**2'
p1054
sS'PLAED4HT'
p1055
S'K'
sS'2DTSTATT'
p1056
S'K'
sS'OOBTHR08'
p1057
S'K'
sS'OOBTHR09'
p1058
S'K'
sS'AAOTASMT'
p1059
S'K'
sS'CSITA5V'
p1060
S'V'
sS'OOBTHR03'
p1061
S'K'
sS'TCYLAFT3'
p1062
S'K'
sS'TCYLAFT2'
p1063
S'K'
sS'OOBTHR06'
p1064
S'K'
sS'OOBTHR07'
p1065
S'K'
sS'OOBTHR04'
p1066
S'K'
sS'OOBTHR05'
p1067
S'K'
sS'1DAHBT'
p1068
S'K'
sS'EOESAT2C'
p1069
S'K'
sS'6SARATC1'
p1070
S'rad/s'
p1071
sS'6RWCMD2'
p1072
S'J'
sS'PR3TV01T'
p1073
S'K'
sS'TBOLTCUT'
p1074
S'K'
sS'AOACYAN4'
p1075
S'arcsec'
p1076
sS'AOACYAN5'
p1077
S'arcsec'
p1078
sS'AOACYAN6'
p1079
S'arcsec'
p1080
sS'AOACYAN7'
p1081
S'arcsec'
p1082
sS'AOACYAN0'
p1083
S'arcsec'
p1084
sS'1MAHCBT'
p1085
S'K'
sS'AOACYAN2'
p1086
S'arcsec'
p1087
sS'AOACYAN3'
p1088
S'arcsec'
p1089
sS'TFSSBKT1'
p1090
S'K'
sS'PLAED4CT'
p1091
S'K'
sS'CUSOB28V'
p1092
S'V'
sS'AORESY7'
p1093
S'rad'
p1094
sS'AORESY4'
p1095
S'rad'
p1096
sS'CSITB5V'
p1097
S'V'
sS'6RWNLTQ4'
p1098
S'J'
sS'AORESY3'
p1099
S'rad'
p1100
sS'AORESY0'
p1101
S'rad'
p1102
sS'CSITB15V'
p1103
S'V'
sS'EB2CI'
p1104
S'A'
sS'TEP_PPAN'
p1105
S'K'
sS'AORESZ2_1'
p1106
S'rad'
p1107
sS'1DAHBVO'
p1108
S'V'
sS'4RT565T'
p1109
S'K'
sS'PLAED1ET'
p1110
S'K'
sS'CSSR2CBV'
p1111
S'V'
sS'4RT707T'
p1112
S'K'
sS'ORBITEPHEM0_TIME'
p1113
S's'
sS'PLINE05T'
p1114
S'K'
sS'PLAED3AT'
p1115
S'K'
sS'TAPE2PST'
p1116
S'K'
sS'4IP5BV'
p1117
S'V'
sS'4PRT4BT'
p1118
S'K'
sS'1DAHHAVO'
p1119
S'V'
sS'3TSPYFET'
p1120
S'K'
sS'3SFLXAST'
p1121
S'K'
sS'TMP_FEP1_ACTEL'
p1122
S'K'
sS'4RT555T'
p1123
S'K'
sS'6RWSPD1'
p1124
S'rad/s'
p1125
sS'TPC_DEA'
p1126
S'K'
sS'PXTANKIP'
p1127
S'kPa'
p1128
sS'3TSCPOS'
p1129
S'mm'
p1130
sS'AORWINT1'
p1131
S'ms'
p1132
sS'GND_2'
p1133
S'V'
sS'ARWA5BT'
p1134
S'K'
sS'ELBI_LOW'
p1135
S'A'
sS'2CHTRPZT'
p1136
S'K'
sS'4RT579T'
p1137
S'K'
sS'6RWNLTQ1'
p1138
S'J'
sS'TCM_USO'
p1139
S'K'
sS'PLINE13T'
p1140
S'K'
sS'AOATTER1'
p1141
S'rad'
p1142
sS'AOATTER2'
p1143
S'rad'
p1144
sS'AOATTER3'
p1145
S'rad'
p1146
sS'TMZLGABM'
p1147
S'K'
sS'2P24VAVL'
p1148
S'V'
sS'AWD5TQI'
p1149
S'A'
sS'AOADACH1A_NBG'
p1150
S'deg'
p1151
sS'ECNV1V'
p1152
S'V'
sS'EEPA5V'
p1153
S'V'
sS'4RT585T'
p1154
S'K'
sS'PLAED2BT'
p1155
S'K'
sS'OHRTHR03'
p1156
S'K'
sS'OHRTHR02'
p1157
S'K'
sS'OHRTHR05'
p1158
S'K'
sS'OHRTHR04'
p1159
S'K'
sS'OHRTHR07'
p1160
S'K'
sS'OHRTHR06'
p1161
S'K'
sS'OHRTHR09'
p1162
S'K'
sS'1WRBT'
p1163
S'K'
sS'AIRU1VFT'
p1164
S'K'
sS'AORESZ6_6'
p1165
S'rad'
p1166
sS'AORESZ6_7'
p1167
S'rad'
p1168
sS'AORESZ6_4'
p1169
S'rad'
p1170
sS'AOADBCH1A_NBG'
p1171
S'deg'
p1172
sS'AORESZ6_2'
p1173
S'rad'
p1174
sS'AORESZ6_3'
p1175
S'rad'
p1176
sS'CTSA5V'
p1177
S'V'
sS'AORESZ6_1'
p1178
S'rad'
p1179
sS'4RT570T'
p1180
S'K'
sS'AIRU1G1T'
p1181
S'K'
sS'4RT705T'
p1182
S'K'
sS'ELBI'
p1183
S'A'
sS'1CBBT'
p1184
S'K'
sS'AORESZ6_8'
p1185
S'rad'
p1186
sS'3BTU_BPT'
p1187
S'K'
sS'AOSARES2'
p1188
S'deg'
p1189
sS'AORESY5_1'
p1190
S'rad'
p1191
sS'DEAP15VOLTB'
p1192
S'V'
sS'ELBV'
p1193
S'V'
sS'4RT591T'
p1194
S'K'
sS'TEP_PCU'
p1195
S'K'
sS'1DEP0BVO'
p1196
S'V'
sS'4PRTAV'
p1197
S'V'
sS'SOLAREPHEM1_TIME'
p1198
S's'
sS'TMZP_MY'
p1199
S'K'
sS'CTSB15V'
p1200
S'V'
sS'GND_1'
p1201
S'V'
sS'CPCA15V'
p1202
S'V'
sS'TMYHNG'
p1203
S'K'
sS'SIM_Y'
p1204
S'mm'
p1205
sS'PLAEV3BT'
p1206
S'K'
sS'SIM_Z'
p1207
S'mm'
p1208
sS'1DEICBCU'
p1209
S'A'
sS'DPAGNDREF1'
p1210
S'V'
sS'FPTEMP_11'
p1211
S'K'
sS'DPAGNDREF2'
p1212
S'V'
sS'PLINE12T'
p1213
S'K'
sS'AIRU2VFT'
p1214
S'K'
sS'EOESAT1C'
p1215
S'K'
sS'CRXAV'
p1216
S'V'
sS'C28VMONA'
p1217
S'V'
sS'AOADACH2A_PCAD'
p1218
S'deg'
p1219
sS'3TSPZDET'
p1220
S'K'
sS'TPYSADA'
p1221
S'K'
sS'EORTDMN15D'
p1222
S'K'
sS'AIRU1G1I'
p1223
S'mA'
p1224
sS'PLAED4DT'
p1225
S'K'
sS'PHETANKP'
p1226
S'kPa'
p1227
sS'PLINE08T'
p1228
S'K'
sS'TPC_FSSE'
p1229
S'K'
sS'AFLC12BI'
p1230
S'mA'
p1231
sS'CIUA5V'
p1232
S'V'
sS'AFLC14AI'
p1233
S'mA'
p1234
sS'TSCIUSF1'
p1235
S'K'
sS'PFTANKOP'
p1236
S'kPa'
p1237
sS'AORESZ7'
p1238
S'rad'
p1239
sS'3TTRALCT'
p1240
S'K'
sS'2P15VBVL'
p1241
S'V'
sS'AORESZ4'
p1242
S'rad'
p1243
sS'AORESZ3'
p1244
S'rad'
p1245
sS'6RWNLTQ6'
p1246
S'J'
sS'AORESZ0'
p1247
S'rad'
p1248
sS'AORWNTQ4'
p1249
S'J'
sS'AORWNTQ5'
p1250
S'J'
sS'AORWNTQ6'
p1251
S'J'
sS'TMP_FEP1_MONG'
p1252
S'K'
sS'AORWMC6_1'
p1253
S'J*s'
p1254
sS'EOECNV2C'
p1255
S'V'
sS'AORWNTQ2'
p1256
S'J'
sS'CPA2V'
p1257
S'V'
sS'DEAM6VOLTA'
p1258
S'V'
sS'SOLAREPHEM0_VX'
p1259
S'm/s'
p1260
sS'AOSPBCS4B'
p1261
S'mA'
p1262
sS'4RT567T'
p1263
S'K'
sS'4PRT1BT'
p1264
S'K'
sS'6RATE2'
p1265
S'rad/s'
p1266
sS'TRSPOTPC'
p1267
S'K'
sS'6RATE1'
p1268
S'rad/s'
p1269
sS'TCM_OBC'
p1270
S'K'
sS'AORWMC1'
p1271
S'J*s'
p1272
sS'4RT578T'
p1273
S'K'
sS'AORWMC4'
p1274
S'J*s'
p1275
sS'AORWMC5'
p1276
S'J*s'
p1277
sS'6ALPANG'
p1278
S'deg'
p1279
sS'TCYLPCP'
p1280
S'K'
sS'PM1THV2T'
p1281
S'K'
sS'TB1T2'
p1282
S'K'
sS'AOSCPOS1'
p1283
S'km'
p1284
sS'AOSCPOS2'
p1285
S'km'
p1286
sS'AOSCPOS3'
p1287
S'km'
p1288
sS'4RT588T'
p1289
S'K'
sS'ORBITEPHEM0_X'
p1290
S'm'
sS'PCM01T'
p1291
S'K'
sS'4RT596T'
p1292
S'K'
sS'OOBTHR51'
p1293
S'K'
sS'OOBTHR50'
p1294
S'K'
sS'OOBTHR53'
p1295
S'K'
sS'OOBTHR52'
p1296
S'K'
sS'OOBTHR55'
p1297
S'K'
sS'OOBTHR54'
p1298
S'K'
sS'OOBTHR57'
p1299
S'K'
sS'OOBTHR56'
p1300
S'K'
sS'OOBTHR59'
p1301
S'K'
sS'OOBTHR58'
p1302
S'K'
sS'SIM_X'
p1303
S'mm'
p1304
sS'1SSMYT'
p1305
S'K'
sS'CTXBV'
p1306
S'V'
sS'4PRT2BT'
p1307
S'K'
sS'ARWA6BT'
p1308
S'K'
sS'4RT575T'
p1309
S'K'
sS'CPA1BPT'
p1310
S'K'
sS'PM4THV2T'
p1311
S'K'
sS'4IP5AV'
p1312
S'V'
sS'4VRMOAV'
p1313
S'V'
sS'6CSSI3'
p1314
S'mA'
p1315
sS'2PMT1T'
p1316
S'K'
sS'EB2V'
p1317
S'V'
sS'1DPAMZT'
p1318
S'K'
sS'EIACVBV'
p1319
S'V'
sS'EORTDMN27D'
p1320
S'K'
sS'4RT703T'
p1321
S'K'
sS'1DAHHBVO'
p1322
S'V'
sS'1DEP1AVO'
p1323
S'V'
sS'1VAHOBT'
p1324
S'K'
sS'1MAHOBT'
p1325
S'K'
sS'4RT706T'
p1326
S'K'
sS'CRXBLS'
p1327
S'kHz'
p1328
sS'AOSAEST2'
p1329
S'rad'
p1330
sS'OHRTHR49'
p1331
S'K'
sS'TASPPCM'
p1332
S'K'
sS'OHRTHR45'
p1333
S'K'
sS'OHRTHR44'
p1334
S'K'
sS'OHRTHR47'
p1335
S'K'
sS'OHRTHR46'
p1336
S'K'
sS'OHRTHR41'
p1337
S'K'
sS'OHRTHR40'
p1338
S'K'
sS'OHRTHR43'
p1339
S'K'
sS'OHRTHR42'
p1340
S'K'
sS'AWD2TQI'
p1341
S'A'
sS'4LPOSARO'
p1342
S'deg'
p1343
sS'PCM03T'
p1344
S'K'
sS'EOEB1DIC'
p1345
S'A'
sS'ANGLEEPHEM_POINT_SUNLIMBANG'
p1346
S'deg'
p1347
sS'62RCSTMR'
p1348
S's'
sS'TASPPCU'
p1349
S'K'
sS'PCM04T'
p1350
S'K'
sS'64RCSTMR'
p1351
S's'
sS'4RT708T'
p1352
S'K'
sS'OOBAGRD6'
p1353
g1014
sS'TB1T3'
p1354
S'K'
sS'TEP_EIA'
p1355
S'K'
sS'AESAPHA2'
p1356
S'deg'
p1357
sS'OOBAGRD3'
p1358
g1014
sS'PLAED1FT'
p1359
S'K'
sS'EB3CI'
p1360
S'A'
sS'AORESZ1_1'
p1361
S'rad'
p1362
sS'TATECDPT'
p1363
S'K'
sS'AOSUNER1'
p1364
S'rad'
p1365
sS'4MP28AV'
p1366
S'V'
sS'1HOPRBPR'
p1367
S'kPa'
p1368
sS'1CRBT'
p1369
S'K'
sS'AWD6TQI'
p1370
S'A'
s.