(dp0
S'AORWPI4B'
p1
cnumpy.core.multiarray
scalar
p2
(cnumpy
dtype
p3
(S'S4'
p4
I0
I1
tp5
Rp6
(I3
S'|'
p7
NNNI4
I1
I0
tp8
bS'MSEC'
p9
tp10
Rp11
sS'1DEAMZT'
p12
g2
(g3
(S'S4'
p13
I0
I1
tp14
Rp15
(I3
S'|'
p16
NNNI4
I1
I0
tp17
bS'DEGC'
p18
tp19
Rp20
sS'PLINE16T'
p21
g2
(g3
(S'S4'
p22
I0
I1
tp23
Rp24
(I3
S'|'
p25
NNNI4
I1
I0
tp26
bS'DEGF'
p27
tp28
Rp29
sS'EORTDMN18D'
p30
g2
(g3
(S'S4'
p31
I0
I1
tp32
Rp33
(I3
S'|'
p34
NNNI4
I1
I0
tp35
bS'DEGF'
p36
tp37
Rp38
sS'CTXAV'
p39
g2
(g3
(S'S1'
p40
I0
I1
tp41
Rp42
(I3
S'|'
p43
NNNI1
I1
I0
tp44
bS'V'
p45
tp46
Rp47
sS'TFSPPCM'
p48
g2
(g3
(S'S4'
p49
I0
I1
tp50
Rp51
(I3
S'|'
p52
NNNI4
I1
I0
tp53
bS'DEGF'
p54
tp55
Rp56
sS'EB1CI'
p57
g2
(g3
(S'S3'
p58
I0
I1
tp59
Rp60
(I3
S'|'
p61
NNNI3
I1
I0
tp62
bS'AMP'
p63
tp64
Rp65
sS'OHRTHR38'
p66
g2
(g3
(S'S4'
p67
I0
I1
tp68
Rp69
(I3
S'|'
p70
NNNI4
I1
I0
tp71
bS'DEGF'
p72
tp73
Rp74
sS'OHRTHR39'
p75
g2
(g3
(S'S4'
p76
I0
I1
tp77
Rp78
(I3
S'|'
p79
NNNI4
I1
I0
tp80
bS'DEGF'
p81
tp82
Rp83
sS'TFSPPCP'
p84
g2
(g3
(S'S4'
p85
I0
I1
tp86
Rp87
(I3
S'|'
p88
NNNI4
I1
I0
tp89
bS'DEGF'
p90
tp91
Rp92
sS'ASPEFSW3B'
p93
g2
(g3
(S'S3'
p94
I0
I1
tp95
Rp96
(I3
S'|'
p97
NNNI3
I1
I0
tp98
bS'DEG'
p99
tp100
Rp101
sS'CUSOAOVN'
p102
g2
(g3
(S'S1'
p103
I0
I1
tp104
Rp105
(I3
S'|'
p106
NNNI1
I1
I0
tp107
bS'W'
p108
tp109
Rp110
sS'OHRTHR30'
p111
g2
(g3
(S'S4'
p112
I0
I1
tp113
Rp114
(I3
S'|'
p115
NNNI4
I1
I0
tp116
bS'DEGF'
p117
tp118
Rp119
sS'OHRTHR31'
p120
g2
(g3
(S'S4'
p121
I0
I1
tp122
Rp123
(I3
S'|'
p124
NNNI4
I1
I0
tp125
bS'DEGF'
p126
tp127
Rp128
sS'OHRTHR33'
p129
g2
(g3
(S'S4'
p130
I0
I1
tp131
Rp132
(I3
S'|'
p133
NNNI4
I1
I0
tp134
bS'DEGF'
p135
tp136
Rp137
sS'1DPP0BVO'
p138
g2
(g3
(S'S1'
p139
I0
I1
tp140
Rp141
(I3
S'|'
p142
NNNI1
I1
I0
tp143
bg45
tp144
Rp145
sS'OHRTHR35'
p146
g2
(g3
(S'S4'
p147
I0
I1
tp148
Rp149
(I3
S'|'
p150
NNNI4
I1
I0
tp151
bS'DEGF'
p152
tp153
Rp154
sS'OHRTHR36'
p155
g2
(g3
(S'S4'
p156
I0
I1
tp157
Rp158
(I3
S'|'
p159
NNNI4
I1
I0
tp160
bS'DEGF'
p161
tp162
Rp163
sS'OHRTHR37'
p164
g2
(g3
(S'S4'
p165
I0
I1
tp166
Rp167
(I3
S'|'
p168
NNNI4
I1
I0
tp169
bS'DEGF'
p170
tp171
Rp172
sS'EORTDMN11D'
p173
g2
(g3
(S'S4'
p174
I0
I1
tp175
Rp176
(I3
S'|'
p177
NNNI4
I1
I0
tp178
bS'DEGF'
p179
tp180
Rp181
sS'AFLC11BI'
p182
g2
(g3
(S'S4'
p183
I0
I1
tp184
Rp185
(I3
S'|'
p186
NNNI4
I1
I0
tp187
bS'MAMP'
p188
tp189
Rp190
sS'AORWMC3_1'
p191
g2
(g3
(S'S7'
p192
I0
I1
tp193
Rp194
(I3
S'|'
p195
NNNI7
I1
I0
tp196
bS'FTLBSEC'
p197
tp198
Rp199
sS'PLAED2FT'
p200
g2
(g3
(S'S4'
p201
I0
I1
tp202
Rp203
(I3
S'|'
p204
NNNI4
I1
I0
tp205
bS'DEGF'
p206
tp207
Rp208
sS'TEPHIN'
p209
g2
(g3
(S'S4'
p210
I0
I1
tp211
Rp212
(I3
S'|'
p213
NNNI4
I1
I0
tp214
bS'DEGF'
p215
tp216
Rp217
sS'3TTHRC1T'
p218
g2
(g3
(S'S4'
p219
I0
I1
tp220
Rp221
(I3
S'|'
p222
NNNI4
I1
I0
tp223
bS'DEGC'
p224
tp225
Rp226
sS'1PDEAAT'
p227
g2
(g3
(S'S4'
p228
I0
I1
tp229
Rp230
(I3
S'|'
p231
NNNI4
I1
I0
tp232
bS'DEGC'
p233
tp234
Rp235
sS'ELBI_LOW'
p236
g2
(g3
(S'S3'
p237
I0
I1
tp238
Rp239
(I3
S'|'
p240
NNNI3
I1
I0
tp241
bS'AMP'
p242
tp243
Rp244
sS'4RT562T'
p245
g2
(g3
(S'S4'
p246
I0
I1
tp247
Rp248
(I3
S'|'
p249
NNNI4
I1
I0
tp250
bS'DEGF'
p251
tp252
Rp253
sS'4PRT1AT'
p254
g2
(g3
(S'S4'
p255
I0
I1
tp256
Rp257
(I3
S'|'
p258
NNNI4
I1
I0
tp259
bS'DEGF'
p260
tp261
Rp262
sS'AORWMOM1'
p263
g2
(g3
(S'S7'
p264
I0
I1
tp265
Rp266
(I3
S'|'
p267
NNNI7
I1
I0
tp268
bS'FTLBSEC'
p269
tp270
Rp271
sS'TMZP_PY'
p272
g2
(g3
(S'S4'
p273
I0
I1
tp274
Rp275
(I3
S'|'
p276
NNNI4
I1
I0
tp277
bS'DEGF'
p278
tp279
Rp280
sS'4RT710T'
p281
g2
(g3
(S'S4'
p282
I0
I1
tp283
Rp284
(I3
S'|'
p285
NNNI4
I1
I0
tp286
bS'DEGF'
p287
tp288
Rp289
sS'ASPEB5CV'
p290
g2
(g3
(S'S1'
p291
I0
I1
tp292
Rp293
(I3
S'|'
p294
NNNI1
I1
I0
tp295
bg45
tp296
Rp297
sS'TMP_FEP0_RAM'
p298
S'DEGC'
p299
sS'AOZABR'
p300
g2
(g3
(S'S3'
p301
I0
I1
tp302
Rp303
(I3
S'|'
p304
NNNI3
I1
I0
tp305
bS'RAD'
p306
tp307
Rp308
sS'AORESZ5_1'
p309
g2
(g3
(S'S3'
p310
I0
I1
tp311
Rp312
(I3
S'|'
p313
NNNI3
I1
I0
tp314
bS'RAD'
p315
tp316
Rp317
sS'TB2T3'
p318
g2
(g3
(S'S4'
p319
I0
I1
tp320
Rp321
(I3
S'|'
p322
NNNI4
I1
I0
tp323
bS'DEGF'
p324
tp325
Rp326
sS'TB2T2'
p327
g2
(g3
(S'S4'
p328
I0
I1
tp329
Rp330
(I3
S'|'
p331
NNNI4
I1
I0
tp332
bS'DEGF'
p333
tp334
Rp335
sS'PLINE06T'
p336
g2
(g3
(S'S4'
p337
I0
I1
tp338
Rp339
(I3
S'|'
p340
NNNI4
I1
I0
tp341
bS'DEGF'
p342
tp343
Rp344
sS'AOADBCH1A_PCAD'
p345
g2
(g3
(S'S3'
p346
I0
I1
tp347
Rp348
(I3
S'|'
p349
NNNI3
I1
I0
tp350
bS'DEG'
p351
tp352
Rp353
sS'AORWPI3B'
p354
g2
(g3
(S'S4'
p355
I0
I1
tp356
Rp357
(I3
S'|'
p358
NNNI4
I1
I0
tp359
bS'MSEC'
p360
tp361
Rp362
sS'1DAHAVO'
p363
g2
(g3
(S'S1'
p364
I0
I1
tp365
Rp366
(I3
S'|'
p367
NNNI1
I1
I0
tp368
bg45
tp369
Rp370
sS'PXTANK2T'
p371
g2
(g3
(S'S4'
p372
I0
I1
tp373
Rp374
(I3
S'|'
p375
NNNI4
I1
I0
tp376
bS'DEGF'
p377
tp378
Rp379
sS'TPCP_RW3'
p380
g2
(g3
(S'S4'
p381
I0
I1
tp382
Rp383
(I3
S'|'
p384
NNNI4
I1
I0
tp385
bS'DEGF'
p386
tp387
Rp388
sS'3TSMYDPT'
p389
g2
(g3
(S'S4'
p390
I0
I1
tp391
Rp392
(I3
S'|'
p393
NNNI4
I1
I0
tp394
bS'DEGC'
p395
tp396
Rp397
sS'PR1TV02T'
p398
g2
(g3
(S'S4'
p399
I0
I1
tp400
Rp401
(I3
S'|'
p402
NNNI4
I1
I0
tp403
bS'DEGF'
p404
tp405
Rp406
sS'3TTACS1T'
p407
g2
(g3
(S'S4'
p408
I0
I1
tp409
Rp410
(I3
S'|'
p411
NNNI4
I1
I0
tp412
bS'DEGC'
p413
tp414
Rp415
sS'AORESY2_1'
p416
g2
(g3
(S'S3'
p417
I0
I1
tp418
Rp419
(I3
S'|'
p420
NNNI3
I1
I0
tp421
bS'RAD'
p422
tp423
Rp424
sS'PHOFP1T'
p425
g2
(g3
(S'S4'
p426
I0
I1
tp427
Rp428
(I3
S'|'
p429
NNNI4
I1
I0
tp430
bS'DEGF'
p431
tp432
Rp433
sS'4MP5AV'
p434
g2
(g3
(S'S3'
p435
I0
I1
tp436
Rp437
(I3
S'|'
p438
NNNI3
I1
I0
tp439
bS'VDC'
p440
tp441
Rp442
sS'AORTERR2'
p443
g2
(g3
(S'S5'
p444
I0
I1
tp445
Rp446
(I3
S'|'
p447
NNNI5
I1
I0
tp448
bS'RADPS'
p449
tp450
Rp451
sS'CUSOA28V'
p452
g2
(g3
(S'S1'
p453
I0
I1
tp454
Rp455
(I3
S'|'
p456
NNNI1
I1
I0
tp457
bg45
tp458
Rp459
sS'OOBTHR34'
p460
g2
(g3
(S'S4'
p461
I0
I1
tp462
Rp463
(I3
S'|'
p464
NNNI4
I1
I0
tp465
bS'DEGF'
p466
tp467
Rp468
sS'AVACMON'
p469
g2
(g3
(S'S4'
p470
I0
I1
tp471
Rp472
(I3
S'|'
p473
NNNI4
I1
I0
tp474
bS'DEGC'
p475
tp476
Rp477
sS'EOECNV2C'
p478
g2
(g3
(S'S1'
p479
I0
I1
tp480
Rp481
(I3
S'|'
p482
NNNI1
I1
I0
tp483
bg45
tp484
Rp485
sS'OOBTHR33'
p486
g2
(g3
(S'S4'
p487
I0
I1
tp488
Rp489
(I3
S'|'
p490
NNNI4
I1
I0
tp491
bS'DEGF'
p492
tp493
Rp494
sS'AOATTER3'
p495
g2
(g3
(S'S3'
p496
I0
I1
tp497
Rp498
(I3
S'|'
p499
NNNI3
I1
I0
tp500
bS'RAD'
p501
tp502
Rp503
sS'TAPEA1T'
p504
g2
(g3
(S'S4'
p505
I0
I1
tp506
Rp507
(I3
S'|'
p508
NNNI4
I1
I0
tp509
bS'DEGF'
p510
tp511
Rp512
sS'ES1P5CV'
p513
g2
(g3
(S'S1'
p514
I0
I1
tp515
Rp516
(I3
S'|'
p517
NNNI1
I1
I0
tp518
bg45
tp519
Rp520
sS'EOESAC1C'
p521
g2
(g3
(S'S3'
p522
I0
I1
tp523
Rp524
(I3
S'|'
p525
NNNI3
I1
I0
tp526
bS'AMP'
p527
tp528
Rp529
sS'OOBTHR18'
p530
g2
(g3
(S'S4'
p531
I0
I1
tp532
Rp533
(I3
S'|'
p534
NNNI4
I1
I0
tp535
bS'DEGF'
p536
tp537
Rp538
sS'PFTANKIP'
p539
g2
(g3
(S'S4'
p540
I0
I1
tp541
Rp542
(I3
S'|'
p543
NNNI4
I1
I0
tp544
bS'PSIA'
p545
tp546
Rp547
sS'CVEEP'
p548
g2
(g3
(S'S1'
p549
I0
I1
tp550
Rp551
(I3
S'|'
p552
NNNI1
I1
I0
tp553
bg45
tp554
Rp555
sS'OOBTHR14'
p556
g2
(g3
(S'S4'
p557
I0
I1
tp558
Rp559
(I3
S'|'
p560
NNNI4
I1
I0
tp561
bS'DEGF'
p562
tp563
Rp564
sS'OOBTHR17'
p565
g2
(g3
(S'S4'
p566
I0
I1
tp567
Rp568
(I3
S'|'
p569
NNNI4
I1
I0
tp570
bS'DEGF'
p571
tp572
Rp573
sS'OOBTHR30'
p574
g2
(g3
(S'S4'
p575
I0
I1
tp576
Rp577
(I3
S'|'
p578
NNNI4
I1
I0
tp579
bS'DEGF'
p580
tp581
Rp582
sS'OOBTHR11'
p583
g2
(g3
(S'S4'
p584
I0
I1
tp585
Rp586
(I3
S'|'
p587
NNNI4
I1
I0
tp588
bS'DEGF'
p589
tp590
Rp591
sS'OOBTHR10'
p592
g2
(g3
(S'S4'
p593
I0
I1
tp594
Rp595
(I3
S'|'
p596
NNNI4
I1
I0
tp597
bS'DEGF'
p598
tp599
Rp600
sS'ECNV2V'
p601
g2
(g3
(S'S1'
p602
I0
I1
tp603
Rp604
(I3
S'|'
p605
NNNI1
I1
I0
tp606
bg45
tp607
Rp608
sS'OOBTHR12'
p609
g2
(g3
(S'S4'
p610
I0
I1
tp611
Rp612
(I3
S'|'
p613
NNNI4
I1
I0
tp614
bS'DEGF'
p615
tp616
Rp617
sS'EOEB3CIC'
p618
g2
(g3
(S'S3'
p619
I0
I1
tp620
Rp621
(I3
S'|'
p622
NNNI3
I1
I0
tp623
bS'AMP'
p624
tp625
Rp626
sS'CUSOBOVN'
p627
g2
(g3
(S'S1'
p628
I0
I1
tp629
Rp630
(I3
S'|'
p631
NNNI1
I1
I0
tp632
bg108
tp633
Rp634
sS'EOEB1CIC'
p635
g2
(g3
(S'S3'
p636
I0
I1
tp637
Rp638
(I3
S'|'
p639
NNNI3
I1
I0
tp640
bS'AMP'
p641
tp642
Rp643
sS'TB3T1'
p644
g2
(g3
(S'S4'
p645
I0
I1
tp646
Rp647
(I3
S'|'
p648
NNNI4
I1
I0
tp649
bS'DEGF'
p650
tp651
Rp652
sS'4HLL1AT'
p653
g2
(g3
(S'S4'
p654
I0
I1
tp655
Rp656
(I3
S'|'
p657
NNNI4
I1
I0
tp658
bS'DEGF'
p659
tp660
Rp661
sS'AOSCPOS3'
p662
g2
(g3
(S'S2'
p663
I0
I1
tp664
Rp665
(I3
S'|'
p666
NNNI2
I1
I0
tp667
bS'KM'
p668
tp669
Rp670
sS'AACCCDRT'
p671
g2
(g3
(S'S4'
p672
I0
I1
tp673
Rp674
(I3
S'|'
p675
NNNI4
I1
I0
tp676
bS'DEGF'
p677
tp678
Rp679
sS'ESAMYI'
p680
g2
(g3
(S'S3'
p681
I0
I1
tp682
Rp683
(I3
S'|'
p684
NNNI3
I1
I0
tp685
bS'AMP'
p686
tp687
Rp688
sS'TMYSADA'
p689
g2
(g3
(S'S4'
p690
I0
I1
tp691
Rp692
(I3
S'|'
p693
NNNI4
I1
I0
tp694
bS'DEGF'
p695
tp696
Rp697
sS'AACH2T'
p698
g2
(g3
(S'S4'
p699
I0
I1
tp700
Rp701
(I3
S'|'
p702
NNNI4
I1
I0
tp703
bS'DEGF'
p704
tp705
Rp706
sS'OHRTHR34'
p707
g2
(g3
(S'S4'
p708
I0
I1
tp709
Rp710
(I3
S'|'
p711
NNNI4
I1
I0
tp712
bS'DEGF'
p713
tp714
Rp715
sS'AFLCA5AI'
p716
g2
(g3
(S'S4'
p717
I0
I1
tp718
Rp719
(I3
S'|'
p720
NNNI4
I1
I0
tp721
bS'MAMP'
p722
tp723
Rp724
sS'3TSMXSPT'
p725
g2
(g3
(S'S4'
p726
I0
I1
tp727
Rp728
(I3
S'|'
p729
NNNI4
I1
I0
tp730
bS'DEGC'
p731
tp732
Rp733
sS'AORESY3'
p734
g2
(g3
(S'S3'
p735
I0
I1
tp736
Rp737
(I3
S'|'
p738
NNNI3
I1
I0
tp739
bS'RAD'
p740
tp741
Rp742
sS'CVEER'
p743
g2
(g3
(S'S1'
p744
I0
I1
tp745
Rp746
(I3
S'|'
p747
NNNI1
I1
I0
tp748
bg45
tp749
Rp750
sS'4RT584T'
p751
g2
(g3
(S'S4'
p752
I0
I1
tp753
Rp754
(I3
S'|'
p755
NNNI4
I1
I0
tp756
bS'DEGF'
p757
tp758
Rp759
sS'OOBTHR13'
p760
g2
(g3
(S'S4'
p761
I0
I1
tp762
Rp763
(I3
S'|'
p764
NNNI4
I1
I0
tp765
bS'DEGF'
p766
tp767
Rp768
sS'2P05VBVL'
p769
g2
(g3
(S'S3'
p770
I0
I1
tp771
Rp772
(I3
S'|'
p773
NNNI3
I1
I0
tp774
bS'VDC'
p775
tp776
Rp777
sS'PLAED3IT'
p778
g2
(g3
(S'S4'
p779
I0
I1
tp780
Rp781
(I3
S'|'
p782
NNNI4
I1
I0
tp783
bS'DEGF'
p784
tp785
Rp786
sS'EORTDMN22D'
p787
g2
(g3
(S'S4'
p788
I0
I1
tp789
Rp790
(I3
S'|'
p791
NNNI4
I1
I0
tp792
bS'DEGF'
p793
tp794
Rp795
sS'4RT592T'
p796
g2
(g3
(S'S4'
p797
I0
I1
tp798
Rp799
(I3
S'|'
p800
NNNI4
I1
I0
tp801
bS'DEGF'
p802
tp803
Rp804
sS'61RCSTMR'
p805
g2
(g3
(S'S3'
p806
I0
I1
tp807
Rp808
(I3
S'|'
p809
NNNI3
I1
I0
tp810
bS'MIN'
p811
tp812
Rp813
sS'AIRU1BT'
p814
g2
(g3
(S'S4'
p815
I0
I1
tp816
Rp817
(I3
S'|'
p818
NNNI4
I1
I0
tp819
bS'DEGF'
p820
tp821
Rp822
sS'PR2TV01T'
p823
g2
(g3
(S'S4'
p824
I0
I1
tp825
Rp826
(I3
S'|'
p827
NNNI4
I1
I0
tp828
bS'DEGF'
p829
tp830
Rp831
sS'TCM_SSR1'
p832
g2
(g3
(S'S4'
p833
I0
I1
tp834
Rp835
(I3
S'|'
p836
NNNI4
I1
I0
tp837
bS'DEGF'
p838
tp839
Rp840
sS'6DRFTQC2'
p841
g2
(g3
(S'S4'
p842
I0
I1
tp843
Rp844
(I3
S'|'
p845
NNNI4
I1
I0
tp846
bS'FTLB'
p847
tp848
Rp849
sS'6DRFTQC3'
p850
g2
(g3
(S'S4'
p851
I0
I1
tp852
Rp853
(I3
S'|'
p854
NNNI4
I1
I0
tp855
bS'FTLB'
p856
tp857
Rp858
sS'6DRFTQC1'
p859
g2
(g3
(S'S4'
p860
I0
I1
tp861
Rp862
(I3
S'|'
p863
NNNI4
I1
I0
tp864
bS'FTLB'
p865
tp866
Rp867
sS'5EPHINT'
p868
g2
(g3
(S'S4'
p869
I0
I1
tp870
Rp871
(I3
S'|'
p872
NNNI4
I1
I0
tp873
bS'DEGC'
p874
tp875
Rp876
sS'4VRMOBV'
p877
g2
(g3
(S'S3'
p878
I0
I1
tp879
Rp880
(I3
S'|'
p881
NNNI3
I1
I0
tp882
bS'VDC'
p883
tp884
Rp885
sS'PLAEV3AT'
p886
g2
(g3
(S'S4'
p887
I0
I1
tp888
Rp889
(I3
S'|'
p890
NNNI4
I1
I0
tp891
bS'DEGF'
p892
tp893
Rp894
sS'AORESY0'
p895
g2
(g3
(S'S3'
p896
I0
I1
tp897
Rp898
(I3
S'|'
p899
NNNI3
I1
I0
tp900
bS'RAD'
p901
tp902
Rp903
sS'AFLCA1AI'
p904
g2
(g3
(S'S4'
p905
I0
I1
tp906
Rp907
(I3
S'|'
p908
NNNI4
I1
I0
tp909
bS'MAMP'
p910
tp911
Rp912
sS'2DCENTRT'
p913
g2
(g3
(S'S4'
p914
I0
I1
tp915
Rp916
(I3
S'|'
p917
NNNI4
I1
I0
tp918
bS'DEGC'
p919
tp920
Rp921
sS'OOBTHR60'
p922
g2
(g3
(S'S4'
p923
I0
I1
tp924
Rp925
(I3
S'|'
p926
NNNI4
I1
I0
tp927
bS'DEGF'
p928
tp929
Rp930
sS'OOBTHR61'
p931
g2
(g3
(S'S4'
p932
I0
I1
tp933
Rp934
(I3
S'|'
p935
NNNI4
I1
I0
tp936
bS'DEGF'
p937
tp938
Rp939
sS'OOBTHR62'
p940
g2
(g3
(S'S4'
p941
I0
I1
tp942
Rp943
(I3
S'|'
p944
NNNI4
I1
I0
tp945
bS'DEGF'
p946
tp947
Rp948
sS'OOBTHR63'
p949
g2
(g3
(S'S4'
p950
I0
I1
tp951
Rp952
(I3
S'|'
p953
NNNI4
I1
I0
tp954
bS'DEGF'
p955
tp956
Rp957
sS'PLINE11T'
p958
g2
(g3
(S'S4'
p959
I0
I1
tp960
Rp961
(I3
S'|'
p962
NNNI4
I1
I0
tp963
bS'DEGF'
p964
tp965
Rp966
sS'EPA15V'
p967
g2
(g3
(S'S1'
p968
I0
I1
tp969
Rp970
(I3
S'|'
p971
NNNI1
I1
I0
tp972
bg45
tp973
Rp974
sS'AOALPANG'
p975
g2
(g3
(S'S3'
p976
I0
I1
tp977
Rp978
(I3
S'|'
p979
NNNI3
I1
I0
tp980
bS'DEG'
p981
tp982
Rp983
sS'TRSPMTPC'
p984
g2
(g3
(S'S4'
p985
I0
I1
tp986
Rp987
(I3
S'|'
p988
NNNI4
I1
I0
tp989
bS'DEGF'
p990
tp991
Rp992
sS'AOSPACS2B'
p993
g2
(g3
(S'S4'
p994
I0
I1
tp995
Rp996
(I3
S'|'
p997
NNNI4
I1
I0
tp998
bS'MAMP'
p999
tp1000
Rp1001
sS'AODVTIME'
p1002
g2
(g3
(S'S3'
p1003
I0
I1
tp1004
Rp1005
(I3
S'|'
p1006
NNNI3
I1
I0
tp1007
bS'SEC'
p1008
tp1009
Rp1010
sS'3FASEAAT'
p1011
g2
(g3
(S'S4'
p1012
I0
I1
tp1013
Rp1014
(I3
S'|'
p1015
NNNI4
I1
I0
tp1016
bS'DEGC'
p1017
tp1018
Rp1019
sS'AODITHR3'
p1020
g2
(g3
(S'S3'
p1021
I0
I1
tp1022
Rp1023
(I3
S'|'
p1024
NNNI3
I1
I0
tp1025
bS'RAD'
p1026
tp1027
Rp1028
sS'AODITHR2'
p1029
g2
(g3
(S'S3'
p1030
I0
I1
tp1031
Rp1032
(I3
S'|'
p1033
NNNI3
I1
I0
tp1034
bS'RAD'
p1035
tp1036
Rp1037
sS'AODITHR1'
p1038
g2
(g3
(S'S3'
p1039
I0
I1
tp1040
Rp1041
(I3
S'|'
p1042
NNNI3
I1
I0
tp1043
bS'RAD'
p1044
tp1045
Rp1046
sS'PLAED1BT'
p1047
g2
(g3
(S'S4'
p1048
I0
I1
tp1049
Rp1050
(I3
S'|'
p1051
NNNI4
I1
I0
tp1052
bS'DEGF'
p1053
tp1054
Rp1055
sS'TCYLPCM'
p1056
g2
(g3
(S'S4'
p1057
I0
I1
tp1058
Rp1059
(I3
S'|'
p1060
NNNI4
I1
I0
tp1061
bS'DEGF'
p1062
tp1063
Rp1064
sS'AFLC12AI'
p1065
g2
(g3
(S'S4'
p1066
I0
I1
tp1067
Rp1068
(I3
S'|'
p1069
NNNI4
I1
I0
tp1070
bS'MAMP'
p1071
tp1072
Rp1073
sS'AOSACMD2'
p1074
g2
(g3
(S'S3'
p1075
I0
I1
tp1076
Rp1077
(I3
S'|'
p1078
NNNI3
I1
I0
tp1079
bS'RAD'
p1080
tp1081
Rp1082
sS'AOADACH1A_PCAD'
p1083
g2
(g3
(S'S3'
p1084
I0
I1
tp1085
Rp1086
(I3
S'|'
p1087
NNNI3
I1
I0
tp1088
bS'DEG'
p1089
tp1090
Rp1091
sS'OOBTHR31'
p1092
g2
(g3
(S'S4'
p1093
I0
I1
tp1094
Rp1095
(I3
S'|'
p1096
NNNI4
I1
I0
tp1097
bS'DEGF'
p1098
tp1099
Rp1100
sS'OHRTHR04'
p1101
g2
(g3
(S'S4'
p1102
I0
I1
tp1103
Rp1104
(I3
S'|'
p1105
NNNI4
I1
I0
tp1106
bS'DEGF'
p1107
tp1108
Rp1109
sS'OOBTHR46'
p1110
g2
(g3
(S'S4'
p1111
I0
I1
tp1112
Rp1113
(I3
S'|'
p1114
NNNI4
I1
I0
tp1115
bS'DEGF'
p1116
tp1117
Rp1118
sS'EPB15V'
p1119
g2
(g3
(S'S1'
p1120
I0
I1
tp1121
Rp1122
(I3
S'|'
p1123
NNNI1
I1
I0
tp1124
bg45
tp1125
Rp1126
sS'2UVLSPXT'
p1127
g2
(g3
(S'S4'
p1128
I0
I1
tp1129
Rp1130
(I3
S'|'
p1131
NNNI4
I1
I0
tp1132
bS'DEGC'
p1133
tp1134
Rp1135
sS'TFSSBKT2'
p1136
g2
(g3
(S'S4'
p1137
I0
I1
tp1138
Rp1139
(I3
S'|'
p1140
NNNI4
I1
I0
tp1141
bS'DEGF'
p1142
tp1143
Rp1144
sS'3FARALAT'
p1145
g2
(g3
(S'S4'
p1146
I0
I1
tp1147
Rp1148
(I3
S'|'
p1149
NNNI4
I1
I0
tp1150
bS'DEGC'
p1151
tp1152
Rp1153
sS'TMP_FEP0_FB'
p1154
g299
sS'4HLL2AT'
p1155
g2
(g3
(S'S4'
p1156
I0
I1
tp1157
Rp1158
(I3
S'|'
p1159
NNNI4
I1
I0
tp1160
bS'DEGF'
p1161
tp1162
Rp1163
sS'TCM_PA2'
p1164
g2
(g3
(S'S4'
p1165
I0
I1
tp1166
Rp1167
(I3
S'|'
p1168
NNNI4
I1
I0
tp1169
bS'DEGF'
p1170
tp1171
Rp1172
sS'OHRTHR58'
p1173
g2
(g3
(S'S4'
p1174
I0
I1
tp1175
Rp1176
(I3
S'|'
p1177
NNNI4
I1
I0
tp1178
bS'DEGF'
p1179
tp1180
Rp1181
sS'TMP_FEP1_RAM'
p1182
g299
sS'3FAPYZAT'
p1183
g2
(g3
(S'S4'
p1184
I0
I1
tp1185
Rp1186
(I3
S'|'
p1187
NNNI4
I1
I0
tp1188
bS'DEGC'
p1189
tp1190
Rp1191
sS'OHRTHR08'
p1192
g2
(g3
(S'S4'
p1193
I0
I1
tp1194
Rp1195
(I3
S'|'
p1196
NNNI4
I1
I0
tp1197
bS'DEGF'
p1198
tp1199
Rp1200
sS'AOSCVEL3'
p1201
g2
(g3
(S'S4'
p1202
I0
I1
tp1203
Rp1204
(I3
S'|'
p1205
NNNI4
I1
I0
tp1206
bS'KMPS'
p1207
tp1208
Rp1209
sS'PLAED3GT'
p1210
g2
(g3
(S'S4'
p1211
I0
I1
tp1212
Rp1213
(I3
S'|'
p1214
NNNI4
I1
I0
tp1215
bS'DEGF'
p1216
tp1217
Rp1218
sS'AORATE1'
p1219
g2
(g3
(S'S5'
p1220
I0
I1
tp1221
Rp1222
(I3
S'|'
p1223
NNNI5
I1
I0
tp1224
bS'RADPS'
p1225
tp1226
Rp1227
sS'AORATE3'
p1228
g2
(g3
(S'S5'
p1229
I0
I1
tp1230
Rp1231
(I3
S'|'
p1232
NNNI5
I1
I0
tp1233
bS'RADPS'
p1234
tp1235
Rp1236
sS'AORATE2'
p1237
g2
(g3
(S'S5'
p1238
I0
I1
tp1239
Rp1240
(I3
S'|'
p1241
NNNI5
I1
I0
tp1242
bS'RADPS'
p1243
tp1244
Rp1245
sS'CRXAV'
p1246
g2
(g3
(S'S1'
p1247
I0
I1
tp1248
Rp1249
(I3
S'|'
p1250
NNNI1
I1
I0
tp1251
bg45
tp1252
Rp1253
sS'EORTDMN12D'
p1254
g2
(g3
(S'S4'
p1255
I0
I1
tp1256
Rp1257
(I3
S'|'
p1258
NNNI4
I1
I0
tp1259
bS'DEGF'
p1260
tp1261
Rp1262
sS'EOECNV3C'
p1263
g2
(g3
(S'S1'
p1264
I0
I1
tp1265
Rp1266
(I3
S'|'
p1267
NNNI1
I1
I0
tp1268
bg45
tp1269
Rp1270
sS'3TTACS2T'
p1271
g2
(g3
(S'S4'
p1272
I0
I1
tp1273
Rp1274
(I3
S'|'
p1275
NNNI4
I1
I0
tp1276
bS'DEGC'
p1277
tp1278
Rp1279
sS'TCM_CTU'
p1280
g2
(g3
(S'S4'
p1281
I0
I1
tp1282
Rp1283
(I3
S'|'
p1284
NNNI4
I1
I0
tp1285
bS'DEGF'
p1286
tp1287
Rp1288
sS'ESAPYI'
p1289
g2
(g3
(S'S3'
p1290
I0
I1
tp1291
Rp1292
(I3
S'|'
p1293
NNNI3
I1
I0
tp1294
bS'AMP'
p1295
tp1296
Rp1297
sS'4HFSPBT'
p1298
g2
(g3
(S'S4'
p1299
I0
I1
tp1300
Rp1301
(I3
S'|'
p1302
NNNI4
I1
I0
tp1303
bS'DEGF'
p1304
tp1305
Rp1306
sS'EEPB5V'
p1307
g2
(g3
(S'S1'
p1308
I0
I1
tp1309
Rp1310
(I3
S'|'
p1311
NNNI1
I1
I0
tp1312
bg45
tp1313
Rp1314
sS'3FAFLAAT'
p1315
g2
(g3
(S'S4'
p1316
I0
I1
tp1317
Rp1318
(I3
S'|'
p1319
NNNI4
I1
I0
tp1320
bS'DEGC'
p1321
tp1322
Rp1323
sS'TSAMYT'
p1324
g2
(g3
(S'S4'
p1325
I0
I1
tp1326
Rp1327
(I3
S'|'
p1328
NNNI4
I1
I0
tp1329
bS'DEGF'
p1330
tp1331
Rp1332
sS'4MP28BV'
p1333
g2
(g3
(S'S3'
p1334
I0
I1
tp1335
Rp1336
(I3
S'|'
p1337
NNNI3
I1
I0
tp1338
bS'VDC'
p1339
tp1340
Rp1341
sS'PFDM101T'
p1342
g2
(g3
(S'S4'
p1343
I0
I1
tp1344
Rp1345
(I3
S'|'
p1346
NNNI4
I1
I0
tp1347
bS'DEGF'
p1348
tp1349
Rp1350
sS'OHRTHR50'
p1351
g2
(g3
(S'S4'
p1352
I0
I1
tp1353
Rp1354
(I3
S'|'
p1355
NNNI4
I1
I0
tp1356
bS'DEGF'
p1357
tp1358
Rp1359
sS'PLAED3DT'
p1360
g2
(g3
(S'S4'
p1361
I0
I1
tp1362
Rp1363
(I3
S'|'
p1364
NNNI4
I1
I0
tp1365
bS'DEGF'
p1366
tp1367
Rp1368
sS'OHRTHR51'
p1369
g2
(g3
(S'S4'
p1370
I0
I1
tp1371
Rp1372
(I3
S'|'
p1373
NNNI4
I1
I0
tp1374
bS'DEGF'
p1375
tp1376
Rp1377
sS'EORTDMN23D'
p1378
g2
(g3
(S'S4'
p1379
I0
I1
tp1380
Rp1381
(I3
S'|'
p1382
NNNI4
I1
I0
tp1383
bS'DEGF'
p1384
tp1385
Rp1386
sS'AWD3CV5V'
p1387
g2
(g3
(S'S1'
p1388
I0
I1
tp1389
Rp1390
(I3
S'|'
p1391
NNNI1
I1
I0
tp1392
bg45
tp1393
Rp1394
sS'PLINE02T'
p1395
g2
(g3
(S'S4'
p1396
I0
I1
tp1397
Rp1398
(I3
S'|'
p1399
NNNI4
I1
I0
tp1400
bS'DEGF'
p1401
tp1402
Rp1403
sS'4RT706T'
p1404
g2
(g3
(S'S4'
p1405
I0
I1
tp1406
Rp1407
(I3
S'|'
p1408
NNNI4
I1
I0
tp1409
bS'DEGF'
p1410
tp1411
Rp1412
sS'TPCM_RW5'
p1413
g2
(g3
(S'S4'
p1414
I0
I1
tp1415
Rp1416
(I3
S'|'
p1417
NNNI4
I1
I0
tp1418
bS'DEGF'
p1419
tp1420
Rp1421
sS'2CEAHVPT'
p1422
g2
(g3
(S'S4'
p1423
I0
I1
tp1424
Rp1425
(I3
S'|'
p1426
NNNI4
I1
I0
tp1427
bS'DEGC'
p1428
tp1429
Rp1430
sS'PLAEV2AT'
p1431
g2
(g3
(S'S4'
p1432
I0
I1
tp1433
Rp1434
(I3
S'|'
p1435
NNNI4
I1
I0
tp1436
bS'DEGF'
p1437
tp1438
Rp1439
sS'EOEB2DIC'
p1440
g2
(g3
(S'S3'
p1441
I0
I1
tp1442
Rp1443
(I3
S'|'
p1444
NNNI3
I1
I0
tp1445
bS'AMP'
p1446
tp1447
Rp1448
sS'AORESZ6_5'
p1449
g2
(g3
(S'S3'
p1450
I0
I1
tp1451
Rp1452
(I3
S'|'
p1453
NNNI3
I1
I0
tp1454
bS'RAD'
p1455
tp1456
Rp1457
sS'AOSUNER1'
p1458
g2
(g3
(S'S3'
p1459
I0
I1
tp1460
Rp1461
(I3
S'|'
p1462
NNNI3
I1
I0
tp1463
bS'RAD'
p1464
tp1465
Rp1466
sS'TRSPRWCM'
p1467
g2
(g3
(S'S4'
p1468
I0
I1
tp1469
Rp1470
(I3
S'|'
p1471
NNNI4
I1
I0
tp1472
bS'DEGF'
p1473
tp1474
Rp1475
sS'AOSUNER3'
p1476
g2
(g3
(S'S3'
p1477
I0
I1
tp1478
Rp1479
(I3
S'|'
p1480
NNNI3
I1
I0
tp1481
bS'RAD'
p1482
tp1483
Rp1484
sS'AOSUNER2'
p1485
g2
(g3
(S'S3'
p1486
I0
I1
tp1487
Rp1488
(I3
S'|'
p1489
NNNI3
I1
I0
tp1490
bS'RAD'
p1491
tp1492
Rp1493
sS'OHRTHR55'
p1494
g2
(g3
(S'S4'
p1495
I0
I1
tp1496
Rp1497
(I3
S'|'
p1498
NNNI4
I1
I0
tp1499
bS'DEGF'
p1500
tp1501
Rp1502
sS'PLAED2DT'
p1503
g2
(g3
(S'S4'
p1504
I0
I1
tp1505
Rp1506
(I3
S'|'
p1507
NNNI4
I1
I0
tp1508
bS'DEGF'
p1509
tp1510
Rp1511
sS'AORESY6_1'
p1512
g2
(g3
(S'S3'
p1513
I0
I1
tp1514
Rp1515
(I3
S'|'
p1516
NNNI3
I1
I0
tp1517
bS'RAD'
p1518
tp1519
Rp1520
sS'TESH2'
p1521
g2
(g3
(S'S4'
p1522
I0
I1
tp1523
Rp1524
(I3
S'|'
p1525
NNNI4
I1
I0
tp1526
bS'DEGF'
p1527
tp1528
Rp1529
sS'CTSA5V'
p1530
g2
(g3
(S'S1'
p1531
I0
I1
tp1532
Rp1533
(I3
S'|'
p1534
NNNI1
I1
I0
tp1535
bg45
tp1536
Rp1537
sS'1DPAMYT'
p1538
g2
(g3
(S'S4'
p1539
I0
I1
tp1540
Rp1541
(I3
S'|'
p1542
NNNI4
I1
I0
tp1543
bS'DEGC'
p1544
tp1545
Rp1546
sS'1DACTBT'
p1547
g2
(g3
(S'S4'
p1548
I0
I1
tp1549
Rp1550
(I3
S'|'
p1551
NNNI4
I1
I0
tp1552
bS'DEGC'
p1553
tp1554
Rp1555
sS'4RT556T'
p1556
g2
(g3
(S'S4'
p1557
I0
I1
tp1558
Rp1559
(I3
S'|'
p1560
NNNI4
I1
I0
tp1561
bS'DEGF'
p1562
tp1563
Rp1564
sS'AFLCA4BI'
p1565
g2
(g3
(S'S4'
p1566
I0
I1
tp1567
Rp1568
(I3
S'|'
p1569
NNNI4
I1
I0
tp1570
bS'MAMP'
p1571
tp1572
Rp1573
sS'AORESZ6_1'
p1574
g2
(g3
(S'S3'
p1575
I0
I1
tp1576
Rp1577
(I3
S'|'
p1578
NNNI3
I1
I0
tp1579
bS'RAD'
p1580
tp1581
Rp1582
sS'PM4THV1T'
p1583
g2
(g3
(S'S4'
p1584
I0
I1
tp1585
Rp1586
(I3
S'|'
p1587
NNNI4
I1
I0
tp1588
bS'DEGF'
p1589
tp1590
Rp1591
sS'CSITA15V'
p1592
g2
(g3
(S'S1'
p1593
I0
I1
tp1594
Rp1595
(I3
S'|'
p1596
NNNI1
I1
I0
tp1597
bg45
tp1598
Rp1599
sS'TPZLGABM'
p1600
g2
(g3
(S'S4'
p1601
I0
I1
tp1602
Rp1603
(I3
S'|'
p1604
NNNI4
I1
I0
tp1605
bS'DEGF'
p1606
tp1607
Rp1608
sS'AFLC13AI'
p1609
g2
(g3
(S'S4'
p1610
I0
I1
tp1611
Rp1612
(I3
S'|'
p1613
NNNI4
I1
I0
tp1614
bS'MAMP'
p1615
tp1616
Rp1617
sS'AORWBTQ1'
p1618
g2
(g3
(S'S4'
p1619
I0
I1
tp1620
Rp1621
(I3
S'|'
p1622
NNNI4
I1
I0
tp1623
bS'FTLB'
p1624
tp1625
Rp1626
sS'AORWBTQ2'
p1627
g2
(g3
(S'S4'
p1628
I0
I1
tp1629
Rp1630
(I3
S'|'
p1631
NNNI4
I1
I0
tp1632
bS'FTLB'
p1633
tp1634
Rp1635
sS'AORWBTQ3'
p1636
g2
(g3
(S'S4'
p1637
I0
I1
tp1638
Rp1639
(I3
S'|'
p1640
NNNI4
I1
I0
tp1641
bS'FTLB'
p1642
tp1643
Rp1644
sS'AORWBTQ4'
p1645
g2
(g3
(S'S4'
p1646
I0
I1
tp1647
Rp1648
(I3
S'|'
p1649
NNNI4
I1
I0
tp1650
bS'FTLB'
p1651
tp1652
Rp1653
sS'AGWS1V'
p1654
g2
(g3
(S'S1'
p1655
I0
I1
tp1656
Rp1657
(I3
S'|'
p1658
NNNI1
I1
I0
tp1659
bg45
tp1660
Rp1661
sS'AORWBTQ6'
p1662
g2
(g3
(S'S4'
p1663
I0
I1
tp1664
Rp1665
(I3
S'|'
p1666
NNNI4
I1
I0
tp1667
bS'FTLB'
p1668
tp1669
Rp1670
sS'AWD6CV5V'
p1671
g2
(g3
(S'S1'
p1672
I0
I1
tp1673
Rp1674
(I3
S'|'
p1675
NNNI1
I1
I0
tp1676
bg45
tp1677
Rp1678
sS'3FABRCAT'
p1679
g2
(g3
(S'S4'
p1680
I0
I1
tp1681
Rp1682
(I3
S'|'
p1683
NNNI4
I1
I0
tp1684
bS'DEGC'
p1685
tp1686
Rp1687
sS'AWD4CV5V'
p1688
g2
(g3
(S'S1'
p1689
I0
I1
tp1690
Rp1691
(I3
S'|'
p1692
NNNI1
I1
I0
tp1693
bg45
tp1694
Rp1695
sS'4RT576T'
p1696
g2
(g3
(S'S4'
p1697
I0
I1
tp1698
Rp1699
(I3
S'|'
p1700
NNNI4
I1
I0
tp1701
bS'DEGF'
p1702
tp1703
Rp1704
sS'AIRU1G1T'
p1705
g2
(g3
(S'S4'
p1706
I0
I1
tp1707
Rp1708
(I3
S'|'
p1709
NNNI4
I1
I0
tp1710
bS'DEGF'
p1711
tp1712
Rp1713
sS'OHRTHR53'
p1714
g2
(g3
(S'S4'
p1715
I0
I1
tp1716
Rp1717
(I3
S'|'
p1718
NNNI4
I1
I0
tp1719
bS'DEGF'
p1720
tp1721
Rp1722
sS'PR2TV02T'
p1723
g2
(g3
(S'S4'
p1724
I0
I1
tp1725
Rp1726
(I3
S'|'
p1727
NNNI4
I1
I0
tp1728
bS'DEGF'
p1729
tp1730
Rp1731
sS'PLAED4AT'
p1732
g2
(g3
(S'S4'
p1733
I0
I1
tp1734
Rp1735
(I3
S'|'
p1736
NNNI4
I1
I0
tp1737
bS'DEGF'
p1738
tp1739
Rp1740
sS'2P05VAVL'
p1741
g2
(g3
(S'S3'
p1742
I0
I1
tp1743
Rp1744
(I3
S'|'
p1745
NNNI3
I1
I0
tp1746
bS'VDC'
p1747
tp1748
Rp1749
sS'PLAEV4AT'
p1750
g2
(g3
(S'S4'
p1751
I0
I1
tp1752
Rp1753
(I3
S'|'
p1754
NNNI4
I1
I0
tp1755
bS'DEGF'
p1756
tp1757
Rp1758
sS'1VAHCBT'
p1759
g2
(g3
(S'S4'
p1760
I0
I1
tp1761
Rp1762
(I3
S'|'
p1763
NNNI4
I1
I0
tp1764
bS'DEGC'
p1765
tp1766
Rp1767
sS'PM2THV1T'
p1768
g2
(g3
(S'S4'
p1769
I0
I1
tp1770
Rp1771
(I3
S'|'
p1772
NNNI4
I1
I0
tp1773
bS'DEGF'
p1774
tp1775
Rp1776
sS'PLINE09T'
p1777
g2
(g3
(S'S4'
p1778
I0
I1
tp1779
Rp1780
(I3
S'|'
p1781
NNNI4
I1
I0
tp1782
bS'DEGF'
p1783
tp1784
Rp1785
sS'1DPP0AVO'
p1786
g2
(g3
(S'S1'
p1787
I0
I1
tp1788
Rp1789
(I3
S'|'
p1790
NNNI1
I1
I0
tp1791
bg45
tp1792
Rp1793
sS'5EIOT'
p1794
g2
(g3
(S'S4'
p1795
I0
I1
tp1796
Rp1797
(I3
S'|'
p1798
NNNI4
I1
I0
tp1799
bS'DEGC'
p1800
tp1801
Rp1802
sS'CPCB5V'
p1803
g2
(g3
(S'S1'
p1804
I0
I1
tp1805
Rp1806
(I3
S'|'
p1807
NNNI1
I1
I0
tp1808
bg45
tp1809
Rp1810
sS'PLAED1IT'
p1811
g2
(g3
(S'S4'
p1812
I0
I1
tp1813
Rp1814
(I3
S'|'
p1815
NNNI4
I1
I0
tp1816
bS'DEGF'
p1817
tp1818
Rp1819
sS'CPCA5V'
p1820
g2
(g3
(S'S1'
p1821
I0
I1
tp1822
Rp1823
(I3
S'|'
p1824
NNNI1
I1
I0
tp1825
bg45
tp1826
Rp1827
sS'AFLCA2BI'
p1828
g2
(g3
(S'S4'
p1829
I0
I1
tp1830
Rp1831
(I3
S'|'
p1832
NNNI4
I1
I0
tp1833
bS'MAMP'
p1834
tp1835
Rp1836
sS'TEIO'
p1837
g2
(g3
(S'S4'
p1838
I0
I1
tp1839
Rp1840
(I3
S'|'
p1841
NNNI4
I1
I0
tp1842
bS'DEGF'
p1843
tp1844
Rp1845
sS'AORWMC2_1'
p1846
g2
(g3
(S'S7'
p1847
I0
I1
tp1848
Rp1849
(I3
S'|'
p1850
NNNI7
I1
I0
tp1851
bS'FTLBSEC'
p1852
tp1853
Rp1854
sS'ELBV'
p1855
g2
(g3
(S'S1'
p1856
I0
I1
tp1857
Rp1858
(I3
S'|'
p1859
NNNI1
I1
I0
tp1860
bg45
tp1861
Rp1862
sS'AACBPRT'
p1863
g2
(g3
(S'S4'
p1864
I0
I1
tp1865
Rp1866
(I3
S'|'
p1867
NNNI4
I1
I0
tp1868
bS'DEGF'
p1869
tp1870
Rp1871
sS'PLAED1AT'
p1872
g2
(g3
(S'S4'
p1873
I0
I1
tp1874
Rp1875
(I3
S'|'
p1876
NNNI4
I1
I0
tp1877
bS'DEGF'
p1878
tp1879
Rp1880
sS'PFTANK1T'
p1881
g2
(g3
(S'S4'
p1882
I0
I1
tp1883
Rp1884
(I3
S'|'
p1885
NNNI4
I1
I0
tp1886
bS'DEGF'
p1887
tp1888
Rp1889
sS'TPCM_RW4'
p1890
g2
(g3
(S'S4'
p1891
I0
I1
tp1892
Rp1893
(I3
S'|'
p1894
NNNI4
I1
I0
tp1895
bS'DEGF'
p1896
tp1897
Rp1898
sS'4RT580T'
p1899
g2
(g3
(S'S4'
p1900
I0
I1
tp1901
Rp1902
(I3
S'|'
p1903
NNNI4
I1
I0
tp1904
bS'DEGF'
p1905
tp1906
Rp1907
sS'TEP_PCU'
p1908
g2
(g3
(S'S4'
p1909
I0
I1
tp1910
Rp1911
(I3
S'|'
p1912
NNNI4
I1
I0
tp1913
bS'DEGF'
p1914
tp1915
Rp1916
sS'4VRMHBV'
p1917
g2
(g3
(S'S3'
p1918
I0
I1
tp1919
Rp1920
(I3
S'|'
p1921
NNNI3
I1
I0
tp1922
bS'VDC'
p1923
tp1924
Rp1925
sS'PHETANKT'
p1926
g2
(g3
(S'S4'
p1927
I0
I1
tp1928
Rp1929
(I3
S'|'
p1930
NNNI4
I1
I0
tp1931
bS'DEGF'
p1932
tp1933
Rp1934
sS'TAPE1PST'
p1935
g2
(g3
(S'S4'
p1936
I0
I1
tp1937
Rp1938
(I3
S'|'
p1939
NNNI4
I1
I0
tp1940
bS'DEGF'
p1941
tp1942
Rp1943
sS'4RT558T'
p1944
g2
(g3
(S'S4'
p1945
I0
I1
tp1946
Rp1947
(I3
S'|'
p1948
NNNI4
I1
I0
tp1949
bS'DEGF'
p1950
tp1951
Rp1952
sS'1DEP0BVO'
p1953
g2
(g3
(S'S1'
p1954
I0
I1
tp1955
Rp1956
(I3
S'|'
p1957
NNNI1
I1
I0
tp1958
bg45
tp1959
Rp1960
sS'OOBTHR24'
p1961
g2
(g3
(S'S4'
p1962
I0
I1
tp1963
Rp1964
(I3
S'|'
p1965
NNNI4
I1
I0
tp1966
bS'DEGF'
p1967
tp1968
Rp1969
sS'6TQCMD1'
p1970
g2
(g3
(S'S4'
p1971
I0
I1
tp1972
Rp1973
(I3
S'|'
p1974
NNNI4
I1
I0
tp1975
bS'FTLB'
p1976
tp1977
Rp1978
sS'6TQCMD2'
p1979
g2
(g3
(S'S4'
p1980
I0
I1
tp1981
Rp1982
(I3
S'|'
p1983
NNNI4
I1
I0
tp1984
bS'FTLB'
p1985
tp1986
Rp1987
sS'6TQCMD3'
p1988
g2
(g3
(S'S4'
p1989
I0
I1
tp1990
Rp1991
(I3
S'|'
p1992
NNNI4
I1
I0
tp1993
bS'FTLB'
p1994
tp1995
Rp1996
sS'OOBTHR20'
p1997
g2
(g3
(S'S4'
p1998
I0
I1
tp1999
Rp2000
(I3
S'|'
p2001
NNNI4
I1
I0
tp2002
bS'DEGF'
p2003
tp2004
Rp2005
sS'OOBTHR21'
p2006
g2
(g3
(S'S4'
p2007
I0
I1
tp2008
Rp2009
(I3
S'|'
p2010
NNNI4
I1
I0
tp2011
bS'DEGF'
p2012
tp2013
Rp2014
sS'OOBTHR22'
p2015
g2
(g3
(S'S4'
p2016
I0
I1
tp2017
Rp2018
(I3
S'|'
p2019
NNNI4
I1
I0
tp2020
bS'DEGF'
p2021
tp2022
Rp2023
sS'OOBTHR23'
p2024
g2
(g3
(S'S4'
p2025
I0
I1
tp2026
Rp2027
(I3
S'|'
p2028
NNNI4
I1
I0
tp2029
bS'DEGF'
p2030
tp2031
Rp2032
sS'OHRTHR03'
p2033
g2
(g3
(S'S4'
p2034
I0
I1
tp2035
Rp2036
(I3
S'|'
p2037
NNNI4
I1
I0
tp2038
bS'DEGF'
p2039
tp2040
Rp2041
sS'AVD2CV5V'
p2042
g2
(g3
(S'S1'
p2043
I0
I1
tp2044
Rp2045
(I3
S'|'
p2046
NNNI1
I1
I0
tp2047
bg45
tp2048
Rp2049
sS'OOBTHR28'
p2050
g2
(g3
(S'S4'
p2051
I0
I1
tp2052
Rp2053
(I3
S'|'
p2054
NNNI4
I1
I0
tp2055
bS'DEGF'
p2056
tp2057
Rp2058
sS'OOBTHR29'
p2059
g2
(g3
(S'S4'
p2060
I0
I1
tp2061
Rp2062
(I3
S'|'
p2063
NNNI4
I1
I0
tp2064
bS'DEGF'
p2065
tp2066
Rp2067
sS'TB2T1'
p2068
g2
(g3
(S'S4'
p2069
I0
I1
tp2070
Rp2071
(I3
S'|'
p2072
NNNI4
I1
I0
tp2073
bS'DEGF'
p2074
tp2075
Rp2076
sS'EORTDMN16D'
p2077
g2
(g3
(S'S4'
p2078
I0
I1
tp2079
Rp2080
(I3
S'|'
p2081
NNNI4
I1
I0
tp2082
bS'DEGF'
p2083
tp2084
Rp2085
sS'2FHTRMZT'
p2086
g2
(g3
(S'S4'
p2087
I0
I1
tp2088
Rp2089
(I3
S'|'
p2090
NNNI4
I1
I0
tp2091
bS'DEGC'
p2092
tp2093
Rp2094
sS'AOSAANG1'
p2095
g2
(g3
(S'S3'
p2096
I0
I1
tp2097
Rp2098
(I3
S'|'
p2099
NNNI3
I1
I0
tp2100
bS'RAD'
p2101
tp2102
Rp2103
sS'AOSAANG2'
p2104
g2
(g3
(S'S3'
p2105
I0
I1
tp2106
Rp2107
(I3
S'|'
p2108
NNNI3
I1
I0
tp2109
bS'RAD'
p2110
tp2111
Rp2112
sS'CTSB15V'
p2113
g2
(g3
(S'S1'
p2114
I0
I1
tp2115
Rp2116
(I3
S'|'
p2117
NNNI1
I1
I0
tp2118
bg45
tp2119
Rp2120
sS'6MUPCNT3'
p2121
g2
(g3
(S'S3'
p2122
I0
I1
tp2123
Rp2124
(I3
S'|'
p2125
NNNI3
I1
I0
tp2126
bS'SEC'
p2127
tp2128
Rp2129
sS'6MUPCNT2'
p2130
g2
(g3
(S'S3'
p2131
I0
I1
tp2132
Rp2133
(I3
S'|'
p2134
NNNI3
I1
I0
tp2135
bS'SEC'
p2136
tp2137
Rp2138
sS'6MUPCNT1'
p2139
g2
(g3
(S'S3'
p2140
I0
I1
tp2141
Rp2142
(I3
S'|'
p2143
NNNI3
I1
I0
tp2144
bS'SEC'
p2145
tp2146
Rp2147
sS'4RT561T'
p2148
g2
(g3
(S'S4'
p2149
I0
I1
tp2150
Rp2151
(I3
S'|'
p2152
NNNI4
I1
I0
tp2153
bS'DEGF'
p2154
tp2155
Rp2156
sS'AOSAEST2'
p2157
g2
(g3
(S'S3'
p2158
I0
I1
tp2159
Rp2160
(I3
S'|'
p2161
NNNI3
I1
I0
tp2162
bS'RAD'
p2163
tp2164
Rp2165
sS'6MUPCNT4'
p2166
g2
(g3
(S'S3'
p2167
I0
I1
tp2168
Rp2169
(I3
S'|'
p2170
NNNI3
I1
I0
tp2171
bS'SEC'
p2172
tp2173
Rp2174
sS'OHRTHR57'
p2175
g2
(g3
(S'S4'
p2176
I0
I1
tp2177
Rp2178
(I3
S'|'
p2179
NNNI4
I1
I0
tp2180
bS'DEGF'
p2181
tp2182
Rp2183
sS'AOMANTIM'
p2184
g2
(g3
(S'S3'
p2185
I0
I1
tp2186
Rp2187
(I3
S'|'
p2188
NNNI3
I1
I0
tp2189
bS'SEC'
p2190
tp2191
Rp2192
sS'CTUB5V'
p2193
g2
(g3
(S'S1'
p2194
I0
I1
tp2195
Rp2196
(I3
S'|'
p2197
NNNI1
I1
I0
tp2198
bg45
tp2199
Rp2200
sS'AWD4TQI'
p2201
g2
(g3
(S'S3'
p2202
I0
I1
tp2203
Rp2204
(I3
S'|'
p2205
NNNI3
I1
I0
tp2206
bS'AMP'
p2207
tp2208
Rp2209
sS'4LLL2AT'
p2210
g2
(g3
(S'S4'
p2211
I0
I1
tp2212
Rp2213
(I3
S'|'
p2214
NNNI4
I1
I0
tp2215
bS'DEGF'
p2216
tp2217
Rp2218
sS'AWD5CV5V'
p2219
g2
(g3
(S'S1'
p2220
I0
I1
tp2221
Rp2222
(I3
S'|'
p2223
NNNI1
I1
I0
tp2224
bg45
tp2225
Rp2226
sS'4ALL1BT'
p2227
g2
(g3
(S'S4'
p2228
I0
I1
tp2229
Rp2230
(I3
S'|'
p2231
NNNI4
I1
I0
tp2232
bS'DEGF'
p2233
tp2234
Rp2235
sS'CPCB15V'
p2236
g2
(g3
(S'S1'
p2237
I0
I1
tp2238
Rp2239
(I3
S'|'
p2240
NNNI1
I1
I0
tp2241
bg45
tp2242
Rp2243
sS'4RT711T'
p2244
g2
(g3
(S'S4'
p2245
I0
I1
tp2246
Rp2247
(I3
S'|'
p2248
NNNI4
I1
I0
tp2249
bS'DEGF'
p2250
tp2251
Rp2252
sS'AAOTALT'
p2253
g2
(g3
(S'S4'
p2254
I0
I1
tp2255
Rp2256
(I3
S'|'
p2257
NNNI4
I1
I0
tp2258
bS'DEGF'
p2259
tp2260
Rp2261
sS'AGWS2V'
p2262
g2
(g3
(S'S1'
p2263
I0
I1
tp2264
Rp2265
(I3
S'|'
p2266
NNNI1
I1
I0
tp2267
bg45
tp2268
Rp2269
sS'EORTDMN26D'
p2270
g2
(g3
(S'S4'
p2271
I0
I1
tp2272
Rp2273
(I3
S'|'
p2274
NNNI4
I1
I0
tp2275
bS'DEGF'
p2276
tp2277
Rp2278
sS'EB1V'
p2279
g2
(g3
(S'S1'
p2280
I0
I1
tp2281
Rp2282
(I3
S'|'
p2283
NNNI1
I1
I0
tp2284
bg45
tp2285
Rp2286
sS'AOFFTQ1'
p2287
g2
(g3
(S'S4'
p2288
I0
I1
tp2289
Rp2290
(I3
S'|'
p2291
NNNI4
I1
I0
tp2292
bS'FTLB'
p2293
tp2294
Rp2295
sS'AOFFTQ2'
p2296
g2
(g3
(S'S4'
p2297
I0
I1
tp2298
Rp2299
(I3
S'|'
p2300
NNNI4
I1
I0
tp2301
bS'FTLB'
p2302
tp2303
Rp2304
sS'AOFFTQ3'
p2305
g2
(g3
(S'S4'
p2306
I0
I1
tp2307
Rp2308
(I3
S'|'
p2309
NNNI4
I1
I0
tp2310
bS'FTLB'
p2311
tp2312
Rp2313
sS'OHRTHR05'
p2314
g2
(g3
(S'S4'
p2315
I0
I1
tp2316
Rp2317
(I3
S'|'
p2318
NNNI4
I1
I0
tp2319
bS'DEGF'
p2320
tp2321
Rp2322
sS'3SFLXCST'
p2323
g2
(g3
(S'S4'
p2324
I0
I1
tp2325
Rp2326
(I3
S'|'
p2327
NNNI4
I1
I0
tp2328
bS'DEGC'
p2329
tp2330
Rp2331
sS'PLINE07T'
p2332
g2
(g3
(S'S4'
p2333
I0
I1
tp2334
Rp2335
(I3
S'|'
p2336
NNNI4
I1
I0
tp2337
bS'DEGF'
p2338
tp2339
Rp2340
sS'PLAEV2BT'
p2341
g2
(g3
(S'S4'
p2342
I0
I1
tp2343
Rp2344
(I3
S'|'
p2345
NNNI4
I1
I0
tp2346
bS'DEGF'
p2347
tp2348
Rp2349
sS'AOSCVEL1'
p2350
g2
(g3
(S'S4'
p2351
I0
I1
tp2352
Rp2353
(I3
S'|'
p2354
NNNI4
I1
I0
tp2355
bS'KMPS'
p2356
tp2357
Rp2358
sS'3TSPYFET'
p2359
g2
(g3
(S'S4'
p2360
I0
I1
tp2361
Rp2362
(I3
S'|'
p2363
NNNI4
I1
I0
tp2364
bS'DEGC'
p2365
tp2366
Rp2367
sS'4RT598T'
p2368
g2
(g3
(S'S4'
p2369
I0
I1
tp2370
Rp2371
(I3
S'|'
p2372
NNNI4
I1
I0
tp2373
bS'DEGF'
p2374
tp2375
Rp2376
sS'1DE28AVO'
p2377
g2
(g3
(S'S1'
p2378
I0
I1
tp2379
Rp2380
(I3
S'|'
p2381
NNNI1
I1
I0
tp2382
bg45
tp2383
Rp2384
sS'2N15VBVL'
p2385
g2
(g3
(S'S3'
p2386
I0
I1
tp2387
Rp2388
(I3
S'|'
p2389
NNNI3
I1
I0
tp2390
bS'VDC'
p2391
tp2392
Rp2393
sS'AFLC13BI'
p2394
g2
(g3
(S'S4'
p2395
I0
I1
tp2396
Rp2397
(I3
S'|'
p2398
NNNI4
I1
I0
tp2399
bS'MAMP'
p2400
tp2401
Rp2402
sS'PR4TV02T'
p2403
g2
(g3
(S'S4'
p2404
I0
I1
tp2405
Rp2406
(I3
S'|'
p2407
NNNI4
I1
I0
tp2408
bS'DEGF'
p2409
tp2410
Rp2411
sS'AOGBIAS1'
p2412
g2
(g3
(S'S5'
p2413
I0
I1
tp2414
Rp2415
(I3
S'|'
p2416
NNNI5
I1
I0
tp2417
bS'RADPS'
p2418
tp2419
Rp2420
sS'AOGBIAS2'
p2421
g2
(g3
(S'S5'
p2422
I0
I1
tp2423
Rp2424
(I3
S'|'
p2425
NNNI5
I1
I0
tp2426
bS'RADPS'
p2427
tp2428
Rp2429
sS'AOGBIAS3'
p2430
g2
(g3
(S'S5'
p2431
I0
I1
tp2432
Rp2433
(I3
S'|'
p2434
NNNI5
I1
I0
tp2435
bS'RADPS'
p2436
tp2437
Rp2438
sS'1DEN1AVO'
p2439
g2
(g3
(S'S1'
p2440
I0
I1
tp2441
Rp2442
(I3
S'|'
p2443
NNNI1
I1
I0
tp2444
bg45
tp2445
Rp2446
sS'1DEN0AVO'
p2447
g2
(g3
(S'S1'
p2448
I0
I1
tp2449
Rp2450
(I3
S'|'
p2451
NNNI1
I1
I0
tp2452
bg45
tp2453
Rp2454
sS'1DEP2BVO'
p2455
g2
(g3
(S'S1'
p2456
I0
I1
tp2457
Rp2458
(I3
S'|'
p2459
NNNI1
I1
I0
tp2460
bg45
tp2461
Rp2462
sS'TMP_FEP1_FB'
p2463
g299
sS'1DPICBCU'
p2464
g2
(g3
(S'S3'
p2465
I0
I1
tp2466
Rp2467
(I3
S'|'
p2468
NNNI3
I1
I0
tp2469
bS'AMP'
p2470
tp2471
Rp2472
sS'1DP28AVO'
p2473
g2
(g3
(S'S1'
p2474
I0
I1
tp2475
Rp2476
(I3
S'|'
p2477
NNNI1
I1
I0
tp2478
bg45
tp2479
Rp2480
sS'2CONDMXT'
p2481
g2
(g3
(S'S4'
p2482
I0
I1
tp2483
Rp2484
(I3
S'|'
p2485
NNNI4
I1
I0
tp2486
bS'DEGC'
p2487
tp2488
Rp2489
sS'4CSDHAV'
p2490
g2
(g3
(S'S3'
p2491
I0
I1
tp2492
Rp2493
(I3
S'|'
p2494
NNNI3
I1
I0
tp2495
bS'VDC'
p2496
tp2497
Rp2498
sS'4RT587T'
p2499
g2
(g3
(S'S4'
p2500
I0
I1
tp2501
Rp2502
(I3
S'|'
p2503
NNNI4
I1
I0
tp2504
bS'DEGF'
p2505
tp2506
Rp2507
sS'AI1AX2Y'
p2508
g2
(g3
(S'S5'
p2509
I0
I1
tp2510
Rp2511
(I3
S'|'
p2512
NNNI5
I1
I0
tp2513
bS'DEGPS'
p2514
tp2515
Rp2516
sS'AI1AX2X'
p2517
g2
(g3
(S'S5'
p2518
I0
I1
tp2519
Rp2520
(I3
S'|'
p2521
NNNI5
I1
I0
tp2522
bS'DEGPS'
p2523
tp2524
Rp2525
sS'TEP_PPAN'
p2526
g2
(g3
(S'S4'
p2527
I0
I1
tp2528
Rp2529
(I3
S'|'
p2530
NNNI4
I1
I0
tp2531
bS'DEGF'
p2532
tp2533
Rp2534
sS'AORWCMD5'
p2535
g2
(g3
(S'S4'
p2536
I0
I1
tp2537
Rp2538
(I3
S'|'
p2539
NNNI4
I1
I0
tp2540
bS'FTLB'
p2541
tp2542
Rp2543
sS'AORWCMD4'
p2544
g2
(g3
(S'S4'
p2545
I0
I1
tp2546
Rp2547
(I3
S'|'
p2548
NNNI4
I1
I0
tp2549
bS'FTLB'
p2550
tp2551
Rp2552
sS'OHRTHR29'
p2553
g2
(g3
(S'S4'
p2554
I0
I1
tp2555
Rp2556
(I3
S'|'
p2557
NNNI4
I1
I0
tp2558
bS'DEGF'
p2559
tp2560
Rp2561
sS'AORWCMD6'
p2562
g2
(g3
(S'S4'
p2563
I0
I1
tp2564
Rp2565
(I3
S'|'
p2566
NNNI4
I1
I0
tp2567
bS'FTLB'
p2568
tp2569
Rp2570
sS'AORWCMD1'
p2571
g2
(g3
(S'S4'
p2572
I0
I1
tp2573
Rp2574
(I3
S'|'
p2575
NNNI4
I1
I0
tp2576
bS'FTLB'
p2577
tp2578
Rp2579
sS'AORWCMD3'
p2580
g2
(g3
(S'S4'
p2581
I0
I1
tp2582
Rp2583
(I3
S'|'
p2584
NNNI4
I1
I0
tp2585
bS'FTLB'
p2586
tp2587
Rp2588
sS'AORWCMD2'
p2589
g2
(g3
(S'S4'
p2590
I0
I1
tp2591
Rp2592
(I3
S'|'
p2593
NNNI4
I1
I0
tp2594
bS'FTLB'
p2595
tp2596
Rp2597
sS'OHRTHR23'
p2598
g2
(g3
(S'S4'
p2599
I0
I1
tp2600
Rp2601
(I3
S'|'
p2602
NNNI4
I1
I0
tp2603
bS'DEGF'
p2604
tp2605
Rp2606
sS'OHRTHR22'
p2607
g2
(g3
(S'S4'
p2608
I0
I1
tp2609
Rp2610
(I3
S'|'
p2611
NNNI4
I1
I0
tp2612
bS'DEGF'
p2613
tp2614
Rp2615
sS'OHRTHR21'
p2616
g2
(g3
(S'S4'
p2617
I0
I1
tp2618
Rp2619
(I3
S'|'
p2620
NNNI4
I1
I0
tp2621
bS'DEGF'
p2622
tp2623
Rp2624
sS'OHRTHR20'
p2625
g2
(g3
(S'S4'
p2626
I0
I1
tp2627
Rp2628
(I3
S'|'
p2629
NNNI4
I1
I0
tp2630
bS'DEGF'
p2631
tp2632
Rp2633
sS'OHRTHR27'
p2634
g2
(g3
(S'S4'
p2635
I0
I1
tp2636
Rp2637
(I3
S'|'
p2638
NNNI4
I1
I0
tp2639
bS'DEGF'
p2640
tp2641
Rp2642
sS'AOCMDAC1'
p2643
g2
(g3
(S'S5'
p2644
I0
I1
tp2645
Rp2646
(I3
S'|'
p2647
NNNI5
I1
I0
tp2648
bS'RADSS'
p2649
tp2650
Rp2651
sS'AOCMDAC2'
p2652
g2
(g3
(S'S5'
p2653
I0
I1
tp2654
Rp2655
(I3
S'|'
p2656
NNNI5
I1
I0
tp2657
bS'RADSS'
p2658
tp2659
Rp2660
sS'AOCMDAC3'
p2661
g2
(g3
(S'S5'
p2662
I0
I1
tp2663
Rp2664
(I3
S'|'
p2665
NNNI5
I1
I0
tp2666
bS'RADSS'
p2667
tp2668
Rp2669
sS'4IN15BV'
p2670
g2
(g3
(S'S3'
p2671
I0
I1
tp2672
Rp2673
(I3
S'|'
p2674
NNNI3
I1
I0
tp2675
bS'VDC'
p2676
tp2677
Rp2678
sS'63RCSTMR'
p2679
g2
(g3
(S'S3'
p2680
I0
I1
tp2681
Rp2682
(I3
S'|'
p2683
NNNI3
I1
I0
tp2684
bS'MIN'
p2685
tp2686
Rp2687
sS'TCNR_BRM'
p2688
g2
(g3
(S'S4'
p2689
I0
I1
tp2690
Rp2691
(I3
S'|'
p2692
NNNI4
I1
I0
tp2693
bS'DEGF'
p2694
tp2695
Rp2696
sS'TCM_IFU'
p2697
g2
(g3
(S'S4'
p2698
I0
I1
tp2699
Rp2700
(I3
S'|'
p2701
NNNI4
I1
I0
tp2702
bS'DEGF'
p2703
tp2704
Rp2705
sS'TCYLFMZP'
p2706
g2
(g3
(S'S4'
p2707
I0
I1
tp2708
Rp2709
(I3
S'|'
p2710
NNNI4
I1
I0
tp2711
bS'DEGF'
p2712
tp2713
Rp2714
sS'EOEB1VC'
p2715
g2
(g3
(S'S1'
p2716
I0
I1
tp2717
Rp2718
(I3
S'|'
p2719
NNNI1
I1
I0
tp2720
bg45
tp2721
Rp2722
sS'TCYLFMZM'
p2723
g2
(g3
(S'S4'
p2724
I0
I1
tp2725
Rp2726
(I3
S'|'
p2727
NNNI4
I1
I0
tp2728
bS'DEGF'
p2729
tp2730
Rp2731
sS'4RT597T'
p2732
g2
(g3
(S'S4'
p2733
I0
I1
tp2734
Rp2735
(I3
S'|'
p2736
NNNI4
I1
I0
tp2737
bS'DEGF'
p2738
tp2739
Rp2740
sS'TEP_RCTU'
p2741
g2
(g3
(S'S4'
p2742
I0
I1
tp2743
Rp2744
(I3
S'|'
p2745
NNNI4
I1
I0
tp2746
bS'DEGF'
p2747
tp2748
Rp2749
sS'4RT702T'
p2750
g2
(g3
(S'S4'
p2751
I0
I1
tp2752
Rp2753
(I3
S'|'
p2754
NNNI4
I1
I0
tp2755
bS'DEGF'
p2756
tp2757
Rp2758
sS'AOSPBCS1B'
p2759
g2
(g3
(S'S4'
p2760
I0
I1
tp2761
Rp2762
(I3
S'|'
p2763
NNNI4
I1
I0
tp2764
bS'MAMP'
p2765
tp2766
Rp2767
sS'1VAHOAT'
p2768
g2
(g3
(S'S4'
p2769
I0
I1
tp2770
Rp2771
(I3
S'|'
p2772
NNNI4
I1
I0
tp2773
bS'DEGC'
p2774
tp2775
Rp2776
sS'AACH1T'
p2777
g2
(g3
(S'S4'
p2778
I0
I1
tp2779
Rp2780
(I3
S'|'
p2781
NNNI4
I1
I0
tp2782
bS'DEGF'
p2783
tp2784
Rp2785
sS'4PRT2AT'
p2786
g2
(g3
(S'S4'
p2787
I0
I1
tp2788
Rp2789
(I3
S'|'
p2790
NNNI4
I1
I0
tp2791
bS'DEGF'
p2792
tp2793
Rp2794
sS'TPC_ESE'
p2795
g2
(g3
(S'S4'
p2796
I0
I1
tp2797
Rp2798
(I3
S'|'
p2799
NNNI4
I1
I0
tp2800
bS'DEGF'
p2801
tp2802
Rp2803
sS'EB3V'
p2804
g2
(g3
(S'S1'
p2805
I0
I1
tp2806
Rp2807
(I3
S'|'
p2808
NNNI1
I1
I0
tp2809
bg45
tp2810
Rp2811
sS'AFLCA9AI'
p2812
g2
(g3
(S'S4'
p2813
I0
I1
tp2814
Rp2815
(I3
S'|'
p2816
NNNI4
I1
I0
tp2817
bS'MAMP'
p2818
tp2819
Rp2820
sS'CTSB5V'
p2821
g2
(g3
(S'S1'
p2822
I0
I1
tp2823
Rp2824
(I3
S'|'
p2825
NNNI1
I1
I0
tp2826
bg45
tp2827
Rp2828
sS'AFLCA1BI'
p2829
g2
(g3
(S'S4'
p2830
I0
I1
tp2831
Rp2832
(I3
S'|'
p2833
NNNI4
I1
I0
tp2834
bS'MAMP'
p2835
tp2836
Rp2837
sS'4VRMHAV'
p2838
g2
(g3
(S'S3'
p2839
I0
I1
tp2840
Rp2841
(I3
S'|'
p2842
NNNI3
I1
I0
tp2843
bS'VDC'
p2844
tp2845
Rp2846
sS'PR4TV01T'
p2847
g2
(g3
(S'S4'
p2848
I0
I1
tp2849
Rp2850
(I3
S'|'
p2851
NNNI4
I1
I0
tp2852
bS'DEGF'
p2853
tp2854
Rp2855
sS'PLINE10T'
p2856
g2
(g3
(S'S4'
p2857
I0
I1
tp2858
Rp2859
(I3
S'|'
p2860
NNNI4
I1
I0
tp2861
bS'DEGF'
p2862
tp2863
Rp2864
sS'TPC_RCTU'
p2865
g2
(g3
(S'S4'
p2866
I0
I1
tp2867
Rp2868
(I3
S'|'
p2869
NNNI4
I1
I0
tp2870
bS'DEGF'
p2871
tp2872
Rp2873
sS'TCM_PA1'
p2874
g2
(g3
(S'S4'
p2875
I0
I1
tp2876
Rp2877
(I3
S'|'
p2878
NNNI4
I1
I0
tp2879
bS'DEGF'
p2880
tp2881
Rp2882
sS'EORTDMN27D'
p2883
g2
(g3
(S'S4'
p2884
I0
I1
tp2885
Rp2886
(I3
S'|'
p2887
NNNI4
I1
I0
tp2888
bS'DEGF'
p2889
tp2890
Rp2891
sS'AESAPHA1'
p2892
g2
(g3
(S'S3'
p2893
I0
I1
tp2894
Rp2895
(I3
S'|'
p2896
NNNI3
I1
I0
tp2897
bS'DEG'
p2898
tp2899
Rp2900
sS'AESAPHA2'
p2901
g2
(g3
(S'S3'
p2902
I0
I1
tp2903
Rp2904
(I3
S'|'
p2905
NNNI3
I1
I0
tp2906
bS'DEG'
p2907
tp2908
Rp2909
sS'PLINE03T'
p2910
g2
(g3
(S'S4'
p2911
I0
I1
tp2912
Rp2913
(I3
S'|'
p2914
NNNI4
I1
I0
tp2915
bS'DEGF'
p2916
tp2917
Rp2918
sS'2FRADPYT'
p2919
g2
(g3
(S'S4'
p2920
I0
I1
tp2921
Rp2922
(I3
S'|'
p2923
NNNI4
I1
I0
tp2924
bS'DEGC'
p2925
tp2926
Rp2927
sS'1DE28BVO'
p2928
g2
(g3
(S'S1'
p2929
I0
I1
tp2930
Rp2931
(I3
S'|'
p2932
NNNI1
I1
I0
tp2933
bg45
tp2934
Rp2935
sS'AOADACH2A_NBG'
p2936
g2
(g3
(S'S3'
p2937
I0
I1
tp2938
Rp2939
(I3
S'|'
p2940
NNNI3
I1
I0
tp2941
bS'DEG'
p2942
tp2943
Rp2944
sS'AORWMOM2'
p2945
g2
(g3
(S'S7'
p2946
I0
I1
tp2947
Rp2948
(I3
S'|'
p2949
NNNI7
I1
I0
tp2950
bS'FTLBSEC'
p2951
tp2952
Rp2953
sS'PLAED4FT'
p2954
g2
(g3
(S'S4'
p2955
I0
I1
tp2956
Rp2957
(I3
S'|'
p2958
NNNI4
I1
I0
tp2959
bS'DEGF'
p2960
tp2961
Rp2962
sS'C28VMONA'
p2963
g2
(g3
(S'S1'
p2964
I0
I1
tp2965
Rp2966
(I3
S'|'
p2967
NNNI1
I1
I0
tp2968
bg45
tp2969
Rp2970
sS'4LLL2BT'
p2971
g2
(g3
(S'S4'
p2972
I0
I1
tp2973
Rp2974
(I3
S'|'
p2975
NNNI4
I1
I0
tp2976
bS'DEGF'
p2977
tp2978
Rp2979
sS'1DEP1BVO'
p2980
g2
(g3
(S'S1'
p2981
I0
I1
tp2982
Rp2983
(I3
S'|'
p2984
NNNI1
I1
I0
tp2985
bg45
tp2986
Rp2987
sS'AOSPACS3B'
p2988
g2
(g3
(S'S4'
p2989
I0
I1
tp2990
Rp2991
(I3
S'|'
p2992
NNNI4
I1
I0
tp2993
bS'MAMP'
p2994
tp2995
Rp2996
sS'PLAEV4BT'
p2997
g2
(g3
(S'S4'
p2998
I0
I1
tp2999
Rp3000
(I3
S'|'
p3001
NNNI4
I1
I0
tp3002
bS'DEGF'
p3003
tp3004
Rp3005
sS'ES2P5CV'
p3006
g2
(g3
(S'S1'
p3007
I0
I1
tp3008
Rp3009
(I3
S'|'
p3010
NNNI1
I1
I0
tp3011
bg45
tp3012
Rp3013
sS'AORWPI5B'
p3014
g2
(g3
(S'S4'
p3015
I0
I1
tp3016
Rp3017
(I3
S'|'
p3018
NNNI4
I1
I0
tp3019
bS'MSEC'
p3020
tp3021
Rp3022
sS'4HLL2BT'
p3023
g2
(g3
(S'S4'
p3024
I0
I1
tp3025
Rp3026
(I3
S'|'
p3027
NNNI4
I1
I0
tp3028
bS'DEGF'
p3029
tp3030
Rp3031
sS'TFSPCMM'
p3032
g2
(g3
(S'S4'
p3033
I0
I1
tp3034
Rp3035
(I3
S'|'
p3036
NNNI4
I1
I0
tp3037
bS'DEGF'
p3038
tp3039
Rp3040
sS'EORTDMN19D'
p3041
g2
(g3
(S'S4'
p3042
I0
I1
tp3043
Rp3044
(I3
S'|'
p3045
NNNI4
I1
I0
tp3046
bS'DEGF'
p3047
tp3048
Rp3049
sS'4HFSPAT'
p3050
g2
(g3
(S'S4'
p3051
I0
I1
tp3052
Rp3053
(I3
S'|'
p3054
NNNI4
I1
I0
tp3055
bS'DEGF'
p3056
tp3057
Rp3058
sS'4MP5BV'
p3059
g2
(g3
(S'S3'
p3060
I0
I1
tp3061
Rp3062
(I3
S'|'
p3063
NNNI3
I1
I0
tp3064
bS'VDC'
p3065
tp3066
Rp3067
sS'3TTRALAT'
p3068
g2
(g3
(S'S4'
p3069
I0
I1
tp3070
Rp3071
(I3
S'|'
p3072
NNNI4
I1
I0
tp3073
bS'DEGC'
p3074
tp3075
Rp3076
sS'TFSPCMP'
p3077
g2
(g3
(S'S4'
p3078
I0
I1
tp3079
Rp3080
(I3
S'|'
p3081
NNNI4
I1
I0
tp3082
bS'DEGF'
p3083
tp3084
Rp3085
sS'AOACZAN5'
p3086
g2
(g3
(S'S4'
p3087
I0
I1
tp3088
Rp3089
(I3
S'|'
p3090
NNNI4
I1
I0
tp3091
bS'ASEC'
p3092
tp3093
Rp3094
sS'AOACZAN4'
p3095
g2
(g3
(S'S4'
p3096
I0
I1
tp3097
Rp3098
(I3
S'|'
p3099
NNNI4
I1
I0
tp3100
bS'ASEC'
p3101
tp3102
Rp3103
sS'AOACZAN7'
p3104
g2
(g3
(S'S4'
p3105
I0
I1
tp3106
Rp3107
(I3
S'|'
p3108
NNNI4
I1
I0
tp3109
bS'ASEC'
p3110
tp3111
Rp3112
sS'AOACZAN6'
p3113
g2
(g3
(S'S4'
p3114
I0
I1
tp3115
Rp3116
(I3
S'|'
p3117
NNNI4
I1
I0
tp3118
bS'ASEC'
p3119
tp3120
Rp3121
sS'AOACZAN1'
p3122
g2
(g3
(S'S4'
p3123
I0
I1
tp3124
Rp3125
(I3
S'|'
p3126
NNNI4
I1
I0
tp3127
bS'ASEC'
p3128
tp3129
Rp3130
sS'AOACZAN0'
p3131
g2
(g3
(S'S4'
p3132
I0
I1
tp3133
Rp3134
(I3
S'|'
p3135
NNNI4
I1
I0
tp3136
bS'ASEC'
p3137
tp3138
Rp3139
sS'AOACZAN3'
p3140
g2
(g3
(S'S4'
p3141
I0
I1
tp3142
Rp3143
(I3
S'|'
p3144
NNNI4
I1
I0
tp3145
bS'ASEC'
p3146
tp3147
Rp3148
sS'AOACZAN2'
p3149
g2
(g3
(S'S4'
p3150
I0
I1
tp3151
Rp3152
(I3
S'|'
p3153
NNNI4
I1
I0
tp3154
bS'ASEC'
p3155
tp3156
Rp3157
sS'3TTHRC2T'
p3158
g2
(g3
(S'S4'
p3159
I0
I1
tp3160
Rp3161
(I3
S'|'
p3162
NNNI4
I1
I0
tp3163
bS'DEGC'
p3164
tp3165
Rp3166
sS'EOEBCC'
p3167
g2
(g3
(S'S3'
p3168
I0
I1
tp3169
Rp3170
(I3
S'|'
p3171
NNNI3
I1
I0
tp3172
bS'AMP'
p3173
tp3174
Rp3175
sS'TCYLAFT4'
p3176
g2
(g3
(S'S4'
p3177
I0
I1
tp3178
Rp3179
(I3
S'|'
p3180
NNNI4
I1
I0
tp3181
bS'DEGF'
p3182
tp3183
Rp3184
sS'OOBTHR26'
p3185
g2
(g3
(S'S4'
p3186
I0
I1
tp3187
Rp3188
(I3
S'|'
p3189
NNNI4
I1
I0
tp3190
bS'DEGF'
p3191
tp3192
Rp3193
sS'CRXALS'
p3194
g2
(g3
(S'S3'
p3195
I0
I1
tp3196
Rp3197
(I3
S'|'
p3198
NNNI3
I1
I0
tp3199
bS'KHZ'
p3200
tp3201
Rp3202
sS'AOYABR'
p3203
g2
(g3
(S'S3'
p3204
I0
I1
tp3205
Rp3206
(I3
S'|'
p3207
NNNI3
I1
I0
tp3208
bS'RAD'
p3209
tp3210
Rp3211
sS'AOSRERR1'
p3212
g2
(g3
(S'S5'
p3213
I0
I1
tp3214
Rp3215
(I3
S'|'
p3216
NNNI5
I1
I0
tp3217
bS'RADPS'
p3218
tp3219
Rp3220
sS'AOSRERR2'
p3221
g2
(g3
(S'S5'
p3222
I0
I1
tp3223
Rp3224
(I3
S'|'
p3225
NNNI5
I1
I0
tp3226
bS'RADPS'
p3227
tp3228
Rp3229
sS'AOSRERR3'
p3230
g2
(g3
(S'S5'
p3231
I0
I1
tp3232
Rp3233
(I3
S'|'
p3234
NNNI5
I1
I0
tp3235
bS'RADPS'
p3236
tp3237
Rp3238
sS'PLAED2GT'
p3239
g2
(g3
(S'S4'
p3240
I0
I1
tp3241
Rp3242
(I3
S'|'
p3243
NNNI4
I1
I0
tp3244
bS'DEGF'
p3245
tp3246
Rp3247
sS'CXO5VOBB'
p3248
g2
(g3
(S'S1'
p3249
I0
I1
tp3250
Rp3251
(I3
S'|'
p3252
NNNI1
I1
I0
tp3253
bg45
tp3254
Rp3255
sS'AOSAEST1'
p3256
g2
(g3
(S'S3'
p3257
I0
I1
tp3258
Rp3259
(I3
S'|'
p3260
NNNI3
I1
I0
tp3261
bS'RAD'
p3262
tp3263
Rp3264
sS'1DAHACU'
p3265
g2
(g3
(S'S3'
p3266
I0
I1
tp3267
Rp3268
(I3
S'|'
p3269
NNNI3
I1
I0
tp3270
bS'AMP'
p3271
tp3272
Rp3273
sS'4RT565T'
p3274
g2
(g3
(S'S4'
p3275
I0
I1
tp3276
Rp3277
(I3
S'|'
p3278
NNNI4
I1
I0
tp3279
bS'DEGF'
p3280
tp3281
Rp3282
sS'AORWINT3'
p3283
g2
(g3
(S'S4'
p3284
I0
I1
tp3285
Rp3286
(I3
S'|'
p3287
NNNI4
I1
I0
tp3288
bS'MSEC'
p3289
tp3290
Rp3291
sS'PM3THV1T'
p3292
g2
(g3
(S'S4'
p3293
I0
I1
tp3294
Rp3295
(I3
S'|'
p3296
NNNI4
I1
I0
tp3297
bS'DEGF'
p3298
tp3299
Rp3300
sS'4LPOSBRO'
p3301
g2
(g3
(S'S3'
p3302
I0
I1
tp3303
Rp3304
(I3
S'|'
p3305
NNNI3
I1
I0
tp3306
bS'DEG'
p3307
tp3308
Rp3309
sS'AOETIMEX'
p3310
g2
(g3
(S'S3'
p3311
I0
I1
tp3312
Rp3313
(I3
S'|'
p3314
NNNI3
I1
I0
tp3315
bS'SEC'
p3316
tp3317
Rp3318
sS'4RT594T'
p3319
g2
(g3
(S'S4'
p3320
I0
I1
tp3321
Rp3322
(I3
S'|'
p3323
NNNI4
I1
I0
tp3324
bS'DEGF'
p3325
tp3326
Rp3327
sS'6SARES2'
p3328
g2
(g3
(S'S3'
p3329
I0
I1
tp3330
Rp3331
(I3
S'|'
p3332
NNNI3
I1
I0
tp3333
bS'DEG'
p3334
tp3335
Rp3336
sS'6SARES1'
p3337
g2
(g3
(S'S3'
p3338
I0
I1
tp3339
Rp3340
(I3
S'|'
p3341
NNNI3
I1
I0
tp3342
bS'DEG'
p3343
tp3344
Rp3345
sS'4RT701T'
p3346
g2
(g3
(S'S4'
p3347
I0
I1
tp3348
Rp3349
(I3
S'|'
p3350
NNNI4
I1
I0
tp3351
bS'DEGF'
p3352
tp3353
Rp3354
sS'1DEN0BVO'
p3355
g2
(g3
(S'S1'
p3356
I0
I1
tp3357
Rp3358
(I3
S'|'
p3359
NNNI1
I1
I0
tp3360
bg45
tp3361
Rp3362
sS'4IP15BV'
p3363
g2
(g3
(S'S3'
p3364
I0
I1
tp3365
Rp3366
(I3
S'|'
p3367
NNNI3
I1
I0
tp3368
bS'VDC'
p3369
tp3370
Rp3371
sS'4ALL2BT'
p3372
g2
(g3
(S'S4'
p3373
I0
I1
tp3374
Rp3375
(I3
S'|'
p3376
NNNI4
I1
I0
tp3377
bS'DEGF'
p3378
tp3379
Rp3380
sS'AORWINT6'
p3381
g2
(g3
(S'S4'
p3382
I0
I1
tp3383
Rp3384
(I3
S'|'
p3385
NNNI4
I1
I0
tp3386
bS'MSEC'
p3387
tp3388
Rp3389
sS'CIUB5V'
p3390
g2
(g3
(S'S1'
p3391
I0
I1
tp3392
Rp3393
(I3
S'|'
p3394
NNNI1
I1
I0
tp3395
bg45
tp3396
Rp3397
sS'3FAMTRAT'
p3398
g2
(g3
(S'S4'
p3399
I0
I1
tp3400
Rp3401
(I3
S'|'
p3402
NNNI4
I1
I0
tp3403
bS'DEGC'
p3404
tp3405
Rp3406
sS'OOBTHR19'
p3407
g2
(g3
(S'S4'
p3408
I0
I1
tp3409
Rp3410
(I3
S'|'
p3411
NNNI4
I1
I0
tp3412
bS'DEGF'
p3413
tp3414
Rp3415
sS'CTUA15V'
p3416
g2
(g3
(S'S1'
p3417
I0
I1
tp3418
Rp3419
(I3
S'|'
p3420
NNNI1
I1
I0
tp3421
bg45
tp3422
Rp3423
sS'4CSDHBV'
p3424
g2
(g3
(S'S3'
p3425
I0
I1
tp3426
Rp3427
(I3
S'|'
p3428
NNNI3
I1
I0
tp3429
bS'VDC'
p3430
tp3431
Rp3432
sS'AFLC10BI'
p3433
g2
(g3
(S'S4'
p3434
I0
I1
tp3435
Rp3436
(I3
S'|'
p3437
NNNI4
I1
I0
tp3438
bS'MAMP'
p3439
tp3440
Rp3441
sS'PLAED2ET'
p3442
g2
(g3
(S'S4'
p3443
I0
I1
tp3444
Rp3445
(I3
S'|'
p3446
NNNI4
I1
I0
tp3447
bS'DEGF'
p3448
tp3449
Rp3450
sS'CSSR1CAV'
p3451
g2
(g3
(S'S1'
p3452
I0
I1
tp3453
Rp3454
(I3
S'|'
p3455
NNNI1
I1
I0
tp3456
bg45
tp3457
Rp3458
sS'TMP_BEP_OSC'
p3459
g299
sS'AOINTTIM'
p3460
g2
(g3
(S'S3'
p3461
I0
I1
tp3462
Rp3463
(I3
S'|'
p3464
NNNI3
I1
I0
tp3465
bS'SEC'
p3466
tp3467
Rp3468
sS'3TTBRGBT'
p3469
g2
(g3
(S'S4'
p3470
I0
I1
tp3471
Rp3472
(I3
S'|'
p3473
NNNI4
I1
I0
tp3474
bS'DEGC'
p3475
tp3476
Rp3477
sS'EOESAC2C'
p3478
g2
(g3
(S'S3'
p3479
I0
I1
tp3480
Rp3481
(I3
S'|'
p3482
NNNI3
I1
I0
tp3483
bS'AMP'
p3484
tp3485
Rp3486
sS'AORWINT1'
p3487
g2
(g3
(S'S4'
p3488
I0
I1
tp3489
Rp3490
(I3
S'|'
p3491
NNNI4
I1
I0
tp3492
bS'MSEC'
p3493
tp3494
Rp3495
sS'AORWINT2'
p3496
g2
(g3
(S'S4'
p3497
I0
I1
tp3498
Rp3499
(I3
S'|'
p3500
NNNI4
I1
I0
tp3501
bS'MSEC'
p3502
tp3503
Rp3504
sS'4IP5AV'
p3505
g2
(g3
(S'S3'
p3506
I0
I1
tp3507
Rp3508
(I3
S'|'
p3509
NNNI3
I1
I0
tp3510
bS'VDC'
p3511
tp3512
Rp3513
sS'AORWINT4'
p3514
g2
(g3
(S'S4'
p3515
I0
I1
tp3516
Rp3517
(I3
S'|'
p3518
NNNI4
I1
I0
tp3519
bS'MSEC'
p3520
tp3521
Rp3522
sS'1DACTAT'
p3523
g2
(g3
(S'S3'
p3524
I0
I1
tp3525
Rp3526
(I3
S'|'
p3527
NNNI3
I1
I0
tp3528
bS'DEG'
p3529
tp3530
Rp3531
sS'4RT557T'
p3532
g2
(g3
(S'S4'
p3533
I0
I1
tp3534
Rp3535
(I3
S'|'
p3536
NNNI4
I1
I0
tp3537
bS'DEGF'
p3538
tp3539
Rp3540
sS'AFLCA4AI'
p3541
g2
(g3
(S'S4'
p3542
I0
I1
tp3543
Rp3544
(I3
S'|'
p3545
NNNI4
I1
I0
tp3546
bS'MAMP'
p3547
tp3548
Rp3549
sS'OOBTHR15'
p3550
g2
(g3
(S'S4'
p3551
I0
I1
tp3552
Rp3553
(I3
S'|'
p3554
NNNI4
I1
I0
tp3555
bS'DEGF'
p3556
tp3557
Rp3558
sS'4SP51V'
p3559
g2
(g3
(S'S3'
p3560
I0
I1
tp3561
Rp3562
(I3
S'|'
p3563
NNNI3
I1
I0
tp3564
bS'VDC'
p3565
tp3566
Rp3567
sS'EORTDMN25D'
p3568
g2
(g3
(S'S4'
p3569
I0
I1
tp3570
Rp3571
(I3
S'|'
p3572
NNNI4
I1
I0
tp3573
bS'DEGF'
p3574
tp3575
Rp3576
sS'PLAED2CT'
p3577
g2
(g3
(S'S4'
p3578
I0
I1
tp3579
Rp3580
(I3
S'|'
p3581
NNNI4
I1
I0
tp3582
bS'DEGF'
p3583
tp3584
Rp3585
sS'4RT577T'
p3586
g2
(g3
(S'S4'
p3587
I0
I1
tp3588
Rp3589
(I3
S'|'
p3590
NNNI4
I1
I0
tp3591
bS'DEGF'
p3592
tp3593
Rp3594
sS'4IN15AV'
p3595
g2
(g3
(S'S3'
p3596
I0
I1
tp3597
Rp3598
(I3
S'|'
p3599
NNNI3
I1
I0
tp3600
bS'VDC'
p3601
tp3602
Rp3603
sS'C10VREFA'
p3604
g2
(g3
(S'S3'
p3605
I0
I1
tp3606
Rp3607
(I3
S'|'
p3608
NNNI3
I1
I0
tp3609
bS'VDC'
p3610
tp3611
Rp3612
sS'EOEB2VC'
p3613
g2
(g3
(S'S1'
p3614
I0
I1
tp3615
Rp3616
(I3
S'|'
p3617
NNNI1
I1
I0
tp3618
bg45
tp3619
Rp3620
sS'4PRT3BT'
p3621
g2
(g3
(S'S4'
p3622
I0
I1
tp3623
Rp3624
(I3
S'|'
p3625
NNNI4
I1
I0
tp3626
bS'DEGF'
p3627
tp3628
Rp3629
sS'AWD1CV5V'
p3630
g2
(g3
(S'S1'
p3631
I0
I1
tp3632
Rp3633
(I3
S'|'
p3634
NNNI1
I1
I0
tp3635
bg45
tp3636
Rp3637
sS'PMTANK3T'
p3638
g2
(g3
(S'S4'
p3639
I0
I1
tp3640
Rp3641
(I3
S'|'
p3642
NNNI4
I1
I0
tp3643
bS'DEGF'
p3644
tp3645
Rp3646
sS'AFLCA8BI'
p3647
g2
(g3
(S'S4'
p3648
I0
I1
tp3649
Rp3650
(I3
S'|'
p3651
NNNI4
I1
I0
tp3652
bS'MAMP'
p3653
tp3654
Rp3655
sS'PLAED1DT'
p3656
g2
(g3
(S'S4'
p3657
I0
I1
tp3658
Rp3659
(I3
S'|'
p3660
NNNI4
I1
I0
tp3661
bS'DEGF'
p3662
tp3663
Rp3664
sS'ARWA3BT'
p3665
g2
(g3
(S'S4'
p3666
I0
I1
tp3667
Rp3668
(I3
S'|'
p3669
NNNI4
I1
I0
tp3670
bS'DEGF'
p3671
tp3672
Rp3673
sS'AOACINTT'
p3674
g2
(g3
(S'S4'
p3675
I0
I1
tp3676
Rp3677
(I3
S'|'
p3678
NNNI4
I1
I0
tp3679
bS'MSEC'
p3680
tp3681
Rp3682
sS'OHRTHR63'
p3683
g2
(g3
(S'S4'
p3684
I0
I1
tp3685
Rp3686
(I3
S'|'
p3687
NNNI4
I1
I0
tp3688
bS'DEGF'
p3689
tp3690
Rp3691
sS'3BTU_BPT'
p3692
g2
(g3
(S'S4'
p3693
I0
I1
tp3694
Rp3695
(I3
S'|'
p3696
NNNI4
I1
I0
tp3697
bS'DEGC'
p3698
tp3699
Rp3700
sS'OHRTHR61'
p3701
g2
(g3
(S'S4'
p3702
I0
I1
tp3703
Rp3704
(I3
S'|'
p3705
NNNI4
I1
I0
tp3706
bS'DEGF'
p3707
tp3708
Rp3709
sS'C10VREFB'
p3710
g2
(g3
(S'S3'
p3711
I0
I1
tp3712
Rp3713
(I3
S'|'
p3714
NNNI3
I1
I0
tp3715
bS'VDC'
p3716
tp3717
Rp3718
sS'AOSYMOM3'
p3719
g2
(g3
(S'S7'
p3720
I0
I1
tp3721
Rp3722
(I3
S'|'
p3723
NNNI7
I1
I0
tp3724
bS'FTLBSEC'
p3725
tp3726
Rp3727
sS'AOSYMOM2'
p3728
g2
(g3
(S'S7'
p3729
I0
I1
tp3730
Rp3731
(I3
S'|'
p3732
NNNI7
I1
I0
tp3733
bS'FTLBSEC'
p3734
tp3735
Rp3736
sS'6BETANG'
p3737
g2
(g3
(S'S3'
p3738
I0
I1
tp3739
Rp3740
(I3
S'|'
p3741
NNNI3
I1
I0
tp3742
bS'DEG'
p3743
tp3744
Rp3745
sS'EOEBCC_LOW'
p3746
g2
(g3
(S'S3'
p3747
I0
I1
tp3748
Rp3749
(I3
S'|'
p3750
NNNI3
I1
I0
tp3751
bS'AMP'
p3752
tp3753
Rp3754
sS'AFLCA2AI'
p3755
g2
(g3
(S'S4'
p3756
I0
I1
tp3757
Rp3758
(I3
S'|'
p3759
NNNI4
I1
I0
tp3760
bS'MAMP'
p3761
tp3762
Rp3763
sS'1OAHBT'
p3764
g2
(g3
(S'S4'
p3765
I0
I1
tp3766
Rp3767
(I3
S'|'
p3768
NNNI4
I1
I0
tp3769
bS'DEGC'
p3770
tp3771
Rp3772
sS'TCYLAFT1'
p3773
g2
(g3
(S'S4'
p3774
I0
I1
tp3775
Rp3776
(I3
S'|'
p3777
NNNI4
I1
I0
tp3778
bS'DEGF'
p3779
tp3780
Rp3781
sS'1DAHBCU'
p3782
g2
(g3
(S'S3'
p3783
I0
I1
tp3784
Rp3785
(I3
S'|'
p3786
NNNI3
I1
I0
tp3787
bS'AMP'
p3788
tp3789
Rp3790
sS'PLAEV1AT'
p3791
g2
(g3
(S'S4'
p3792
I0
I1
tp3793
Rp3794
(I3
S'|'
p3795
NNNI4
I1
I0
tp3796
bS'DEGF'
p3797
tp3798
Rp3799
sS'PMFP01T'
p3800
g2
(g3
(S'S4'
p3801
I0
I1
tp3802
Rp3803
(I3
S'|'
p3804
NNNI4
I1
I0
tp3805
bS'DEGF'
p3806
tp3807
Rp3808
sS'AFLCA5BI'
p3809
g2
(g3
(S'S4'
p3810
I0
I1
tp3811
Rp3812
(I3
S'|'
p3813
NNNI4
I1
I0
tp3814
bS'MAMP'
p3815
tp3816
Rp3817
sS'ECNV3V'
p3818
g2
(g3
(S'S1'
p3819
I0
I1
tp3820
Rp3821
(I3
S'|'
p3822
NNNI1
I1
I0
tp3823
bg45
tp3824
Rp3825
sS'PLINE15T'
p3826
g2
(g3
(S'S4'
p3827
I0
I1
tp3828
Rp3829
(I3
S'|'
p3830
NNNI4
I1
I0
tp3831
bS'DEGF'
p3832
tp3833
Rp3834
sS'4RT583T'
p3835
g2
(g3
(S'S4'
p3836
I0
I1
tp3837
Rp3838
(I3
S'|'
p3839
NNNI4
I1
I0
tp3840
bS'DEGF'
p3841
tp3842
Rp3843
sS'AIOAP5CV'
p3844
g2
(g3
(S'S1'
p3845
I0
I1
tp3846
Rp3847
(I3
S'|'
p3848
NNNI1
I1
I0
tp3849
bg45
tp3850
Rp3851
sS'TFSPRWC'
p3852
g2
(g3
(S'S4'
p3853
I0
I1
tp3854
Rp3855
(I3
S'|'
p3856
NNNI4
I1
I0
tp3857
bS'DEGF'
p3858
tp3859
Rp3860
sS'4RT593T'
p3861
g2
(g3
(S'S4'
p3862
I0
I1
tp3863
Rp3864
(I3
S'|'
p3865
NNNI4
I1
I0
tp3866
bS'DEGF'
p3867
tp3868
Rp3869
sS'TATECDRT'
p3870
g2
(g3
(S'S4'
p3871
I0
I1
tp3872
Rp3873
(I3
S'|'
p3874
NNNI4
I1
I0
tp3875
bS'DEGF'
p3876
tp3877
Rp3878
sS'4RT559T'
p3879
g2
(g3
(S'S4'
p3880
I0
I1
tp3881
Rp3882
(I3
S'|'
p3883
NNNI4
I1
I0
tp3884
bS'DEGF'
p3885
tp3886
Rp3887
sS'TSCTSF1'
p3888
g2
(g3
(S'S4'
p3889
I0
I1
tp3890
Rp3891
(I3
S'|'
p3892
NNNI4
I1
I0
tp3893
bS'DEGF'
p3894
tp3895
Rp3896
sS'TSCTSF2'
p3897
g2
(g3
(S'S4'
p3898
I0
I1
tp3899
Rp3900
(I3
S'|'
p3901
NNNI4
I1
I0
tp3902
bS'DEGF'
p3903
tp3904
Rp3905
sS'TSCTSF3'
p3906
g2
(g3
(S'S4'
p3907
I0
I1
tp3908
Rp3909
(I3
S'|'
p3910
NNNI4
I1
I0
tp3911
bS'DEGF'
p3912
tp3913
Rp3914
sS'TSCTSF4'
p3915
g2
(g3
(S'S4'
p3916
I0
I1
tp3917
Rp3918
(I3
S'|'
p3919
NNNI4
I1
I0
tp3920
bS'DEGF'
p3921
tp3922
Rp3923
sS'TSCTSF5'
p3924
g2
(g3
(S'S4'
p3925
I0
I1
tp3926
Rp3927
(I3
S'|'
p3928
NNNI4
I1
I0
tp3929
bS'DEGF'
p3930
tp3931
Rp3932
sS'4PRT5BT'
p3933
g2
(g3
(S'S4'
p3934
I0
I1
tp3935
Rp3936
(I3
S'|'
p3937
NNNI4
I1
I0
tp3938
bS'DEGF'
p3939
tp3940
Rp3941
sS'AFLCA6BI'
p3942
g2
(g3
(S'S4'
p3943
I0
I1
tp3944
Rp3945
(I3
S'|'
p3946
NNNI4
I1
I0
tp3947
bS'MAMP'
p3948
tp3949
Rp3950
sS'TCM_RFAS'
p3951
g2
(g3
(S'S4'
p3952
I0
I1
tp3953
Rp3954
(I3
S'|'
p3955
NNNI4
I1
I0
tp3956
bS'DEGF'
p3957
tp3958
Rp3959
sS'PLAED4ET'
p3960
g2
(g3
(S'S4'
p3961
I0
I1
tp3962
Rp3963
(I3
S'|'
p3964
NNNI4
I1
I0
tp3965
bS'DEGF'
p3966
tp3967
Rp3968
sS'3FAFLBAT'
p3969
g2
(g3
(S'S4'
p3970
I0
I1
tp3971
Rp3972
(I3
S'|'
p3973
NNNI4
I1
I0
tp3974
bS'DEGC'
p3975
tp3976
Rp3977
sS'6SARATC2'
p3978
g2
(g3
(S'S5'
p3979
I0
I1
tp3980
Rp3981
(I3
S'|'
p3982
NNNI5
I1
I0
tp3983
bS'RADPS'
p3984
tp3985
Rp3986
sS'1DEICACU'
p3987
g2
(g3
(S'S3'
p3988
I0
I1
tp3989
Rp3990
(I3
S'|'
p3991
NNNI3
I1
I0
tp3992
bS'AMP'
p3993
tp3994
Rp3995
sS'6SARATC1'
p3996
g2
(g3
(S'S5'
p3997
I0
I1
tp3998
Rp3999
(I3
S'|'
p4000
NNNI5
I1
I0
tp4001
bS'RADPS'
p4002
tp4003
Rp4004
sS'1MAHCAT'
p4005
g2
(g3
(S'S4'
p4006
I0
I1
tp4007
Rp4008
(I3
S'|'
p4009
NNNI4
I1
I0
tp4010
bS'DEGC'
p4011
tp4012
Rp4013
sS'PR3TV02T'
p4014
g2
(g3
(S'S4'
p4015
I0
I1
tp4016
Rp4017
(I3
S'|'
p4018
NNNI4
I1
I0
tp4019
bS'DEGF'
p4020
tp4021
Rp4022
sS'3TSPZSPT'
p4023
g2
(g3
(S'S4'
p4024
I0
I1
tp4025
Rp4026
(I3
S'|'
p4027
NNNI4
I1
I0
tp4028
bS'DEGC'
p4029
tp4030
Rp4031
sS'1DEP3BVO'
p4032
g2
(g3
(S'S1'
p4033
I0
I1
tp4034
Rp4035
(I3
S'|'
p4036
NNNI1
I1
I0
tp4037
bg45
tp4038
Rp4039
sS'AOAVGDTQ'
p4040
g2
(g3
(S'S4'
p4041
I0
I1
tp4042
Rp4043
(I3
S'|'
p4044
NNNI4
I1
I0
tp4045
bS'FTLB'
p4046
tp4047
Rp4048
sS'CXO5VOBA'
p4049
g2
(g3
(S'S1'
p4050
I0
I1
tp4051
Rp4052
(I3
S'|'
p4053
NNNI1
I1
I0
tp4054
bg45
tp4055
Rp4056
sS'EORTDMN17D'
p4057
g2
(g3
(S'S4'
p4058
I0
I1
tp4059
Rp4060
(I3
S'|'
p4061
NNNI4
I1
I0
tp4062
bS'DEGF'
p4063
tp4064
Rp4065
sS'PLAED4BT'
p4066
g2
(g3
(S'S4'
p4067
I0
I1
tp4068
Rp4069
(I3
S'|'
p4070
NNNI4
I1
I0
tp4071
bS'DEGF'
p4072
tp4073
Rp4074
sS'ADE1P5CV'
p4075
g2
(g3
(S'S1'
p4076
I0
I1
tp4077
Rp4078
(I3
S'|'
p4079
NNNI1
I1
I0
tp4080
bg45
tp4081
Rp4082
sS'TFSPPCU'
p4083
g2
(g3
(S'S4'
p4084
I0
I1
tp4085
Rp4086
(I3
S'|'
p4087
NNNI4
I1
I0
tp4088
bS'DEGF'
p4089
tp4090
Rp4091
sS'4RT560T'
p4092
g2
(g3
(S'S4'
p4093
I0
I1
tp4094
Rp4095
(I3
S'|'
p4096
NNNI4
I1
I0
tp4097
bS'DEGF'
p4098
tp4099
Rp4100
sS'AORESZ7'
p4101
g2
(g3
(S'S3'
p4102
I0
I1
tp4103
Rp4104
(I3
S'|'
p4105
NNNI3
I1
I0
tp4106
bS'RAD'
p4107
tp4108
Rp4109
sS'6RWSPD3'
p4110
g2
(g3
(S'S5'
p4111
I0
I1
tp4112
Rp4113
(I3
S'|'
p4114
NNNI5
I1
I0
tp4115
bS'RADPS'
p4116
tp4117
Rp4118
sS'6RWSPD2'
p4119
g2
(g3
(S'S5'
p4120
I0
I1
tp4121
Rp4122
(I3
S'|'
p4123
NNNI5
I1
I0
tp4124
bS'RADPS'
p4125
tp4126
Rp4127
sS'6RWSPD5'
p4128
g2
(g3
(S'S5'
p4129
I0
I1
tp4130
Rp4131
(I3
S'|'
p4132
NNNI5
I1
I0
tp4133
bS'RADPS'
p4134
tp4135
Rp4136
sS'6RWSPD4'
p4137
g2
(g3
(S'S5'
p4138
I0
I1
tp4139
Rp4140
(I3
S'|'
p4141
NNNI5
I1
I0
tp4142
bS'RADPS'
p4143
tp4144
Rp4145
sS'6RWSPD6'
p4146
g2
(g3
(S'S5'
p4147
I0
I1
tp4148
Rp4149
(I3
S'|'
p4150
NNNI5
I1
I0
tp4151
bS'RADPS'
p4152
tp4153
Rp4154
sS'1MAHOAT'
p4155
g2
(g3
(S'S4'
p4156
I0
I1
tp4157
Rp4158
(I3
S'|'
p4159
NNNI4
I1
I0
tp4160
bS'DEGC'
p4161
tp4162
Rp4163
sS'AFLCA7AI'
p4164
g2
(g3
(S'S4'
p4165
I0
I1
tp4166
Rp4167
(I3
S'|'
p4168
NNNI4
I1
I0
tp4169
bS'MAMP'
p4170
tp4171
Rp4172
sS'EB2DI'
p4173
g2
(g3
(S'S3'
p4174
I0
I1
tp4175
Rp4176
(I3
S'|'
p4177
NNNI3
I1
I0
tp4178
bS'AMP'
p4179
tp4180
Rp4181
sS'EORTDMN24D'
p4182
g2
(g3
(S'S4'
p4183
I0
I1
tp4184
Rp4185
(I3
S'|'
p4186
NNNI4
I1
I0
tp4187
bS'DEGF'
p4188
tp4189
Rp4190
sS'TRSPRWBB'
p4191
g2
(g3
(S'S4'
p4192
I0
I1
tp4193
Rp4194
(I3
S'|'
p4195
NNNI4
I1
I0
tp4196
bS'DEGF'
p4197
tp4198
Rp4199
sS'TRSPRWBC'
p4200
g2
(g3
(S'S4'
p4201
I0
I1
tp4202
Rp4203
(I3
S'|'
p4204
NNNI4
I1
I0
tp4205
bS'DEGF'
p4206
tp4207
Rp4208
sS'FPTEMP_11'
p4209
g299
sS'FPTEMP_12'
p4210
g299
sS'AORWPI1B'
p4211
g2
(g3
(S'S4'
p4212
I0
I1
tp4213
Rp4214
(I3
S'|'
p4215
NNNI4
I1
I0
tp4216
bS'MSEC'
p4217
tp4218
Rp4219
sS'EB1DI'
p4220
g2
(g3
(S'S3'
p4221
I0
I1
tp4222
Rp4223
(I3
S'|'
p4224
NNNI3
I1
I0
tp4225
bS'AMP'
p4226
tp4227
Rp4228
sS'PLAED3FT'
p4229
g2
(g3
(S'S4'
p4230
I0
I1
tp4231
Rp4232
(I3
S'|'
p4233
NNNI4
I1
I0
tp4234
bS'DEGF'
p4235
tp4236
Rp4237
sS'AFLCA3AI'
p4238
g2
(g3
(S'S4'
p4239
I0
I1
tp4240
Rp4241
(I3
S'|'
p4242
NNNI4
I1
I0
tp4243
bS'MAMP'
p4244
tp4245
Rp4246
sS'AFSSPC1V'
p4247
g2
(g3
(S'S1'
p4248
I0
I1
tp4249
Rp4250
(I3
S'|'
p4251
NNNI1
I1
I0
tp4252
bg45
tp4253
Rp4254
sS'TSCIUSF2'
p4255
g2
(g3
(S'S4'
p4256
I0
I1
tp4257
Rp4258
(I3
S'|'
p4259
NNNI4
I1
I0
tp4260
bS'DEGF'
p4261
tp4262
Rp4263
sS'TSCIUSF5'
p4264
g2
(g3
(S'S4'
p4265
I0
I1
tp4266
Rp4267
(I3
S'|'
p4268
NNNI4
I1
I0
tp4269
bS'DEGF'
p4270
tp4271
Rp4272
sS'AVD1CV5V'
p4273
g2
(g3
(S'S1'
p4274
I0
I1
tp4275
Rp4276
(I3
S'|'
p4277
NNNI1
I1
I0
tp4278
bg45
tp4279
Rp4280
sS'TSCIUSF8'
p4281
g2
(g3
(S'S4'
p4282
I0
I1
tp4283
Rp4284
(I3
S'|'
p4285
NNNI4
I1
I0
tp4286
bS'DEGF'
p4287
tp4288
Rp4289
sS'1HOPRAPR'
p4290
g2
(g3
(S'S4'
p4291
I0
I1
tp4292
Rp4293
(I3
S'|'
p4294
NNNI4
I1
I0
tp4295
bS'TORR'
p4296
tp4297
Rp4298
sS'ADE2P5CV'
p4299
g2
(g3
(S'S1'
p4300
I0
I1
tp4301
Rp4302
(I3
S'|'
p4303
NNNI1
I1
I0
tp4304
bg45
tp4305
Rp4306
sS'TASPPCP'
p4307
g2
(g3
(S'S4'
p4308
I0
I1
tp4309
Rp4310
(I3
S'|'
p4311
NNNI4
I1
I0
tp4312
bS'DEGF'
p4313
tp4314
Rp4315
sS'3TTACS3T'
p4316
g2
(g3
(S'S4'
p4317
I0
I1
tp4318
Rp4319
(I3
S'|'
p4320
NNNI4
I1
I0
tp4321
bS'DEGC'
p4322
tp4323
Rp4324
sS'CTSA15V'
p4325
g2
(g3
(S'S1'
p4326
I0
I1
tp4327
Rp4328
(I3
S'|'
p4329
NNNI1
I1
I0
tp4330
bg45
tp4331
Rp4332
sS'PFDM102T'
p4333
g2
(g3
(S'S4'
p4334
I0
I1
tp4335
Rp4336
(I3
S'|'
p4337
NNNI4
I1
I0
tp4338
bS'DEGF'
p4339
tp4340
Rp4341
sS'PFDM202T'
p4342
g2
(g3
(S'S4'
p4343
I0
I1
tp4344
Rp4345
(I3
S'|'
p4346
NNNI4
I1
I0
tp4347
bS'DEGF'
p4348
tp4349
Rp4350
sS'4MP28AV'
p4351
g2
(g3
(S'S3'
p4352
I0
I1
tp4353
Rp4354
(I3
S'|'
p4355
NNNI3
I1
I0
tp4356
bS'VDC'
p4357
tp4358
Rp4359
sS'4RT586T'
p4360
g2
(g3
(S'S4'
p4361
I0
I1
tp4362
Rp4363
(I3
S'|'
p4364
NNNI4
I1
I0
tp4365
bS'DEGF'
p4366
tp4367
Rp4368
sS'TEP_PSU1'
p4369
g2
(g3
(S'S4'
p4370
I0
I1
tp4371
Rp4372
(I3
S'|'
p4373
NNNI4
I1
I0
tp4374
bS'DEGF'
p4375
tp4376
Rp4377
sS'CPA2V'
p4378
g2
(g3
(S'S1'
p4379
I0
I1
tp4380
Rp4381
(I3
S'|'
p4382
NNNI1
I1
I0
tp4383
bg45
tp4384
Rp4385
sS'PXDM01T'
p4386
g2
(g3
(S'S4'
p4387
I0
I1
tp4388
Rp4389
(I3
S'|'
p4390
NNNI4
I1
I0
tp4391
bS'DEGF'
p4392
tp4393
Rp4394
sS'OOBTHR37'
p4395
g2
(g3
(S'S4'
p4396
I0
I1
tp4397
Rp4398
(I3
S'|'
p4399
NNNI4
I1
I0
tp4400
bS'DEGF'
p4401
tp4402
Rp4403
sS'OOBTHR36'
p4404
g2
(g3
(S'S4'
p4405
I0
I1
tp4406
Rp4407
(I3
S'|'
p4408
NNNI4
I1
I0
tp4409
bS'DEGF'
p4410
tp4411
Rp4412
sS'OOBTHR35'
p4413
g2
(g3
(S'S4'
p4414
I0
I1
tp4415
Rp4416
(I3
S'|'
p4417
NNNI4
I1
I0
tp4418
bS'DEGF'
p4419
tp4420
Rp4421
sS'4RT705T'
p4422
g2
(g3
(S'S4'
p4423
I0
I1
tp4424
Rp4425
(I3
S'|'
p4426
NNNI4
I1
I0
tp4427
bS'DEGF'
p4428
tp4429
Rp4430
sS'CUSOBIT'
p4431
g2
(g3
(S'S4'
p4432
I0
I1
tp4433
Rp4434
(I3
S'|'
p4435
NNNI4
I1
I0
tp4436
bS'DEGF'
p4437
tp4438
Rp4439
sS'6SUNER1'
p4440
g2
(g3
(S'S3'
p4441
I0
I1
tp4442
Rp4443
(I3
S'|'
p4444
NNNI3
I1
I0
tp4445
bS'RAD'
p4446
tp4447
Rp4448
sS'6SUNER2'
p4449
g2
(g3
(S'S3'
p4450
I0
I1
tp4451
Rp4452
(I3
S'|'
p4453
NNNI3
I1
I0
tp4454
bS'RAD'
p4455
tp4456
Rp4457
sS'6SUNER3'
p4458
g2
(g3
(S'S3'
p4459
I0
I1
tp4460
Rp4461
(I3
S'|'
p4462
NNNI3
I1
I0
tp4463
bS'RAD'
p4464
tp4465
Rp4466
sS'AOSYMOM1'
p4467
g2
(g3
(S'S7'
p4468
I0
I1
tp4469
Rp4470
(I3
S'|'
p4471
NNNI7
I1
I0
tp4472
bS'FTLBSEC'
p4473
tp4474
Rp4475
sS'OOBTHR39'
p4476
g2
(g3
(S'S4'
p4477
I0
I1
tp4478
Rp4479
(I3
S'|'
p4480
NNNI4
I1
I0
tp4481
bS'DEGF'
p4482
tp4483
Rp4484
sS'OOBTHR38'
p4485
g2
(g3
(S'S4'
p4486
I0
I1
tp4487
Rp4488
(I3
S'|'
p4489
NNNI4
I1
I0
tp4490
bS'DEGF'
p4491
tp4492
Rp4493
sS'2P24VBVL'
p4494
g2
(g3
(S'S3'
p4495
I0
I1
tp4496
Rp4497
(I3
S'|'
p4498
NNNI3
I1
I0
tp4499
bS'VDC'
p4500
tp4501
Rp4502
sS'AIRU2G2T'
p4503
g2
(g3
(S'S4'
p4504
I0
I1
tp4505
Rp4506
(I3
S'|'
p4507
NNNI4
I1
I0
tp4508
bS'DEGF'
p4509
tp4510
Rp4511
sS'AWD3TQI'
p4512
g2
(g3
(S'S3'
p4513
I0
I1
tp4514
Rp4515
(I3
S'|'
p4516
NNNI3
I1
I0
tp4517
bS'AMP'
p4518
tp4519
Rp4520
sS'1DEP3AVO'
p4521
g2
(g3
(S'S1'
p4522
I0
I1
tp4523
Rp4524
(I3
S'|'
p4525
NNNI1
I1
I0
tp4526
bg45
tp4527
Rp4528
sS'AIRU1G2T'
p4529
g2
(g3
(S'S4'
p4530
I0
I1
tp4531
Rp4532
(I3
S'|'
p4533
NNNI4
I1
I0
tp4534
bS'DEGF'
p4535
tp4536
Rp4537
sS'TPC_CEA'
p4538
g2
(g3
(S'S4'
p4539
I0
I1
tp4540
Rp4541
(I3
S'|'
p4542
NNNI4
I1
I0
tp4543
bS'DEGF'
p4544
tp4545
Rp4546
sS'AIRU1G2I'
p4547
g2
(g3
(S'S4'
p4548
I0
I1
tp4549
Rp4550
(I3
S'|'
p4551
NNNI4
I1
I0
tp4552
bS'MAMP'
p4553
tp4554
Rp4555
sS'PM2THV2T'
p4556
g2
(g3
(S'S4'
p4557
I0
I1
tp4558
Rp4559
(I3
S'|'
p4560
NNNI4
I1
I0
tp4561
bS'DEGF'
p4562
tp4563
Rp4564
sS'OOBTHR08'
p4565
g2
(g3
(S'S4'
p4566
I0
I1
tp4567
Rp4568
(I3
S'|'
p4569
NNNI4
I1
I0
tp4570
bS'DEGF'
p4571
tp4572
Rp4573
sS'AVACMONV'
p4574
g2
(g3
(S'S1'
p4575
I0
I1
tp4576
Rp4577
(I3
S'|'
p4578
NNNI1
I1
I0
tp4579
bg45
tp4580
Rp4581
sS'4RT590T'
p4582
g2
(g3
(S'S4'
p4583
I0
I1
tp4584
Rp4585
(I3
S'|'
p4586
NNNI4
I1
I0
tp4587
bS'DEGF'
p4588
tp4589
Rp4590
sS'TCYLAFT6'
p4591
g2
(g3
(S'S4'
p4592
I0
I1
tp4593
Rp4594
(I3
S'|'
p4595
NNNI4
I1
I0
tp4596
bS'DEGF'
p4597
tp4598
Rp4599
sS'TEP_PSU2'
p4600
g2
(g3
(S'S4'
p4601
I0
I1
tp4602
Rp4603
(I3
S'|'
p4604
NNNI4
I1
I0
tp4605
bS'DEGF'
p4606
tp4607
Rp4608
sS'OOBTHR25'
p4609
g2
(g3
(S'S4'
p4610
I0
I1
tp4611
Rp4612
(I3
S'|'
p4613
NNNI4
I1
I0
tp4614
bS'DEGF'
p4615
tp4616
Rp4617
sS'1OAHAT'
p4618
g2
(g3
(S'S4'
p4619
I0
I1
tp4620
Rp4621
(I3
S'|'
p4622
NNNI4
I1
I0
tp4623
bS'DEGC'
p4624
tp4625
Rp4626
sS'AHKNATPR'
p4627
g2
(g3
(S'S1'
p4628
I0
I1
tp4629
Rp4630
(I3
S'|'
p4631
NNNI1
I1
I0
tp4632
bg45
tp4633
Rp4634
sS'ASPEFSW4B'
p4635
g2
(g3
(S'S3'
p4636
I0
I1
tp4637
Rp4638
(I3
S'|'
p4639
NNNI3
I1
I0
tp4640
bS'DEG'
p4641
tp4642
Rp4643
sS'ARWA4BT'
p4644
g2
(g3
(S'S4'
p4645
I0
I1
tp4646
Rp4647
(I3
S'|'
p4648
NNNI4
I1
I0
tp4649
bS'DEGF'
p4650
tp4651
Rp4652
sS'PLAED4IT'
p4653
g2
(g3
(S'S4'
p4654
I0
I1
tp4655
Rp4656
(I3
S'|'
p4657
NNNI4
I1
I0
tp4658
bS'DEGF'
p4659
tp4660
Rp4661
sS'AOMANRT'
p4662
g2
(g3
(S'S5'
p4663
I0
I1
tp4664
Rp4665
(I3
S'|'
p4666
NNNI5
I1
I0
tp4667
bS'RADPS'
p4668
tp4669
Rp4670
sS'AOCSSI1'
p4671
g2
(g3
(S'S4'
p4672
I0
I1
tp4673
Rp4674
(I3
S'|'
p4675
NNNI4
I1
I0
tp4676
bS'MAMP'
p4677
tp4678
Rp4679
sS'TPC_DEA'
p4680
g2
(g3
(S'S4'
p4681
I0
I1
tp4682
Rp4683
(I3
S'|'
p4684
NNNI4
I1
I0
tp4685
bS'DEGF'
p4686
tp4687
Rp4688
sS'AOCSSI3'
p4689
g2
(g3
(S'S4'
p4690
I0
I1
tp4691
Rp4692
(I3
S'|'
p4693
NNNI4
I1
I0
tp4694
bS'MAMP'
p4695
tp4696
Rp4697
sS'AIRU2G1T'
p4698
g2
(g3
(S'S4'
p4699
I0
I1
tp4700
Rp4701
(I3
S'|'
p4702
NNNI4
I1
I0
tp4703
bS'DEGF'
p4704
tp4705
Rp4706
sS'AOCSSI4'
p4707
g2
(g3
(S'S4'
p4708
I0
I1
tp4709
Rp4710
(I3
S'|'
p4711
NNNI4
I1
I0
tp4712
bS'MAMP'
p4713
tp4714
Rp4715
sS'AIRU2G1I'
p4716
g2
(g3
(S'S4'
p4717
I0
I1
tp4718
Rp4719
(I3
S'|'
p4720
NNNI4
I1
I0
tp4721
bS'MAMP'
p4722
tp4723
Rp4724
sS'CTUB15V'
p4725
g2
(g3
(S'S1'
p4726
I0
I1
tp4727
Rp4728
(I3
S'|'
p4729
NNNI1
I1
I0
tp4730
bg45
tp4731
Rp4732
sS'1VAHCAT'
p4733
g2
(g3
(S'S4'
p4734
I0
I1
tp4735
Rp4736
(I3
S'|'
p4737
NNNI4
I1
I0
tp4738
bS'DEGC'
p4739
tp4740
Rp4741
sS'TB3T2'
p4742
g2
(g3
(S'S4'
p4743
I0
I1
tp4744
Rp4745
(I3
S'|'
p4746
NNNI4
I1
I0
tp4747
bS'DEGF'
p4748
tp4749
Rp4750
sS'TB3T3'
p4751
g2
(g3
(S'S4'
p4752
I0
I1
tp4753
Rp4754
(I3
S'|'
p4755
NNNI4
I1
I0
tp4756
bS'DEGF'
p4757
tp4758
Rp4759
sS'TRSPOTPC'
p4760
g2
(g3
(S'S4'
p4761
I0
I1
tp4762
Rp4763
(I3
S'|'
p4764
NNNI4
I1
I0
tp4765
bS'DEGF'
p4766
tp4767
Rp4768
sS'PLAED3CT'
p4769
g2
(g3
(S'S4'
p4770
I0
I1
tp4771
Rp4772
(I3
S'|'
p4773
NNNI4
I1
I0
tp4774
bS'DEGF'
p4775
tp4776
Rp4777
sS'1PIN1AT'
p4778
g2
(g3
(S'S4'
p4779
I0
I1
tp4780
Rp4781
(I3
S'|'
p4782
NNNI4
I1
I0
tp4783
bS'DEGC'
p4784
tp4785
Rp4786
sS'PFTANK2T'
p4787
g2
(g3
(S'S4'
p4788
I0
I1
tp4789
Rp4790
(I3
S'|'
p4791
NNNI4
I1
I0
tp4792
bS'DEGF'
p4793
tp4794
Rp4795
sS'1DP28BVO'
p4796
g2
(g3
(S'S1'
p4797
I0
I1
tp4798
Rp4799
(I3
S'|'
p4800
NNNI1
I1
I0
tp4801
bg45
tp4802
Rp4803
sS'AOIRERL1'
p4804
g2
(g3
(S'S3'
p4805
I0
I1
tp4806
Rp4807
(I3
S'|'
p4808
NNNI3
I1
I0
tp4809
bS'RAD'
p4810
tp4811
Rp4812
sS'PLAEV1BT'
p4813
g2
(g3
(S'S4'
p4814
I0
I1
tp4815
Rp4816
(I3
S'|'
p4817
NNNI4
I1
I0
tp4818
bS'DEGF'
p4819
tp4820
Rp4821
sS'AOIRERL2'
p4822
g2
(g3
(S'S3'
p4823
I0
I1
tp4824
Rp4825
(I3
S'|'
p4826
NNNI3
I1
I0
tp4827
bS'RAD'
p4828
tp4829
Rp4830
sS'PFDM201T'
p4831
g2
(g3
(S'S4'
p4832
I0
I1
tp4833
Rp4834
(I3
S'|'
p4835
NNNI4
I1
I0
tp4836
bS'DEGF'
p4837
tp4838
Rp4839
sS'TCM_OBC'
p4840
g2
(g3
(S'S4'
p4841
I0
I1
tp4842
Rp4843
(I3
S'|'
p4844
NNNI4
I1
I0
tp4845
bS'DEGF'
p4846
tp4847
Rp4848
sS'AOIRERL3'
p4849
g2
(g3
(S'S3'
p4850
I0
I1
tp4851
Rp4852
(I3
S'|'
p4853
NNNI3
I1
I0
tp4854
bS'RAD'
p4855
tp4856
Rp4857
sS'1PDEABT'
p4858
g2
(g3
(S'S4'
p4859
I0
I1
tp4860
Rp4861
(I3
S'|'
p4862
NNNI4
I1
I0
tp4863
bS'DEGC'
p4864
tp4865
Rp4866
sS'TPCP_RW2'
p4867
g2
(g3
(S'S4'
p4868
I0
I1
tp4869
Rp4870
(I3
S'|'
p4871
NNNI4
I1
I0
tp4872
bS'DEGF'
p4873
tp4874
Rp4875
sS'PLAED2HT'
p4876
g2
(g3
(S'S4'
p4877
I0
I1
tp4878
Rp4879
(I3
S'|'
p4880
NNNI4
I1
I0
tp4881
bS'DEGF'
p4882
tp4883
Rp4884
sS'AOADBCH2A_PCAD'
p4885
g2
(g3
(S'S3'
p4886
I0
I1
tp4887
Rp4888
(I3
S'|'
p4889
NNNI3
I1
I0
tp4890
bS'DEG'
p4891
tp4892
Rp4893
sS'TRSPOTEP'
p4894
g2
(g3
(S'S4'
p4895
I0
I1
tp4896
Rp4897
(I3
S'|'
p4898
NNNI4
I1
I0
tp4899
bS'DEGF'
p4900
tp4901
Rp4902
sS'AORWPI6B'
p4903
g2
(g3
(S'S4'
p4904
I0
I1
tp4905
Rp4906
(I3
S'|'
p4907
NNNI4
I1
I0
tp4908
bS'MSEC'
p4909
tp4910
Rp4911
sS'TCM_PAN'
p4912
g2
(g3
(S'S4'
p4913
I0
I1
tp4914
Rp4915
(I3
S'|'
p4916
NNNI4
I1
I0
tp4917
bS'DEGF'
p4918
tp4919
Rp4920
sS'TCM_SSR2'
p4921
g2
(g3
(S'S4'
p4922
I0
I1
tp4923
Rp4924
(I3
S'|'
p4925
NNNI4
I1
I0
tp4926
bS'DEGF'
p4927
tp4928
Rp4929
sS'PMTANKP'
p4930
g2
(g3
(S'S4'
p4931
I0
I1
tp4932
Rp4933
(I3
S'|'
p4934
NNNI4
I1
I0
tp4935
bS'PSIA'
p4936
tp4937
Rp4938
sS'EOECNV1C'
p4939
g2
(g3
(S'S1'
p4940
I0
I1
tp4941
Rp4942
(I3
S'|'
p4943
NNNI1
I1
I0
tp4944
bg45
tp4945
Rp4946
sS'AFLCABH'
p4947
g2
(g3
(S'S1'
p4948
I0
I1
tp4949
Rp4950
(I3
S'|'
p4951
NNNI1
I1
I0
tp4952
bg45
tp4953
Rp4954
sS'3FLCABPT'
p4955
g2
(g3
(S'S4'
p4956
I0
I1
tp4957
Rp4958
(I3
S'|'
p4959
NNNI4
I1
I0
tp4960
bS'DEGC'
p4961
tp4962
Rp4963
sS'OHRTHR18'
p4964
g2
(g3
(S'S4'
p4965
I0
I1
tp4966
Rp4967
(I3
S'|'
p4968
NNNI4
I1
I0
tp4969
bS'DEGF'
p4970
tp4971
Rp4972
sS'OHRTHR19'
p4973
g2
(g3
(S'S4'
p4974
I0
I1
tp4975
Rp4976
(I3
S'|'
p4977
NNNI4
I1
I0
tp4978
bS'DEGF'
p4979
tp4980
Rp4981
sS'AFLCA3BI'
p4982
g2
(g3
(S'S4'
p4983
I0
I1
tp4984
Rp4985
(I3
S'|'
p4986
NNNI4
I1
I0
tp4987
bS'MAMP'
p4988
tp4989
Rp4990
sS'OHRTHR14'
p4991
g2
(g3
(S'S4'
p4992
I0
I1
tp4993
Rp4994
(I3
S'|'
p4995
NNNI4
I1
I0
tp4996
bS'DEGF'
p4997
tp4998
Rp4999
sS'OHRTHR15'
p5000
g2
(g3
(S'S4'
p5001
I0
I1
tp5002
Rp5003
(I3
S'|'
p5004
NNNI4
I1
I0
tp5005
bS'DEGF'
p5006
tp5007
Rp5008
sS'OHRTHR12'
p5009
g2
(g3
(S'S4'
p5010
I0
I1
tp5011
Rp5012
(I3
S'|'
p5013
NNNI4
I1
I0
tp5014
bS'DEGF'
p5015
tp5016
Rp5017
sS'OHRTHR13'
p5018
g2
(g3
(S'S4'
p5019
I0
I1
tp5020
Rp5021
(I3
S'|'
p5022
NNNI4
I1
I0
tp5023
bS'DEGF'
p5024
tp5025
Rp5026
sS'OHRTHR10'
p5027
g2
(g3
(S'S4'
p5028
I0
I1
tp5029
Rp5030
(I3
S'|'
p5031
NNNI4
I1
I0
tp5032
bS'DEGF'
p5033
tp5034
Rp5035
sS'OHRTHR11'
p5036
g2
(g3
(S'S4'
p5037
I0
I1
tp5038
Rp5039
(I3
S'|'
p5040
NNNI4
I1
I0
tp5041
bS'DEGF'
p5042
tp5043
Rp5044
sS'CIUB15V'
p5045
g2
(g3
(S'S1'
p5046
I0
I1
tp5047
Rp5048
(I3
S'|'
p5049
NNNI1
I1
I0
tp5050
bg45
tp5051
Rp5052
sS'3TTHRC3T'
p5053
g2
(g3
(S'S4'
p5054
I0
I1
tp5055
Rp5056
(I3
S'|'
p5057
NNNI4
I1
I0
tp5058
bS'DEGC'
p5059
tp5060
Rp5061
sS'PLAED3HT'
p5062
g2
(g3
(S'S4'
p5063
I0
I1
tp5064
Rp5065
(I3
S'|'
p5066
NNNI4
I1
I0
tp5067
bS'DEGF'
p5068
tp5069
Rp5070
sS'AIRU2BT'
p5071
g2
(g3
(S'S4'
p5072
I0
I1
tp5073
Rp5074
(I3
S'|'
p5075
NNNI4
I1
I0
tp5076
bS'DEGF'
p5077
tp5078
Rp5079
sS'AORWSPD1'
p5080
g2
(g3
(S'S5'
p5081
I0
I1
tp5082
Rp5083
(I3
S'|'
p5084
NNNI5
I1
I0
tp5085
bS'RADPS'
p5086
tp5087
Rp5088
sS'AORWSPD2'
p5089
g2
(g3
(S'S5'
p5090
I0
I1
tp5091
Rp5092
(I3
S'|'
p5093
NNNI5
I1
I0
tp5094
bS'RADPS'
p5095
tp5096
Rp5097
sS'AORWSPD3'
p5098
g2
(g3
(S'S5'
p5099
I0
I1
tp5100
Rp5101
(I3
S'|'
p5102
NNNI5
I1
I0
tp5103
bS'RADPS'
p5104
tp5105
Rp5106
sS'AORWSPD4'
p5107
g2
(g3
(S'S5'
p5108
I0
I1
tp5109
Rp5110
(I3
S'|'
p5111
NNNI5
I1
I0
tp5112
bS'RADPS'
p5113
tp5114
Rp5115
sS'AORWSPD5'
p5116
g2
(g3
(S'S5'
p5117
I0
I1
tp5118
Rp5119
(I3
S'|'
p5120
NNNI5
I1
I0
tp5121
bS'RADPS'
p5122
tp5123
Rp5124
sS'AORWSPD6'
p5125
g2
(g3
(S'S5'
p5126
I0
I1
tp5127
Rp5128
(I3
S'|'
p5129
NNNI5
I1
I0
tp5130
bS'RADPS'
p5131
tp5132
Rp5133
sS'PM1THV1T'
p5134
g2
(g3
(S'S4'
p5135
I0
I1
tp5136
Rp5137
(I3
S'|'
p5138
NNNI4
I1
I0
tp5139
bS'DEGF'
p5140
tp5141
Rp5142
sS'AOCMDRT2'
p5143
g2
(g3
(S'S5'
p5144
I0
I1
tp5145
Rp5146
(I3
S'|'
p5147
NNNI5
I1
I0
tp5148
bS'RADPS'
p5149
tp5150
Rp5151
sS'AOCMDRT3'
p5152
g2
(g3
(S'S5'
p5153
I0
I1
tp5154
Rp5155
(I3
S'|'
p5156
NNNI5
I1
I0
tp5157
bS'RADPS'
p5158
tp5159
Rp5160
sS'AI2AX2X'
p5161
g2
(g3
(S'S5'
p5162
I0
I1
tp5163
Rp5164
(I3
S'|'
p5165
NNNI5
I1
I0
tp5166
bS'DEGPS'
p5167
tp5168
Rp5169
sS'AI2AX2Y'
p5170
g2
(g3
(S'S5'
p5171
I0
I1
tp5172
Rp5173
(I3
S'|'
p5174
NNNI5
I1
I0
tp5175
bS'DEGPS'
p5176
tp5177
Rp5178
sS'4RT564T'
p5179
g2
(g3
(S'S4'
p5180
I0
I1
tp5181
Rp5182
(I3
S'|'
p5183
NNNI4
I1
I0
tp5184
bS'DEGF'
p5185
tp5186
Rp5187
sS'EORTDMN21D'
p5188
g2
(g3
(S'S4'
p5189
I0
I1
tp5190
Rp5191
(I3
S'|'
p5192
NNNI4
I1
I0
tp5193
bS'DEGF'
p5194
tp5195
Rp5196
sS'4RT704T'
p5197
g2
(g3
(S'S4'
p5198
I0
I1
tp5199
Rp5200
(I3
S'|'
p5201
NNNI4
I1
I0
tp5202
bS'DEGF'
p5203
tp5204
Rp5205
sS'EOEBC'
p5206
g2
(g3
(S'S3'
p5207
I0
I1
tp5208
Rp5209
(I3
S'|'
p5210
NNNI3
I1
I0
tp5211
bS'AMP'
p5212
tp5213
Rp5214
sS'PM3THV2T'
p5215
g2
(g3
(S'S4'
p5216
I0
I1
tp5217
Rp5218
(I3
S'|'
p5219
NNNI4
I1
I0
tp5220
bS'DEGF'
p5221
tp5222
Rp5223
sS'1DEN1BVO'
p5224
g2
(g3
(S'S1'
p5225
I0
I1
tp5226
Rp5227
(I3
S'|'
p5228
NNNI1
I1
I0
tp5229
bg45
tp5230
Rp5231
sS'4SP52V'
p5232
g2
(g3
(S'S3'
p5233
I0
I1
tp5234
Rp5235
(I3
S'|'
p5236
NNNI3
I1
I0
tp5237
bS'VDC'
p5238
tp5239
Rp5240
sS'EORTDMN29D'
p5241
g2
(g3
(S'S4'
p5242
I0
I1
tp5243
Rp5244
(I3
S'|'
p5245
NNNI4
I1
I0
tp5246
bS'DEGF'
p5247
tp5248
Rp5249
sS'PLINE04T'
p5250
g2
(g3
(S'S4'
p5251
I0
I1
tp5252
Rp5253
(I3
S'|'
p5254
NNNI4
I1
I0
tp5255
bS'DEGF'
p5256
tp5257
Rp5258
sS'PLAED3BT'
p5259
g2
(g3
(S'S4'
p5260
I0
I1
tp5261
Rp5262
(I3
S'|'
p5263
NNNI4
I1
I0
tp5264
bS'DEGF'
p5265
tp5266
Rp5267
sS'AIOBP5CV'
p5268
g2
(g3
(S'S1'
p5269
I0
I1
tp5270
Rp5271
(I3
S'|'
p5272
NNNI1
I1
I0
tp5273
bg45
tp5274
Rp5275
sS'PXTANKOP'
p5276
g2
(g3
(S'S4'
p5277
I0
I1
tp5278
Rp5279
(I3
S'|'
p5280
NNNI4
I1
I0
tp5281
bS'PSIA'
p5282
tp5283
Rp5284
sS'4OAVHRMT'
p5285
g2
(g3
(S'S4'
p5286
I0
I1
tp5287
Rp5288
(I3
S'|'
p5289
NNNI4
I1
I0
tp5290
bS'DEGF'
p5291
tp5292
Rp5293
sS'EORTDMN28D'
p5294
g2
(g3
(S'S4'
p5295
I0
I1
tp5296
Rp5297
(I3
S'|'
p5298
NNNI4
I1
I0
tp5299
bS'DEGF'
p5300
tp5301
Rp5302
sS'PFFP01T'
p5303
g2
(g3
(S'S4'
p5304
I0
I1
tp5305
Rp5306
(I3
S'|'
p5307
NNNI4
I1
I0
tp5308
bS'DEGF'
p5309
tp5310
Rp5311
sS'2N15VAVL'
p5312
g2
(g3
(S'S3'
p5313
I0
I1
tp5314
Rp5315
(I3
S'|'
p5316
NNNI3
I1
I0
tp5317
bS'VDC'
p5318
tp5319
Rp5320
sS'4RT578T'
p5321
g2
(g3
(S'S4'
p5322
I0
I1
tp5323
Rp5324
(I3
S'|'
p5325
NNNI4
I1
I0
tp5326
bS'DEGF'
p5327
tp5328
Rp5329
sS'4LFSPBT'
p5330
g2
(g3
(S'S4'
p5331
I0
I1
tp5332
Rp5333
(I3
S'|'
p5334
NNNI4
I1
I0
tp5335
bS'DEGF'
p5336
tp5337
Rp5338
sS'TMP_FEP1_PCB'
p5339
g299
sS'AOSPBCS2B'
p5340
g2
(g3
(S'S4'
p5341
I0
I1
tp5342
Rp5343
(I3
S'|'
p5344
NNNI4
I1
I0
tp5345
bS'MAMP'
p5346
tp5347
Rp5348
sS'1DEP0AVO'
p5349
g2
(g3
(S'S1'
p5350
I0
I1
tp5351
Rp5352
(I3
S'|'
p5353
NNNI1
I1
I0
tp5354
bg45
tp5355
Rp5356
sS'4CSDOAV'
p5357
g2
(g3
(S'S3'
p5358
I0
I1
tp5359
Rp5360
(I3
S'|'
p5361
NNNI3
I1
I0
tp5362
bS'VDC'
p5363
tp5364
Rp5365
sS'TEP_BPAN'
p5366
g2
(g3
(S'S4'
p5367
I0
I1
tp5368
Rp5369
(I3
S'|'
p5370
NNNI4
I1
I0
tp5371
bS'DEGF'
p5372
tp5373
Rp5374
sS'1WRAT'
p5375
g2
(g3
(S'S4'
p5376
I0
I1
tp5377
Rp5378
(I3
S'|'
p5379
NNNI4
I1
I0
tp5380
bS'DEGC'
p5381
tp5382
Rp5383
sS'PLAED1GT'
p5384
g2
(g3
(S'S4'
p5385
I0
I1
tp5386
Rp5387
(I3
S'|'
p5388
NNNI4
I1
I0
tp5389
bS'DEGF'
p5390
tp5391
Rp5392
sS'TASPRWC'
p5393
g2
(g3
(S'S4'
p5394
I0
I1
tp5395
Rp5396
(I3
S'|'
p5397
NNNI4
I1
I0
tp5398
bS'DEGF'
p5399
tp5400
Rp5401
sS'4PRT3AT'
p5402
g2
(g3
(S'S4'
p5403
I0
I1
tp5404
Rp5405
(I3
S'|'
p5406
NNNI4
I1
I0
tp5407
bS'DEGF'
p5408
tp5409
Rp5410
sS'PLINE01T'
p5411
g2
(g3
(S'S4'
p5412
I0
I1
tp5413
Rp5414
(I3
S'|'
p5415
NNNI4
I1
I0
tp5416
bS'DEGF'
p5417
tp5418
Rp5419
sS'6RWCMD4'
p5420
g2
(g3
(S'S4'
p5421
I0
I1
tp5422
Rp5423
(I3
S'|'
p5424
NNNI4
I1
I0
tp5425
bS'FTLB'
p5426
tp5427
Rp5428
sS'6RWCMD5'
p5429
g2
(g3
(S'S4'
p5430
I0
I1
tp5431
Rp5432
(I3
S'|'
p5433
NNNI4
I1
I0
tp5434
bS'FTLB'
p5435
tp5436
Rp5437
sS'6RWCMD6'
p5438
g2
(g3
(S'S4'
p5439
I0
I1
tp5440
Rp5441
(I3
S'|'
p5442
NNNI4
I1
I0
tp5443
bS'FTLB'
p5444
tp5445
Rp5446
sS'AFLCA8AI'
p5447
g2
(g3
(S'S4'
p5448
I0
I1
tp5449
Rp5450
(I3
S'|'
p5451
NNNI4
I1
I0
tp5452
bS'MAMP'
p5453
tp5454
Rp5455
sS'AACBPPT'
p5456
g2
(g3
(S'S4'
p5457
I0
I1
tp5458
Rp5459
(I3
S'|'
p5460
NNNI4
I1
I0
tp5461
bS'DEGF'
p5462
tp5463
Rp5464
sS'6RWCMD1'
p5465
g2
(g3
(S'S4'
p5466
I0
I1
tp5467
Rp5468
(I3
S'|'
p5469
NNNI4
I1
I0
tp5470
bS'FTLB'
p5471
tp5472
Rp5473
sS'6RWCMD2'
p5474
g2
(g3
(S'S4'
p5475
I0
I1
tp5476
Rp5477
(I3
S'|'
p5478
NNNI4
I1
I0
tp5479
bS'FTLB'
p5480
tp5481
Rp5482
sS'6RWCMD3'
p5483
g2
(g3
(S'S4'
p5484
I0
I1
tp5485
Rp5486
(I3
S'|'
p5487
NNNI4
I1
I0
tp5488
bS'FTLB'
p5489
tp5490
Rp5491
sS'PCM02T'
p5492
g2
(g3
(S'S4'
p5493
I0
I1
tp5494
Rp5495
(I3
S'|'
p5496
NNNI4
I1
I0
tp5497
bS'DEGF'
p5498
tp5499
Rp5500
sS'TCYLPCP'
p5501
g2
(g3
(S'S4'
p5502
I0
I1
tp5503
Rp5504
(I3
S'|'
p5505
NNNI4
I1
I0
tp5506
bS'DEGF'
p5507
tp5508
Rp5509
sS'3FAMYZAT'
p5510
g2
(g3
(S'S4'
p5511
I0
I1
tp5512
Rp5513
(I3
S'|'
p5514
NNNI4
I1
I0
tp5515
bS'DEGC'
p5516
tp5517
Rp5518
sS'AACCCDPT'
p5519
g2
(g3
(S'S4'
p5520
I0
I1
tp5521
Rp5522
(I3
S'|'
p5523
NNNI4
I1
I0
tp5524
bS'DEGF'
p5525
tp5526
Rp5527
sS'OHRTHR17'
p5528
g2
(g3
(S'S4'
p5529
I0
I1
tp5530
Rp5531
(I3
S'|'
p5532
NNNI4
I1
I0
tp5533
bS'DEGF'
p5534
tp5535
Rp5536
sS'OOBTHR41'
p5537
g2
(g3
(S'S4'
p5538
I0
I1
tp5539
Rp5540
(I3
S'|'
p5541
NNNI4
I1
I0
tp5542
bS'DEGF'
p5543
tp5544
Rp5545
sS'4OAVOBAT'
p5546
g2
(g3
(S'S4'
p5547
I0
I1
tp5548
Rp5549
(I3
S'|'
p5550
NNNI4
I1
I0
tp5551
bS'DEGF'
p5552
tp5553
Rp5554
sS'OOBTHR51'
p5555
g2
(g3
(S'S4'
p5556
I0
I1
tp5557
Rp5558
(I3
S'|'
p5559
NNNI4
I1
I0
tp5560
bS'DEGF'
p5561
tp5562
Rp5563
sS'TPC_WDA'
p5564
g2
(g3
(S'S4'
p5565
I0
I1
tp5566
Rp5567
(I3
S'|'
p5568
NNNI4
I1
I0
tp5569
bS'DEGF'
p5570
tp5571
Rp5572
sS'TSCTSF6'
p5573
g2
(g3
(S'S4'
p5574
I0
I1
tp5575
Rp5576
(I3
S'|'
p5577
NNNI4
I1
I0
tp5578
bS'DEGF'
p5579
tp5580
Rp5581
sS'4RT709T'
p5582
g2
(g3
(S'S4'
p5583
I0
I1
tp5584
Rp5585
(I3
S'|'
p5586
NNNI4
I1
I0
tp5587
bS'DEGF'
p5588
tp5589
Rp5590
sS'AWD1TQI'
p5591
g2
(g3
(S'S3'
p5592
I0
I1
tp5593
Rp5594
(I3
S'|'
p5595
NNNI3
I1
I0
tp5596
bS'AMP'
p5597
tp5598
Rp5599
sS'TCM_TX2'
p5600
g2
(g3
(S'S4'
p5601
I0
I1
tp5602
Rp5603
(I3
S'|'
p5604
NNNI4
I1
I0
tp5605
bS'DEGF'
p5606
tp5607
Rp5608
sS'TCM_TX1'
p5609
g2
(g3
(S'S4'
p5610
I0
I1
tp5611
Rp5612
(I3
S'|'
p5613
NNNI4
I1
I0
tp5614
bS'DEGF'
p5615
tp5616
Rp5617
sS'CTUA5V'
p5618
g2
(g3
(S'S1'
p5619
I0
I1
tp5620
Rp5621
(I3
S'|'
p5622
NNNI1
I1
I0
tp5623
bg45
tp5624
Rp5625
sS'4LLL1BT'
p5626
g2
(g3
(S'S4'
p5627
I0
I1
tp5628
Rp5629
(I3
S'|'
p5630
NNNI4
I1
I0
tp5631
bS'DEGF'
p5632
tp5633
Rp5634
sS'TMZP_CNT'
p5635
g2
(g3
(S'S4'
p5636
I0
I1
tp5637
Rp5638
(I3
S'|'
p5639
NNNI4
I1
I0
tp5640
bS'DEGF'
p5641
tp5642
Rp5643
sS'4RT582T'
p5644
g2
(g3
(S'S4'
p5645
I0
I1
tp5646
Rp5647
(I3
S'|'
p5648
NNNI4
I1
I0
tp5649
bS'DEGF'
p5650
tp5651
Rp5652
sS'TMP_BEP_PCB'
p5653
g299
sS'AHKNATRD'
p5654
g2
(g3
(S'S1'
p5655
I0
I1
tp5656
Rp5657
(I3
S'|'
p5658
NNNI1
I1
I0
tp5659
bg45
tp5660
Rp5661
sS'EOEB3VC'
p5662
g2
(g3
(S'S1'
p5663
I0
I1
tp5664
Rp5665
(I3
S'|'
p5666
NNNI1
I1
I0
tp5667
bg45
tp5668
Rp5669
sS'OOBTHR50'
p5670
g2
(g3
(S'S4'
p5671
I0
I1
tp5672
Rp5673
(I3
S'|'
p5674
NNNI4
I1
I0
tp5675
bS'DEGF'
p5676
tp5677
Rp5678
sS'AFLCA6AI'
p5679
g2
(g3
(S'S4'
p5680
I0
I1
tp5681
Rp5682
(I3
S'|'
p5683
NNNI4
I1
I0
tp5684
bS'MAMP'
p5685
tp5686
Rp5687
sS'4CSDOBV'
p5688
g2
(g3
(S'S3'
p5689
I0
I1
tp5690
Rp5691
(I3
S'|'
p5692
NNNI3
I1
I0
tp5693
bS'VDC'
p5694
tp5695
Rp5696
sS'AFLCA9BI'
p5697
g2
(g3
(S'S4'
p5698
I0
I1
tp5699
Rp5700
(I3
S'|'
p5701
NNNI4
I1
I0
tp5702
bS'MAMP'
p5703
tp5704
Rp5705
sS'1DEP2AVO'
p5706
g2
(g3
(S'S1'
p5707
I0
I1
tp5708
Rp5709
(I3
S'|'
p5710
NNNI1
I1
I0
tp5711
bg45
tp5712
Rp5713
sS'3RCTUBPT'
p5714
g2
(g3
(S'S4'
p5715
I0
I1
tp5716
Rp5717
(I3
S'|'
p5718
NNNI4
I1
I0
tp5719
bS'DEGC'
p5720
tp5721
Rp5722
sS'6SURTER3'
p5723
g2
(g3
(S'S5'
p5724
I0
I1
tp5725
Rp5726
(I3
S'|'
p5727
NNNI5
I1
I0
tp5728
bS'RADPS'
p5729
tp5730
Rp5731
sS'6SURTER2'
p5732
g2
(g3
(S'S5'
p5733
I0
I1
tp5734
Rp5735
(I3
S'|'
p5736
NNNI5
I1
I0
tp5737
bS'RADPS'
p5738
tp5739
Rp5740
sS'6SURTER1'
p5741
g2
(g3
(S'S5'
p5742
I0
I1
tp5743
Rp5744
(I3
S'|'
p5745
NNNI5
I1
I0
tp5746
bS'RADPS'
p5747
tp5748
Rp5749
sS'OHRTHR62'
p5750
g2
(g3
(S'S4'
p5751
I0
I1
tp5752
Rp5753
(I3
S'|'
p5754
NNNI4
I1
I0
tp5755
bS'DEGF'
p5756
tp5757
Rp5758
sS'OOBTHR49'
p5759
g2
(g3
(S'S4'
p5760
I0
I1
tp5761
Rp5762
(I3
S'|'
p5763
NNNI4
I1
I0
tp5764
bS'DEGF'
p5765
tp5766
Rp5767
sS'CRXBV'
p5768
g2
(g3
(S'S1'
p5769
I0
I1
tp5770
Rp5771
(I3
S'|'
p5772
NNNI1
I1
I0
tp5773
bg45
tp5774
Rp5775
sS'OOBTHR47'
p5776
g2
(g3
(S'S4'
p5777
I0
I1
tp5778
Rp5779
(I3
S'|'
p5780
NNNI4
I1
I0
tp5781
bS'DEGF'
p5782
tp5783
Rp5784
sS'OOBTHR44'
p5785
g2
(g3
(S'S4'
p5786
I0
I1
tp5787
Rp5788
(I3
S'|'
p5789
NNNI4
I1
I0
tp5790
bS'DEGF'
p5791
tp5792
Rp5793
sS'OOBTHR45'
p5794
g2
(g3
(S'S4'
p5795
I0
I1
tp5796
Rp5797
(I3
S'|'
p5798
NNNI4
I1
I0
tp5799
bS'DEGF'
p5800
tp5801
Rp5802
sS'OOBTHR42'
p5803
g2
(g3
(S'S4'
p5804
I0
I1
tp5805
Rp5806
(I3
S'|'
p5807
NNNI4
I1
I0
tp5808
bS'DEGF'
p5809
tp5810
Rp5811
sS'OOBTHR43'
p5812
g2
(g3
(S'S4'
p5813
I0
I1
tp5814
Rp5815
(I3
S'|'
p5816
NNNI4
I1
I0
tp5817
bS'DEGF'
p5818
tp5819
Rp5820
sS'OOBTHR40'
p5821
g2
(g3
(S'S4'
p5822
I0
I1
tp5823
Rp5824
(I3
S'|'
p5825
NNNI4
I1
I0
tp5826
bS'DEGF'
p5827
tp5828
Rp5829
sS'4PRT5AT'
p5830
g2
(g3
(S'S4'
p5831
I0
I1
tp5832
Rp5833
(I3
S'|'
p5834
NNNI4
I1
I0
tp5835
bS'DEGF'
p5836
tp5837
Rp5838
sS'AI1AX1X'
p5839
g2
(g3
(S'S5'
p5840
I0
I1
tp5841
Rp5842
(I3
S'|'
p5843
NNNI5
I1
I0
tp5844
bS'DEGPS'
p5845
tp5846
Rp5847
sS'PLAED2IT'
p5848
g2
(g3
(S'S4'
p5849
I0
I1
tp5850
Rp5851
(I3
S'|'
p5852
NNNI4
I1
I0
tp5853
bS'DEGF'
p5854
tp5855
Rp5856
sS'6SINTER2'
p5857
g2
(g3
(S'S3'
p5858
I0
I1
tp5859
Rp5860
(I3
S'|'
p5861
NNNI3
I1
I0
tp5862
bS'RAD'
p5863
tp5864
Rp5865
sS'OOBTHR27'
p5866
g2
(g3
(S'S4'
p5867
I0
I1
tp5868
Rp5869
(I3
S'|'
p5870
NNNI4
I1
I0
tp5871
bS'DEGF'
p5872
tp5873
Rp5874
sS'AWD2CV5V'
p5875
g2
(g3
(S'S1'
p5876
I0
I1
tp5877
Rp5878
(I3
S'|'
p5879
NNNI1
I1
I0
tp5880
bg45
tp5881
Rp5882
sS'OOBTHR53'
p5883
g2
(g3
(S'S4'
p5884
I0
I1
tp5885
Rp5886
(I3
S'|'
p5887
NNNI4
I1
I0
tp5888
bS'DEGF'
p5889
tp5890
Rp5891
sS'EORTDMN14D'
p5892
g2
(g3
(S'S4'
p5893
I0
I1
tp5894
Rp5895
(I3
S'|'
p5896
NNNI4
I1
I0
tp5897
bS'DEGF'
p5898
tp5899
Rp5900
sS'OHRMGRD3'
p5901
g2
(g3
(S'S4'
p5902
I0
I1
tp5903
Rp5904
(I3
S'|'
p5905
NNNI4
I1
I0
tp5906
bS'DEGF'
p5907
tp5908
Rp5909
sS'ARWA1BT'
p5910
g2
(g3
(S'S4'
p5911
I0
I1
tp5912
Rp5913
(I3
S'|'
p5914
NNNI4
I1
I0
tp5915
bS'DEGF'
p5916
tp5917
Rp5918
sS'AFLCA7BI'
p5919
g2
(g3
(S'S4'
p5920
I0
I1
tp5921
Rp5922
(I3
S'|'
p5923
NNNI4
I1
I0
tp5924
bS'MAMP'
p5925
tp5926
Rp5927
sS'PLAED4GT'
p5928
g2
(g3
(S'S4'
p5929
I0
I1
tp5930
Rp5931
(I3
S'|'
p5932
NNNI4
I1
I0
tp5933
bS'DEGF'
p5934
tp5935
Rp5936
sS'PFTANKOP'
p5937
g2
(g3
(S'S4'
p5938
I0
I1
tp5939
Rp5940
(I3
S'|'
p5941
NNNI4
I1
I0
tp5942
bS'PSIA'
p5943
tp5944
Rp5945
sS'TESH1'
p5946
g2
(g3
(S'S4'
p5947
I0
I1
tp5948
Rp5949
(I3
S'|'
p5950
NNNI4
I1
I0
tp5951
bS'DEGF'
p5952
tp5953
Rp5954
sS'AFLC14BI'
p5955
g2
(g3
(S'S4'
p5956
I0
I1
tp5957
Rp5958
(I3
S'|'
p5959
NNNI4
I1
I0
tp5960
bS'MAMP'
p5961
tp5962
Rp5963
sS'AOSPACS4B'
p5964
g2
(g3
(S'S4'
p5965
I0
I1
tp5966
Rp5967
(I3
S'|'
p5968
NNNI4
I1
I0
tp5969
bS'MAMP'
p5970
tp5971
Rp5972
sS'ACPA5CV'
p5973
g2
(g3
(S'S1'
p5974
I0
I1
tp5975
Rp5976
(I3
S'|'
p5977
NNNI1
I1
I0
tp5978
bg45
tp5979
Rp5980
sS'OHRTHR59'
p5981
g2
(g3
(S'S4'
p5982
I0
I1
tp5983
Rp5984
(I3
S'|'
p5985
NNNI4
I1
I0
tp5986
bS'DEGF'
p5987
tp5988
Rp5989
sS'OHRTHR52'
p5990
g2
(g3
(S'S4'
p5991
I0
I1
tp5992
Rp5993
(I3
S'|'
p5994
NNNI4
I1
I0
tp5995
bS'DEGF'
p5996
tp5997
Rp5998
sS'AESACHD2'
p5999
g2
(g3
(S'S3'
p6000
I0
I1
tp6001
Rp6002
(I3
S'|'
p6003
NNNI3
I1
I0
tp6004
bS'DEG'
p6005
tp6006
Rp6007
sS'AESACHD1'
p6008
g2
(g3
(S'S3'
p6009
I0
I1
tp6010
Rp6011
(I3
S'|'
p6012
NNNI3
I1
I0
tp6013
bS'DEG'
p6014
tp6015
Rp6016
sS'4LFSPAT'
p6017
g2
(g3
(S'S4'
p6018
I0
I1
tp6019
Rp6020
(I3
S'|'
p6021
NNNI4
I1
I0
tp6022
bS'DEGF'
p6023
tp6024
Rp6025
sS'OHRTHR56'
p6026
g2
(g3
(S'S4'
p6027
I0
I1
tp6028
Rp6029
(I3
S'|'
p6030
NNNI4
I1
I0
tp6031
bS'DEGF'
p6032
tp6033
Rp6034
sS'2P15VAVL'
p6035
g2
(g3
(S'S3'
p6036
I0
I1
tp6037
Rp6038
(I3
S'|'
p6039
NNNI3
I1
I0
tp6040
bS'VDC'
p6041
tp6042
Rp6043
sS'OHRTHR54'
p6044
g2
(g3
(S'S4'
p6045
I0
I1
tp6046
Rp6047
(I3
S'|'
p6048
NNNI4
I1
I0
tp6049
bS'DEGF'
p6050
tp6051
Rp6052
sS'AAOTAPMT'
p6053
g2
(g3
(S'S4'
p6054
I0
I1
tp6055
Rp6056
(I3
S'|'
p6057
NNNI4
I1
I0
tp6058
bS'DEGF'
p6059
tp6060
Rp6061
sS'AORWPI2B'
p6062
g2
(g3
(S'S4'
p6063
I0
I1
tp6064
Rp6065
(I3
S'|'
p6066
NNNI4
I1
I0
tp6067
bS'MSEC'
p6068
tp6069
Rp6070
sS'TCYZ_RW1'
p6071
g2
(g3
(S'S4'
p6072
I0
I1
tp6073
Rp6074
(I3
S'|'
p6075
NNNI4
I1
I0
tp6076
bS'DEGF'
p6077
tp6078
Rp6079
sS'OHRTHR60'
p6080
g2
(g3
(S'S4'
p6081
I0
I1
tp6082
Rp6083
(I3
S'|'
p6084
NNNI4
I1
I0
tp6085
bS'DEGF'
p6086
tp6087
Rp6088
sS'OOBTHR09'
p6089
g2
(g3
(S'S4'
p6090
I0
I1
tp6091
Rp6092
(I3
S'|'
p6093
NNNI4
I1
I0
tp6094
bS'DEGF'
p6095
tp6096
Rp6097
sS'3TSMXCET'
p6098
g2
(g3
(S'S4'
p6099
I0
I1
tp6100
Rp6101
(I3
S'|'
p6102
NNNI4
I1
I0
tp6103
bS'DEGC'
p6104
tp6105
Rp6106
sS'TCYZ_RW6'
p6107
g2
(g3
(S'S4'
p6108
I0
I1
tp6109
Rp6110
(I3
S'|'
p6111
NNNI4
I1
I0
tp6112
bS'DEGF'
p6113
tp6114
Rp6115
sS'ARWA2BT'
p6116
g2
(g3
(S'S4'
p6117
I0
I1
tp6118
Rp6119
(I3
S'|'
p6120
NNNI4
I1
I0
tp6121
bS'DEGF'
p6122
tp6123
Rp6124
sS'PLAED3ET'
p6125
g2
(g3
(S'S4'
p6126
I0
I1
tp6127
Rp6128
(I3
S'|'
p6129
NNNI4
I1
I0
tp6130
bS'DEGF'
p6131
tp6132
Rp6133
sS'3FAPOS'
p6134
S'FASTEP'
p6135
sS'TSAPYT'
p6136
g2
(g3
(S'S4'
p6137
I0
I1
tp6138
Rp6139
(I3
S'|'
p6140
NNNI4
I1
I0
tp6141
bS'DEGF'
p6142
tp6143
Rp6144
sS'CPA1V'
p6145
g2
(g3
(S'S1'
p6146
I0
I1
tp6147
Rp6148
(I3
S'|'
p6149
NNNI1
I1
I0
tp6150
bg45
tp6151
Rp6152
sS'ASPEA5CV'
p6153
g2
(g3
(S'S1'
p6154
I0
I1
tp6155
Rp6156
(I3
S'|'
p6157
NNNI1
I1
I0
tp6158
bg45
tp6159
Rp6160
sS'PXTANK1T'
p6161
g2
(g3
(S'S4'
p6162
I0
I1
tp6163
Rp6164
(I3
S'|'
p6165
NNNI4
I1
I0
tp6166
bS'DEGF'
p6167
tp6168
Rp6169
sS'4RT568T'
p6170
g2
(g3
(S'S4'
p6171
I0
I1
tp6172
Rp6173
(I3
S'|'
p6174
NNNI4
I1
I0
tp6175
bS'DEGF'
p6176
tp6177
Rp6178
sS'ACPB5CV'
p6179
g2
(g3
(S'S1'
p6180
I0
I1
tp6181
Rp6182
(I3
S'|'
p6183
NNNI1
I1
I0
tp6184
bg45
tp6185
Rp6186
sS'OOBTHR02'
p6187
g2
(g3
(S'S4'
p6188
I0
I1
tp6189
Rp6190
(I3
S'|'
p6191
NNNI4
I1
I0
tp6192
bS'DEGF'
p6193
tp6194
Rp6195
sS'1DPICACU'
p6196
g2
(g3
(S'S3'
p6197
I0
I1
tp6198
Rp6199
(I3
S'|'
p6200
NNNI3
I1
I0
tp6201
bS'AMP'
p6202
tp6203
Rp6204
sS'OOBTHR03'
p6205
g2
(g3
(S'S4'
p6206
I0
I1
tp6207
Rp6208
(I3
S'|'
p6209
NNNI4
I1
I0
tp6210
bS'DEGF'
p6211
tp6212
Rp6213
sS'OOBTHR54'
p6214
g2
(g3
(S'S4'
p6215
I0
I1
tp6216
Rp6217
(I3
S'|'
p6218
NNNI4
I1
I0
tp6219
bS'DEGF'
p6220
tp6221
Rp6222
sS'TOXTSUPN'
p6223
g2
(g3
(S'S4'
p6224
I0
I1
tp6225
Rp6226
(I3
S'|'
p6227
NNNI4
I1
I0
tp6228
bS'DEGF'
p6229
tp6230
Rp6231
sS'AOSACMD1'
p6232
g2
(g3
(S'S3'
p6233
I0
I1
tp6234
Rp6235
(I3
S'|'
p6236
NNNI3
I1
I0
tp6237
bS'RAD'
p6238
tp6239
Rp6240
sS'4RT589T'
p6241
g2
(g3
(S'S4'
p6242
I0
I1
tp6243
Rp6244
(I3
S'|'
p6245
NNNI4
I1
I0
tp6246
bS'DEGF'
p6247
tp6248
Rp6249
sS'ASPEFSW2B'
p6250
g2
(g3
(S'S3'
p6251
I0
I1
tp6252
Rp6253
(I3
S'|'
p6254
NNNI3
I1
I0
tp6255
bS'DEG'
p6256
tp6257
Rp6258
sS'TCYLRWC'
p6259
g2
(g3
(S'S4'
p6260
I0
I1
tp6261
Rp6262
(I3
S'|'
p6263
NNNI4
I1
I0
tp6264
bS'DEGF'
p6265
tp6266
Rp6267
sS'4RT595T'
p6268
g2
(g3
(S'S4'
p6269
I0
I1
tp6270
Rp6271
(I3
S'|'
p6272
NNNI4
I1
I0
tp6273
bS'DEGF'
p6274
tp6275
Rp6276
sS'TCYLAFT5'
p6277
g2
(g3
(S'S4'
p6278
I0
I1
tp6279
Rp6280
(I3
S'|'
p6281
NNNI4
I1
I0
tp6282
bS'DEGF'
p6283
tp6284
Rp6285
sS'3TRMTRAT'
p6286
g2
(g3
(S'S4'
p6287
I0
I1
tp6288
Rp6289
(I3
S'|'
p6290
NNNI4
I1
I0
tp6291
bS'DEGC'
p6292
tp6293
Rp6294
sS'4RT700T'
p6295
g2
(g3
(S'S4'
p6296
I0
I1
tp6297
Rp6298
(I3
S'|'
p6299
NNNI4
I1
I0
tp6300
bS'DEGF'
p6301
tp6302
Rp6303
sS'OOBTHR07'
p6304
g2
(g3
(S'S4'
p6305
I0
I1
tp6306
Rp6307
(I3
S'|'
p6308
NNNI4
I1
I0
tp6309
bS'DEGF'
p6310
tp6311
Rp6312
sS'1CBAT'
p6313
g2
(g3
(S'S4'
p6314
I0
I1
tp6315
Rp6316
(I3
S'|'
p6317
NNNI4
I1
I0
tp6318
bS'DEGC'
p6319
tp6320
Rp6321
sS'CPA2BPT'
p6322
g2
(g3
(S'S4'
p6323
I0
I1
tp6324
Rp6325
(I3
S'|'
p6326
NNNI4
I1
I0
tp6327
bS'DEGF'
p6328
tp6329
Rp6330
sS'4IP15AV'
p6331
g2
(g3
(S'S3'
p6332
I0
I1
tp6333
Rp6334
(I3
S'|'
p6335
NNNI3
I1
I0
tp6336
bS'VDC'
p6337
tp6338
Rp6339
sS'4ALL2AT'
p6340
g2
(g3
(S'S4'
p6341
I0
I1
tp6342
Rp6343
(I3
S'|'
p6344
NNNI4
I1
I0
tp6345
bS'DEGF'
p6346
tp6347
Rp6348
sS'4PRT4AT'
p6349
g2
(g3
(S'S4'
p6350
I0
I1
tp6351
Rp6352
(I3
S'|'
p6353
NNNI4
I1
I0
tp6354
bS'DEGF'
p6355
tp6356
Rp6357
sS'OOBTHR05'
p6358
g2
(g3
(S'S4'
p6359
I0
I1
tp6360
Rp6361
(I3
S'|'
p6362
NNNI4
I1
I0
tp6363
bS'DEGF'
p6364
tp6365
Rp6366
sS'PLAED2AT'
p6367
g2
(g3
(S'S4'
p6368
I0
I1
tp6369
Rp6370
(I3
S'|'
p6371
NNNI4
I1
I0
tp6372
bS'DEGF'
p6373
tp6374
Rp6375
sS'TAPEA2T'
p6376
g2
(g3
(S'S4'
p6377
I0
I1
tp6378
Rp6379
(I3
S'|'
p6380
NNNI4
I1
I0
tp6381
bS'DEGF'
p6382
tp6383
Rp6384
sS'AFLC10AI'
p6385
g2
(g3
(S'S4'
p6386
I0
I1
tp6387
Rp6388
(I3
S'|'
p6389
NNNI4
I1
I0
tp6390
bS'MAMP'
p6391
tp6392
Rp6393
sS'2PMT2T'
p6394
g2
(g3
(S'S4'
p6395
I0
I1
tp6396
Rp6397
(I3
S'|'
p6398
NNNI4
I1
I0
tp6399
bS'DEGC'
p6400
tp6401
Rp6402
sS'EIACVAV'
p6403
g2
(g3
(S'S1'
p6404
I0
I1
tp6405
Rp6406
(I3
S'|'
p6407
NNNI1
I1
I0
tp6408
bg45
tp6409
Rp6410
sS'4IP5BV'
p6411
g2
(g3
(S'S3'
p6412
I0
I1
tp6413
Rp6414
(I3
S'|'
p6415
NNNI3
I1
I0
tp6416
bS'VDC'
p6417
tp6418
Rp6419
sS'6CSSI4'
p6420
g2
(g3
(S'S4'
p6421
I0
I1
tp6422
Rp6423
(I3
S'|'
p6424
NNNI4
I1
I0
tp6425
bS'MAMP'
p6426
tp6427
Rp6428
sS'PLAED1HT'
p6429
g2
(g3
(S'S4'
p6430
I0
I1
tp6431
Rp6432
(I3
S'|'
p6433
NNNI4
I1
I0
tp6434
bS'DEGF'
p6435
tp6436
Rp6437
sS'6CSSI2'
p6438
g2
(g3
(S'S4'
p6439
I0
I1
tp6440
Rp6441
(I3
S'|'
p6442
NNNI4
I1
I0
tp6443
bS'MAMP'
p6444
tp6445
Rp6446
sS'6CSSI3'
p6447
g2
(g3
(S'S4'
p6448
I0
I1
tp6449
Rp6450
(I3
S'|'
p6451
NNNI4
I1
I0
tp6452
bS'MAMP'
p6453
tp6454
Rp6455
sS'3TTVALVT'
p6456
g2
(g3
(S'S4'
p6457
I0
I1
tp6458
Rp6459
(I3
S'|'
p6460
NNNI4
I1
I0
tp6461
bS'DEGC'
p6462
tp6463
Rp6464
sS'6CSSI1'
p6465
g2
(g3
(S'S4'
p6466
I0
I1
tp6467
Rp6468
(I3
S'|'
p6469
NNNI4
I1
I0
tp6470
bS'MAMP'
p6471
tp6472
Rp6473
sS'PXDM02T'
p6474
g2
(g3
(S'S4'
p6475
I0
I1
tp6476
Rp6477
(I3
S'|'
p6478
NNNI4
I1
I0
tp6479
bS'DEGF'
p6480
tp6481
Rp6482
sS'TCYLCMM'
p6483
g2
(g3
(S'S4'
p6484
I0
I1
tp6485
Rp6486
(I3
S'|'
p6487
NNNI4
I1
I0
tp6488
bS'DEGF'
p6489
tp6490
Rp6491
sS'CUSOAIT'
p6492
g2
(g3
(S'S4'
p6493
I0
I1
tp6494
Rp6495
(I3
S'|'
p6496
NNNI4
I1
I0
tp6497
bS'DEGF'
p6498
tp6499
Rp6500
sS'4HPOSARO'
p6501
g2
(g3
(S'S3'
p6502
I0
I1
tp6503
Rp6504
(I3
S'|'
p6505
NNNI3
I1
I0
tp6506
bS'DEG'
p6507
tp6508
Rp6509
sS'OHRMGRD6'
p6510
g2
(g3
(S'S4'
p6511
I0
I1
tp6512
Rp6513
(I3
S'|'
p6514
NNNI4
I1
I0
tp6515
bS'DEGF'
p6516
tp6517
Rp6518
sS'4VRMOAV'
p6519
g2
(g3
(S'S3'
p6520
I0
I1
tp6521
Rp6522
(I3
S'|'
p6523
NNNI3
I1
I0
tp6524
bS'VDC'
p6525
tp6526
Rp6527
sS'EOEB3V'
p6528
g2
(g3
(S'S1'
p6529
I0
I1
tp6530
Rp6531
(I3
S'|'
p6532
NNNI1
I1
I0
tp6533
bg45
tp6534
Rp6535
sS'3FAFLCAT'
p6536
g2
(g3
(S'S4'
p6537
I0
I1
tp6538
Rp6539
(I3
S'|'
p6540
NNNI4
I1
I0
tp6541
bS'DEGC'
p6542
tp6543
Rp6544
sS'EB2V'
p6545
g2
(g3
(S'S1'
p6546
I0
I1
tp6547
Rp6548
(I3
S'|'
p6549
NNNI1
I1
I0
tp6550
bg45
tp6551
Rp6552
sS'AOTQCMD1'
p6553
g2
(g3
(S'S4'
p6554
I0
I1
tp6555
Rp6556
(I3
S'|'
p6557
NNNI4
I1
I0
tp6558
bS'FTLB'
p6559
tp6560
Rp6561
sS'AOTQCMD3'
p6562
g2
(g3
(S'S4'
p6563
I0
I1
tp6564
Rp6565
(I3
S'|'
p6566
NNNI4
I1
I0
tp6567
bS'FTLB'
p6568
tp6569
Rp6570
sS'AOTQCMD2'
p6571
g2
(g3
(S'S4'
p6572
I0
I1
tp6573
Rp6574
(I3
S'|'
p6575
NNNI4
I1
I0
tp6576
bS'FTLB'
p6577
tp6578
Rp6579
sS'CXPNBIT'
p6580
g2
(g3
(S'S4'
p6581
I0
I1
tp6582
Rp6583
(I3
S'|'
p6584
NNNI4
I1
I0
tp6585
bS'DEGF'
p6586
tp6587
Rp6588
sS'OHRTHR25'
p6589
g2
(g3
(S'S4'
p6590
I0
I1
tp6591
Rp6592
(I3
S'|'
p6593
NNNI4
I1
I0
tp6594
bS'DEGF'
p6595
tp6596
Rp6597
sS'AIRU2G2I'
p6598
g2
(g3
(S'S4'
p6599
I0
I1
tp6600
Rp6601
(I3
S'|'
p6602
NNNI4
I1
I0
tp6603
bS'MAMP'
p6604
tp6605
Rp6606
sS'TRSPOTEX'
p6607
g2
(g3
(S'S4'
p6608
I0
I1
tp6609
Rp6610
(I3
S'|'
p6611
NNNI4
I1
I0
tp6612
bS'DEGF'
p6613
tp6614
Rp6615
sS'TFUTSUPN'
p6616
g2
(g3
(S'S4'
p6617
I0
I1
tp6618
Rp6619
(I3
S'|'
p6620
NNNI4
I1
I0
tp6621
bS'DEGF'
p6622
tp6623
Rp6624
sS'AOSPACS1B'
p6625
g2
(g3
(S'S4'
p6626
I0
I1
tp6627
Rp6628
(I3
S'|'
p6629
NNNI4
I1
I0
tp6630
bS'MAMP'
p6631
tp6632
Rp6633
sS'6RWSPD1'
p6634
g2
(g3
(S'S5'
p6635
I0
I1
tp6636
Rp6637
(I3
S'|'
p6638
NNNI5
I1
I0
tp6639
bS'RADPS'
p6640
tp6641
Rp6642
sS'TB1T1'
p6643
g2
(g3
(S'S4'
p6644
I0
I1
tp6645
Rp6646
(I3
S'|'
p6647
NNNI4
I1
I0
tp6648
bS'DEGF'
p6649
tp6650
Rp6651
sS'AOACYAN7'
p6652
g2
(g3
(S'S4'
p6653
I0
I1
tp6654
Rp6655
(I3
S'|'
p6656
NNNI4
I1
I0
tp6657
bS'ASEC'
p6658
tp6659
Rp6660
sS'1CRAT'
p6661
g2
(g3
(S'S4'
p6662
I0
I1
tp6663
Rp6664
(I3
S'|'
p6665
NNNI4
I1
I0
tp6666
bS'DEGC'
p6667
tp6668
Rp6669
sS'AOACYAN0'
p6670
g2
(g3
(S'S4'
p6671
I0
I1
tp6672
Rp6673
(I3
S'|'
p6674
NNNI4
I1
I0
tp6675
bS'ASEC'
p6676
tp6677
Rp6678
sS'PMTANK2T'
p6679
g2
(g3
(S'S4'
p6680
I0
I1
tp6681
Rp6682
(I3
S'|'
p6683
NNNI4
I1
I0
tp6684
bS'DEGF'
p6685
tp6686
Rp6687
sS'AOACYAN1'
p6688
g2
(g3
(S'S4'
p6689
I0
I1
tp6690
Rp6691
(I3
S'|'
p6692
NNNI4
I1
I0
tp6693
bS'ASEC'
p6694
tp6695
Rp6696
sS'TMP_FEP0_PCB'
p6697
g299
sS'1SSPYT'
p6698
g2
(g3
(S'S4'
p6699
I0
I1
tp6700
Rp6701
(I3
S'|'
p6702
NNNI4
I1
I0
tp6703
bS'DEGC'
p6704
tp6705
Rp6706
sS'AOACYAN2'
p6707
g2
(g3
(S'S4'
p6708
I0
I1
tp6709
Rp6710
(I3
S'|'
p6711
NNNI4
I1
I0
tp6712
bS'ASEC'
p6713
tp6714
Rp6715
sS'PLAED1CT'
p6716
g2
(g3
(S'S4'
p6717
I0
I1
tp6718
Rp6719
(I3
S'|'
p6720
NNNI4
I1
I0
tp6721
bS'DEGF'
p6722
tp6723
Rp6724
sS'OHRTHR24'
p6725
g2
(g3
(S'S4'
p6726
I0
I1
tp6727
Rp6728
(I3
S'|'
p6729
NNNI4
I1
I0
tp6730
bS'DEGF'
p6731
tp6732
Rp6733
sS'PLAED4HT'
p6734
g2
(g3
(S'S4'
p6735
I0
I1
tp6736
Rp6737
(I3
S'|'
p6738
NNNI4
I1
I0
tp6739
bS'DEGF'
p6740
tp6741
Rp6742
sS'2DTSTATT'
p6743
g2
(g3
(S'S4'
p6744
I0
I1
tp6745
Rp6746
(I3
S'|'
p6747
NNNI4
I1
I0
tp6748
bS'DEGC'
p6749
tp6750
Rp6751
sS'AI2AX1Y'
p6752
g2
(g3
(S'S5'
p6753
I0
I1
tp6754
Rp6755
(I3
S'|'
p6756
NNNI5
I1
I0
tp6757
bS'DEGPS'
p6758
tp6759
Rp6760
sS'AI2AX1X'
p6761
g2
(g3
(S'S5'
p6762
I0
I1
tp6763
Rp6764
(I3
S'|'
p6765
NNNI5
I1
I0
tp6766
bS'DEGPS'
p6767
tp6768
Rp6769
sS'AAOTASMT'
p6770
g2
(g3
(S'S4'
p6771
I0
I1
tp6772
Rp6773
(I3
S'|'
p6774
NNNI4
I1
I0
tp6775
bS'DEGF'
p6776
tp6777
Rp6778
sS'CSITA5V'
p6779
g2
(g3
(S'S1'
p6780
I0
I1
tp6781
Rp6782
(I3
S'|'
p6783
NNNI1
I1
I0
tp6784
bg45
tp6785
Rp6786
sS'AORTERR1'
p6787
g2
(g3
(S'S5'
p6788
I0
I1
tp6789
Rp6790
(I3
S'|'
p6791
NNNI5
I1
I0
tp6792
bS'RADPS'
p6793
tp6794
Rp6795
sS'TCYLAFT3'
p6796
g2
(g3
(S'S4'
p6797
I0
I1
tp6798
Rp6799
(I3
S'|'
p6800
NNNI4
I1
I0
tp6801
bS'DEGF'
p6802
tp6803
Rp6804
sS'TCYLAFT2'
p6805
g2
(g3
(S'S4'
p6806
I0
I1
tp6807
Rp6808
(I3
S'|'
p6809
NNNI4
I1
I0
tp6810
bS'DEGF'
p6811
tp6812
Rp6813
sS'OOBTHR06'
p6814
g2
(g3
(S'S4'
p6815
I0
I1
tp6816
Rp6817
(I3
S'|'
p6818
NNNI4
I1
I0
tp6819
bS'DEGF'
p6820
tp6821
Rp6822
sS'4LLL1AT'
p6823
g2
(g3
(S'S4'
p6824
I0
I1
tp6825
Rp6826
(I3
S'|'
p6827
NNNI4
I1
I0
tp6828
bS'DEGF'
p6829
tp6830
Rp6831
sS'OOBTHR04'
p6832
g2
(g3
(S'S4'
p6833
I0
I1
tp6834
Rp6835
(I3
S'|'
p6836
NNNI4
I1
I0
tp6837
bS'DEGF'
p6838
tp6839
Rp6840
sS'4HPOSBRO'
p6841
g2
(g3
(S'S3'
p6842
I0
I1
tp6843
Rp6844
(I3
S'|'
p6845
NNNI3
I1
I0
tp6846
bS'DEG'
p6847
tp6848
Rp6849
sS'EOESAT2C'
p6850
g2
(g3
(S'S4'
p6851
I0
I1
tp6852
Rp6853
(I3
S'|'
p6854
NNNI4
I1
I0
tp6855
bS'DEGF'
p6856
tp6857
Rp6858
sS'AORTERR3'
p6859
g2
(g3
(S'S5'
p6860
I0
I1
tp6861
Rp6862
(I3
S'|'
p6863
NNNI5
I1
I0
tp6864
bS'RADPS'
p6865
tp6866
Rp6867
sS'PR3TV01T'
p6868
g2
(g3
(S'S4'
p6869
I0
I1
tp6870
Rp6871
(I3
S'|'
p6872
NNNI4
I1
I0
tp6873
bS'DEGF'
p6874
tp6875
Rp6876
sS'TBOLTCUT'
p6877
g2
(g3
(S'S4'
p6878
I0
I1
tp6879
Rp6880
(I3
S'|'
p6881
NNNI4
I1
I0
tp6882
bS'DEGF'
p6883
tp6884
Rp6885
sS'AOACYAN4'
p6886
g2
(g3
(S'S4'
p6887
I0
I1
tp6888
Rp6889
(I3
S'|'
p6890
NNNI4
I1
I0
tp6891
bS'ASEC'
p6892
tp6893
Rp6894
sS'AOACYAN5'
p6895
g2
(g3
(S'S4'
p6896
I0
I1
tp6897
Rp6898
(I3
S'|'
p6899
NNNI4
I1
I0
tp6900
bS'ASEC'
p6901
tp6902
Rp6903
sS'AOACYAN6'
p6904
g2
(g3
(S'S4'
p6905
I0
I1
tp6906
Rp6907
(I3
S'|'
p6908
NNNI4
I1
I0
tp6909
bS'ASEC'
p6910
tp6911
Rp6912
sS'AFLCAAH'
p6913
g2
(g3
(S'S1'
p6914
I0
I1
tp6915
Rp6916
(I3
S'|'
p6917
NNNI1
I1
I0
tp6918
bg45
tp6919
Rp6920
sS'AFSSPC2V'
p6921
g2
(g3
(S'S1'
p6922
I0
I1
tp6923
Rp6924
(I3
S'|'
p6925
NNNI1
I1
I0
tp6926
bg45
tp6927
Rp6928
sS'1MAHCBT'
p6929
g2
(g3
(S'S4'
p6930
I0
I1
tp6931
Rp6932
(I3
S'|'
p6933
NNNI4
I1
I0
tp6934
bS'DEGC'
p6935
tp6936
Rp6937
sS'AFLC11AI'
p6938
g2
(g3
(S'S4'
p6939
I0
I1
tp6940
Rp6941
(I3
S'|'
p6942
NNNI4
I1
I0
tp6943
bS'MAMP'
p6944
tp6945
Rp6946
sS'AOACYAN3'
p6947
g2
(g3
(S'S4'
p6948
I0
I1
tp6949
Rp6950
(I3
S'|'
p6951
NNNI4
I1
I0
tp6952
bS'ASEC'
p6953
tp6954
Rp6955
sS'TFSSBKT1'
p6956
g2
(g3
(S'S4'
p6957
I0
I1
tp6958
Rp6959
(I3
S'|'
p6960
NNNI4
I1
I0
tp6961
bS'DEGF'
p6962
tp6963
Rp6964
sS'PLAED4CT'
p6965
g2
(g3
(S'S4'
p6966
I0
I1
tp6967
Rp6968
(I3
S'|'
p6969
NNNI4
I1
I0
tp6970
bS'DEGF'
p6971
tp6972
Rp6973
sS'3SFLXAST'
p6974
g2
(g3
(S'S4'
p6975
I0
I1
tp6976
Rp6977
(I3
S'|'
p6978
NNNI4
I1
I0
tp6979
bS'DEGC'
p6980
tp6981
Rp6982
sS'6RWNLTQ1'
p6983
g2
(g3
(S'S4'
p6984
I0
I1
tp6985
Rp6986
(I3
S'|'
p6987
NNNI4
I1
I0
tp6988
bS'FTLB'
p6989
tp6990
Rp6991
sS'6RWNLTQ2'
p6992
g2
(g3
(S'S4'
p6993
I0
I1
tp6994
Rp6995
(I3
S'|'
p6996
NNNI4
I1
I0
tp6997
bS'FTLB'
p6998
tp6999
Rp7000
sS'6RWNLTQ3'
p7001
g2
(g3
(S'S4'
p7002
I0
I1
tp7003
Rp7004
(I3
S'|'
p7005
NNNI4
I1
I0
tp7006
bS'FTLB'
p7007
tp7008
Rp7009
sS'6RWNLTQ4'
p7010
g2
(g3
(S'S4'
p7011
I0
I1
tp7012
Rp7013
(I3
S'|'
p7014
NNNI4
I1
I0
tp7015
bS'FTLB'
p7016
tp7017
Rp7018
sS'4RT563T'
p7019
g2
(g3
(S'S4'
p7020
I0
I1
tp7021
Rp7022
(I3
S'|'
p7023
NNNI4
I1
I0
tp7024
bS'DEGF'
p7025
tp7026
Rp7027
sS'6RWNLTQ6'
p7028
g2
(g3
(S'S4'
p7029
I0
I1
tp7030
Rp7031
(I3
S'|'
p7032
NNNI4
I1
I0
tp7033
bS'FTLB'
p7034
tp7035
Rp7036
sS'CSITB15V'
p7037
g2
(g3
(S'S1'
p7038
I0
I1
tp7039
Rp7040
(I3
S'|'
p7041
NNNI1
I1
I0
tp7042
bg45
tp7043
Rp7044
sS'EB2CI'
p7045
g2
(g3
(S'S3'
p7046
I0
I1
tp7047
Rp7048
(I3
S'|'
p7049
NNNI3
I1
I0
tp7050
bS'AMP'
p7051
tp7052
Rp7053
sS'AORESZ2_1'
p7054
g2
(g3
(S'S3'
p7055
I0
I1
tp7056
Rp7057
(I3
S'|'
p7058
NNNI3
I1
I0
tp7059
bS'RAD'
p7060
tp7061
Rp7062
sS'1DAHBVO'
p7063
g2
(g3
(S'S1'
p7064
I0
I1
tp7065
Rp7066
(I3
S'|'
p7067
NNNI1
I1
I0
tp7068
bg45
tp7069
Rp7070
sS'PLAED1ET'
p7071
g2
(g3
(S'S4'
p7072
I0
I1
tp7073
Rp7074
(I3
S'|'
p7075
NNNI4
I1
I0
tp7076
bS'DEGF'
p7077
tp7078
Rp7079
sS'PR1TV01T'
p7080
g2
(g3
(S'S4'
p7081
I0
I1
tp7082
Rp7083
(I3
S'|'
p7084
NNNI4
I1
I0
tp7085
bS'DEGF'
p7086
tp7087
Rp7088
sS'CSSR2CBV'
p7089
g2
(g3
(S'S1'
p7090
I0
I1
tp7091
Rp7092
(I3
S'|'
p7093
NNNI1
I1
I0
tp7094
bg45
tp7095
Rp7096
sS'4RT707T'
p7097
g2
(g3
(S'S4'
p7098
I0
I1
tp7099
Rp7100
(I3
S'|'
p7101
NNNI4
I1
I0
tp7102
bS'DEGF'
p7103
tp7104
Rp7105
sS'PLINE05T'
p7106
g2
(g3
(S'S4'
p7107
I0
I1
tp7108
Rp7109
(I3
S'|'
p7110
NNNI4
I1
I0
tp7111
bS'DEGF'
p7112
tp7113
Rp7114
sS'PLAED3AT'
p7115
g2
(g3
(S'S4'
p7116
I0
I1
tp7117
Rp7118
(I3
S'|'
p7119
NNNI4
I1
I0
tp7120
bS'DEGF'
p7121
tp7122
Rp7123
sS'TAPE2PST'
p7124
g2
(g3
(S'S4'
p7125
I0
I1
tp7126
Rp7127
(I3
S'|'
p7128
NNNI4
I1
I0
tp7129
bS'DEGF'
p7130
tp7131
Rp7132
sS'4PRT4BT'
p7133
g2
(g3
(S'S4'
p7134
I0
I1
tp7135
Rp7136
(I3
S'|'
p7137
NNNI4
I1
I0
tp7138
bS'DEGF'
p7139
tp7140
Rp7141
sS'1DAHHAVO'
p7142
g2
(g3
(S'S1'
p7143
I0
I1
tp7144
Rp7145
(I3
S'|'
p7146
NNNI1
I1
I0
tp7147
bg45
tp7148
Rp7149
sS'ASPEFSW1B'
p7150
g2
(g3
(S'S3'
p7151
I0
I1
tp7152
Rp7153
(I3
S'|'
p7154
NNNI3
I1
I0
tp7155
bS'DEG'
p7156
tp7157
Rp7158
sS'CUSOB28V'
p7159
g2
(g3
(S'S1'
p7160
I0
I1
tp7161
Rp7162
(I3
S'|'
p7163
NNNI1
I1
I0
tp7164
bg45
tp7165
Rp7166
sS'TMP_FEP1_ACTEL'
p7167
g299
sS'4RT555T'
p7168
g2
(g3
(S'S4'
p7169
I0
I1
tp7170
Rp7171
(I3
S'|'
p7172
NNNI4
I1
I0
tp7173
bS'DEGF'
p7174
tp7175
Rp7176
sS'AORESY7'
p7177
g2
(g3
(S'S3'
p7178
I0
I1
tp7179
Rp7180
(I3
S'|'
p7181
NNNI3
I1
I0
tp7182
bS'RAD'
p7183
tp7184
Rp7185
sS'AOSPBCS3B'
p7186
g2
(g3
(S'S4'
p7187
I0
I1
tp7188
Rp7189
(I3
S'|'
p7190
NNNI4
I1
I0
tp7191
bS'MAMP'
p7192
tp7193
Rp7194
sS'PXTANKIP'
p7195
g2
(g3
(S'S4'
p7196
I0
I1
tp7197
Rp7198
(I3
S'|'
p7199
NNNI4
I1
I0
tp7200
bS'PSIA'
p7201
tp7202
Rp7203
sS'3TSCPOS'
p7204
S'TSCSTEP'
p7205
sS'AORESY4'
p7206
g2
(g3
(S'S3'
p7207
I0
I1
tp7208
Rp7209
(I3
S'|'
p7210
NNNI3
I1
I0
tp7211
bS'RAD'
p7212
tp7213
Rp7214
sS'ARWA5BT'
p7215
g2
(g3
(S'S4'
p7216
I0
I1
tp7217
Rp7218
(I3
S'|'
p7219
NNNI4
I1
I0
tp7220
bS'DEGF'
p7221
tp7222
Rp7223
sS'CSITB5V'
p7224
g2
(g3
(S'S1'
p7225
I0
I1
tp7226
Rp7227
(I3
S'|'
p7228
NNNI1
I1
I0
tp7229
bg45
tp7230
Rp7231
sS'2CHTRPZT'
p7232
g2
(g3
(S'S4'
p7233
I0
I1
tp7234
Rp7235
(I3
S'|'
p7236
NNNI4
I1
I0
tp7237
bS'DEGC'
p7238
tp7239
Rp7240
sS'4RT579T'
p7241
g2
(g3
(S'S4'
p7242
I0
I1
tp7243
Rp7244
(I3
S'|'
p7245
NNNI4
I1
I0
tp7246
bS'DEGF'
p7247
tp7248
Rp7249
sS'TCM_USO'
p7250
g2
(g3
(S'S4'
p7251
I0
I1
tp7252
Rp7253
(I3
S'|'
p7254
NNNI4
I1
I0
tp7255
bS'DEGF'
p7256
tp7257
Rp7258
sS'PLINE13T'
p7259
g2
(g3
(S'S4'
p7260
I0
I1
tp7261
Rp7262
(I3
S'|'
p7263
NNNI4
I1
I0
tp7264
bS'DEGF'
p7265
tp7266
Rp7267
sS'AOATTER1'
p7268
g2
(g3
(S'S3'
p7269
I0
I1
tp7270
Rp7271
(I3
S'|'
p7272
NNNI3
I1
I0
tp7273
bS'RAD'
p7274
tp7275
Rp7276
sS'AOATTER2'
p7277
g2
(g3
(S'S3'
p7278
I0
I1
tp7279
Rp7280
(I3
S'|'
p7281
NNNI3
I1
I0
tp7282
bS'RAD'
p7283
tp7284
Rp7285
sS'6RWNLTQ5'
p7286
g2
(g3
(S'S4'
p7287
I0
I1
tp7288
Rp7289
(I3
S'|'
p7290
NNNI4
I1
I0
tp7291
bS'FTLB'
p7292
tp7293
Rp7294
sS'TMZLGABM'
p7295
g2
(g3
(S'S4'
p7296
I0
I1
tp7297
Rp7298
(I3
S'|'
p7299
NNNI4
I1
I0
tp7300
bS'DEGF'
p7301
tp7302
Rp7303
sS'AOCSSI2'
p7304
g2
(g3
(S'S4'
p7305
I0
I1
tp7306
Rp7307
(I3
S'|'
p7308
NNNI4
I1
I0
tp7309
bS'MAMP'
p7310
tp7311
Rp7312
sS'2P24VAVL'
p7313
g2
(g3
(S'S3'
p7314
I0
I1
tp7315
Rp7316
(I3
S'|'
p7317
NNNI3
I1
I0
tp7318
bS'VDC'
p7319
tp7320
Rp7321
sS'AWD5TQI'
p7322
g2
(g3
(S'S3'
p7323
I0
I1
tp7324
Rp7325
(I3
S'|'
p7326
NNNI3
I1
I0
tp7327
bS'AMP'
p7328
tp7329
Rp7330
sS'AORWBTQ5'
p7331
g2
(g3
(S'S4'
p7332
I0
I1
tp7333
Rp7334
(I3
S'|'
p7335
NNNI4
I1
I0
tp7336
bS'FTLB'
p7337
tp7338
Rp7339
sS'OHRTHR41'
p7340
g2
(g3
(S'S4'
p7341
I0
I1
tp7342
Rp7343
(I3
S'|'
p7344
NNNI4
I1
I0
tp7345
bS'DEGF'
p7346
tp7347
Rp7348
sS'ECNV1V'
p7349
g2
(g3
(S'S1'
p7350
I0
I1
tp7351
Rp7352
(I3
S'|'
p7353
NNNI1
I1
I0
tp7354
bg45
tp7355
Rp7356
sS'EEPA5V'
p7357
g2
(g3
(S'S1'
p7358
I0
I1
tp7359
Rp7360
(I3
S'|'
p7361
NNNI1
I1
I0
tp7362
bg45
tp7363
Rp7364
sS'4RT585T'
p7365
g2
(g3
(S'S4'
p7366
I0
I1
tp7367
Rp7368
(I3
S'|'
p7369
NNNI4
I1
I0
tp7370
bS'DEGF'
p7371
tp7372
Rp7373
sS'PLAED2BT'
p7374
g2
(g3
(S'S4'
p7375
I0
I1
tp7376
Rp7377
(I3
S'|'
p7378
NNNI4
I1
I0
tp7379
bS'DEGF'
p7380
tp7381
Rp7382
sS'AAOTH2MT'
p7383
g2
(g3
(S'S4'
p7384
I0
I1
tp7385
Rp7386
(I3
S'|'
p7387
NNNI4
I1
I0
tp7388
bS'DEGF'
p7389
tp7390
Rp7391
sS'OHRTHR02'
p7392
g2
(g3
(S'S4'
p7393
I0
I1
tp7394
Rp7395
(I3
S'|'
p7396
NNNI4
I1
I0
tp7397
bS'DEGF'
p7398
tp7399
Rp7400
sS'4HLL1BT'
p7401
g2
(g3
(S'S4'
p7402
I0
I1
tp7403
Rp7404
(I3
S'|'
p7405
NNNI4
I1
I0
tp7406
bS'DEGF'
p7407
tp7408
Rp7409
sS'AORESY1_1'
p7410
g2
(g3
(S'S3'
p7411
I0
I1
tp7412
Rp7413
(I3
S'|'
p7414
NNNI3
I1
I0
tp7415
bS'RAD'
p7416
tp7417
Rp7418
sS'OHRTHR07'
p7419
g2
(g3
(S'S4'
p7420
I0
I1
tp7421
Rp7422
(I3
S'|'
p7423
NNNI4
I1
I0
tp7424
bS'DEGF'
p7425
tp7426
Rp7427
sS'OHRTHR06'
p7428
g2
(g3
(S'S4'
p7429
I0
I1
tp7430
Rp7431
(I3
S'|'
p7432
NNNI4
I1
I0
tp7433
bS'DEGF'
p7434
tp7435
Rp7436
sS'OHRTHR09'
p7437
g2
(g3
(S'S4'
p7438
I0
I1
tp7439
Rp7440
(I3
S'|'
p7441
NNNI4
I1
I0
tp7442
bS'DEGF'
p7443
tp7444
Rp7445
sS'1WRBT'
p7446
g2
(g3
(S'S4'
p7447
I0
I1
tp7448
Rp7449
(I3
S'|'
p7450
NNNI4
I1
I0
tp7451
bS'DEGC'
p7452
tp7453
Rp7454
sS'AIRU1VFT'
p7455
g2
(g3
(S'S4'
p7456
I0
I1
tp7457
Rp7458
(I3
S'|'
p7459
NNNI4
I1
I0
tp7460
bS'DEGF'
p7461
tp7462
Rp7463
sS'AORESZ6_6'
p7464
g2
(g3
(S'S3'
p7465
I0
I1
tp7466
Rp7467
(I3
S'|'
p7468
NNNI3
I1
I0
tp7469
bS'RAD'
p7470
tp7471
Rp7472
sS'AORESZ6_7'
p7473
g2
(g3
(S'S3'
p7474
I0
I1
tp7475
Rp7476
(I3
S'|'
p7477
NNNI3
I1
I0
tp7478
bS'RAD'
p7479
tp7480
Rp7481
sS'AORESZ6_4'
p7482
g2
(g3
(S'S3'
p7483
I0
I1
tp7484
Rp7485
(I3
S'|'
p7486
NNNI3
I1
I0
tp7487
bS'RAD'
p7488
tp7489
Rp7490
sS'AOADBCH1A_NBG'
p7491
g2
(g3
(S'S3'
p7492
I0
I1
tp7493
Rp7494
(I3
S'|'
p7495
NNNI3
I1
I0
tp7496
bS'DEG'
p7497
tp7498
Rp7499
sS'AORESZ6_2'
p7500
g2
(g3
(S'S3'
p7501
I0
I1
tp7502
Rp7503
(I3
S'|'
p7504
NNNI3
I1
I0
tp7505
bS'RAD'
p7506
tp7507
Rp7508
sS'AORESZ6_3'
p7509
g2
(g3
(S'S3'
p7510
I0
I1
tp7511
Rp7512
(I3
S'|'
p7513
NNNI3
I1
I0
tp7514
bS'RAD'
p7515
tp7516
Rp7517
sS'AOSCVEL2'
p7518
g2
(g3
(S'S4'
p7519
I0
I1
tp7520
Rp7521
(I3
S'|'
p7522
NNNI4
I1
I0
tp7523
bS'KMPS'
p7524
tp7525
Rp7526
sS'3SFLXBST'
p7527
g2
(g3
(S'S4'
p7528
I0
I1
tp7529
Rp7530
(I3
S'|'
p7531
NNNI4
I1
I0
tp7532
bS'DEGC'
p7533
tp7534
Rp7535
sS'4RT570T'
p7536
g2
(g3
(S'S4'
p7537
I0
I1
tp7538
Rp7539
(I3
S'|'
p7540
NNNI4
I1
I0
tp7541
bS'DEGF'
p7542
tp7543
Rp7544
sS'3FABRAAT'
p7545
g2
(g3
(S'S4'
p7546
I0
I1
tp7547
Rp7548
(I3
S'|'
p7549
NNNI4
I1
I0
tp7550
bS'DEGC'
p7551
tp7552
Rp7553
sS'TASPPCM'
p7554
g2
(g3
(S'S4'
p7555
I0
I1
tp7556
Rp7557
(I3
S'|'
p7558
NNNI4
I1
I0
tp7559
bS'DEGF'
p7560
tp7561
Rp7562
sS'ELBI'
p7563
g2
(g3
(S'S3'
p7564
I0
I1
tp7565
Rp7566
(I3
S'|'
p7567
NNNI3
I1
I0
tp7568
bS'AMP'
p7569
tp7570
Rp7571
sS'1CBBT'
p7572
g2
(g3
(S'S4'
p7573
I0
I1
tp7574
Rp7575
(I3
S'|'
p7576
NNNI4
I1
I0
tp7577
bS'DEGC'
p7578
tp7579
Rp7580
sS'AORESZ6_8'
p7581
g2
(g3
(S'S3'
p7582
I0
I1
tp7583
Rp7584
(I3
S'|'
p7585
NNNI3
I1
I0
tp7586
bS'RAD'
p7587
tp7588
Rp7589
sS'TMP_FEP0_ACTEL'
p7590
g299
sS'AOSARES2'
p7591
g2
(g3
(S'S3'
p7592
I0
I1
tp7593
Rp7594
(I3
S'|'
p7595
NNNI3
I1
I0
tp7596
bS'DEG'
p7597
tp7598
Rp7599
sS'AORESY5_1'
p7600
g2
(g3
(S'S3'
p7601
I0
I1
tp7602
Rp7603
(I3
S'|'
p7604
NNNI3
I1
I0
tp7605
bS'RAD'
p7606
tp7607
Rp7608
sS'AOSARES1'
p7609
g2
(g3
(S'S3'
p7610
I0
I1
tp7611
Rp7612
(I3
S'|'
p7613
NNNI3
I1
I0
tp7614
bS'DEG'
p7615
tp7616
Rp7617
sS'4RT591T'
p7618
g2
(g3
(S'S4'
p7619
I0
I1
tp7620
Rp7621
(I3
S'|'
p7622
NNNI4
I1
I0
tp7623
bS'DEGF'
p7624
tp7625
Rp7626
sS'3LDRTPOS'
p7627
g7205
sS'AIRU1G1I'
p7628
g2
(g3
(S'S4'
p7629
I0
I1
tp7630
Rp7631
(I3
S'|'
p7632
NNNI4
I1
I0
tp7633
bS'MAMP'
p7634
tp7635
Rp7636
sS'4PRTAV'
p7637
g2
(g3
(S'S3'
p7638
I0
I1
tp7639
Rp7640
(I3
S'|'
p7641
NNNI3
I1
I0
tp7642
bS'VDC'
p7643
tp7644
Rp7645
sS'TMZP_MY'
p7646
g2
(g3
(S'S4'
p7647
I0
I1
tp7648
Rp7649
(I3
S'|'
p7650
NNNI4
I1
I0
tp7651
bS'DEGF'
p7652
tp7653
Rp7654
sS'AOCMDRT1'
p7655
g2
(g3
(S'S5'
p7656
I0
I1
tp7657
Rp7658
(I3
S'|'
p7659
NNNI5
I1
I0
tp7660
bS'RADPS'
p7661
tp7662
Rp7663
sS'CPCA15V'
p7664
g2
(g3
(S'S1'
p7665
I0
I1
tp7666
Rp7667
(I3
S'|'
p7668
NNNI1
I1
I0
tp7669
bg45
tp7670
Rp7671
sS'TMYHNG'
p7672
g2
(g3
(S'S4'
p7673
I0
I1
tp7674
Rp7675
(I3
S'|'
p7676
NNNI4
I1
I0
tp7677
bS'DEGF'
p7678
tp7679
Rp7680
sS'PLAEV3BT'
p7681
g2
(g3
(S'S4'
p7682
I0
I1
tp7683
Rp7684
(I3
S'|'
p7685
NNNI4
I1
I0
tp7686
bS'DEGF'
p7687
tp7688
Rp7689
sS'1DEICBCU'
p7690
g2
(g3
(S'S3'
p7691
I0
I1
tp7692
Rp7693
(I3
S'|'
p7694
NNNI3
I1
I0
tp7695
bS'AMP'
p7696
tp7697
Rp7698
sS'PLINE12T'
p7699
g2
(g3
(S'S4'
p7700
I0
I1
tp7701
Rp7702
(I3
S'|'
p7703
NNNI4
I1
I0
tp7704
bS'DEGF'
p7705
tp7706
Rp7707
sS'AIRU2VFT'
p7708
g2
(g3
(S'S4'
p7709
I0
I1
tp7710
Rp7711
(I3
S'|'
p7712
NNNI4
I1
I0
tp7713
bS'DEGF'
p7714
tp7715
Rp7716
sS'EOESAT1C'
p7717
g2
(g3
(S'S4'
p7718
I0
I1
tp7719
Rp7720
(I3
S'|'
p7721
NNNI4
I1
I0
tp7722
bS'DEGF'
p7723
tp7724
Rp7725
sS'C28VMONB'
p7726
g2
(g3
(S'S1'
p7727
I0
I1
tp7728
Rp7729
(I3
S'|'
p7730
NNNI1
I1
I0
tp7731
bg45
tp7732
Rp7733
sS'AOADBCH2A_NBG'
p7734
g2
(g3
(S'S3'
p7735
I0
I1
tp7736
Rp7737
(I3
S'|'
p7738
NNNI3
I1
I0
tp7739
bS'DEG'
p7740
tp7741
Rp7742
sS'AOADACH2A_PCAD'
p7743
g2
(g3
(S'S3'
p7744
I0
I1
tp7745
Rp7746
(I3
S'|'
p7747
NNNI3
I1
I0
tp7748
bS'DEG'
p7749
tp7750
Rp7751
sS'3TSPZDET'
p7752
g2
(g3
(S'S4'
p7753
I0
I1
tp7754
Rp7755
(I3
S'|'
p7756
NNNI4
I1
I0
tp7757
bS'DEGC'
p7758
tp7759
Rp7760
sS'AORWINT5'
p7761
g2
(g3
(S'S4'
p7762
I0
I1
tp7763
Rp7764
(I3
S'|'
p7765
NNNI4
I1
I0
tp7766
bS'MSEC'
p7767
tp7768
Rp7769
sS'TPYSADA'
p7770
g2
(g3
(S'S4'
p7771
I0
I1
tp7772
Rp7773
(I3
S'|'
p7774
NNNI4
I1
I0
tp7775
bS'DEGF'
p7776
tp7777
Rp7778
sS'EORTDMN15D'
p7779
g2
(g3
(S'S4'
p7780
I0
I1
tp7781
Rp7782
(I3
S'|'
p7783
NNNI4
I1
I0
tp7784
bS'DEGF'
p7785
tp7786
Rp7787
sS'PLAED4DT'
p7788
g2
(g3
(S'S4'
p7789
I0
I1
tp7790
Rp7791
(I3
S'|'
p7792
NNNI4
I1
I0
tp7793
bS'DEGF'
p7794
tp7795
Rp7796
sS'PHETANKP'
p7797
g2
(g3
(S'S4'
p7798
I0
I1
tp7799
Rp7800
(I3
S'|'
p7801
NNNI4
I1
I0
tp7802
bS'PSIA'
p7803
tp7804
Rp7805
sS'PLINE08T'
p7806
g2
(g3
(S'S4'
p7807
I0
I1
tp7808
Rp7809
(I3
S'|'
p7810
NNNI4
I1
I0
tp7811
bS'DEGF'
p7812
tp7813
Rp7814
sS'TPC_FSSE'
p7815
g2
(g3
(S'S4'
p7816
I0
I1
tp7817
Rp7818
(I3
S'|'
p7819
NNNI4
I1
I0
tp7820
bS'DEGF'
p7821
tp7822
Rp7823
sS'AFLC12BI'
p7824
g2
(g3
(S'S4'
p7825
I0
I1
tp7826
Rp7827
(I3
S'|'
p7828
NNNI4
I1
I0
tp7829
bS'MAMP'
p7830
tp7831
Rp7832
sS'CIUA5V'
p7833
g2
(g3
(S'S1'
p7834
I0
I1
tp7835
Rp7836
(I3
S'|'
p7837
NNNI1
I1
I0
tp7838
bg45
tp7839
Rp7840
sS'AFLC14AI'
p7841
g2
(g3
(S'S4'
p7842
I0
I1
tp7843
Rp7844
(I3
S'|'
p7845
NNNI4
I1
I0
tp7846
bS'MAMP'
p7847
tp7848
Rp7849
sS'TSCIUSF1'
p7850
g2
(g3
(S'S4'
p7851
I0
I1
tp7852
Rp7853
(I3
S'|'
p7854
NNNI4
I1
I0
tp7855
bS'DEGF'
p7856
tp7857
Rp7858
sS'3FAPSAT'
p7859
g2
(g3
(S'S4'
p7860
I0
I1
tp7861
Rp7862
(I3
S'|'
p7863
NNNI4
I1
I0
tp7864
bS'DEGC'
p7865
tp7866
Rp7867
sS'AOMANANG'
p7868
g2
(g3
(S'S3'
p7869
I0
I1
tp7870
Rp7871
(I3
S'|'
p7872
NNNI3
I1
I0
tp7873
bS'RAD'
p7874
tp7875
Rp7876
sS'3TTRALCT'
p7877
g2
(g3
(S'S4'
p7878
I0
I1
tp7879
Rp7880
(I3
S'|'
p7881
NNNI4
I1
I0
tp7882
bS'DEGC'
p7883
tp7884
Rp7885
sS'2P15VBVL'
p7886
g2
(g3
(S'S3'
p7887
I0
I1
tp7888
Rp7889
(I3
S'|'
p7890
NNNI3
I1
I0
tp7891
bS'VDC'
p7892
tp7893
Rp7894
sS'AORESZ4'
p7895
g2
(g3
(S'S3'
p7896
I0
I1
tp7897
Rp7898
(I3
S'|'
p7899
NNNI3
I1
I0
tp7900
bS'RAD'
p7901
tp7902
Rp7903
sS'AORESZ3'
p7904
g2
(g3
(S'S3'
p7905
I0
I1
tp7906
Rp7907
(I3
S'|'
p7908
NNNI3
I1
I0
tp7909
bS'RAD'
p7910
tp7911
Rp7912
sS'AORESZ0'
p7913
g2
(g3
(S'S3'
p7914
I0
I1
tp7915
Rp7916
(I3
S'|'
p7917
NNNI3
I1
I0
tp7918
bS'RAD'
p7919
tp7920
Rp7921
sS'AORWNTQ4'
p7922
g2
(g3
(S'S4'
p7923
I0
I1
tp7924
Rp7925
(I3
S'|'
p7926
NNNI4
I1
I0
tp7927
bS'FTLB'
p7928
tp7929
Rp7930
sS'AORWNTQ5'
p7931
g2
(g3
(S'S4'
p7932
I0
I1
tp7933
Rp7934
(I3
S'|'
p7935
NNNI4
I1
I0
tp7936
bS'FTLB'
p7937
tp7938
Rp7939
sS'AORWNTQ6'
p7940
g2
(g3
(S'S4'
p7941
I0
I1
tp7942
Rp7943
(I3
S'|'
p7944
NNNI4
I1
I0
tp7945
bS'FTLB'
p7946
tp7947
Rp7948
sS'TMP_FEP1_MONG'
p7949
g299
sS'AORWMC6_1'
p7950
g2
(g3
(S'S7'
p7951
I0
I1
tp7952
Rp7953
(I3
S'|'
p7954
NNNI7
I1
I0
tp7955
bS'FTLBSEC'
p7956
tp7957
Rp7958
sS'AORWNTQ1'
p7959
g2
(g3
(S'S4'
p7960
I0
I1
tp7961
Rp7962
(I3
S'|'
p7963
NNNI4
I1
I0
tp7964
bS'FTLB'
p7965
tp7966
Rp7967
sS'AORWNTQ2'
p7968
g2
(g3
(S'S4'
p7969
I0
I1
tp7970
Rp7971
(I3
S'|'
p7972
NNNI4
I1
I0
tp7973
bS'FTLB'
p7974
tp7975
Rp7976
sS'AORWNTQ3'
p7977
g2
(g3
(S'S4'
p7978
I0
I1
tp7979
Rp7980
(I3
S'|'
p7981
NNNI4
I1
I0
tp7982
bS'FTLB'
p7983
tp7984
Rp7985
sS'AOSPBCS4B'
p7986
g2
(g3
(S'S4'
p7987
I0
I1
tp7988
Rp7989
(I3
S'|'
p7990
NNNI4
I1
I0
tp7991
bS'MAMP'
p7992
tp7993
Rp7994
sS'4RT567T'
p7995
g2
(g3
(S'S4'
p7996
I0
I1
tp7997
Rp7998
(I3
S'|'
p7999
NNNI4
I1
I0
tp8000
bS'DEGF'
p8001
tp8002
Rp8003
sS'4PRT1BT'
p8004
g2
(g3
(S'S4'
p8005
I0
I1
tp8006
Rp8007
(I3
S'|'
p8008
NNNI4
I1
I0
tp8009
bS'DEGF'
p8010
tp8011
Rp8012
sS'6RATE2'
p8013
g2
(g3
(S'S5'
p8014
I0
I1
tp8015
Rp8016
(I3
S'|'
p8017
NNNI5
I1
I0
tp8018
bS'RADPS'
p8019
tp8020
Rp8021
sS'6RATE3'
p8022
g2
(g3
(S'S5'
p8023
I0
I1
tp8024
Rp8025
(I3
S'|'
p8026
NNNI5
I1
I0
tp8027
bS'RADPS'
p8028
tp8029
Rp8030
sS'6RATE1'
p8031
g2
(g3
(S'S5'
p8032
I0
I1
tp8033
Rp8034
(I3
S'|'
p8035
NNNI5
I1
I0
tp8036
bS'RADPS'
p8037
tp8038
Rp8039
sS'6SAEST1'
p8040
g2
(g3
(S'S3'
p8041
I0
I1
tp8042
Rp8043
(I3
S'|'
p8044
NNNI3
I1
I0
tp8045
bS'RAD'
p8046
tp8047
Rp8048
sS'AORWMC1'
p8049
g2
(g3
(S'S7'
p8050
I0
I1
tp8051
Rp8052
(I3
S'|'
p8053
NNNI7
I1
I0
tp8054
bS'FTLBSEC'
p8055
tp8056
Rp8057
sS'6SAEST2'
p8058
g2
(g3
(S'S3'
p8059
I0
I1
tp8060
Rp8061
(I3
S'|'
p8062
NNNI3
I1
I0
tp8063
bS'RAD'
p8064
tp8065
Rp8066
sS'AORWMC4'
p8067
g2
(g3
(S'S7'
p8068
I0
I1
tp8069
Rp8070
(I3
S'|'
p8071
NNNI7
I1
I0
tp8072
bS'FTLBSEC'
p8073
tp8074
Rp8075
sS'AORWMC5'
p8076
g2
(g3
(S'S7'
p8077
I0
I1
tp8078
Rp8079
(I3
S'|'
p8080
NNNI7
I1
I0
tp8081
bS'FTLBSEC'
p8082
tp8083
Rp8084
sS'6ALPANG'
p8085
g2
(g3
(S'S3'
p8086
I0
I1
tp8087
Rp8088
(I3
S'|'
p8089
NNNI3
I1
I0
tp8090
bS'DEG'
p8091
tp8092
Rp8093
sS'TB1T2'
p8094
g2
(g3
(S'S4'
p8095
I0
I1
tp8096
Rp8097
(I3
S'|'
p8098
NNNI4
I1
I0
tp8099
bS'DEGF'
p8100
tp8101
Rp8102
sS'PM1THV2T'
p8103
g2
(g3
(S'S4'
p8104
I0
I1
tp8105
Rp8106
(I3
S'|'
p8107
NNNI4
I1
I0
tp8108
bS'DEGF'
p8109
tp8110
Rp8111
sS'EB3DI'
p8112
g2
(g3
(S'S3'
p8113
I0
I1
tp8114
Rp8115
(I3
S'|'
p8116
NNNI3
I1
I0
tp8117
bS'AMP'
p8118
tp8119
Rp8120
sS'AOSCPOS1'
p8121
g2
(g3
(S'S2'
p8122
I0
I1
tp8123
Rp8124
(I3
S'|'
p8125
NNNI2
I1
I0
tp8126
bS'KM'
p8127
tp8128
Rp8129
sS'AOSCPOS2'
p8130
g2
(g3
(S'S2'
p8131
I0
I1
tp8132
Rp8133
(I3
S'|'
p8134
NNNI2
I1
I0
tp8135
bS'KM'
p8136
tp8137
Rp8138
sS'4RT569T'
p8139
g2
(g3
(S'S4'
p8140
I0
I1
tp8141
Rp8142
(I3
S'|'
p8143
NNNI4
I1
I0
tp8144
bS'DEGF'
p8145
tp8146
Rp8147
sS'4RT588T'
p8148
g2
(g3
(S'S4'
p8149
I0
I1
tp8150
Rp8151
(I3
S'|'
p8152
NNNI4
I1
I0
tp8153
bS'DEGF'
p8154
tp8155
Rp8156
sS'PCM01T'
p8157
g2
(g3
(S'S4'
p8158
I0
I1
tp8159
Rp8160
(I3
S'|'
p8161
NNNI4
I1
I0
tp8162
bS'DEGF'
p8163
tp8164
Rp8165
sS'4RT596T'
p8166
g2
(g3
(S'S4'
p8167
I0
I1
tp8168
Rp8169
(I3
S'|'
p8170
NNNI4
I1
I0
tp8171
bS'DEGF'
p8172
tp8173
Rp8174
sS'6SINTER3'
p8175
g2
(g3
(S'S3'
p8176
I0
I1
tp8177
Rp8178
(I3
S'|'
p8179
NNNI3
I1
I0
tp8180
bS'RAD'
p8181
tp8182
Rp8183
sS'AI1AX1Y'
p8184
g2
(g3
(S'S5'
p8185
I0
I1
tp8186
Rp8187
(I3
S'|'
p8188
NNNI5
I1
I0
tp8189
bS'DEGPS'
p8190
tp8191
Rp8192
sS'6SINTER1'
p8193
g2
(g3
(S'S3'
p8194
I0
I1
tp8195
Rp8196
(I3
S'|'
p8197
NNNI3
I1
I0
tp8198
bS'RAD'
p8199
tp8200
Rp8201
sS'OOBTHR52'
p8202
g2
(g3
(S'S4'
p8203
I0
I1
tp8204
Rp8205
(I3
S'|'
p8206
NNNI4
I1
I0
tp8207
bS'DEGF'
p8208
tp8209
Rp8210
sS'OOBTHR55'
p8211
g2
(g3
(S'S4'
p8212
I0
I1
tp8213
Rp8214
(I3
S'|'
p8215
NNNI4
I1
I0
tp8216
bS'DEGF'
p8217
tp8218
Rp8219
sS'EORTDMN13D'
p8220
g2
(g3
(S'S4'
p8221
I0
I1
tp8222
Rp8223
(I3
S'|'
p8224
NNNI4
I1
I0
tp8225
bS'DEGF'
p8226
tp8227
Rp8228
sS'OOBTHR57'
p8229
g2
(g3
(S'S4'
p8230
I0
I1
tp8231
Rp8232
(I3
S'|'
p8233
NNNI4
I1
I0
tp8234
bS'DEGF'
p8235
tp8236
Rp8237
sS'OOBTHR56'
p8238
g2
(g3
(S'S4'
p8239
I0
I1
tp8240
Rp8241
(I3
S'|'
p8242
NNNI4
I1
I0
tp8243
bS'DEGF'
p8244
tp8245
Rp8246
sS'OOBTHR59'
p8247
g2
(g3
(S'S4'
p8248
I0
I1
tp8249
Rp8250
(I3
S'|'
p8251
NNNI4
I1
I0
tp8252
bS'DEGF'
p8253
tp8254
Rp8255
sS'OOBTHR58'
p8256
g2
(g3
(S'S4'
p8257
I0
I1
tp8258
Rp8259
(I3
S'|'
p8260
NNNI4
I1
I0
tp8261
bS'DEGF'
p8262
tp8263
Rp8264
sS'PLINE14T'
p8265
g2
(g3
(S'S4'
p8266
I0
I1
tp8267
Rp8268
(I3
S'|'
p8269
NNNI4
I1
I0
tp8270
bS'DEGF'
p8271
tp8272
Rp8273
sS'1SSMYT'
p8274
g2
(g3
(S'S4'
p8275
I0
I1
tp8276
Rp8277
(I3
S'|'
p8278
NNNI4
I1
I0
tp8279
bS'DEGC'
p8280
tp8281
Rp8282
sS'CTXBV'
p8283
g2
(g3
(S'S1'
p8284
I0
I1
tp8285
Rp8286
(I3
S'|'
p8287
NNNI1
I1
I0
tp8288
bg45
tp8289
Rp8290
sS'4PRT2BT'
p8291
g2
(g3
(S'S4'
p8292
I0
I1
tp8293
Rp8294
(I3
S'|'
p8295
NNNI4
I1
I0
tp8296
bS'DEGF'
p8297
tp8298
Rp8299
sS'ARWA6BT'
p8300
g2
(g3
(S'S4'
p8301
I0
I1
tp8302
Rp8303
(I3
S'|'
p8304
NNNI4
I1
I0
tp8305
bS'DEGF'
p8306
tp8307
Rp8308
sS'4RT575T'
p8309
g2
(g3
(S'S4'
p8310
I0
I1
tp8311
Rp8312
(I3
S'|'
p8313
NNNI4
I1
I0
tp8314
bS'DEGF'
p8315
tp8316
Rp8317
sS'CPA1BPT'
p8318
g2
(g3
(S'S4'
p8319
I0
I1
tp8320
Rp8321
(I3
S'|'
p8322
NNNI4
I1
I0
tp8323
bS'DEGF'
p8324
tp8325
Rp8326
sS'PM4THV2T'
p8327
g2
(g3
(S'S4'
p8328
I0
I1
tp8329
Rp8330
(I3
S'|'
p8331
NNNI4
I1
I0
tp8332
bS'DEGF'
p8333
tp8334
Rp8335
sS'TPC_PAN'
p8336
g2
(g3
(S'S4'
p8337
I0
I1
tp8338
Rp8339
(I3
S'|'
p8340
NNNI4
I1
I0
tp8341
bS'DEGF'
p8342
tp8343
Rp8344
sS'2PMT1T'
p8345
g2
(g3
(S'S4'
p8346
I0
I1
tp8347
Rp8348
(I3
S'|'
p8349
NNNI4
I1
I0
tp8350
bS'DEGC'
p8351
tp8352
Rp8353
sS'CIUA15V'
p8354
g2
(g3
(S'S1'
p8355
I0
I1
tp8356
Rp8357
(I3
S'|'
p8358
NNNI1
I1
I0
tp8359
bg45
tp8360
Rp8361
sS'1DPAMZT'
p8362
g2
(g3
(S'S4'
p8363
I0
I1
tp8364
Rp8365
(I3
S'|'
p8366
NNNI4
I1
I0
tp8367
bS'DEGC'
p8368
tp8369
Rp8370
sS'EIACVBV'
p8371
g2
(g3
(S'S1'
p8372
I0
I1
tp8373
Rp8374
(I3
S'|'
p8375
NNNI1
I1
I0
tp8376
bg45
tp8377
Rp8378
sS'4PRTBV'
p8379
g2
(g3
(S'S3'
p8380
I0
I1
tp8381
Rp8382
(I3
S'|'
p8383
NNNI3
I1
I0
tp8384
bS'VDC'
p8385
tp8386
Rp8387
sS'4RT703T'
p8388
g2
(g3
(S'S4'
p8389
I0
I1
tp8390
Rp8391
(I3
S'|'
p8392
NNNI4
I1
I0
tp8393
bS'DEGF'
p8394
tp8395
Rp8396
sS'1DAHHBVO'
p8397
g2
(g3
(S'S1'
p8398
I0
I1
tp8399
Rp8400
(I3
S'|'
p8401
NNNI1
I1
I0
tp8402
bg45
tp8403
Rp8404
sS'1DEP1AVO'
p8405
g2
(g3
(S'S1'
p8406
I0
I1
tp8407
Rp8408
(I3
S'|'
p8409
NNNI1
I1
I0
tp8410
bg45
tp8411
Rp8412
sS'1VAHOBT'
p8413
g2
(g3
(S'S4'
p8414
I0
I1
tp8415
Rp8416
(I3
S'|'
p8417
NNNI4
I1
I0
tp8418
bS'DEGC'
p8419
tp8420
Rp8421
sS'1MAHOBT'
p8422
g2
(g3
(S'S4'
p8423
I0
I1
tp8424
Rp8425
(I3
S'|'
p8426
NNNI4
I1
I0
tp8427
bS'DEGC'
p8428
tp8429
Rp8430
sS'CXPNAIT'
p8431
g2
(g3
(S'S4'
p8432
I0
I1
tp8433
Rp8434
(I3
S'|'
p8435
NNNI4
I1
I0
tp8436
bS'DEGF'
p8437
tp8438
Rp8439
sS'4ALL1AT'
p8440
g2
(g3
(S'S4'
p8441
I0
I1
tp8442
Rp8443
(I3
S'|'
p8444
NNNI4
I1
I0
tp8445
bS'DEGF'
p8446
tp8447
Rp8448
sS'CRXBLS'
p8449
g2
(g3
(S'S3'
p8450
I0
I1
tp8451
Rp8452
(I3
S'|'
p8453
NNNI3
I1
I0
tp8454
bS'KHZ'
p8455
tp8456
Rp8457
sS'PMTANK1T'
p8458
g2
(g3
(S'S4'
p8459
I0
I1
tp8460
Rp8461
(I3
S'|'
p8462
NNNI4
I1
I0
tp8463
bS'DEGF'
p8464
tp8465
Rp8466
sS'OHRTHR49'
p8467
g2
(g3
(S'S4'
p8468
I0
I1
tp8469
Rp8470
(I3
S'|'
p8471
NNNI4
I1
I0
tp8472
bS'DEGF'
p8473
tp8474
Rp8475
sS'EOEB3DIC'
p8476
g2
(g3
(S'S3'
p8477
I0
I1
tp8478
Rp8479
(I3
S'|'
p8480
NNNI3
I1
I0
tp8481
bS'AMP'
p8482
tp8483
Rp8484
sS'OHRTHR45'
p8485
g2
(g3
(S'S4'
p8486
I0
I1
tp8487
Rp8488
(I3
S'|'
p8489
NNNI4
I1
I0
tp8490
bS'DEGF'
p8491
tp8492
Rp8493
sS'OHRTHR44'
p8494
g2
(g3
(S'S4'
p8495
I0
I1
tp8496
Rp8497
(I3
S'|'
p8498
NNNI4
I1
I0
tp8499
bS'DEGF'
p8500
tp8501
Rp8502
sS'OHRTHR47'
p8503
g2
(g3
(S'S4'
p8504
I0
I1
tp8505
Rp8506
(I3
S'|'
p8507
NNNI4
I1
I0
tp8508
bS'DEGF'
p8509
tp8510
Rp8511
sS'OHRTHR46'
p8512
g2
(g3
(S'S4'
p8513
I0
I1
tp8514
Rp8515
(I3
S'|'
p8516
NNNI4
I1
I0
tp8517
bS'DEGF'
p8518
tp8519
Rp8520
sS'AOADACH1A_NBG'
p8521
g2
(g3
(S'S3'
p8522
I0
I1
tp8523
Rp8524
(I3
S'|'
p8525
NNNI3
I1
I0
tp8526
bS'DEG'
p8527
tp8528
Rp8529
sS'OHRTHR40'
p8530
g2
(g3
(S'S4'
p8531
I0
I1
tp8532
Rp8533
(I3
S'|'
p8534
NNNI4
I1
I0
tp8535
bS'DEGF'
p8536
tp8537
Rp8538
sS'OHRTHR43'
p8539
g2
(g3
(S'S4'
p8540
I0
I1
tp8541
Rp8542
(I3
S'|'
p8543
NNNI4
I1
I0
tp8544
bS'DEGF'
p8545
tp8546
Rp8547
sS'OHRTHR42'
p8548
g2
(g3
(S'S4'
p8549
I0
I1
tp8550
Rp8551
(I3
S'|'
p8552
NNNI4
I1
I0
tp8553
bS'DEGF'
p8554
tp8555
Rp8556
sS'AWD2TQI'
p8557
g2
(g3
(S'S3'
p8558
I0
I1
tp8559
Rp8560
(I3
S'|'
p8561
NNNI3
I1
I0
tp8562
bS'AMP'
p8563
tp8564
Rp8565
sS'4LPOSARO'
p8566
g2
(g3
(S'S3'
p8567
I0
I1
tp8568
Rp8569
(I3
S'|'
p8570
NNNI3
I1
I0
tp8571
bS'DEG'
p8572
tp8573
Rp8574
sS'PCM03T'
p8575
g2
(g3
(S'S4'
p8576
I0
I1
tp8577
Rp8578
(I3
S'|'
p8579
NNNI4
I1
I0
tp8580
bS'DEGF'
p8581
tp8582
Rp8583
sS'EOEB1DIC'
p8584
g2
(g3
(S'S3'
p8585
I0
I1
tp8586
Rp8587
(I3
S'|'
p8588
NNNI3
I1
I0
tp8589
bS'AMP'
p8590
tp8591
Rp8592
sS'TMP_FEP0_MONG'
p8593
g299
sS'62RCSTMR'
p8594
g2
(g3
(S'S3'
p8595
I0
I1
tp8596
Rp8597
(I3
S'|'
p8598
NNNI3
I1
I0
tp8599
bS'MIN'
p8600
tp8601
Rp8602
sS'TASPPCU'
p8603
g2
(g3
(S'S4'
p8604
I0
I1
tp8605
Rp8606
(I3
S'|'
p8607
NNNI4
I1
I0
tp8608
bS'DEGF'
p8609
tp8610
Rp8611
sS'PCM04T'
p8612
g2
(g3
(S'S4'
p8613
I0
I1
tp8614
Rp8615
(I3
S'|'
p8616
NNNI4
I1
I0
tp8617
bS'DEGF'
p8618
tp8619
Rp8620
sS'64RCSTMR'
p8621
g2
(g3
(S'S3'
p8622
I0
I1
tp8623
Rp8624
(I3
S'|'
p8625
NNNI3
I1
I0
tp8626
bS'MIN'
p8627
tp8628
Rp8629
sS'4RT708T'
p8630
g2
(g3
(S'S4'
p8631
I0
I1
tp8632
Rp8633
(I3
S'|'
p8634
NNNI4
I1
I0
tp8635
bS'DEGF'
p8636
tp8637
Rp8638
sS'OOBAGRD6'
p8639
g2
(g3
(S'S4'
p8640
I0
I1
tp8641
Rp8642
(I3
S'|'
p8643
NNNI4
I1
I0
tp8644
bS'DEGF'
p8645
tp8646
Rp8647
sS'TB1T3'
p8648
g2
(g3
(S'S4'
p8649
I0
I1
tp8650
Rp8651
(I3
S'|'
p8652
NNNI4
I1
I0
tp8653
bS'DEGF'
p8654
tp8655
Rp8656
sS'TEP_EIA'
p8657
g2
(g3
(S'S4'
p8658
I0
I1
tp8659
Rp8660
(I3
S'|'
p8661
NNNI4
I1
I0
tp8662
bS'DEGF'
p8663
tp8664
Rp8665
sS'AOBETANG'
p8666
g2
(g3
(S'S3'
p8667
I0
I1
tp8668
Rp8669
(I3
S'|'
p8670
NNNI3
I1
I0
tp8671
bS'DEG'
p8672
tp8673
Rp8674
sS'OOBAGRD3'
p8675
g2
(g3
(S'S4'
p8676
I0
I1
tp8677
Rp8678
(I3
S'|'
p8679
NNNI4
I1
I0
tp8680
bS'DEGF'
p8681
tp8682
Rp8683
sS'PLAED1FT'
p8684
g2
(g3
(S'S4'
p8685
I0
I1
tp8686
Rp8687
(I3
S'|'
p8688
NNNI4
I1
I0
tp8689
bS'DEGF'
p8690
tp8691
Rp8692
sS'EB3CI'
p8693
g2
(g3
(S'S3'
p8694
I0
I1
tp8695
Rp8696
(I3
S'|'
p8697
NNNI3
I1
I0
tp8698
bS'AMP'
p8699
tp8700
Rp8701
sS'AORESZ1_1'
p8702
g2
(g3
(S'S3'
p8703
I0
I1
tp8704
Rp8705
(I3
S'|'
p8706
NNNI3
I1
I0
tp8707
bS'RAD'
p8708
tp8709
Rp8710
sS'TATECDPT'
p8711
g2
(g3
(S'S4'
p8712
I0
I1
tp8713
Rp8714
(I3
S'|'
p8715
NNNI4
I1
I0
tp8716
bS'DEGF'
p8717
tp8718
Rp8719
sS'4RT581T'
p8720
g2
(g3
(S'S4'
p8721
I0
I1
tp8722
Rp8723
(I3
S'|'
p8724
NNNI4
I1
I0
tp8725
bS'DEGF'
p8726
tp8727
Rp8728
sS'1HOPRBPR'
p8729
g2
(g3
(S'S4'
p8730
I0
I1
tp8731
Rp8732
(I3
S'|'
p8733
NNNI4
I1
I0
tp8734
bS'TORR'
p8735
tp8736
Rp8737
sS'1CRBT'
p8738
g2
(g3
(S'S4'
p8739
I0
I1
tp8740
Rp8741
(I3
S'|'
p8742
NNNI4
I1
I0
tp8743
bS'DEGC'
p8744
tp8745
Rp8746
sS'OHRTHR26'
p8747
g2
(g3
(S'S4'
p8748
I0
I1
tp8749
Rp8750
(I3
S'|'
p8751
NNNI4
I1
I0
tp8752
bS'DEGF'
p8753
tp8754
Rp8755
sS'AWD6TQI'
p8756
g2
(g3
(S'S3'
p8757
I0
I1
tp8758
Rp8759
(I3
S'|'
p8760
NNNI3
I1
I0
tp8761
bS'AMP'
p8762
tp8763
Rp8764
s.