(dp0
S'1DEAMZT'
p1
cnumpy.core.multiarray
scalar
p2
(cnumpy
dtype
p3
(S'S4'
p4
I0
I1
tp5
Rp6
(I3
S'|'
p7
NNNI4
I1
I0
tp8
bS'DEGC'
p9
tp10
Rp11
sS'PLINE16T'
p12
g2
(g3
(S'S4'
p13
I0
I1
tp14
Rp15
(I3
S'|'
p16
NNNI4
I1
I0
tp17
bS'DEGF'
p18
tp19
Rp20
sS'EORTDMN18D'
p21
g2
(g3
(S'S4'
p22
I0
I1
tp23
Rp24
(I3
S'|'
p25
NNNI4
I1
I0
tp26
bS'DEGF'
p27
tp28
Rp29
sS'LUNAREPHEM1_TIME'
p30
S's'
p31
sS'OHRTHR38'
p32
g2
(g3
(S'S4'
p33
I0
I1
tp34
Rp35
(I3
S'|'
p36
NNNI4
I1
I0
tp37
bS'DEGF'
p38
tp39
Rp40
sS'PR1TV02T'
p41
g2
(g3
(S'S4'
p42
I0
I1
tp43
Rp44
(I3
S'|'
p45
NNNI4
I1
I0
tp46
bS'DEGF'
p47
tp48
Rp49
sS'OHRTHR30'
p50
g2
(g3
(S'S4'
p51
I0
I1
tp52
Rp53
(I3
S'|'
p54
NNNI4
I1
I0
tp55
bS'DEGF'
p56
tp57
Rp58
sS'OHRTHR31'
p59
g2
(g3
(S'S4'
p60
I0
I1
tp61
Rp62
(I3
S'|'
p63
NNNI4
I1
I0
tp64
bS'DEGF'
p65
tp66
Rp67
sS'OHRTHR33'
p68
g2
(g3
(S'S4'
p69
I0
I1
tp70
Rp71
(I3
S'|'
p72
NNNI4
I1
I0
tp73
bS'DEGF'
p74
tp75
Rp76
sS'OHRTHR34'
p77
g2
(g3
(S'S4'
p78
I0
I1
tp79
Rp80
(I3
S'|'
p81
NNNI4
I1
I0
tp82
bS'DEGF'
p83
tp84
Rp85
sS'OHRTHR35'
p86
g2
(g3
(S'S4'
p87
I0
I1
tp88
Rp89
(I3
S'|'
p90
NNNI4
I1
I0
tp91
bS'DEGF'
p92
tp93
Rp94
sS'OHRTHR36'
p95
g2
(g3
(S'S4'
p96
I0
I1
tp97
Rp98
(I3
S'|'
p99
NNNI4
I1
I0
tp100
bS'DEGF'
p101
tp102
Rp103
sS'OHRTHR37'
p104
g2
(g3
(S'S4'
p105
I0
I1
tp106
Rp107
(I3
S'|'
p108
NNNI4
I1
I0
tp109
bS'DEGF'
p110
tp111
Rp112
sS'EORTDMN11D'
p113
g2
(g3
(S'S4'
p114
I0
I1
tp115
Rp116
(I3
S'|'
p117
NNNI4
I1
I0
tp118
bS'DEGF'
p119
tp120
Rp121
sS'AFLC11BI'
p122
g2
(g3
(S'S4'
p123
I0
I1
tp124
Rp125
(I3
S'|'
p126
NNNI4
I1
I0
tp127
bS'MAMP'
p128
tp129
Rp130
sS'AORWMC3_1'
p131
g2
(g3
(S'S7'
p132
I0
I1
tp133
Rp134
(I3
S'|'
p135
NNNI7
I1
I0
tp136
bS'FTLBSEC'
p137
tp138
Rp139
sS'3TTHRC1T'
p140
g2
(g3
(S'S4'
p141
I0
I1
tp142
Rp143
(I3
S'|'
p144
NNNI4
I1
I0
tp145
bS'DEGC'
p146
tp147
Rp148
sS'OHRTHR08_WIDE'
p149
g2
(g3
(S'S4'
p150
I0
I1
tp151
Rp152
(I3
S'|'
p153
NNNI4
I1
I0
tp154
bS'DEGF'
p155
tp156
Rp157
sS'PLAED4FT'
p158
g2
(g3
(S'S4'
p159
I0
I1
tp160
Rp161
(I3
S'|'
p162
NNNI4
I1
I0
tp163
bS'DEGF'
p164
tp165
Rp166
sS'4RT562T'
p167
g2
(g3
(S'S4'
p168
I0
I1
tp169
Rp170
(I3
S'|'
p171
NNNI4
I1
I0
tp172
bS'DEGF'
p173
tp174
Rp175
sS'PLINE06T'
p176
g2
(g3
(S'S4'
p177
I0
I1
tp178
Rp179
(I3
S'|'
p180
NNNI4
I1
I0
tp181
bS'DEGF'
p182
tp183
Rp184
sS'POR2TV02T'
p185
g2
(g3
(S'S4'
p186
I0
I1
tp187
Rp188
(I3
S'|'
p189
NNNI4
I1
I0
tp190
bS'DEGF'
p191
tp192
Rp193
sS'1DAHAVO'
p194
g2
(g3
(S'S1'
p195
I0
I1
tp196
Rp197
(I3
S'|'
p198
NNNI1
I1
I0
tp199
bS'V'
p200
tp201
Rp202
sS'OOBTHR36_WIDE'
p203
g2
(g3
(S'S4'
p204
I0
I1
tp205
Rp206
(I3
S'|'
p207
NNNI4
I1
I0
tp208
bS'DEGF'
p209
tp210
Rp211
sS'OOBTHR24_WIDE'
p212
g2
(g3
(S'S4'
p213
I0
I1
tp214
Rp215
(I3
S'|'
p216
NNNI4
I1
I0
tp217
bS'DEGF'
p218
tp219
Rp220
sS'AI1AX1X'
p221
g2
(g3
(S'S5'
p222
I0
I1
tp223
Rp224
(I3
S'|'
p225
NNNI5
I1
I0
tp226
bS'DEGPS'
p227
tp228
Rp229
sS'OHRTHR39'
p230
g2
(g3
(S'S4'
p231
I0
I1
tp232
Rp233
(I3
S'|'
p234
NNNI4
I1
I0
tp235
bS'DEGF'
p236
tp237
Rp238
sS'PHOFP1T'
p239
g2
(g3
(S'S4'
p240
I0
I1
tp241
Rp242
(I3
S'|'
p243
NNNI4
I1
I0
tp244
bS'DEGF'
p245
tp246
Rp247
sS'OHRTHR41_WIDE'
p248
g2
(g3
(S'S4'
p249
I0
I1
tp250
Rp251
(I3
S'|'
p252
NNNI4
I1
I0
tp253
bS'DEGF'
p254
tp255
Rp256
sS'OOBTHR17_WIDE'
p257
g2
(g3
(S'S4'
p258
I0
I1
tp259
Rp260
(I3
S'|'
p261
NNNI4
I1
I0
tp262
bS'DEGF'
p263
tp264
Rp265
sS'OHRTHR31_WIDE'
p266
g2
(g3
(S'S4'
p267
I0
I1
tp268
Rp269
(I3
S'|'
p270
NNNI4
I1
I0
tp271
bS'DEGF'
p272
tp273
Rp274
sS'OOBTHR46'
p275
g2
(g3
(S'S4'
p276
I0
I1
tp277
Rp278
(I3
S'|'
p279
NNNI4
I1
I0
tp280
bS'DEGF'
p281
tp282
Rp283
sS'EOESAC1C'
p284
g2
(g3
(S'S3'
p285
I0
I1
tp286
Rp287
(I3
S'|'
p288
NNNI3
I1
I0
tp289
bS'AMP'
p290
tp291
Rp292
sS'OOBTHR18'
p293
g2
(g3
(S'S4'
p294
I0
I1
tp295
Rp296
(I3
S'|'
p297
NNNI4
I1
I0
tp298
bS'DEGF'
p299
tp300
Rp301
sS'SOLAREPHEM1_TIME'
p302
S's'
p303
sS'OOBTHR15'
p304
g2
(g3
(S'S4'
p305
I0
I1
tp306
Rp307
(I3
S'|'
p308
NNNI4
I1
I0
tp309
bS'DEGF'
p310
tp311
Rp312
sS'OOBTHR14'
p313
g2
(g3
(S'S4'
p314
I0
I1
tp315
Rp316
(I3
S'|'
p317
NNNI4
I1
I0
tp318
bS'DEGF'
p319
tp320
Rp321
sS'OOBTHR17'
p322
g2
(g3
(S'S4'
p323
I0
I1
tp324
Rp325
(I3
S'|'
p326
NNNI4
I1
I0
tp327
bS'DEGF'
p328
tp329
Rp330
sS'OOBTHR11'
p331
g2
(g3
(S'S4'
p332
I0
I1
tp333
Rp334
(I3
S'|'
p335
NNNI4
I1
I0
tp336
bS'DEGF'
p337
tp338
Rp339
sS'OOBTHR10'
p340
g2
(g3
(S'S4'
p341
I0
I1
tp342
Rp343
(I3
S'|'
p344
NNNI4
I1
I0
tp345
bS'DEGF'
p346
tp347
Rp348
sS'OOBTHR13'
p349
g2
(g3
(S'S4'
p350
I0
I1
tp351
Rp352
(I3
S'|'
p353
NNNI4
I1
I0
tp354
bS'DEGF'
p355
tp356
Rp357
sS'OOBTHR12'
p358
g2
(g3
(S'S4'
p359
I0
I1
tp360
Rp361
(I3
S'|'
p362
NNNI4
I1
I0
tp363
bS'DEGF'
p364
tp365
Rp366
sS'4HLL2BT'
p367
g2
(g3
(S'S4'
p368
I0
I1
tp369
Rp370
(I3
S'|'
p371
NNNI4
I1
I0
tp372
bS'DEGF'
p373
tp374
Rp375
sS'OOBTHR10_WIDE'
p376
g2
(g3
(S'S4'
p377
I0
I1
tp378
Rp379
(I3
S'|'
p380
NNNI4
I1
I0
tp381
bS'DEGF'
p382
tp383
Rp384
sS'4HLL1AT'
p385
g2
(g3
(S'S4'
p386
I0
I1
tp387
Rp388
(I3
S'|'
p389
NNNI4
I1
I0
tp390
bS'DEGF'
p391
tp392
Rp393
sS'ESAMYI'
p394
g2
(g3
(S'S3'
p395
I0
I1
tp396
Rp397
(I3
S'|'
p398
NNNI3
I1
I0
tp399
bS'AMP'
p400
tp401
Rp402
sS'TMYSADA'
p403
g2
(g3
(S'S4'
p404
I0
I1
tp405
Rp406
(I3
S'|'
p407
NNNI4
I1
I0
tp408
bS'DEGF'
p409
tp410
Rp411
sS'OHRTHR43_WIDE'
p412
g2
(g3
(S'S4'
p413
I0
I1
tp414
Rp415
(I3
S'|'
p416
NNNI4
I1
I0
tp417
bS'DEGF'
p418
tp419
Rp420
sS'AACH2T'
p421
g2
(g3
(S'S4'
p422
I0
I1
tp423
Rp424
(I3
S'|'
p425
NNNI4
I1
I0
tp426
bS'DEGF'
p427
tp428
Rp429
sS'AFLCA5AI'
p430
g2
(g3
(S'S4'
p431
I0
I1
tp432
Rp433
(I3
S'|'
p434
NNNI4
I1
I0
tp435
bS'MAMP'
p436
tp437
Rp438
sS'HKP6I'
p439
S'mA'
p440
sS'PMFP01T'
p441
g2
(g3
(S'S4'
p442
I0
I1
tp443
Rp444
(I3
S'|'
p445
NNNI4
I1
I0
tp446
bS'DEGF'
p447
tp448
Rp449
sS'CVEER'
p450
g2
(g3
(S'S1'
p451
I0
I1
tp452
Rp453
(I3
S'|'
p454
NNNI1
I1
I0
tp455
bg200
tp456
Rp457
sS'4RT584T'
p458
g2
(g3
(S'S4'
p459
I0
I1
tp460
Rp461
(I3
S'|'
p462
NNNI4
I1
I0
tp463
bS'DEGF'
p464
tp465
Rp466
sS'HKP6V'
p467
S'V'
p468
sS'2P05VBVL'
p469
g2
(g3
(S'S3'
p470
I0
I1
tp471
Rp472
(I3
S'|'
p473
NNNI3
I1
I0
tp474
bS'VDC'
p475
tp476
Rp477
sS'PLAED3IT'
p478
g2
(g3
(S'S4'
p479
I0
I1
tp480
Rp481
(I3
S'|'
p482
NNNI4
I1
I0
tp483
bS'DEGF'
p484
tp485
Rp486
sS'4RT592T'
p487
g2
(g3
(S'S4'
p488
I0
I1
tp489
Rp490
(I3
S'|'
p491
NNNI4
I1
I0
tp492
bS'DEGF'
p493
tp494
Rp495
sS'AIRU1BT'
p496
g2
(g3
(S'S4'
p497
I0
I1
tp498
Rp499
(I3
S'|'
p500
NNNI4
I1
I0
tp501
bS'DEGF'
p502
tp503
Rp504
sS'PR2TV01T'
p505
g2
(g3
(S'S4'
p506
I0
I1
tp507
Rp508
(I3
S'|'
p509
NNNI4
I1
I0
tp510
bS'DEGF'
p511
tp512
Rp513
sS'TCM_SSR1'
p514
g2
(g3
(S'S4'
p515
I0
I1
tp516
Rp517
(I3
S'|'
p518
NNNI4
I1
I0
tp519
bS'DEGF'
p520
tp521
Rp522
sS'6DRFTQC2'
p523
g2
(g3
(S'S4'
p524
I0
I1
tp525
Rp526
(I3
S'|'
p527
NNNI4
I1
I0
tp528
bS'FTLB'
p529
tp530
Rp531
sS'6DRFTQC3'
p532
g2
(g3
(S'S4'
p533
I0
I1
tp534
Rp535
(I3
S'|'
p536
NNNI4
I1
I0
tp537
bS'FTLB'
p538
tp539
Rp540
sS'6DRFTQC1'
p541
g2
(g3
(S'S4'
p542
I0
I1
tp543
Rp544
(I3
S'|'
p545
NNNI4
I1
I0
tp546
bS'FTLB'
p547
tp548
Rp549
sS'5EPHINT'
p550
g2
(g3
(S'S4'
p551
I0
I1
tp552
Rp553
(I3
S'|'
p554
NNNI4
I1
I0
tp555
bS'DEGC'
p556
tp557
Rp558
sS'4VRMOBV'
p559
g2
(g3
(S'S3'
p560
I0
I1
tp561
Rp562
(I3
S'|'
p563
NNNI3
I1
I0
tp564
bS'VDC'
p565
tp566
Rp567
sS'OOBTHR60'
p568
g2
(g3
(S'S4'
p569
I0
I1
tp570
Rp571
(I3
S'|'
p572
NNNI4
I1
I0
tp573
bS'DEGF'
p574
tp575
Rp576
sS'OOBTHR61'
p577
g2
(g3
(S'S4'
p578
I0
I1
tp579
Rp580
(I3
S'|'
p581
NNNI4
I1
I0
tp582
bS'DEGF'
p583
tp584
Rp585
sS'OOBTHR62'
p586
g2
(g3
(S'S4'
p587
I0
I1
tp588
Rp589
(I3
S'|'
p590
NNNI4
I1
I0
tp591
bS'DEGF'
p592
tp593
Rp594
sS'OOBTHR63'
p595
g2
(g3
(S'S4'
p596
I0
I1
tp597
Rp598
(I3
S'|'
p599
NNNI4
I1
I0
tp600
bS'DEGF'
p601
tp602
Rp603
sS'PLINE11T'
p604
g2
(g3
(S'S4'
p605
I0
I1
tp606
Rp607
(I3
S'|'
p608
NNNI4
I1
I0
tp609
bS'DEGF'
p610
tp611
Rp612
sS'OHRTHR55_WIDE'
p613
g2
(g3
(S'S4'
p614
I0
I1
tp615
Rp616
(I3
S'|'
p617
NNNI4
I1
I0
tp618
bS'DEGF'
p619
tp620
Rp621
sS'AOALPANG'
p622
g2
(g3
(S'S3'
p623
I0
I1
tp624
Rp625
(I3
S'|'
p626
NNNI3
I1
I0
tp627
bS'DEG'
p628
tp629
Rp630
sS'OOBTHR45_WIDE'
p631
g2
(g3
(S'S4'
p632
I0
I1
tp633
Rp634
(I3
S'|'
p635
NNNI4
I1
I0
tp636
bS'DEGF'
p637
tp638
Rp639
sS'TCYLPCP'
p640
g2
(g3
(S'S4'
p641
I0
I1
tp642
Rp643
(I3
S'|'
p644
NNNI4
I1
I0
tp645
bS'DEGF'
p646
tp647
Rp648
sS'OHRTHR62_WIDE'
p649
g2
(g3
(S'S4'
p650
I0
I1
tp651
Rp652
(I3
S'|'
p653
NNNI4
I1
I0
tp654
bS'DEGF'
p655
tp656
Rp657
sS'PLAED1BT'
p658
g2
(g3
(S'S4'
p659
I0
I1
tp660
Rp661
(I3
S'|'
p662
NNNI4
I1
I0
tp663
bS'DEGF'
p664
tp665
Rp666
sS'TCYLPCM'
p667
g2
(g3
(S'S4'
p668
I0
I1
tp669
Rp670
(I3
S'|'
p671
NNNI4
I1
I0
tp672
bS'DEGF'
p673
tp674
Rp675
sS'AFLC12AI'
p676
g2
(g3
(S'S4'
p677
I0
I1
tp678
Rp679
(I3
S'|'
p680
NNNI4
I1
I0
tp681
bS'MAMP'
p682
tp683
Rp684
sS'AOSACMD2'
p685
g2
(g3
(S'S3'
p686
I0
I1
tp687
Rp688
(I3
S'|'
p689
NNNI3
I1
I0
tp690
bS'RAD'
p691
tp692
Rp693
sS'2UVLSPXT'
p694
g2
(g3
(S'S4'
p695
I0
I1
tp696
Rp697
(I3
S'|'
p698
NNNI4
I1
I0
tp699
bS'DEGC'
p700
tp701
Rp702
sS'4HLL2AT'
p703
g2
(g3
(S'S4'
p704
I0
I1
tp705
Rp706
(I3
S'|'
p707
NNNI4
I1
I0
tp708
bS'DEGF'
p709
tp710
Rp711
sS'ACPA5CV'
p712
g2
(g3
(S'S1'
p713
I0
I1
tp714
Rp715
(I3
S'|'
p716
NNNI1
I1
I0
tp717
bg200
tp718
Rp719
sS'3FAPYZAT'
p720
g2
(g3
(S'S4'
p721
I0
I1
tp722
Rp723
(I3
S'|'
p724
NNNI4
I1
I0
tp725
bS'DEGC'
p726
tp727
Rp728
sS'ORBITEPHEM0_TIME'
p729
S's'
p730
sS'PLAED3GT'
p731
g2
(g3
(S'S4'
p732
I0
I1
tp733
Rp734
(I3
S'|'
p735
NNNI4
I1
I0
tp736
bS'DEGF'
p737
tp738
Rp739
sS'EOECNV3C'
p740
g2
(g3
(S'S1'
p741
I0
I1
tp742
Rp743
(I3
S'|'
p744
NNNI1
I1
I0
tp745
bg200
tp746
Rp747
sS'3TTACS2T'
p748
g2
(g3
(S'S4'
p749
I0
I1
tp750
Rp751
(I3
S'|'
p752
NNNI4
I1
I0
tp753
bS'DEGC'
p754
tp755
Rp756
sS'4HFSPBT'
p757
g2
(g3
(S'S4'
p758
I0
I1
tp759
Rp760
(I3
S'|'
p761
NNNI4
I1
I0
tp762
bS'DEGF'
p763
tp764
Rp765
sS'EEPB5V'
p766
g2
(g3
(S'S1'
p767
I0
I1
tp768
Rp769
(I3
S'|'
p770
NNNI1
I1
I0
tp771
bg200
tp772
Rp773
sS'3FAFLAAT'
p774
g2
(g3
(S'S4'
p775
I0
I1
tp776
Rp777
(I3
S'|'
p778
NNNI4
I1
I0
tp779
bS'DEGC'
p780
tp781
Rp782
sS'4MP28BV'
p783
g2
(g3
(S'S3'
p784
I0
I1
tp785
Rp786
(I3
S'|'
p787
NNNI3
I1
I0
tp788
bS'VDC'
p789
tp790
Rp791
sS'AWD3CV5V'
p792
g2
(g3
(S'S1'
p793
I0
I1
tp794
Rp795
(I3
S'|'
p796
NNNI1
I1
I0
tp797
bg200
tp798
Rp799
sS'4LFSPAT'
p800
g2
(g3
(S'S4'
p801
I0
I1
tp802
Rp803
(I3
S'|'
p804
NNNI4
I1
I0
tp805
bS'DEGF'
p806
tp807
Rp808
sS'AOACZAN4'
p809
g2
(g3
(S'S4'
p810
I0
I1
tp811
Rp812
(I3
S'|'
p813
NNNI4
I1
I0
tp814
bS'ASEC'
p815
tp816
Rp817
sS'4RT706T'
p818
g2
(g3
(S'S4'
p819
I0
I1
tp820
Rp821
(I3
S'|'
p822
NNNI4
I1
I0
tp823
bS'DEGF'
p824
tp825
Rp826
sS'TPCM_RW5'
p827
g2
(g3
(S'S4'
p828
I0
I1
tp829
Rp830
(I3
S'|'
p831
NNNI4
I1
I0
tp832
bS'DEGF'
p833
tp834
Rp835
sS'2CEAHVPT'
p836
g2
(g3
(S'S4'
p837
I0
I1
tp838
Rp839
(I3
S'|'
p840
NNNI4
I1
I0
tp841
bS'DEGC'
p842
tp843
Rp844
sS'PLAEV2AT'
p845
g2
(g3
(S'S4'
p846
I0
I1
tp847
Rp848
(I3
S'|'
p849
NNNI4
I1
I0
tp850
bS'DEGF'
p851
tp852
Rp853
sS'AOSUNER1'
p854
g2
(g3
(S'S3'
p855
I0
I1
tp856
Rp857
(I3
S'|'
p858
NNNI3
I1
I0
tp859
bS'RAD'
p860
tp861
Rp862
sS'AOSUNER3'
p863
g2
(g3
(S'S3'
p864
I0
I1
tp865
Rp866
(I3
S'|'
p867
NNNI3
I1
I0
tp868
bS'RAD'
p869
tp870
Rp871
sS'AOSUNER2'
p872
g2
(g3
(S'S3'
p873
I0
I1
tp874
Rp875
(I3
S'|'
p876
NNNI3
I1
I0
tp877
bS'RAD'
p878
tp879
Rp880
sS'AAOTAPMT'
p881
g2
(g3
(S'S4'
p882
I0
I1
tp883
Rp884
(I3
S'|'
p885
NNNI4
I1
I0
tp886
bS'DEGF'
p887
tp888
Rp889
sS'TMZP_PY'
p890
g2
(g3
(S'S4'
p891
I0
I1
tp892
Rp893
(I3
S'|'
p894
NNNI4
I1
I0
tp895
bS'DEGF'
p896
tp897
Rp898
sS'OHRTHR54_WIDE'
p899
g2
(g3
(S'S4'
p900
I0
I1
tp901
Rp902
(I3
S'|'
p903
NNNI4
I1
I0
tp904
bS'DEGF'
p905
tp906
Rp907
sS'1DPAMYT'
p908
g2
(g3
(S'S4'
p909
I0
I1
tp910
Rp911
(I3
S'|'
p912
NNNI4
I1
I0
tp913
bS'DEGC'
p914
tp915
Rp916
sS'1DACTBT'
p917
g2
(g3
(S'S4'
p918
I0
I1
tp919
Rp920
(I3
S'|'
p921
NNNI4
I1
I0
tp922
bS'DEGC'
p923
tp924
Rp925
sS'AORWBTQ1'
p926
g2
(g3
(S'S4'
p927
I0
I1
tp928
Rp929
(I3
S'|'
p930
NNNI4
I1
I0
tp931
bS'FTLB'
p932
tp933
Rp934
sS'AORWBTQ2'
p935
g2
(g3
(S'S4'
p936
I0
I1
tp937
Rp938
(I3
S'|'
p939
NNNI4
I1
I0
tp940
bS'FTLB'
p941
tp942
Rp943
sS'AORWBTQ3'
p944
g2
(g3
(S'S4'
p945
I0
I1
tp946
Rp947
(I3
S'|'
p948
NNNI4
I1
I0
tp949
bS'FTLB'
p950
tp951
Rp952
sS'AORWBTQ4'
p953
g2
(g3
(S'S4'
p954
I0
I1
tp955
Rp956
(I3
S'|'
p957
NNNI4
I1
I0
tp958
bS'FTLB'
p959
tp960
Rp961
sS'AGWS1V'
p962
g2
(g3
(S'S1'
p963
I0
I1
tp964
Rp965
(I3
S'|'
p966
NNNI1
I1
I0
tp967
bg200
tp968
Rp969
sS'AORWBTQ6'
p970
g2
(g3
(S'S4'
p971
I0
I1
tp972
Rp973
(I3
S'|'
p974
NNNI4
I1
I0
tp975
bS'FTLB'
p976
tp977
Rp978
sS'AWD6CV5V'
p979
g2
(g3
(S'S1'
p980
I0
I1
tp981
Rp982
(I3
S'|'
p983
NNNI1
I1
I0
tp984
bg200
tp985
Rp986
sS'TRSPMTPC'
p987
g2
(g3
(S'S4'
p988
I0
I1
tp989
Rp990
(I3
S'|'
p991
NNNI4
I1
I0
tp992
bS'DEGF'
p993
tp994
Rp995
sS'ANGLEEPHEM_POINT_EARTHLIMBANG'
p996
S'deg'
p997
sS'OOBTHR20_WIDE'
p998
g2
(g3
(S'S4'
p999
I0
I1
tp1000
Rp1001
(I3
S'|'
p1002
NNNI4
I1
I0
tp1003
bS'DEGF'
p1004
tp1005
Rp1006
sS'TCM_CTU'
p1007
g2
(g3
(S'S4'
p1008
I0
I1
tp1009
Rp1010
(I3
S'|'
p1011
NNNI4
I1
I0
tp1012
bS'DEGF'
p1013
tp1014
Rp1015
sS'3FABRCAT'
p1016
g2
(g3
(S'S4'
p1017
I0
I1
tp1018
Rp1019
(I3
S'|'
p1020
NNNI4
I1
I0
tp1021
bS'DEGC'
p1022
tp1023
Rp1024
sS'1DPP0AVO'
p1025
g2
(g3
(S'S1'
p1026
I0
I1
tp1027
Rp1028
(I3
S'|'
p1029
NNNI1
I1
I0
tp1030
bg200
tp1031
Rp1032
sS'CPCB5V'
p1033
g2
(g3
(S'S1'
p1034
I0
I1
tp1035
Rp1036
(I3
S'|'
p1037
NNNI1
I1
I0
tp1038
bg200
tp1039
Rp1040
sS'OOBTHR37_WIDE'
p1041
g2
(g3
(S'S4'
p1042
I0
I1
tp1043
Rp1044
(I3
S'|'
p1045
NNNI4
I1
I0
tp1046
bS'DEGF'
p1047
tp1048
Rp1049
sS'CPCA5V'
p1050
g2
(g3
(S'S1'
p1051
I0
I1
tp1052
Rp1053
(I3
S'|'
p1054
NNNI1
I1
I0
tp1055
bg200
tp1056
Rp1057
sS'CXPNAIT'
p1058
g2
(g3
(S'S4'
p1059
I0
I1
tp1060
Rp1061
(I3
S'|'
p1062
NNNI4
I1
I0
tp1063
bS'DEGF'
p1064
tp1065
Rp1066
sS'TEIO'
p1067
g2
(g3
(S'S4'
p1068
I0
I1
tp1069
Rp1070
(I3
S'|'
p1071
NNNI4
I1
I0
tp1072
bS'DEGF'
p1073
tp1074
Rp1075
sS'AORWMC2_1'
p1076
g2
(g3
(S'S7'
p1077
I0
I1
tp1078
Rp1079
(I3
S'|'
p1080
NNNI7
I1
I0
tp1081
bS'FTLBSEC'
p1082
tp1083
Rp1084
sS'OHRTHR47_WIDE'
p1085
g2
(g3
(S'S4'
p1086
I0
I1
tp1087
Rp1088
(I3
S'|'
p1089
NNNI4
I1
I0
tp1090
bS'DEGF'
p1091
tp1092
Rp1093
sS'OOBTHR52_WIDE'
p1094
g2
(g3
(S'S4'
p1095
I0
I1
tp1096
Rp1097
(I3
S'|'
p1098
NNNI4
I1
I0
tp1099
bS'DEGF'
p1100
tp1101
Rp1102
sS'PFDM202T'
p1103
g2
(g3
(S'S4'
p1104
I0
I1
tp1105
Rp1106
(I3
S'|'
p1107
NNNI4
I1
I0
tp1108
bS'DEGF'
p1109
tp1110
Rp1111
sS'AACBPRT'
p1112
g2
(g3
(S'S4'
p1113
I0
I1
tp1114
Rp1115
(I3
S'|'
p1116
NNNI4
I1
I0
tp1117
bS'DEGF'
p1118
tp1119
Rp1120
sS'TPCM_RW4'
p1121
g2
(g3
(S'S4'
p1122
I0
I1
tp1123
Rp1124
(I3
S'|'
p1125
NNNI4
I1
I0
tp1126
bS'DEGF'
p1127
tp1128
Rp1129
sS'4VRMHBV'
p1130
g2
(g3
(S'S3'
p1131
I0
I1
tp1132
Rp1133
(I3
S'|'
p1134
NNNI3
I1
I0
tp1135
bS'VDC'
p1136
tp1137
Rp1138
sS'OOBTHR04'
p1139
g2
(g3
(S'S4'
p1140
I0
I1
tp1141
Rp1142
(I3
S'|'
p1143
NNNI4
I1
I0
tp1144
bS'DEGF'
p1145
tp1146
Rp1147
sS'TMP_FEP0_MONG'
p1148
S'DEGC'
p1149
sS'TPYSADA'
p1150
g2
(g3
(S'S4'
p1151
I0
I1
tp1152
Rp1153
(I3
S'|'
p1154
NNNI4
I1
I0
tp1155
bS'DEGF'
p1156
tp1157
Rp1158
sS'TB2T1'
p1159
g2
(g3
(S'S4'
p1160
I0
I1
tp1161
Rp1162
(I3
S'|'
p1163
NNNI4
I1
I0
tp1164
bS'DEGF'
p1165
tp1166
Rp1167
sS'PLAED4ET'
p1168
g2
(g3
(S'S4'
p1169
I0
I1
tp1170
Rp1171
(I3
S'|'
p1172
NNNI4
I1
I0
tp1173
bS'DEGF'
p1174
tp1175
Rp1176
sS'1DAHACU'
p1177
g2
(g3
(S'S3'
p1178
I0
I1
tp1179
Rp1180
(I3
S'|'
p1181
NNNI3
I1
I0
tp1182
bS'AMP'
p1183
tp1184
Rp1185
sS'AOMANTIM'
p1186
g2
(g3
(S'S3'
p1187
I0
I1
tp1188
Rp1189
(I3
S'|'
p1190
NNNI3
I1
I0
tp1191
bS'SEC'
p1192
tp1193
Rp1194
sS'CTUB5V'
p1195
g2
(g3
(S'S1'
p1196
I0
I1
tp1197
Rp1198
(I3
S'|'
p1199
NNNI1
I1
I0
tp1200
bg200
tp1201
Rp1202
sS'PLAED3DT'
p1203
g2
(g3
(S'S4'
p1204
I0
I1
tp1205
Rp1206
(I3
S'|'
p1207
NNNI4
I1
I0
tp1208
bS'DEGF'
p1209
tp1210
Rp1211
sS'OOBTHR19'
p1212
g2
(g3
(S'S4'
p1213
I0
I1
tp1214
Rp1215
(I3
S'|'
p1216
NNNI4
I1
I0
tp1217
bS'DEGF'
p1218
tp1219
Rp1220
sS'CPCB15V'
p1221
g2
(g3
(S'S1'
p1222
I0
I1
tp1223
Rp1224
(I3
S'|'
p1225
NNNI1
I1
I0
tp1226
bg200
tp1227
Rp1228
sS'OOBTHR38_WIDE'
p1229
g2
(g3
(S'S4'
p1230
I0
I1
tp1231
Rp1232
(I3
S'|'
p1233
NNNI4
I1
I0
tp1234
bS'DEGF'
p1235
tp1236
Rp1237
sS'EORTDMN26D'
p1238
g2
(g3
(S'S4'
p1239
I0
I1
tp1240
Rp1241
(I3
S'|'
p1242
NNNI4
I1
I0
tp1243
bS'DEGF'
p1244
tp1245
Rp1246
sS'EB1V'
p1247
g2
(g3
(S'S1'
p1248
I0
I1
tp1249
Rp1250
(I3
S'|'
p1251
NNNI1
I1
I0
tp1252
bg200
tp1253
Rp1254
sS'3SFLXCST'
p1255
g2
(g3
(S'S4'
p1256
I0
I1
tp1257
Rp1258
(I3
S'|'
p1259
NNNI4
I1
I0
tp1260
bS'DEGC'
p1261
tp1262
Rp1263
sS'PLINE07T'
p1264
g2
(g3
(S'S4'
p1265
I0
I1
tp1266
Rp1267
(I3
S'|'
p1268
NNNI4
I1
I0
tp1269
bS'DEGF'
p1270
tp1271
Rp1272
sS'AOSCVEL1'
p1273
g2
(g3
(S'S4'
p1274
I0
I1
tp1275
Rp1276
(I3
S'|'
p1277
NNNI4
I1
I0
tp1278
bS'KMPS'
p1279
tp1280
Rp1281
sS'AOSCVEL3'
p1282
g2
(g3
(S'S4'
p1283
I0
I1
tp1284
Rp1285
(I3
S'|'
p1286
NNNI4
I1
I0
tp1287
bS'KMPS'
p1288
tp1289
Rp1290
sS'AOSCVEL2'
p1291
g2
(g3
(S'S4'
p1292
I0
I1
tp1293
Rp1294
(I3
S'|'
p1295
NNNI4
I1
I0
tp1296
bS'KMPS'
p1297
tp1298
Rp1299
sS'1DE28AVO'
p1300
g2
(g3
(S'S1'
p1301
I0
I1
tp1302
Rp1303
(I3
S'|'
p1304
NNNI1
I1
I0
tp1305
bg200
tp1306
Rp1307
sS'EOEB3DIC'
p1308
g2
(g3
(S'S3'
p1309
I0
I1
tp1310
Rp1311
(I3
S'|'
p1312
NNNI3
I1
I0
tp1313
bS'AMP'
p1314
tp1315
Rp1316
sS'AFLC13BI'
p1317
g2
(g3
(S'S4'
p1318
I0
I1
tp1319
Rp1320
(I3
S'|'
p1321
NNNI4
I1
I0
tp1322
bS'MAMP'
p1323
tp1324
Rp1325
sS'PR4TV02T'
p1326
g2
(g3
(S'S4'
p1327
I0
I1
tp1328
Rp1329
(I3
S'|'
p1330
NNNI4
I1
I0
tp1331
bS'DEGF'
p1332
tp1333
Rp1334
sS'AOGBIAS1'
p1335
g2
(g3
(S'S5'
p1336
I0
I1
tp1337
Rp1338
(I3
S'|'
p1339
NNNI5
I1
I0
tp1340
bS'RADPS'
p1341
tp1342
Rp1343
sS'AOGBIAS2'
p1344
g2
(g3
(S'S5'
p1345
I0
I1
tp1346
Rp1347
(I3
S'|'
p1348
NNNI5
I1
I0
tp1349
bS'RADPS'
p1350
tp1351
Rp1352
sS'AOGBIAS3'
p1353
g2
(g3
(S'S5'
p1354
I0
I1
tp1355
Rp1356
(I3
S'|'
p1357
NNNI5
I1
I0
tp1358
bS'RADPS'
p1359
tp1360
Rp1361
sS'1DEN1AVO'
p1362
g2
(g3
(S'S1'
p1363
I0
I1
tp1364
Rp1365
(I3
S'|'
p1366
NNNI1
I1
I0
tp1367
bg200
tp1368
Rp1369
sS'1DEN0AVO'
p1370
g2
(g3
(S'S1'
p1371
I0
I1
tp1372
Rp1373
(I3
S'|'
p1374
NNNI1
I1
I0
tp1375
bg200
tp1376
Rp1377
sS'4LPOSBRO'
p1378
g2
(g3
(S'S3'
p1379
I0
I1
tp1380
Rp1381
(I3
S'|'
p1382
NNNI3
I1
I0
tp1383
bS'DEG'
p1384
tp1385
Rp1386
sS'1DPICBCU'
p1387
g2
(g3
(S'S3'
p1388
I0
I1
tp1389
Rp1390
(I3
S'|'
p1391
NNNI3
I1
I0
tp1392
bS'AMP'
p1393
tp1394
Rp1395
sS'PLINE03T'
p1396
g2
(g3
(S'S4'
p1397
I0
I1
tp1398
Rp1399
(I3
S'|'
p1400
NNNI4
I1
I0
tp1401
bS'DEGF'
p1402
tp1403
Rp1404
sS'4CSDHAV'
p1405
g2
(g3
(S'S3'
p1406
I0
I1
tp1407
Rp1408
(I3
S'|'
p1409
NNNI3
I1
I0
tp1410
bS'VDC'
p1411
tp1412
Rp1413
sS'AORWCMD5'
p1414
g2
(g3
(S'S4'
p1415
I0
I1
tp1416
Rp1417
(I3
S'|'
p1418
NNNI4
I1
I0
tp1419
bS'FTLB'
p1420
tp1421
Rp1422
sS'POR1TV02T'
p1423
g2
(g3
(S'S4'
p1424
I0
I1
tp1425
Rp1426
(I3
S'|'
p1427
NNNI4
I1
I0
tp1428
bS'DEGF'
p1429
tp1430
Rp1431
sS'OHRTHR29'
p1432
g2
(g3
(S'S4'
p1433
I0
I1
tp1434
Rp1435
(I3
S'|'
p1436
NNNI4
I1
I0
tp1437
bS'DEGF'
p1438
tp1439
Rp1440
sS'AORWCMD6'
p1441
g2
(g3
(S'S4'
p1442
I0
I1
tp1443
Rp1444
(I3
S'|'
p1445
NNNI4
I1
I0
tp1446
bS'FTLB'
p1447
tp1448
Rp1449
sS'AORWCMD1'
p1450
g2
(g3
(S'S4'
p1451
I0
I1
tp1452
Rp1453
(I3
S'|'
p1454
NNNI4
I1
I0
tp1455
bS'FTLB'
p1456
tp1457
Rp1458
sS'AORWCMD3'
p1459
g2
(g3
(S'S4'
p1460
I0
I1
tp1461
Rp1462
(I3
S'|'
p1463
NNNI4
I1
I0
tp1464
bS'FTLB'
p1465
tp1466
Rp1467
sS'AORWCMD2'
p1468
g2
(g3
(S'S4'
p1469
I0
I1
tp1470
Rp1471
(I3
S'|'
p1472
NNNI4
I1
I0
tp1473
bS'FTLB'
p1474
tp1475
Rp1476
sS'OHRTHR23'
p1477
g2
(g3
(S'S4'
p1478
I0
I1
tp1479
Rp1480
(I3
S'|'
p1481
NNNI4
I1
I0
tp1482
bS'DEGF'
p1483
tp1484
Rp1485
sS'OHRTHR22'
p1486
g2
(g3
(S'S4'
p1487
I0
I1
tp1488
Rp1489
(I3
S'|'
p1490
NNNI4
I1
I0
tp1491
bS'DEGF'
p1492
tp1493
Rp1494
sS'OHRTHR21'
p1495
g2
(g3
(S'S4'
p1496
I0
I1
tp1497
Rp1498
(I3
S'|'
p1499
NNNI4
I1
I0
tp1500
bS'DEGF'
p1501
tp1502
Rp1503
sS'OHRTHR20'
p1504
g2
(g3
(S'S4'
p1505
I0
I1
tp1506
Rp1507
(I3
S'|'
p1508
NNNI4
I1
I0
tp1509
bS'DEGF'
p1510
tp1511
Rp1512
sS'OHRTHR27'
p1513
g2
(g3
(S'S4'
p1514
I0
I1
tp1515
Rp1516
(I3
S'|'
p1517
NNNI4
I1
I0
tp1518
bS'DEGF'
p1519
tp1520
Rp1521
sS'OHRTHR26'
p1522
g2
(g3
(S'S4'
p1523
I0
I1
tp1524
Rp1525
(I3
S'|'
p1526
NNNI4
I1
I0
tp1527
bS'DEGF'
p1528
tp1529
Rp1530
sS'OHRTHR25'
p1531
g2
(g3
(S'S4'
p1532
I0
I1
tp1533
Rp1534
(I3
S'|'
p1535
NNNI4
I1
I0
tp1536
bS'DEGF'
p1537
tp1538
Rp1539
sS'POM2THV2T'
p1540
g2
(g3
(S'S4'
p1541
I0
I1
tp1542
Rp1543
(I3
S'|'
p1544
NNNI4
I1
I0
tp1545
bS'DEGF'
p1546
tp1547
Rp1548
sS'4IN15BV'
p1549
g2
(g3
(S'S3'
p1550
I0
I1
tp1551
Rp1552
(I3
S'|'
p1553
NNNI3
I1
I0
tp1554
bS'VDC'
p1555
tp1556
Rp1557
sS'TCYLFMZP'
p1558
g2
(g3
(S'S4'
p1559
I0
I1
tp1560
Rp1561
(I3
S'|'
p1562
NNNI4
I1
I0
tp1563
bS'DEGF'
p1564
tp1565
Rp1566
sS'TCYLFMZM'
p1567
g2
(g3
(S'S4'
p1568
I0
I1
tp1569
Rp1570
(I3
S'|'
p1571
NNNI4
I1
I0
tp1572
bS'DEGF'
p1573
tp1574
Rp1575
sS'TEP_RCTU'
p1576
g2
(g3
(S'S4'
p1577
I0
I1
tp1578
Rp1579
(I3
S'|'
p1580
NNNI4
I1
I0
tp1581
bS'DEGF'
p1582
tp1583
Rp1584
sS'ASPEFSW1B'
p1585
g2
(g3
(S'S3'
p1586
I0
I1
tp1587
Rp1588
(I3
S'|'
p1589
NNNI3
I1
I0
tp1590
bS'DEG'
p1591
tp1592
Rp1593
sS'1VAHOAT'
p1594
g2
(g3
(S'S4'
p1595
I0
I1
tp1596
Rp1597
(I3
S'|'
p1598
NNNI4
I1
I0
tp1599
bS'DEGC'
p1600
tp1601
Rp1602
sS'4PRT2AT'
p1603
g2
(g3
(S'S4'
p1604
I0
I1
tp1605
Rp1606
(I3
S'|'
p1607
NNNI4
I1
I0
tp1608
bS'DEGF'
p1609
tp1610
Rp1611
sS'TPC_ESE'
p1612
g2
(g3
(S'S4'
p1613
I0
I1
tp1614
Rp1615
(I3
S'|'
p1616
NNNI4
I1
I0
tp1617
bS'DEGF'
p1618
tp1619
Rp1620
sS'HKCBIASLEAKI'
p1621
S'uA'
p1622
sS'CTSB5V'
p1623
g2
(g3
(S'S1'
p1624
I0
I1
tp1625
Rp1626
(I3
S'|'
p1627
NNNI1
I1
I0
tp1628
bg200
tp1629
Rp1630
sS'AOADACH1A_PCAD'
p1631
g2
(g3
(S'S3'
p1632
I0
I1
tp1633
Rp1634
(I3
S'|'
p1635
NNNI3
I1
I0
tp1636
bS'DEG'
p1637
tp1638
Rp1639
sS'PR4TV01T'
p1640
g2
(g3
(S'S4'
p1641
I0
I1
tp1642
Rp1643
(I3
S'|'
p1644
NNNI4
I1
I0
tp1645
bS'DEGF'
p1646
tp1647
Rp1648
sS'PLINE10T'
p1649
g2
(g3
(S'S4'
p1650
I0
I1
tp1651
Rp1652
(I3
S'|'
p1653
NNNI4
I1
I0
tp1654
bS'DEGF'
p1655
tp1656
Rp1657
sS'AOBETANG'
p1658
g2
(g3
(S'S3'
p1659
I0
I1
tp1660
Rp1661
(I3
S'|'
p1662
NNNI3
I1
I0
tp1663
bS'DEG'
p1664
tp1665
Rp1666
sS'1DE28BVO'
p1667
g2
(g3
(S'S1'
p1668
I0
I1
tp1669
Rp1670
(I3
S'|'
p1671
NNNI1
I1
I0
tp1672
bg200
tp1673
Rp1674
sS'AORWMOM2'
p1675
g2
(g3
(S'S7'
p1676
I0
I1
tp1677
Rp1678
(I3
S'|'
p1679
NNNI7
I1
I0
tp1680
bS'FTLBSEC'
p1681
tp1682
Rp1683
sS'4LLL2BT'
p1684
g2
(g3
(S'S4'
p1685
I0
I1
tp1686
Rp1687
(I3
S'|'
p1688
NNNI4
I1
I0
tp1689
bS'DEGF'
p1690
tp1691
Rp1692
sS'LUNAREPHEM0_VX'
p1693
S'm/s'
p1694
sS'LUNAREPHEM0_VY'
p1695
S'm/s'
p1696
sS'LUNAREPHEM0_VZ'
p1697
S'm/s'
p1698
sS'PFTANKIP'
p1699
g2
(g3
(S'S4'
p1700
I0
I1
tp1701
Rp1702
(I3
S'|'
p1703
NNNI4
I1
I0
tp1704
bS'PSIA'
p1705
tp1706
Rp1707
sS'3TRMTRAT'
p1708
g2
(g3
(S'S4'
p1709
I0
I1
tp1710
Rp1711
(I3
S'|'
p1712
NNNI4
I1
I0
tp1713
bS'DEGC'
p1714
tp1715
Rp1716
sS'TFSPCMM'
p1717
g2
(g3
(S'S4'
p1718
I0
I1
tp1719
Rp1720
(I3
S'|'
p1721
NNNI4
I1
I0
tp1722
bS'DEGF'
p1723
tp1724
Rp1725
sS'EORTDMN19D'
p1726
g2
(g3
(S'S4'
p1727
I0
I1
tp1728
Rp1729
(I3
S'|'
p1730
NNNI4
I1
I0
tp1731
bS'DEGF'
p1732
tp1733
Rp1734
sS'OOBTHR02_WIDE'
p1735
g2
(g3
(S'S4'
p1736
I0
I1
tp1737
Rp1738
(I3
S'|'
p1739
NNNI4
I1
I0
tp1740
bS'DEGF'
p1741
tp1742
Rp1743
sS'4MP5BV'
p1744
g2
(g3
(S'S3'
p1745
I0
I1
tp1746
Rp1747
(I3
S'|'
p1748
NNNI3
I1
I0
tp1749
bS'VDC'
p1750
tp1751
Rp1752
sS'3TTRALAT'
p1753
g2
(g3
(S'S4'
p1754
I0
I1
tp1755
Rp1756
(I3
S'|'
p1757
NNNI4
I1
I0
tp1758
bS'DEGC'
p1759
tp1760
Rp1761
sS'TFSPCMP'
p1762
g2
(g3
(S'S4'
p1763
I0
I1
tp1764
Rp1765
(I3
S'|'
p1766
NNNI4
I1
I0
tp1767
bS'DEGF'
p1768
tp1769
Rp1770
sS'3TTHRC2T'
p1771
g2
(g3
(S'S4'
p1772
I0
I1
tp1773
Rp1774
(I3
S'|'
p1775
NNNI4
I1
I0
tp1776
bS'DEGC'
p1777
tp1778
Rp1779
sS'AOYABR'
p1780
g2
(g3
(S'S3'
p1781
I0
I1
tp1782
Rp1783
(I3
S'|'
p1784
NNNI3
I1
I0
tp1785
bS'RAD'
p1786
tp1787
Rp1788
sS'TIME'
p1789
S's'
p1790
sS'EORTDMN12D'
p1791
g2
(g3
(S'S4'
p1792
I0
I1
tp1793
Rp1794
(I3
S'|'
p1795
NNNI4
I1
I0
tp1796
bS'DEGF'
p1797
tp1798
Rp1799
sS'AOSAEST1'
p1800
g2
(g3
(S'S3'
p1801
I0
I1
tp1802
Rp1803
(I3
S'|'
p1804
NNNI3
I1
I0
tp1805
bS'RAD'
p1806
tp1807
Rp1808
sS'AOSAEST2'
p1809
g2
(g3
(S'S3'
p1810
I0
I1
tp1811
Rp1812
(I3
S'|'
p1813
NNNI3
I1
I0
tp1814
bS'RAD'
p1815
tp1816
Rp1817
sS'4RT565T'
p1818
g2
(g3
(S'S4'
p1819
I0
I1
tp1820
Rp1821
(I3
S'|'
p1822
NNNI4
I1
I0
tp1823
bS'DEGF'
p1824
tp1825
Rp1826
sS'1DEP2BVO'
p1827
g2
(g3
(S'S1'
p1828
I0
I1
tp1829
Rp1830
(I3
S'|'
p1831
NNNI1
I1
I0
tp1832
bg200
tp1833
Rp1834
sS'4RT594T'
p1835
g2
(g3
(S'S4'
p1836
I0
I1
tp1837
Rp1838
(I3
S'|'
p1839
NNNI4
I1
I0
tp1840
bS'DEGF'
p1841
tp1842
Rp1843
sS'4RT701T'
p1844
g2
(g3
(S'S4'
p1845
I0
I1
tp1846
Rp1847
(I3
S'|'
p1848
NNNI4
I1
I0
tp1849
bS'DEGF'
p1850
tp1851
Rp1852
sS'AORWINT6'
p1853
g2
(g3
(S'S4'
p1854
I0
I1
tp1855
Rp1856
(I3
S'|'
p1857
NNNI4
I1
I0
tp1858
bS'MSEC'
p1859
tp1860
Rp1861
sS'SOLAREPHEM1_VZ'
p1862
S'm/s'
p1863
sS'OOBTHR08_WIDE'
p1864
g2
(g3
(S'S4'
p1865
I0
I1
tp1866
Rp1867
(I3
S'|'
p1868
NNNI4
I1
I0
tp1869
bS'DEGF'
p1870
tp1871
Rp1872
sS'SOLAREPHEM1_VX'
p1873
S'm/s'
p1874
sS'SOLAREPHEM1_VY'
p1875
S'm/s'
p1876
sS'AOADACH2A_NBG'
p1877
g2
(g3
(S'S3'
p1878
I0
I1
tp1879
Rp1880
(I3
S'|'
p1881
NNNI3
I1
I0
tp1882
bS'DEG'
p1883
tp1884
Rp1885
sS'AFLC10BI'
p1886
g2
(g3
(S'S4'
p1887
I0
I1
tp1888
Rp1889
(I3
S'|'
p1890
NNNI4
I1
I0
tp1891
bS'MAMP'
p1892
tp1893
Rp1894
sS'CSSR1CAV'
p1895
g2
(g3
(S'S1'
p1896
I0
I1
tp1897
Rp1898
(I3
S'|'
p1899
NNNI1
I1
I0
tp1900
bg200
tp1901
Rp1902
sS'EOEB2DIC'
p1903
g2
(g3
(S'S3'
p1904
I0
I1
tp1905
Rp1906
(I3
S'|'
p1907
NNNI3
I1
I0
tp1908
bS'AMP'
p1909
tp1910
Rp1911
sS'EOEBCC'
p1912
g2
(g3
(S'S3'
p1913
I0
I1
tp1914
Rp1915
(I3
S'|'
p1916
NNNI3
I1
I0
tp1917
bS'AMP'
p1918
tp1919
Rp1920
sS'4IP5AV'
p1921
g2
(g3
(S'S3'
p1922
I0
I1
tp1923
Rp1924
(I3
S'|'
p1925
NNNI3
I1
I0
tp1926
bS'VDC'
p1927
tp1928
Rp1929
sS'1DACTAT'
p1930
g2
(g3
(S'S3'
p1931
I0
I1
tp1932
Rp1933
(I3
S'|'
p1934
NNNI3
I1
I0
tp1935
bS'DEG'
p1936
tp1937
Rp1938
sS'4SP51V'
p1939
g2
(g3
(S'S3'
p1940
I0
I1
tp1941
Rp1942
(I3
S'|'
p1943
NNNI3
I1
I0
tp1944
bS'VDC'
p1945
tp1946
Rp1947
sS'C10VREFB'
p1948
g2
(g3
(S'S3'
p1949
I0
I1
tp1950
Rp1951
(I3
S'|'
p1952
NNNI3
I1
I0
tp1953
bS'VDC'
p1954
tp1955
Rp1956
sS'C10VREFA'
p1957
g2
(g3
(S'S3'
p1958
I0
I1
tp1959
Rp1960
(I3
S'|'
p1961
NNNI3
I1
I0
tp1962
bS'VDC'
p1963
tp1964
Rp1965
sS'EOEB2VC'
p1966
g2
(g3
(S'S1'
p1967
I0
I1
tp1968
Rp1969
(I3
S'|'
p1970
NNNI1
I1
I0
tp1971
bg200
tp1972
Rp1973
sS'AWD1CV5V'
p1974
g2
(g3
(S'S1'
p1975
I0
I1
tp1976
Rp1977
(I3
S'|'
p1978
NNNI1
I1
I0
tp1979
bg200
tp1980
Rp1981
sS'AFLCA8BI'
p1982
g2
(g3
(S'S4'
p1983
I0
I1
tp1984
Rp1985
(I3
S'|'
p1986
NNNI4
I1
I0
tp1987
bS'MAMP'
p1988
tp1989
Rp1990
sS'PLAED1DT'
p1991
g2
(g3
(S'S4'
p1992
I0
I1
tp1993
Rp1994
(I3
S'|'
p1995
NNNI4
I1
I0
tp1996
bS'DEGF'
p1997
tp1998
Rp1999
sS'EOEB1VC'
p2000
g2
(g3
(S'S1'
p2001
I0
I1
tp2002
Rp2003
(I3
S'|'
p2004
NNNI1
I1
I0
tp2005
bg200
tp2006
Rp2007
sS'TESH2'
p2008
g2
(g3
(S'S4'
p2009
I0
I1
tp2010
Rp2011
(I3
S'|'
p2012
NNNI4
I1
I0
tp2013
bS'DEGF'
p2014
tp2015
Rp2016
sS'3BTU_BPT'
p2017
g2
(g3
(S'S4'
p2018
I0
I1
tp2019
Rp2020
(I3
S'|'
p2021
NNNI4
I1
I0
tp2022
bS'DEGC'
p2023
tp2024
Rp2025
sS'EOESAC2C'
p2026
g2
(g3
(S'S3'
p2027
I0
I1
tp2028
Rp2029
(I3
S'|'
p2030
NNNI3
I1
I0
tp2031
bS'AMP'
p2032
tp2033
Rp2034
sS'6BETANG'
p2035
g2
(g3
(S'S3'
p2036
I0
I1
tp2037
Rp2038
(I3
S'|'
p2039
NNNI3
I1
I0
tp2040
bS'DEG'
p2041
tp2042
Rp2043
sS'EOEBCC_LOW'
p2044
g2
(g3
(S'S3'
p2045
I0
I1
tp2046
Rp2047
(I3
S'|'
p2048
NNNI3
I1
I0
tp2049
bS'AMP'
p2050
tp2051
Rp2052
sS'HKP5I'
p2053
S'mA'
p2054
sS'1OAHBT'
p2055
g2
(g3
(S'S4'
p2056
I0
I1
tp2057
Rp2058
(I3
S'|'
p2059
NNNI4
I1
I0
tp2060
bS'DEGC'
p2061
tp2062
Rp2063
sS'1DAHBCU'
p2064
g2
(g3
(S'S3'
p2065
I0
I1
tp2066
Rp2067
(I3
S'|'
p2068
NNNI3
I1
I0
tp2069
bS'AMP'
p2070
tp2071
Rp2072
sS'PMTANKP'
p2073
g2
(g3
(S'S4'
p2074
I0
I1
tp2075
Rp2076
(I3
S'|'
p2077
NNNI4
I1
I0
tp2078
bS'PSIA'
p2079
tp2080
Rp2081
sS'AFLCA5BI'
p2082
g2
(g3
(S'S4'
p2083
I0
I1
tp2084
Rp2085
(I3
S'|'
p2086
NNNI4
I1
I0
tp2087
bS'MAMP'
p2088
tp2089
Rp2090
sS'PLAED3HT'
p2091
g2
(g3
(S'S4'
p2092
I0
I1
tp2093
Rp2094
(I3
S'|'
p2095
NNNI4
I1
I0
tp2096
bS'DEGF'
p2097
tp2098
Rp2099
sS'4RT583T'
p2100
g2
(g3
(S'S4'
p2101
I0
I1
tp2102
Rp2103
(I3
S'|'
p2104
NNNI4
I1
I0
tp2105
bS'DEGF'
p2106
tp2107
Rp2108
sS'HKP5V'
p2109
S'V'
p2110
sS'OHRTHR51_WIDE'
p2111
g2
(g3
(S'S4'
p2112
I0
I1
tp2113
Rp2114
(I3
S'|'
p2115
NNNI4
I1
I0
tp2116
bS'DEGF'
p2117
tp2118
Rp2119
sS'AIOAP5CV'
p2120
g2
(g3
(S'S1'
p2121
I0
I1
tp2122
Rp2123
(I3
S'|'
p2124
NNNI1
I1
I0
tp2125
bg200
tp2126
Rp2127
sS'HKN6V'
p2128
S'V'
p2129
sS'4RT593T'
p2130
g2
(g3
(S'S4'
p2131
I0
I1
tp2132
Rp2133
(I3
S'|'
p2134
NNNI4
I1
I0
tp2135
bS'DEGF'
p2136
tp2137
Rp2138
sS'TATECDRT'
p2139
g2
(g3
(S'S4'
p2140
I0
I1
tp2141
Rp2142
(I3
S'|'
p2143
NNNI4
I1
I0
tp2144
bS'DEGF'
p2145
tp2146
Rp2147
sS'OOBTHR44_WIDE'
p2148
g2
(g3
(S'S4'
p2149
I0
I1
tp2150
Rp2151
(I3
S'|'
p2152
NNNI4
I1
I0
tp2153
bS'DEGF'
p2154
tp2155
Rp2156
sS'HKGHV'
p2157
S'V'
p2158
sS'4PRT5BT'
p2159
g2
(g3
(S'S4'
p2160
I0
I1
tp2161
Rp2162
(I3
S'|'
p2163
NNNI4
I1
I0
tp2164
bS'DEGF'
p2165
tp2166
Rp2167
sS'4LLL1BT'
p2168
g2
(g3
(S'S4'
p2169
I0
I1
tp2170
Rp2171
(I3
S'|'
p2172
NNNI4
I1
I0
tp2173
bS'DEGF'
p2174
tp2175
Rp2176
sS'TCM_RFAS'
p2177
g2
(g3
(S'S4'
p2178
I0
I1
tp2179
Rp2180
(I3
S'|'
p2181
NNNI4
I1
I0
tp2182
bS'DEGF'
p2183
tp2184
Rp2185
sS'OHRTHR11_WIDE'
p2186
g2
(g3
(S'S4'
p2187
I0
I1
tp2188
Rp2189
(I3
S'|'
p2190
NNNI4
I1
I0
tp2191
bS'DEGF'
p2192
tp2193
Rp2194
sS'ANGLEEPHEM_POINT_SUNLIMBANG'
p2195
S'deg'
p2196
sS'TESH1'
p2197
g2
(g3
(S'S4'
p2198
I0
I1
tp2199
Rp2200
(I3
S'|'
p2201
NNNI4
I1
I0
tp2202
bS'DEGF'
p2203
tp2204
Rp2205
sS'6SARATC1'
p2206
g2
(g3
(S'S5'
p2207
I0
I1
tp2208
Rp2209
(I3
S'|'
p2210
NNNI5
I1
I0
tp2211
bS'RADPS'
p2212
tp2213
Rp2214
sS'PMTANK3T'
p2215
g2
(g3
(S'S4'
p2216
I0
I1
tp2217
Rp2218
(I3
S'|'
p2219
NNNI4
I1
I0
tp2220
bS'DEGF'
p2221
tp2222
Rp2223
sS'PR3TV02T'
p2224
g2
(g3
(S'S4'
p2225
I0
I1
tp2226
Rp2227
(I3
S'|'
p2228
NNNI4
I1
I0
tp2229
bS'DEGF'
p2230
tp2231
Rp2232
sS'3TSPZSPT'
p2233
g2
(g3
(S'S4'
p2234
I0
I1
tp2235
Rp2236
(I3
S'|'
p2237
NNNI4
I1
I0
tp2238
bS'DEGC'
p2239
tp2240
Rp2241
sS'1DEP3BVO'
p2242
g2
(g3
(S'S1'
p2243
I0
I1
tp2244
Rp2245
(I3
S'|'
p2246
NNNI1
I1
I0
tp2247
bg200
tp2248
Rp2249
sS'ORBITEPHEM1_TIME'
p2250
S's'
p2251
sS'PLAED4BT'
p2252
g2
(g3
(S'S4'
p2253
I0
I1
tp2254
Rp2255
(I3
S'|'
p2256
NNNI4
I1
I0
tp2257
bS'DEGF'
p2258
tp2259
Rp2260
sS'ADE1P5CV'
p2261
g2
(g3
(S'S1'
p2262
I0
I1
tp2263
Rp2264
(I3
S'|'
p2265
NNNI1
I1
I0
tp2266
bg200
tp2267
Rp2268
sS'6RWSPD1'
p2269
g2
(g3
(S'S5'
p2270
I0
I1
tp2271
Rp2272
(I3
S'|'
p2273
NNNI5
I1
I0
tp2274
bS'RADPS'
p2275
tp2276
Rp2277
sS'6RWSPD3'
p2278
g2
(g3
(S'S5'
p2279
I0
I1
tp2280
Rp2281
(I3
S'|'
p2282
NNNI5
I1
I0
tp2283
bS'RADPS'
p2284
tp2285
Rp2286
sS'6RWSPD2'
p2287
g2
(g3
(S'S5'
p2288
I0
I1
tp2289
Rp2290
(I3
S'|'
p2291
NNNI5
I1
I0
tp2292
bS'RADPS'
p2293
tp2294
Rp2295
sS'6RWSPD5'
p2296
g2
(g3
(S'S5'
p2297
I0
I1
tp2298
Rp2299
(I3
S'|'
p2300
NNNI5
I1
I0
tp2301
bS'RADPS'
p2302
tp2303
Rp2304
sS'6RWSPD4'
p2305
g2
(g3
(S'S5'
p2306
I0
I1
tp2307
Rp2308
(I3
S'|'
p2309
NNNI5
I1
I0
tp2310
bS'RADPS'
p2311
tp2312
Rp2313
sS'POLINE03T'
p2314
g2
(g3
(S'S4'
p2315
I0
I1
tp2316
Rp2317
(I3
S'|'
p2318
NNNI4
I1
I0
tp2319
bS'DEGF'
p2320
tp2321
Rp2322
sS'OHRTHR21_WIDE'
p2323
g2
(g3
(S'S4'
p2324
I0
I1
tp2325
Rp2326
(I3
S'|'
p2327
NNNI4
I1
I0
tp2328
bS'DEGF'
p2329
tp2330
Rp2331
sS'TFSSBKT1'
p2332
g2
(g3
(S'S4'
p2333
I0
I1
tp2334
Rp2335
(I3
S'|'
p2336
NNNI4
I1
I0
tp2337
bS'DEGF'
p2338
tp2339
Rp2340
sS'EB2DI'
p2341
g2
(g3
(S'S3'
p2342
I0
I1
tp2343
Rp2344
(I3
S'|'
p2345
NNNI3
I1
I0
tp2346
bS'AMP'
p2347
tp2348
Rp2349
sS'TFSSBKT2'
p2350
g2
(g3
(S'S4'
p2351
I0
I1
tp2352
Rp2353
(I3
S'|'
p2354
NNNI4
I1
I0
tp2355
bS'DEGF'
p2356
tp2357
Rp2358
sS'TRSPRWBB'
p2359
g2
(g3
(S'S4'
p2360
I0
I1
tp2361
Rp2362
(I3
S'|'
p2363
NNNI4
I1
I0
tp2364
bS'DEGF'
p2365
tp2366
Rp2367
sS'TRSPRWBC'
p2368
g2
(g3
(S'S4'
p2369
I0
I1
tp2370
Rp2371
(I3
S'|'
p2372
NNNI4
I1
I0
tp2373
bS'DEGF'
p2374
tp2375
Rp2376
sS'ANGLEEPHEM_POINT_MOONLIMBANG'
p2377
S'deg'
p2378
sS'FPTEMP_11'
p2379
g1149
sS'FPTEMP_12'
p2380
g1149
sS'AORWPI1B'
p2381
g2
(g3
(S'S4'
p2382
I0
I1
tp2383
Rp2384
(I3
S'|'
p2385
NNNI4
I1
I0
tp2386
bS'MSEC'
p2387
tp2388
Rp2389
sS'EB1DI'
p2390
g2
(g3
(S'S3'
p2391
I0
I1
tp2392
Rp2393
(I3
S'|'
p2394
NNNI3
I1
I0
tp2395
bS'AMP'
p2396
tp2397
Rp2398
sS'PLAED3FT'
p2399
g2
(g3
(S'S4'
p2400
I0
I1
tp2401
Rp2402
(I3
S'|'
p2403
NNNI4
I1
I0
tp2404
bS'DEGF'
p2405
tp2406
Rp2407
sS'LUNAREPHEM1_X'
p2408
S'm'
p2409
sS'LUNAREPHEM1_Y'
p2410
S'm'
p2411
sS'LUNAREPHEM1_Z'
p2412
S'm'
p2413
sS'TSCIUSF2'
p2414
g2
(g3
(S'S4'
p2415
I0
I1
tp2416
Rp2417
(I3
S'|'
p2418
NNNI4
I1
I0
tp2419
bS'DEGF'
p2420
tp2421
Rp2422
sS'TSCIUSF5'
p2423
g2
(g3
(S'S4'
p2424
I0
I1
tp2425
Rp2426
(I3
S'|'
p2427
NNNI4
I1
I0
tp2428
bS'DEGF'
p2429
tp2430
Rp2431
sS'AVD1CV5V'
p2432
g2
(g3
(S'S1'
p2433
I0
I1
tp2434
Rp2435
(I3
S'|'
p2436
NNNI1
I1
I0
tp2437
bg200
tp2438
Rp2439
sS'AOACINTT'
p2440
g2
(g3
(S'S4'
p2441
I0
I1
tp2442
Rp2443
(I3
S'|'
p2444
NNNI4
I1
I0
tp2445
bS'MSEC'
p2446
tp2447
Rp2448
sS'TSCIUSF8'
p2449
g2
(g3
(S'S4'
p2450
I0
I1
tp2451
Rp2452
(I3
S'|'
p2453
NNNI4
I1
I0
tp2454
bS'DEGF'
p2455
tp2456
Rp2457
sS'2SHEV2RT'
p2458
g2
(g3
(S'S2'
p2459
I0
I1
tp2460
Rp2461
(I3
S'|'
p2462
NNNI2
I1
I0
tp2463
bS'HZ'
p2464
tp2465
Rp2466
sS'1HOPRAPR'
p2467
g2
(g3
(S'S4'
p2468
I0
I1
tp2469
Rp2470
(I3
S'|'
p2471
NNNI4
I1
I0
tp2472
bS'TORR'
p2473
tp2474
Rp2475
sS'ADE2P5CV'
p2476
g2
(g3
(S'S1'
p2477
I0
I1
tp2478
Rp2479
(I3
S'|'
p2480
NNNI1
I1
I0
tp2481
bg200
tp2482
Rp2483
sS'OOBTHR06_WIDE'
p2484
g2
(g3
(S'S4'
p2485
I0
I1
tp2486
Rp2487
(I3
S'|'
p2488
NNNI4
I1
I0
tp2489
bS'DEGF'
p2490
tp2491
Rp2492
sS'OHRTHR02_WIDE'
p2493
g2
(g3
(S'S4'
p2494
I0
I1
tp2495
Rp2496
(I3
S'|'
p2497
NNNI4
I1
I0
tp2498
bS'DEGF'
p2499
tp2500
Rp2501
sS'3TTACS3T'
p2502
g2
(g3
(S'S4'
p2503
I0
I1
tp2504
Rp2505
(I3
S'|'
p2506
NNNI4
I1
I0
tp2507
bS'DEGC'
p2508
tp2509
Rp2510
sS'CTSA15V'
p2511
g2
(g3
(S'S1'
p2512
I0
I1
tp2513
Rp2514
(I3
S'|'
p2515
NNNI1
I1
I0
tp2516
bg200
tp2517
Rp2518
sS'PFDM102T'
p2519
g2
(g3
(S'S4'
p2520
I0
I1
tp2521
Rp2522
(I3
S'|'
p2523
NNNI4
I1
I0
tp2524
bS'DEGF'
p2525
tp2526
Rp2527
sS'4MP28AV'
p2528
g2
(g3
(S'S3'
p2529
I0
I1
tp2530
Rp2531
(I3
S'|'
p2532
NNNI3
I1
I0
tp2533
bS'VDC'
p2534
tp2535
Rp2536
sS'OOBTHR26_WIDE'
p2537
g2
(g3
(S'S4'
p2538
I0
I1
tp2539
Rp2540
(I3
S'|'
p2541
NNNI4
I1
I0
tp2542
bS'DEGF'
p2543
tp2544
Rp2545
sS'OHRTHR60'
p2546
g2
(g3
(S'S4'
p2547
I0
I1
tp2548
Rp2549
(I3
S'|'
p2550
NNNI4
I1
I0
tp2551
bS'DEGF'
p2552
tp2553
Rp2554
sS'PLAED2AT'
p2555
g2
(g3
(S'S4'
p2556
I0
I1
tp2557
Rp2558
(I3
S'|'
p2559
NNNI4
I1
I0
tp2560
bS'DEGF'
p2561
tp2562
Rp2563
sS'TAPEA1T'
p2564
g2
(g3
(S'S4'
p2565
I0
I1
tp2566
Rp2567
(I3
S'|'
p2568
NNNI4
I1
I0
tp2569
bS'DEGF'
p2570
tp2571
Rp2572
sS'OOBTHR31_WIDE'
p2573
g2
(g3
(S'S4'
p2574
I0
I1
tp2575
Rp2576
(I3
S'|'
p2577
NNNI4
I1
I0
tp2578
bS'DEGF'
p2579
tp2580
Rp2581
sS'2P24VBVL'
p2582
g2
(g3
(S'S3'
p2583
I0
I1
tp2584
Rp2585
(I3
S'|'
p2586
NNNI3
I1
I0
tp2587
bS'VDC'
p2588
tp2589
Rp2590
sS'OOBTHR04_WIDE'
p2591
g2
(g3
(S'S4'
p2592
I0
I1
tp2593
Rp2594
(I3
S'|'
p2595
NNNI4
I1
I0
tp2596
bS'DEGF'
p2597
tp2598
Rp2599
sS'1DEP3AVO'
p2600
g2
(g3
(S'S1'
p2601
I0
I1
tp2602
Rp2603
(I3
S'|'
p2604
NNNI1
I1
I0
tp2605
bg200
tp2606
Rp2607
sS'AIRU1G2T'
p2608
g2
(g3
(S'S4'
p2609
I0
I1
tp2610
Rp2611
(I3
S'|'
p2612
NNNI4
I1
I0
tp2613
bS'DEGF'
p2614
tp2615
Rp2616
sS'TPC_CEA'
p2617
g2
(g3
(S'S4'
p2618
I0
I1
tp2619
Rp2620
(I3
S'|'
p2621
NNNI4
I1
I0
tp2622
bS'DEGF'
p2623
tp2624
Rp2625
sS'AIRU1G2I'
p2626
g2
(g3
(S'S4'
p2627
I0
I1
tp2628
Rp2629
(I3
S'|'
p2630
NNNI4
I1
I0
tp2631
bS'MAMP'
p2632
tp2633
Rp2634
sS'TSAMYT'
p2635
g2
(g3
(S'S4'
p2636
I0
I1
tp2637
Rp2638
(I3
S'|'
p2639
NNNI4
I1
I0
tp2640
bS'DEGF'
p2641
tp2642
Rp2643
sS'TEP_PSU2'
p2644
g2
(g3
(S'S4'
p2645
I0
I1
tp2646
Rp2647
(I3
S'|'
p2648
NNNI4
I1
I0
tp2649
bS'DEGF'
p2650
tp2651
Rp2652
sS'TPZLGABM'
p2653
g2
(g3
(S'S4'
p2654
I0
I1
tp2655
Rp2656
(I3
S'|'
p2657
NNNI4
I1
I0
tp2658
bS'DEGF'
p2659
tp2660
Rp2661
sS'TEP_PSU1'
p2662
g2
(g3
(S'S4'
p2663
I0
I1
tp2664
Rp2665
(I3
S'|'
p2666
NNNI4
I1
I0
tp2667
bS'DEGF'
p2668
tp2669
Rp2670
sS'AOCSSI1'
p2671
g2
(g3
(S'S4'
p2672
I0
I1
tp2673
Rp2674
(I3
S'|'
p2675
NNNI4
I1
I0
tp2676
bS'MAMP'
p2677
tp2678
Rp2679
sS'AOCSSI3'
p2680
g2
(g3
(S'S4'
p2681
I0
I1
tp2682
Rp2683
(I3
S'|'
p2684
NNNI4
I1
I0
tp2685
bS'MAMP'
p2686
tp2687
Rp2688
sS'AIRU2G1T'
p2689
g2
(g3
(S'S4'
p2690
I0
I1
tp2691
Rp2692
(I3
S'|'
p2693
NNNI4
I1
I0
tp2694
bS'DEGF'
p2695
tp2696
Rp2697
sS'AOCSSI4'
p2698
g2
(g3
(S'S4'
p2699
I0
I1
tp2700
Rp2701
(I3
S'|'
p2702
NNNI4
I1
I0
tp2703
bS'MAMP'
p2704
tp2705
Rp2706
sS'AIRU2G1I'
p2707
g2
(g3
(S'S4'
p2708
I0
I1
tp2709
Rp2710
(I3
S'|'
p2711
NNNI4
I1
I0
tp2712
bS'MAMP'
p2713
tp2714
Rp2715
sS'CTUB15V'
p2716
g2
(g3
(S'S1'
p2717
I0
I1
tp2718
Rp2719
(I3
S'|'
p2720
NNNI1
I1
I0
tp2721
bg200
tp2722
Rp2723
sS'TB3T1'
p2724
g2
(g3
(S'S4'
p2725
I0
I1
tp2726
Rp2727
(I3
S'|'
p2728
NNNI4
I1
I0
tp2729
bS'DEGF'
p2730
tp2731
Rp2732
sS'TB3T2'
p2733
g2
(g3
(S'S4'
p2734
I0
I1
tp2735
Rp2736
(I3
S'|'
p2737
NNNI4
I1
I0
tp2738
bS'DEGF'
p2739
tp2740
Rp2741
sS'TB3T3'
p2742
g2
(g3
(S'S4'
p2743
I0
I1
tp2744
Rp2745
(I3
S'|'
p2746
NNNI4
I1
I0
tp2747
bS'DEGF'
p2748
tp2749
Rp2750
sS'1DP28BVO'
p2751
g2
(g3
(S'S1'
p2752
I0
I1
tp2753
Rp2754
(I3
S'|'
p2755
NNNI1
I1
I0
tp2756
bg200
tp2757
Rp2758
sS'PFDM201T'
p2759
g2
(g3
(S'S4'
p2760
I0
I1
tp2761
Rp2762
(I3
S'|'
p2763
NNNI4
I1
I0
tp2764
bS'DEGF'
p2765
tp2766
Rp2767
sS'OOBTHR21_WIDE'
p2768
g2
(g3
(S'S4'
p2769
I0
I1
tp2770
Rp2771
(I3
S'|'
p2772
NNNI4
I1
I0
tp2773
bS'DEGF'
p2774
tp2775
Rp2776
sS'1PDEABT'
p2777
g2
(g3
(S'S4'
p2778
I0
I1
tp2779
Rp2780
(I3
S'|'
p2781
NNNI4
I1
I0
tp2782
bS'DEGC'
p2783
tp2784
Rp2785
sS'PLAED2HT'
p2786
g2
(g3
(S'S4'
p2787
I0
I1
tp2788
Rp2789
(I3
S'|'
p2790
NNNI4
I1
I0
tp2791
bS'DEGF'
p2792
tp2793
Rp2794
sS'TFSSHDT1'
p2795
g2
(g3
(S'S4'
p2796
I0
I1
tp2797
Rp2798
(I3
S'|'
p2799
NNNI4
I1
I0
tp2800
bS'DEGF'
p2801
tp2802
Rp2803
sS'TFSSHDT2'
p2804
g2
(g3
(S'S4'
p2805
I0
I1
tp2806
Rp2807
(I3
S'|'
p2808
NNNI4
I1
I0
tp2809
bS'DEGF'
p2810
tp2811
Rp2812
sS'3SDFAMT'
p2813
g1149
sS'OOBTHR14_WIDE'
p2814
g2
(g3
(S'S4'
p2815
I0
I1
tp2816
Rp2817
(I3
S'|'
p2818
NNNI4
I1
I0
tp2819
bS'DEGF'
p2820
tp2821
Rp2822
sS'TCM_SSR2'
p2823
g2
(g3
(S'S4'
p2824
I0
I1
tp2825
Rp2826
(I3
S'|'
p2827
NNNI4
I1
I0
tp2828
bS'DEGF'
p2829
tp2830
Rp2831
sS'3FLCABPT'
p2832
g2
(g3
(S'S4'
p2833
I0
I1
tp2834
Rp2835
(I3
S'|'
p2836
NNNI4
I1
I0
tp2837
bS'DEGC'
p2838
tp2839
Rp2840
sS'OHRTHR18'
p2841
g2
(g3
(S'S4'
p2842
I0
I1
tp2843
Rp2844
(I3
S'|'
p2845
NNNI4
I1
I0
tp2846
bS'DEGF'
p2847
tp2848
Rp2849
sS'OHRTHR19'
p2850
g2
(g3
(S'S4'
p2851
I0
I1
tp2852
Rp2853
(I3
S'|'
p2854
NNNI4
I1
I0
tp2855
bS'DEGF'
p2856
tp2857
Rp2858
sS'PFTANK2T'
p2859
g2
(g3
(S'S4'
p2860
I0
I1
tp2861
Rp2862
(I3
S'|'
p2863
NNNI4
I1
I0
tp2864
bS'DEGF'
p2865
tp2866
Rp2867
sS'OHRTHR14'
p2868
g2
(g3
(S'S4'
p2869
I0
I1
tp2870
Rp2871
(I3
S'|'
p2872
NNNI4
I1
I0
tp2873
bS'DEGF'
p2874
tp2875
Rp2876
sS'OHRTHR15'
p2877
g2
(g3
(S'S4'
p2878
I0
I1
tp2879
Rp2880
(I3
S'|'
p2881
NNNI4
I1
I0
tp2882
bS'DEGF'
p2883
tp2884
Rp2885
sS'OHRTHR12'
p2886
g2
(g3
(S'S4'
p2887
I0
I1
tp2888
Rp2889
(I3
S'|'
p2890
NNNI4
I1
I0
tp2891
bS'DEGF'
p2892
tp2893
Rp2894
sS'OHRTHR13'
p2895
g2
(g3
(S'S4'
p2896
I0
I1
tp2897
Rp2898
(I3
S'|'
p2899
NNNI4
I1
I0
tp2900
bS'DEGF'
p2901
tp2902
Rp2903
sS'OHRTHR10'
p2904
g2
(g3
(S'S4'
p2905
I0
I1
tp2906
Rp2907
(I3
S'|'
p2908
NNNI4
I1
I0
tp2909
bS'DEGF'
p2910
tp2911
Rp2912
sS'OHRTHR11'
p2913
g2
(g3
(S'S4'
p2914
I0
I1
tp2915
Rp2916
(I3
S'|'
p2917
NNNI4
I1
I0
tp2918
bS'DEGF'
p2919
tp2920
Rp2921
sS'4PRTBV'
p2922
g2
(g3
(S'S3'
p2923
I0
I1
tp2924
Rp2925
(I3
S'|'
p2926
NNNI3
I1
I0
tp2927
bS'VDC'
p2928
tp2929
Rp2930
sS'CIUB15V'
p2931
g2
(g3
(S'S1'
p2932
I0
I1
tp2933
Rp2934
(I3
S'|'
p2935
NNNI1
I1
I0
tp2936
bg200
tp2937
Rp2938
sS'SOLAREPHEM1_Y'
p2939
S'm'
p2940
sS'HKFBIASLEAKI'
p2941
S'uA'
p2942
sS'ANGLEEPHEM_POINT_EARTHCENTANG'
p2943
S'deg'
p2944
sS'OHRTHR33_WIDE'
p2945
g2
(g3
(S'S4'
p2946
I0
I1
tp2947
Rp2948
(I3
S'|'
p2949
NNNI4
I1
I0
tp2950
bS'DEGF'
p2951
tp2952
Rp2953
sS'EORTDMN24D'
p2954
g2
(g3
(S'S4'
p2955
I0
I1
tp2956
Rp2957
(I3
S'|'
p2958
NNNI4
I1
I0
tp2959
bS'DEGF'
p2960
tp2961
Rp2962
sS'AIRU2BT'
p2963
g2
(g3
(S'S4'
p2964
I0
I1
tp2965
Rp2966
(I3
S'|'
p2967
NNNI4
I1
I0
tp2968
bS'DEGF'
p2969
tp2970
Rp2971
sS'AORWSPD1'
p2972
g2
(g3
(S'S5'
p2973
I0
I1
tp2974
Rp2975
(I3
S'|'
p2976
NNNI5
I1
I0
tp2977
bS'RADPS'
p2978
tp2979
Rp2980
sS'AORWSPD2'
p2981
g2
(g3
(S'S5'
p2982
I0
I1
tp2983
Rp2984
(I3
S'|'
p2985
NNNI5
I1
I0
tp2986
bS'RADPS'
p2987
tp2988
Rp2989
sS'AORWSPD3'
p2990
g2
(g3
(S'S5'
p2991
I0
I1
tp2992
Rp2993
(I3
S'|'
p2994
NNNI5
I1
I0
tp2995
bS'RADPS'
p2996
tp2997
Rp2998
sS'AORWSPD4'
p2999
g2
(g3
(S'S5'
p3000
I0
I1
tp3001
Rp3002
(I3
S'|'
p3003
NNNI5
I1
I0
tp3004
bS'RADPS'
p3005
tp3006
Rp3007
sS'AORWSPD5'
p3008
g2
(g3
(S'S5'
p3009
I0
I1
tp3010
Rp3011
(I3
S'|'
p3012
NNNI5
I1
I0
tp3013
bS'RADPS'
p3014
tp3015
Rp3016
sS'OOBTHR23_WIDE'
p3017
g2
(g3
(S'S4'
p3018
I0
I1
tp3019
Rp3020
(I3
S'|'
p3021
NNNI4
I1
I0
tp3022
bS'DEGF'
p3023
tp3024
Rp3025
sS'PM1THV1T'
p3026
g2
(g3
(S'S4'
p3027
I0
I1
tp3028
Rp3029
(I3
S'|'
p3030
NNNI4
I1
I0
tp3031
bS'DEGF'
p3032
tp3033
Rp3034
sS'DEAM6VOLTA'
p3035
S'V'
p3036
sS'DEAM6VOLTB'
p3037
S'V'
p3038
sS'EORTDMN13D'
p3039
g2
(g3
(S'S4'
p3040
I0
I1
tp3041
Rp3042
(I3
S'|'
p3043
NNNI4
I1
I0
tp3044
bS'DEGF'
p3045
tp3046
Rp3047
sS'4RT564T'
p3048
g2
(g3
(S'S4'
p3049
I0
I1
tp3050
Rp3051
(I3
S'|'
p3052
NNNI4
I1
I0
tp3053
bS'DEGF'
p3054
tp3055
Rp3056
sS'TMP_BEP_PCB'
p3057
g1149
sS'OOBTHR33_WIDE'
p3058
g2
(g3
(S'S4'
p3059
I0
I1
tp3060
Rp3061
(I3
S'|'
p3062
NNNI4
I1
I0
tp3063
bS'DEGF'
p3064
tp3065
Rp3066
sS'EORTDMN21D'
p3067
g2
(g3
(S'S4'
p3068
I0
I1
tp3069
Rp3070
(I3
S'|'
p3071
NNNI4
I1
I0
tp3072
bS'DEGF'
p3073
tp3074
Rp3075
sS'PM3THV2T'
p3076
g2
(g3
(S'S4'
p3077
I0
I1
tp3078
Rp3079
(I3
S'|'
p3080
NNNI4
I1
I0
tp3081
bS'DEGF'
p3082
tp3083
Rp3084
sS'PLINE04T'
p3085
g2
(g3
(S'S4'
p3086
I0
I1
tp3087
Rp3088
(I3
S'|'
p3089
NNNI4
I1
I0
tp3090
bS'DEGF'
p3091
tp3092
Rp3093
sS'OHRTHR07_WIDE'
p3094
g2
(g3
(S'S4'
p3095
I0
I1
tp3096
Rp3097
(I3
S'|'
p3098
NNNI4
I1
I0
tp3099
bS'DEGF'
p3100
tp3101
Rp3102
sS'EORTDMN28D'
p3103
g2
(g3
(S'S4'
p3104
I0
I1
tp3105
Rp3106
(I3
S'|'
p3107
NNNI4
I1
I0
tp3108
bS'DEGF'
p3109
tp3110
Rp3111
sS'AOFFTQ3'
p3112
g2
(g3
(S'S4'
p3113
I0
I1
tp3114
Rp3115
(I3
S'|'
p3116
NNNI4
I1
I0
tp3117
bS'FTLB'
p3118
tp3119
Rp3120
sS'4RT578T'
p3121
g2
(g3
(S'S4'
p3122
I0
I1
tp3123
Rp3124
(I3
S'|'
p3125
NNNI4
I1
I0
tp3126
bS'DEGF'
p3127
tp3128
Rp3129
sS'AOSPBCS2B'
p3130
g2
(g3
(S'S4'
p3131
I0
I1
tp3132
Rp3133
(I3
S'|'
p3134
NNNI4
I1
I0
tp3135
bS'MAMP'
p3136
tp3137
Rp3138
sS'4CSDOAV'
p3139
g2
(g3
(S'S3'
p3140
I0
I1
tp3141
Rp3142
(I3
S'|'
p3143
NNNI3
I1
I0
tp3144
bS'VDC'
p3145
tp3146
Rp3147
sS'1WRAT'
p3148
g2
(g3
(S'S4'
p3149
I0
I1
tp3150
Rp3151
(I3
S'|'
p3152
NNNI4
I1
I0
tp3153
bS'DEGC'
p3154
tp3155
Rp3156
sS'PLAED1GT'
p3157
g2
(g3
(S'S4'
p3158
I0
I1
tp3159
Rp3160
(I3
S'|'
p3161
NNNI4
I1
I0
tp3162
bS'DEGF'
p3163
tp3164
Rp3165
sS'AORESY6_1'
p3166
g2
(g3
(S'S3'
p3167
I0
I1
tp3168
Rp3169
(I3
S'|'
p3170
NNNI3
I1
I0
tp3171
bS'RAD'
p3172
tp3173
Rp3174
sS'6RWCMD4'
p3175
g2
(g3
(S'S4'
p3176
I0
I1
tp3177
Rp3178
(I3
S'|'
p3179
NNNI4
I1
I0
tp3180
bS'FTLB'
p3181
tp3182
Rp3183
sS'6RWCMD5'
p3184
g2
(g3
(S'S4'
p3185
I0
I1
tp3186
Rp3187
(I3
S'|'
p3188
NNNI4
I1
I0
tp3189
bS'FTLB'
p3190
tp3191
Rp3192
sS'6RWCMD6'
p3193
g2
(g3
(S'S4'
p3194
I0
I1
tp3195
Rp3196
(I3
S'|'
p3197
NNNI4
I1
I0
tp3198
bS'FTLB'
p3199
tp3200
Rp3201
sS'AFLCA8AI'
p3202
g2
(g3
(S'S4'
p3203
I0
I1
tp3204
Rp3205
(I3
S'|'
p3206
NNNI4
I1
I0
tp3207
bS'MAMP'
p3208
tp3209
Rp3210
sS'AORTERR1'
p3211
g2
(g3
(S'S5'
p3212
I0
I1
tp3213
Rp3214
(I3
S'|'
p3215
NNNI5
I1
I0
tp3216
bS'RADPS'
p3217
tp3218
Rp3219
sS'6RWCMD1'
p3220
g2
(g3
(S'S4'
p3221
I0
I1
tp3222
Rp3223
(I3
S'|'
p3224
NNNI4
I1
I0
tp3225
bS'FTLB'
p3226
tp3227
Rp3228
sS'AORTERR3'
p3229
g2
(g3
(S'S5'
p3230
I0
I1
tp3231
Rp3232
(I3
S'|'
p3233
NNNI5
I1
I0
tp3234
bS'RADPS'
p3235
tp3236
Rp3237
sS'6RWCMD3'
p3238
g2
(g3
(S'S4'
p3239
I0
I1
tp3240
Rp3241
(I3
S'|'
p3242
NNNI4
I1
I0
tp3243
bS'FTLB'
p3244
tp3245
Rp3246
sS'OOBTHR40_WIDE'
p3247
g2
(g3
(S'S4'
p3248
I0
I1
tp3249
Rp3250
(I3
S'|'
p3251
NNNI4
I1
I0
tp3252
bS'DEGF'
p3253
tp3254
Rp3255
sS'TSCTSF4'
p3256
g2
(g3
(S'S4'
p3257
I0
I1
tp3258
Rp3259
(I3
S'|'
p3260
NNNI4
I1
I0
tp3261
bS'DEGF'
p3262
tp3263
Rp3264
sS'OOBTHR25_WIDE'
p3265
g2
(g3
(S'S4'
p3266
I0
I1
tp3267
Rp3268
(I3
S'|'
p3269
NNNI4
I1
I0
tp3270
bS'DEGF'
p3271
tp3272
Rp3273
sS'4OAVOBAT'
p3274
g2
(g3
(S'S4'
p3275
I0
I1
tp3276
Rp3277
(I3
S'|'
p3278
NNNI4
I1
I0
tp3279
bS'DEGF'
p3280
tp3281
Rp3282
sS'6SINTER3'
p3283
g2
(g3
(S'S3'
p3284
I0
I1
tp3285
Rp3286
(I3
S'|'
p3287
NNNI3
I1
I0
tp3288
bS'RAD'
p3289
tp3290
Rp3291
sS'3SDFLXAT'
p3292
g1149
sS'3SDBOXT'
p3293
g1149
sS'4RT709T'
p3294
g2
(g3
(S'S4'
p3295
I0
I1
tp3296
Rp3297
(I3
S'|'
p3298
NNNI4
I1
I0
tp3299
bS'DEGF'
p3300
tp3301
Rp3302
sS'OHRTHR13_WIDE'
p3303
g2
(g3
(S'S4'
p3304
I0
I1
tp3305
Rp3306
(I3
S'|'
p3307
NNNI4
I1
I0
tp3308
bS'DEGF'
p3309
tp3310
Rp3311
sS'4RT582T'
p3312
g2
(g3
(S'S4'
p3313
I0
I1
tp3314
Rp3315
(I3
S'|'
p3316
NNNI4
I1
I0
tp3317
bS'DEGF'
p3318
tp3319
Rp3320
sS'OOBTHR15_WIDE'
p3321
g2
(g3
(S'S4'
p3322
I0
I1
tp3323
Rp3324
(I3
S'|'
p3325
NNNI4
I1
I0
tp3326
bS'DEGF'
p3327
tp3328
Rp3329
sS'AFLCA6AI'
p3330
g2
(g3
(S'S4'
p3331
I0
I1
tp3332
Rp3333
(I3
S'|'
p3334
NNNI4
I1
I0
tp3335
bS'MAMP'
p3336
tp3337
Rp3338
sS'4PRT2BT'
p3339
g2
(g3
(S'S4'
p3340
I0
I1
tp3341
Rp3342
(I3
S'|'
p3343
NNNI4
I1
I0
tp3344
bS'DEGF'
p3345
tp3346
Rp3347
sS'1DEP2AVO'
p3348
g2
(g3
(S'S1'
p3349
I0
I1
tp3350
Rp3351
(I3
S'|'
p3352
NNNI1
I1
I0
tp3353
bg200
tp3354
Rp3355
sS'3RCTUBPT'
p3356
g2
(g3
(S'S4'
p3357
I0
I1
tp3358
Rp3359
(I3
S'|'
p3360
NNNI4
I1
I0
tp3361
bS'DEGC'
p3362
tp3363
Rp3364
sS'6SURTER3'
p3365
g2
(g3
(S'S5'
p3366
I0
I1
tp3367
Rp3368
(I3
S'|'
p3369
NNNI5
I1
I0
tp3370
bS'RADPS'
p3371
tp3372
Rp3373
sS'6SURTER2'
p3374
g2
(g3
(S'S5'
p3375
I0
I1
tp3376
Rp3377
(I3
S'|'
p3378
NNNI5
I1
I0
tp3379
bS'RADPS'
p3380
tp3381
Rp3382
sS'6SURTER1'
p3383
g2
(g3
(S'S5'
p3384
I0
I1
tp3385
Rp3386
(I3
S'|'
p3387
NNNI5
I1
I0
tp3388
bS'RADPS'
p3389
tp3390
Rp3391
sS'OOBTHR49'
p3392
g2
(g3
(S'S4'
p3393
I0
I1
tp3394
Rp3395
(I3
S'|'
p3396
NNNI4
I1
I0
tp3397
bS'DEGF'
p3398
tp3399
Rp3400
sS'CRXBV'
p3401
g2
(g3
(S'S1'
p3402
I0
I1
tp3403
Rp3404
(I3
S'|'
p3405
NNNI1
I1
I0
tp3406
bg200
tp3407
Rp3408
sS'OOBTHR47'
p3409
g2
(g3
(S'S4'
p3410
I0
I1
tp3411
Rp3412
(I3
S'|'
p3413
NNNI4
I1
I0
tp3414
bS'DEGF'
p3415
tp3416
Rp3417
sS'OOBTHR44'
p3418
g2
(g3
(S'S4'
p3419
I0
I1
tp3420
Rp3421
(I3
S'|'
p3422
NNNI4
I1
I0
tp3423
bS'DEGF'
p3424
tp3425
Rp3426
sS'OOBTHR45'
p3427
g2
(g3
(S'S4'
p3428
I0
I1
tp3429
Rp3430
(I3
S'|'
p3431
NNNI4
I1
I0
tp3432
bS'DEGF'
p3433
tp3434
Rp3435
sS'OOBTHR42'
p3436
g2
(g3
(S'S4'
p3437
I0
I1
tp3438
Rp3439
(I3
S'|'
p3440
NNNI4
I1
I0
tp3441
bS'DEGF'
p3442
tp3443
Rp3444
sS'OOBTHR43'
p3445
g2
(g3
(S'S4'
p3446
I0
I1
tp3447
Rp3448
(I3
S'|'
p3449
NNNI4
I1
I0
tp3450
bS'DEGF'
p3451
tp3452
Rp3453
sS'OOBTHR40'
p3454
g2
(g3
(S'S4'
p3455
I0
I1
tp3456
Rp3457
(I3
S'|'
p3458
NNNI4
I1
I0
tp3459
bS'DEGF'
p3460
tp3461
Rp3462
sS'OOBTHR41'
p3463
g2
(g3
(S'S4'
p3464
I0
I1
tp3465
Rp3466
(I3
S'|'
p3467
NNNI4
I1
I0
tp3468
bS'DEGF'
p3469
tp3470
Rp3471
sS'ASPEB5CV'
p3472
g2
(g3
(S'S1'
p3473
I0
I1
tp3474
Rp3475
(I3
S'|'
p3476
NNNI1
I1
I0
tp3477
bg200
tp3478
Rp3479
sS'CVEEP'
p3480
g2
(g3
(S'S1'
p3481
I0
I1
tp3482
Rp3483
(I3
S'|'
p3484
NNNI1
I1
I0
tp3485
bg200
tp3486
Rp3487
sS'OOBTHR27'
p3488
g2
(g3
(S'S4'
p3489
I0
I1
tp3490
Rp3491
(I3
S'|'
p3492
NNNI4
I1
I0
tp3493
bS'DEGF'
p3494
tp3495
Rp3496
sS'AWD2CV5V'
p3497
g2
(g3
(S'S1'
p3498
I0
I1
tp3499
Rp3500
(I3
S'|'
p3501
NNNI1
I1
I0
tp3502
bg200
tp3503
Rp3504
sS'EORTDMN14D'
p3505
g2
(g3
(S'S4'
p3506
I0
I1
tp3507
Rp3508
(I3
S'|'
p3509
NNNI4
I1
I0
tp3510
bS'DEGF'
p3511
tp3512
Rp3513
sS'3FAFLBAT'
p3514
g2
(g3
(S'S4'
p3515
I0
I1
tp3516
Rp3517
(I3
S'|'
p3518
NNNI4
I1
I0
tp3519
bS'DEGC'
p3520
tp3521
Rp3522
sS'AFLCA7BI'
p3523
g2
(g3
(S'S4'
p3524
I0
I1
tp3525
Rp3526
(I3
S'|'
p3527
NNNI4
I1
I0
tp3528
bS'MAMP'
p3529
tp3530
Rp3531
sS'LUNAREPHEM0_Y'
p3532
S'm'
p3533
sS'LUNAREPHEM0_X'
p3534
S'm'
p3535
sS'LUNAREPHEM0_Z'
p3536
S'm'
p3537
sS'3FASEAAT'
p3538
g2
(g3
(S'S4'
p3539
I0
I1
tp3540
Rp3541
(I3
S'|'
p3542
NNNI4
I1
I0
tp3543
bS'DEGC'
p3544
tp3545
Rp3546
sS'OOBTHR09_WIDE'
p3547
g2
(g3
(S'S4'
p3548
I0
I1
tp3549
Rp3550
(I3
S'|'
p3551
NNNI4
I1
I0
tp3552
bS'DEGF'
p3553
tp3554
Rp3555
sS'OHRTHR29_WIDE'
p3556
g2
(g3
(S'S4'
p3557
I0
I1
tp3558
Rp3559
(I3
S'|'
p3560
NNNI4
I1
I0
tp3561
bS'DEGF'
p3562
tp3563
Rp3564
sS'TPC_FSSE'
p3565
g2
(g3
(S'S4'
p3566
I0
I1
tp3567
Rp3568
(I3
S'|'
p3569
NNNI4
I1
I0
tp3570
bS'DEGF'
p3571
tp3572
Rp3573
sS'2P15VAVL'
p3574
g2
(g3
(S'S3'
p3575
I0
I1
tp3576
Rp3577
(I3
S'|'
p3578
NNNI3
I1
I0
tp3579
bS'VDC'
p3580
tp3581
Rp3582
sS'TRSPRWCM'
p3583
g2
(g3
(S'S4'
p3584
I0
I1
tp3585
Rp3586
(I3
S'|'
p3587
NNNI4
I1
I0
tp3588
bS'DEGF'
p3589
tp3590
Rp3591
sS'AORWPI2B'
p3592
g2
(g3
(S'S4'
p3593
I0
I1
tp3594
Rp3595
(I3
S'|'
p3596
NNNI4
I1
I0
tp3597
bS'MSEC'
p3598
tp3599
Rp3600
sS'PLAED3ET'
p3601
g2
(g3
(S'S4'
p3602
I0
I1
tp3603
Rp3604
(I3
S'|'
p3605
NNNI4
I1
I0
tp3606
bS'DEGF'
p3607
tp3608
Rp3609
sS'3FAPOS'
p3610
S'FASTEP'
p3611
sS'OHRTHR18_WIDE'
p3612
g2
(g3
(S'S4'
p3613
I0
I1
tp3614
Rp3615
(I3
S'|'
p3616
NNNI4
I1
I0
tp3617
bS'DEGF'
p3618
tp3619
Rp3620
sS'CPA1V'
p3621
g2
(g3
(S'S1'
p3622
I0
I1
tp3623
Rp3624
(I3
S'|'
p3625
NNNI1
I1
I0
tp3626
bg200
tp3627
Rp3628
sS'PXTANK1T'
p3629
g2
(g3
(S'S4'
p3630
I0
I1
tp3631
Rp3632
(I3
S'|'
p3633
NNNI4
I1
I0
tp3634
bS'DEGF'
p3635
tp3636
Rp3637
sS'OOBTHR02'
p3638
g2
(g3
(S'S4'
p3639
I0
I1
tp3640
Rp3641
(I3
S'|'
p3642
NNNI4
I1
I0
tp3643
bS'DEGF'
p3644
tp3645
Rp3646
sS'1DPICACU'
p3647
g2
(g3
(S'S3'
p3648
I0
I1
tp3649
Rp3650
(I3
S'|'
p3651
NNNI3
I1
I0
tp3652
bS'AMP'
p3653
tp3654
Rp3655
sS'SOLAREPHEM0_TIME'
p3656
S's'
p3657
sS'OOBTHR35_WIDE'
p3658
g2
(g3
(S'S4'
p3659
I0
I1
tp3660
Rp3661
(I3
S'|'
p3662
NNNI4
I1
I0
tp3663
bS'DEGF'
p3664
tp3665
Rp3666
sS'TOXTSUPN'
p3667
g2
(g3
(S'S4'
p3668
I0
I1
tp3669
Rp3670
(I3
S'|'
p3671
NNNI4
I1
I0
tp3672
bS'DEGF'
p3673
tp3674
Rp3675
sS'AOSACMD1'
p3676
g2
(g3
(S'S3'
p3677
I0
I1
tp3678
Rp3679
(I3
S'|'
p3680
NNNI3
I1
I0
tp3681
bS'RAD'
p3682
tp3683
Rp3684
sS'4RT589T'
p3685
g2
(g3
(S'S4'
p3686
I0
I1
tp3687
Rp3688
(I3
S'|'
p3689
NNNI4
I1
I0
tp3690
bS'DEGF'
p3691
tp3692
Rp3693
sS'TCYLRWC'
p3694
g2
(g3
(S'S4'
p3695
I0
I1
tp3696
Rp3697
(I3
S'|'
p3698
NNNI4
I1
I0
tp3699
bS'DEGF'
p3700
tp3701
Rp3702
sS'4RT595T'
p3703
g2
(g3
(S'S4'
p3704
I0
I1
tp3705
Rp3706
(I3
S'|'
p3707
NNNI4
I1
I0
tp3708
bS'DEGF'
p3709
tp3710
Rp3711
sS'TCYLAFT5'
p3712
g2
(g3
(S'S4'
p3713
I0
I1
tp3714
Rp3715
(I3
S'|'
p3716
NNNI4
I1
I0
tp3717
bS'DEGF'
p3718
tp3719
Rp3720
sS'4RT700T'
p3721
g2
(g3
(S'S4'
p3722
I0
I1
tp3723
Rp3724
(I3
S'|'
p3725
NNNI4
I1
I0
tp3726
bS'DEGF'
p3727
tp3728
Rp3729
sS'4OAVHRMT_WIDE'
p3730
g2
(g3
(S'S4'
p3731
I0
I1
tp3732
Rp3733
(I3
S'|'
p3734
NNNI4
I1
I0
tp3735
bS'DEGF'
p3736
tp3737
Rp3738
sS'TCYLAFT4'
p3739
g2
(g3
(S'S4'
p3740
I0
I1
tp3741
Rp3742
(I3
S'|'
p3743
NNNI4
I1
I0
tp3744
bS'DEGF'
p3745
tp3746
Rp3747
sS'1CBAT'
p3748
g2
(g3
(S'S4'
p3749
I0
I1
tp3750
Rp3751
(I3
S'|'
p3752
NNNI4
I1
I0
tp3753
bS'DEGC'
p3754
tp3755
Rp3756
sS'CPA2BPT'
p3757
g2
(g3
(S'S4'
p3758
I0
I1
tp3759
Rp3760
(I3
S'|'
p3761
NNNI4
I1
I0
tp3762
bS'DEGF'
p3763
tp3764
Rp3765
sS'PLAED4IT'
p3766
g2
(g3
(S'S4'
p3767
I0
I1
tp3768
Rp3769
(I3
S'|'
p3770
NNNI4
I1
I0
tp3771
bS'DEGF'
p3772
tp3773
Rp3774
sS'4PRT4AT'
p3775
g2
(g3
(S'S4'
p3776
I0
I1
tp3777
Rp3778
(I3
S'|'
p3779
NNNI4
I1
I0
tp3780
bS'DEGF'
p3781
tp3782
Rp3783
sS'TCYLAFT6'
p3784
g2
(g3
(S'S4'
p3785
I0
I1
tp3786
Rp3787
(I3
S'|'
p3788
NNNI4
I1
I0
tp3789
bS'DEGF'
p3790
tp3791
Rp3792
sS'AFLC10AI'
p3793
g2
(g3
(S'S4'
p3794
I0
I1
tp3795
Rp3796
(I3
S'|'
p3797
NNNI4
I1
I0
tp3798
bS'MAMP'
p3799
tp3800
Rp3801
sS'4IP5BV'
p3802
g2
(g3
(S'S3'
p3803
I0
I1
tp3804
Rp3805
(I3
S'|'
p3806
NNNI3
I1
I0
tp3807
bS'VDC'
p3808
tp3809
Rp3810
sS'1MAHOAT'
p3811
g2
(g3
(S'S4'
p3812
I0
I1
tp3813
Rp3814
(I3
S'|'
p3815
NNNI4
I1
I0
tp3816
bS'DEGC'
p3817
tp3818
Rp3819
sS'6SARATC2'
p3820
g2
(g3
(S'S5'
p3821
I0
I1
tp3822
Rp3823
(I3
S'|'
p3824
NNNI5
I1
I0
tp3825
bS'RADPS'
p3826
tp3827
Rp3828
sS'POLINE05T'
p3829
g2
(g3
(S'S4'
p3830
I0
I1
tp3831
Rp3832
(I3
S'|'
p3833
NNNI4
I1
I0
tp3834
bS'DEGF'
p3835
tp3836
Rp3837
sS'AIRU2G2T'
p3838
g2
(g3
(S'S4'
p3839
I0
I1
tp3840
Rp3841
(I3
S'|'
p3842
NNNI4
I1
I0
tp3843
bS'DEGF'
p3844
tp3845
Rp3846
sS'DEA28VOLTA'
p3847
S'V'
p3848
sS'DEA28VOLTB'
p3849
S'V'
p3850
sS'3FAFLCAT'
p3851
g2
(g3
(S'S4'
p3852
I0
I1
tp3853
Rp3854
(I3
S'|'
p3855
NNNI4
I1
I0
tp3856
bS'DEGC'
p3857
tp3858
Rp3859
sS'AOTQCMD1'
p3860
g2
(g3
(S'S4'
p3861
I0
I1
tp3862
Rp3863
(I3
S'|'
p3864
NNNI4
I1
I0
tp3865
bS'FTLB'
p3866
tp3867
Rp3868
sS'AOTQCMD3'
p3869
g2
(g3
(S'S4'
p3870
I0
I1
tp3871
Rp3872
(I3
S'|'
p3873
NNNI4
I1
I0
tp3874
bS'FTLB'
p3875
tp3876
Rp3877
sS'AOTQCMD2'
p3878
g2
(g3
(S'S4'
p3879
I0
I1
tp3880
Rp3881
(I3
S'|'
p3882
NNNI4
I1
I0
tp3883
bS'FTLB'
p3884
tp3885
Rp3886
sS'CXPNBIT'
p3887
g2
(g3
(S'S4'
p3888
I0
I1
tp3889
Rp3890
(I3
S'|'
p3891
NNNI4
I1
I0
tp3892
bS'DEGF'
p3893
tp3894
Rp3895
sS'AIRU2G2I'
p3896
g2
(g3
(S'S4'
p3897
I0
I1
tp3898
Rp3899
(I3
S'|'
p3900
NNNI4
I1
I0
tp3901
bS'MAMP'
p3902
tp3903
Rp3904
sS'LUNAREPHEM0_TIME'
p3905
S's'
p3906
sS'AOSPACS1B'
p3907
g2
(g3
(S'S4'
p3908
I0
I1
tp3909
Rp3910
(I3
S'|'
p3911
NNNI4
I1
I0
tp3912
bS'MAMP'
p3913
tp3914
Rp3915
sS'EOEBC'
p3916
g2
(g3
(S'S3'
p3917
I0
I1
tp3918
Rp3919
(I3
S'|'
p3920
NNNI3
I1
I0
tp3921
bS'AMP'
p3922
tp3923
Rp3924
sS'AOACYAN7'
p3925
g2
(g3
(S'S4'
p3926
I0
I1
tp3927
Rp3928
(I3
S'|'
p3929
NNNI4
I1
I0
tp3930
bS'ASEC'
p3931
tp3932
Rp3933
sS'AFSSPC2V'
p3934
g2
(g3
(S'S1'
p3935
I0
I1
tp3936
Rp3937
(I3
S'|'
p3938
NNNI1
I1
I0
tp3939
bg200
tp3940
Rp3941
sS'TASPRWC'
p3942
g2
(g3
(S'S4'
p3943
I0
I1
tp3944
Rp3945
(I3
S'|'
p3946
NNNI4
I1
I0
tp3947
bS'DEGF'
p3948
tp3949
Rp3950
sS'4RT558T'
p3951
g2
(g3
(S'S4'
p3952
I0
I1
tp3953
Rp3954
(I3
S'|'
p3955
NNNI4
I1
I0
tp3956
bS'DEGF'
p3957
tp3958
Rp3959
sS'OOBTHR11_WIDE'
p3960
g2
(g3
(S'S4'
p3961
I0
I1
tp3962
Rp3963
(I3
S'|'
p3964
NNNI4
I1
I0
tp3965
bS'DEGF'
p3966
tp3967
Rp3968
sS'OOBTHR54_WIDE'
p3969
g2
(g3
(S'S4'
p3970
I0
I1
tp3971
Rp3972
(I3
S'|'
p3973
NNNI4
I1
I0
tp3974
bS'DEGF'
p3975
tp3976
Rp3977
sS'1SSPYT'
p3978
g2
(g3
(S'S4'
p3979
I0
I1
tp3980
Rp3981
(I3
S'|'
p3982
NNNI4
I1
I0
tp3983
bS'DEGC'
p3984
tp3985
Rp3986
sS'AFLC11AI'
p3987
g2
(g3
(S'S4'
p3988
I0
I1
tp3989
Rp3990
(I3
S'|'
p3991
NNNI4
I1
I0
tp3992
bS'MAMP'
p3993
tp3994
Rp3995
sS'AOCMDAC3'
p3996
g2
(g3
(S'S5'
p3997
I0
I1
tp3998
Rp3999
(I3
S'|'
p4000
NNNI5
I1
I0
tp4001
bS'RADSS'
p4002
tp4003
Rp4004
sS'PLAED2IT'
p4005
g2
(g3
(S'S4'
p4006
I0
I1
tp4007
Rp4008
(I3
S'|'
p4009
NNNI4
I1
I0
tp4010
bS'DEGF'
p4011
tp4012
Rp4013
sS'PLAED4HT'
p4014
g2
(g3
(S'S4'
p4015
I0
I1
tp4016
Rp4017
(I3
S'|'
p4018
NNNI4
I1
I0
tp4019
bS'DEGF'
p4020
tp4021
Rp4022
sS'2DTSTATT'
p4023
g2
(g3
(S'S4'
p4024
I0
I1
tp4025
Rp4026
(I3
S'|'
p4027
NNNI4
I1
I0
tp4028
bS'DEGC'
p4029
tp4030
Rp4031
sS'AI2AX1Y'
p4032
g2
(g3
(S'S5'
p4033
I0
I1
tp4034
Rp4035
(I3
S'|'
p4036
NNNI5
I1
I0
tp4037
bS'DEGPS'
p4038
tp4039
Rp4040
sS'AI2AX1X'
p4041
g2
(g3
(S'S5'
p4042
I0
I1
tp4043
Rp4044
(I3
S'|'
p4045
NNNI5
I1
I0
tp4046
bS'DEGPS'
p4047
tp4048
Rp4049
sS'AAOTASMT'
p4050
g2
(g3
(S'S4'
p4051
I0
I1
tp4052
Rp4053
(I3
S'|'
p4054
NNNI4
I1
I0
tp4055
bS'DEGF'
p4056
tp4057
Rp4058
sS'6RWSPD6'
p4059
g2
(g3
(S'S5'
p4060
I0
I1
tp4061
Rp4062
(I3
S'|'
p4063
NNNI5
I1
I0
tp4064
bS'RADPS'
p4065
tp4066
Rp4067
sS'4LLL1AT'
p4068
g2
(g3
(S'S4'
p4069
I0
I1
tp4070
Rp4071
(I3
S'|'
p4072
NNNI4
I1
I0
tp4073
bS'DEGF'
p4074
tp4075
Rp4076
sS'EOESAT2C'
p4077
g2
(g3
(S'S4'
p4078
I0
I1
tp4079
Rp4080
(I3
S'|'
p4081
NNNI4
I1
I0
tp4082
bS'DEGF'
p4083
tp4084
Rp4085
sS'PR3TV01T'
p4086
g2
(g3
(S'S4'
p4087
I0
I1
tp4088
Rp4089
(I3
S'|'
p4090
NNNI4
I1
I0
tp4091
bS'DEGF'
p4092
tp4093
Rp4094
sS'TBOLTCUT'
p4095
g2
(g3
(S'S4'
p4096
I0
I1
tp4097
Rp4098
(I3
S'|'
p4099
NNNI4
I1
I0
tp4100
bS'DEGF'
p4101
tp4102
Rp4103
sS'AFLCAAH'
p4104
g2
(g3
(S'S1'
p4105
I0
I1
tp4106
Rp4107
(I3
S'|'
p4108
NNNI1
I1
I0
tp4109
bg200
tp4110
Rp4111
sS'OHRTHR23_WIDE'
p4112
g2
(g3
(S'S4'
p4113
I0
I1
tp4114
Rp4115
(I3
S'|'
p4116
NNNI4
I1
I0
tp4117
bS'DEGF'
p4118
tp4119
Rp4120
sS'PLAED4CT'
p4121
g2
(g3
(S'S4'
p4122
I0
I1
tp4123
Rp4124
(I3
S'|'
p4125
NNNI4
I1
I0
tp4126
bS'DEGF'
p4127
tp4128
Rp4129
sS'POLINE02T'
p4130
g2
(g3
(S'S4'
p4131
I0
I1
tp4132
Rp4133
(I3
S'|'
p4134
NNNI4
I1
I0
tp4135
bS'DEGF'
p4136
tp4137
Rp4138
sS'EB2CI'
p4139
g2
(g3
(S'S3'
p4140
I0
I1
tp4141
Rp4142
(I3
S'|'
p4143
NNNI3
I1
I0
tp4144
bS'AMP'
p4145
tp4146
Rp4147
sS'AORESZ2_1'
p4148
g2
(g3
(S'S3'
p4149
I0
I1
tp4150
Rp4151
(I3
S'|'
p4152
NNNI3
I1
I0
tp4153
bS'RAD'
p4154
tp4155
Rp4156
sS'POLAEV2BT'
p4157
g2
(g3
(S'S4'
p4158
I0
I1
tp4159
Rp4160
(I3
S'|'
p4161
NNNI4
I1
I0
tp4162
bS'DEGF'
p4163
tp4164
Rp4165
sS'CSSR2CBV'
p4166
g2
(g3
(S'S1'
p4167
I0
I1
tp4168
Rp4169
(I3
S'|'
p4170
NNNI1
I1
I0
tp4171
bg200
tp4172
Rp4173
sS'PLINE05T'
p4174
g2
(g3
(S'S4'
p4175
I0
I1
tp4176
Rp4177
(I3
S'|'
p4178
NNNI4
I1
I0
tp4179
bS'DEGF'
p4180
tp4181
Rp4182
sS'CUSOB28V'
p4183
g2
(g3
(S'S1'
p4184
I0
I1
tp4185
Rp4186
(I3
S'|'
p4187
NNNI1
I1
I0
tp4188
bg200
tp4189
Rp4190
sS'TMP_FEP1_ACTEL'
p4191
g1149
sS'4RT555T'
p4192
g2
(g3
(S'S4'
p4193
I0
I1
tp4194
Rp4195
(I3
S'|'
p4196
NNNI4
I1
I0
tp4197
bS'DEGF'
p4198
tp4199
Rp4200
sS'6RWNLTQ1'
p4201
g2
(g3
(S'S4'
p4202
I0
I1
tp4203
Rp4204
(I3
S'|'
p4205
NNNI4
I1
I0
tp4206
bS'FTLB'
p4207
tp4208
Rp4209
sS'6RWNLTQ2'
p4210
g2
(g3
(S'S4'
p4211
I0
I1
tp4212
Rp4213
(I3
S'|'
p4214
NNNI4
I1
I0
tp4215
bS'FTLB'
p4216
tp4217
Rp4218
sS'ARWA5BT'
p4219
g2
(g3
(S'S4'
p4220
I0
I1
tp4221
Rp4222
(I3
S'|'
p4223
NNNI4
I1
I0
tp4224
bS'DEGF'
p4225
tp4226
Rp4227
sS'CSITB5V'
p4228
g2
(g3
(S'S1'
p4229
I0
I1
tp4230
Rp4231
(I3
S'|'
p4232
NNNI1
I1
I0
tp4233
bg200
tp4234
Rp4235
sS'4RT579T'
p4236
g2
(g3
(S'S4'
p4237
I0
I1
tp4238
Rp4239
(I3
S'|'
p4240
NNNI4
I1
I0
tp4241
bS'DEGF'
p4242
tp4243
Rp4244
sS'TCM_USO'
p4245
g2
(g3
(S'S4'
p4246
I0
I1
tp4247
Rp4248
(I3
S'|'
p4249
NNNI4
I1
I0
tp4250
bS'DEGF'
p4251
tp4252
Rp4253
sS'AOATTER1'
p4254
g2
(g3
(S'S3'
p4255
I0
I1
tp4256
Rp4257
(I3
S'|'
p4258
NNNI3
I1
I0
tp4259
bS'RAD'
p4260
tp4261
Rp4262
sS'AOATTER2'
p4263
g2
(g3
(S'S3'
p4264
I0
I1
tp4265
Rp4266
(I3
S'|'
p4267
NNNI3
I1
I0
tp4268
bS'RAD'
p4269
tp4270
Rp4271
sS'AOATTER3'
p4272
g2
(g3
(S'S3'
p4273
I0
I1
tp4274
Rp4275
(I3
S'|'
p4276
NNNI3
I1
I0
tp4277
bS'RAD'
p4278
tp4279
Rp4280
sS'6RWNLTQ6'
p4281
g2
(g3
(S'S4'
p4282
I0
I1
tp4283
Rp4284
(I3
S'|'
p4285
NNNI4
I1
I0
tp4286
bS'FTLB'
p4287
tp4288
Rp4289
sS'AWD5TQI'
p4290
g2
(g3
(S'S3'
p4291
I0
I1
tp4292
Rp4293
(I3
S'|'
p4294
NNNI3
I1
I0
tp4295
bS'AMP'
p4296
tp4297
Rp4298
sS'ECNV1V'
p4299
g2
(g3
(S'S1'
p4300
I0
I1
tp4301
Rp4302
(I3
S'|'
p4303
NNNI1
I1
I0
tp4304
bg200
tp4305
Rp4306
sS'PLAED2BT'
p4307
g2
(g3
(S'S4'
p4308
I0
I1
tp4309
Rp4310
(I3
S'|'
p4311
NNNI4
I1
I0
tp4312
bS'DEGF'
p4313
tp4314
Rp4315
sS'OHRTHR03'
p4316
g2
(g3
(S'S4'
p4317
I0
I1
tp4318
Rp4319
(I3
S'|'
p4320
NNNI4
I1
I0
tp4321
bS'DEGF'
p4322
tp4323
Rp4324
sS'OHRTHR02'
p4325
g2
(g3
(S'S4'
p4326
I0
I1
tp4327
Rp4328
(I3
S'|'
p4329
NNNI4
I1
I0
tp4330
bS'DEGF'
p4331
tp4332
Rp4333
sS'OHRTHR05'
p4334
g2
(g3
(S'S4'
p4335
I0
I1
tp4336
Rp4337
(I3
S'|'
p4338
NNNI4
I1
I0
tp4339
bS'DEGF'
p4340
tp4341
Rp4342
sS'OHRTHR04'
p4343
g2
(g3
(S'S4'
p4344
I0
I1
tp4345
Rp4346
(I3
S'|'
p4347
NNNI4
I1
I0
tp4348
bS'DEGF'
p4349
tp4350
Rp4351
sS'OHRTHR07'
p4352
g2
(g3
(S'S4'
p4353
I0
I1
tp4354
Rp4355
(I3
S'|'
p4356
NNNI4
I1
I0
tp4357
bS'DEGF'
p4358
tp4359
Rp4360
sS'OHRTHR06'
p4361
g2
(g3
(S'S4'
p4362
I0
I1
tp4363
Rp4364
(I3
S'|'
p4365
NNNI4
I1
I0
tp4366
bS'DEGF'
p4367
tp4368
Rp4369
sS'OHRTHR09'
p4370
g2
(g3
(S'S4'
p4371
I0
I1
tp4372
Rp4373
(I3
S'|'
p4374
NNNI4
I1
I0
tp4375
bS'DEGF'
p4376
tp4377
Rp4378
sS'OHRTHR08'
p4379
g2
(g3
(S'S4'
p4380
I0
I1
tp4381
Rp4382
(I3
S'|'
p4383
NNNI4
I1
I0
tp4384
bS'DEGF'
p4385
tp4386
Rp4387
sS'AIRU1VFT'
p4388
g2
(g3
(S'S4'
p4389
I0
I1
tp4390
Rp4391
(I3
S'|'
p4392
NNNI4
I1
I0
tp4393
bS'DEGF'
p4394
tp4395
Rp4396
sS'AORESZ6_6'
p4397
g2
(g3
(S'S3'
p4398
I0
I1
tp4399
Rp4400
(I3
S'|'
p4401
NNNI3
I1
I0
tp4402
bS'RAD'
p4403
tp4404
Rp4405
sS'AORESZ6_7'
p4406
g2
(g3
(S'S3'
p4407
I0
I1
tp4408
Rp4409
(I3
S'|'
p4410
NNNI3
I1
I0
tp4411
bS'RAD'
p4412
tp4413
Rp4414
sS'AORESZ6_4'
p4415
g2
(g3
(S'S3'
p4416
I0
I1
tp4417
Rp4418
(I3
S'|'
p4419
NNNI3
I1
I0
tp4420
bS'RAD'
p4421
tp4422
Rp4423
sS'AORESZ6_5'
p4424
g2
(g3
(S'S3'
p4425
I0
I1
tp4426
Rp4427
(I3
S'|'
p4428
NNNI3
I1
I0
tp4429
bS'RAD'
p4430
tp4431
Rp4432
sS'AORESZ6_2'
p4433
g2
(g3
(S'S3'
p4434
I0
I1
tp4435
Rp4436
(I3
S'|'
p4437
NNNI3
I1
I0
tp4438
bS'RAD'
p4439
tp4440
Rp4441
sS'AORESZ6_3'
p4442
g2
(g3
(S'S3'
p4443
I0
I1
tp4444
Rp4445
(I3
S'|'
p4446
NNNI3
I1
I0
tp4447
bS'RAD'
p4448
tp4449
Rp4450
sS'AORESZ6_1'
p4451
g2
(g3
(S'S3'
p4452
I0
I1
tp4453
Rp4454
(I3
S'|'
p4455
NNNI3
I1
I0
tp4456
bS'RAD'
p4457
tp4458
Rp4459
sS'4RT570T'
p4460
g2
(g3
(S'S4'
p4461
I0
I1
tp4462
Rp4463
(I3
S'|'
p4464
NNNI4
I1
I0
tp4465
bS'DEGF'
p4466
tp4467
Rp4468
sS'3FABRAAT'
p4469
g2
(g3
(S'S4'
p4470
I0
I1
tp4471
Rp4472
(I3
S'|'
p4473
NNNI4
I1
I0
tp4474
bS'DEGC'
p4475
tp4476
Rp4477
sS'4RT705T'
p4478
g2
(g3
(S'S4'
p4479
I0
I1
tp4480
Rp4481
(I3
S'|'
p4482
NNNI4
I1
I0
tp4483
bS'DEGF'
p4484
tp4485
Rp4486
sS'ELBI'
p4487
g2
(g3
(S'S3'
p4488
I0
I1
tp4489
Rp4490
(I3
S'|'
p4491
NNNI3
I1
I0
tp4492
bS'AMP'
p4493
tp4494
Rp4495
sS'AORESZ6_8'
p4496
g2
(g3
(S'S3'
p4497
I0
I1
tp4498
Rp4499
(I3
S'|'
p4500
NNNI3
I1
I0
tp4501
bS'RAD'
p4502
tp4503
Rp4504
sS'AORESY5_1'
p4505
g2
(g3
(S'S3'
p4506
I0
I1
tp4507
Rp4508
(I3
S'|'
p4509
NNNI3
I1
I0
tp4510
bS'RAD'
p4511
tp4512
Rp4513
sS'ELBV'
p4514
g2
(g3
(S'S1'
p4515
I0
I1
tp4516
Rp4517
(I3
S'|'
p4518
NNNI1
I1
I0
tp4519
bg200
tp4520
Rp4521
sS'3SDFATSV'
p4522
S'V'
p4523
sS'3LDRTPOS'
p4524
S'TSCSTEP'
p4525
sS'1DEP0BVO'
p4526
g2
(g3
(S'S1'
p4527
I0
I1
tp4528
Rp4529
(I3
S'|'
p4530
NNNI1
I1
I0
tp4531
bg200
tp4532
Rp4533
sS'4PRTAV'
p4534
g2
(g3
(S'S3'
p4535
I0
I1
tp4536
Rp4537
(I3
S'|'
p4538
NNNI3
I1
I0
tp4539
bS'VDC'
p4540
tp4541
Rp4542
sS'AOCMDRT1'
p4543
g2
(g3
(S'S5'
p4544
I0
I1
tp4545
Rp4546
(I3
S'|'
p4547
NNNI5
I1
I0
tp4548
bS'RADPS'
p4549
tp4550
Rp4551
sS'CPCA15V'
p4552
g2
(g3
(S'S1'
p4553
I0
I1
tp4554
Rp4555
(I3
S'|'
p4556
NNNI1
I1
I0
tp4557
bg200
tp4558
Rp4559
sS'TMYHNG'
p4560
g2
(g3
(S'S4'
p4561
I0
I1
tp4562
Rp4563
(I3
S'|'
p4564
NNNI4
I1
I0
tp4565
bS'DEGF'
p4566
tp4567
Rp4568
sS'SIM_Y'
p4569
S'mm'
p4570
sS'SIM_X'
p4571
S'mm'
p4572
sS'SIM_Z'
p4573
S'mm'
p4574
sS'DPAGNDREF1'
p4575
S'V'
p4576
sS'DPAGNDREF2'
p4577
S'V'
p4578
sS'PLINE12T'
p4579
g2
(g3
(S'S4'
p4580
I0
I1
tp4581
Rp4582
(I3
S'|'
p4583
NNNI4
I1
I0
tp4584
bS'DEGF'
p4585
tp4586
Rp4587
sS'CRXAV'
p4588
g2
(g3
(S'S1'
p4589
I0
I1
tp4590
Rp4591
(I3
S'|'
p4592
NNNI1
I1
I0
tp4593
bg200
tp4594
Rp4595
sS'C28VMONA'
p4596
g2
(g3
(S'S1'
p4597
I0
I1
tp4598
Rp4599
(I3
S'|'
p4600
NNNI1
I1
I0
tp4601
bg200
tp4602
Rp4603
sS'AOADACH2A_PCAD'
p4604
g2
(g3
(S'S3'
p4605
I0
I1
tp4606
Rp4607
(I3
S'|'
p4608
NNNI3
I1
I0
tp4609
bS'DEG'
p4610
tp4611
Rp4612
sS'EORTDMN15D'
p4613
g2
(g3
(S'S4'
p4614
I0
I1
tp4615
Rp4616
(I3
S'|'
p4617
NNNI4
I1
I0
tp4618
bS'DEGF'
p4619
tp4620
Rp4621
sS'6RWNLTQ5'
p4622
g2
(g3
(S'S4'
p4623
I0
I1
tp4624
Rp4625
(I3
S'|'
p4626
NNNI4
I1
I0
tp4627
bS'FTLB'
p4628
tp4629
Rp4630
sS'OOBTHR34_WIDE'
p4631
g2
(g3
(S'S4'
p4632
I0
I1
tp4633
Rp4634
(I3
S'|'
p4635
NNNI4
I1
I0
tp4636
bS'DEGF'
p4637
tp4638
Rp4639
sS'PHETANKP'
p4640
g2
(g3
(S'S4'
p4641
I0
I1
tp4642
Rp4643
(I3
S'|'
p4644
NNNI4
I1
I0
tp4645
bS'PSIA'
p4646
tp4647
Rp4648
sS'AFLC12BI'
p4649
g2
(g3
(S'S4'
p4650
I0
I1
tp4651
Rp4652
(I3
S'|'
p4653
NNNI4
I1
I0
tp4654
bS'MAMP'
p4655
tp4656
Rp4657
sS'PFTANK1T'
p4658
g2
(g3
(S'S4'
p4659
I0
I1
tp4660
Rp4661
(I3
S'|'
p4662
NNNI4
I1
I0
tp4663
bS'DEGF'
p4664
tp4665
Rp4666
sS'AOADBCH1A_PCAD'
p4667
g2
(g3
(S'S3'
p4668
I0
I1
tp4669
Rp4670
(I3
S'|'
p4671
NNNI3
I1
I0
tp4672
bS'DEG'
p4673
tp4674
Rp4675
sS'AFLCA3AI'
p4676
g2
(g3
(S'S4'
p4677
I0
I1
tp4678
Rp4679
(I3
S'|'
p4680
NNNI4
I1
I0
tp4681
bS'MAMP'
p4682
tp4683
Rp4684
sS'3SDM15V'
p4685
S'V'
p4686
sS'PFTANKOP'
p4687
g2
(g3
(S'S4'
p4688
I0
I1
tp4689
Rp4690
(I3
S'|'
p4691
NNNI4
I1
I0
tp4692
bS'PSIA'
p4693
tp4694
Rp4695
sS'AORESZ7'
p4696
g2
(g3
(S'S3'
p4697
I0
I1
tp4698
Rp4699
(I3
S'|'
p4700
NNNI3
I1
I0
tp4701
bS'RAD'
p4702
tp4703
Rp4704
sS'3TTRALCT'
p4705
g2
(g3
(S'S4'
p4706
I0
I1
tp4707
Rp4708
(I3
S'|'
p4709
NNNI4
I1
I0
tp4710
bS'DEGC'
p4711
tp4712
Rp4713
sS'2P15VBVL'
p4714
g2
(g3
(S'S3'
p4715
I0
I1
tp4716
Rp4717
(I3
S'|'
p4718
NNNI3
I1
I0
tp4719
bS'VDC'
p4720
tp4721
Rp4722
sS'AORESZ4'
p4723
g2
(g3
(S'S3'
p4724
I0
I1
tp4725
Rp4726
(I3
S'|'
p4727
NNNI3
I1
I0
tp4728
bS'RAD'
p4729
tp4730
Rp4731
sS'AORESZ3'
p4732
g2
(g3
(S'S3'
p4733
I0
I1
tp4734
Rp4735
(I3
S'|'
p4736
NNNI3
I1
I0
tp4737
bS'RAD'
p4738
tp4739
Rp4740
sS'OOBTHR41_WIDE'
p4741
g2
(g3
(S'S4'
p4742
I0
I1
tp4743
Rp4744
(I3
S'|'
p4745
NNNI4
I1
I0
tp4746
bS'DEGF'
p4747
tp4748
Rp4749
sS'AORESZ0'
p4750
g2
(g3
(S'S3'
p4751
I0
I1
tp4752
Rp4753
(I3
S'|'
p4754
NNNI3
I1
I0
tp4755
bS'RAD'
p4756
tp4757
Rp4758
sS'AOSPBCS4B'
p4759
g2
(g3
(S'S4'
p4760
I0
I1
tp4761
Rp4762
(I3
S'|'
p4763
NNNI4
I1
I0
tp4764
bS'MAMP'
p4765
tp4766
Rp4767
sS'4RT567T'
p4768
g2
(g3
(S'S4'
p4769
I0
I1
tp4770
Rp4771
(I3
S'|'
p4772
NNNI4
I1
I0
tp4773
bS'DEGF'
p4774
tp4775
Rp4776
sS'PFDM101T'
p4777
g2
(g3
(S'S4'
p4778
I0
I1
tp4779
Rp4780
(I3
S'|'
p4781
NNNI4
I1
I0
tp4782
bS'DEGF'
p4783
tp4784
Rp4785
sS'6RATE2'
p4786
g2
(g3
(S'S5'
p4787
I0
I1
tp4788
Rp4789
(I3
S'|'
p4790
NNNI5
I1
I0
tp4791
bS'RADPS'
p4792
tp4793
Rp4794
sS'6RATE3'
p4795
g2
(g3
(S'S5'
p4796
I0
I1
tp4797
Rp4798
(I3
S'|'
p4799
NNNI5
I1
I0
tp4800
bS'RADPS'
p4801
tp4802
Rp4803
sS'6RATE1'
p4804
g2
(g3
(S'S5'
p4805
I0
I1
tp4806
Rp4807
(I3
S'|'
p4808
NNNI5
I1
I0
tp4809
bS'RADPS'
p4810
tp4811
Rp4812
sS'6SAEST1'
p4813
g2
(g3
(S'S3'
p4814
I0
I1
tp4815
Rp4816
(I3
S'|'
p4817
NNNI3
I1
I0
tp4818
bS'RAD'
p4819
tp4820
Rp4821
sS'TPCP_RW2'
p4822
g2
(g3
(S'S4'
p4823
I0
I1
tp4824
Rp4825
(I3
S'|'
p4826
NNNI4
I1
I0
tp4827
bS'DEGF'
p4828
tp4829
Rp4830
sS'6SAEST2'
p4831
g2
(g3
(S'S3'
p4832
I0
I1
tp4833
Rp4834
(I3
S'|'
p4835
NNNI3
I1
I0
tp4836
bS'RAD'
p4837
tp4838
Rp4839
sS'TPCP_RW3'
p4840
g2
(g3
(S'S4'
p4841
I0
I1
tp4842
Rp4843
(I3
S'|'
p4844
NNNI4
I1
I0
tp4845
bS'DEGF'
p4846
tp4847
Rp4848
sS'PM1THV2T'
p4849
g2
(g3
(S'S4'
p4850
I0
I1
tp4851
Rp4852
(I3
S'|'
p4853
NNNI4
I1
I0
tp4854
bS'DEGF'
p4855
tp4856
Rp4857
sS'AOACYAN1'
p4858
g2
(g3
(S'S4'
p4859
I0
I1
tp4860
Rp4861
(I3
S'|'
p4862
NNNI4
I1
I0
tp4863
bS'ASEC'
p4864
tp4865
Rp4866
sS'AOSCPOS1'
p4867
g2
(g3
(S'S2'
p4868
I0
I1
tp4869
Rp4870
(I3
S'|'
p4871
NNNI2
I1
I0
tp4872
bS'KM'
p4873
tp4874
Rp4875
sS'AOSCPOS2'
p4876
g2
(g3
(S'S2'
p4877
I0
I1
tp4878
Rp4879
(I3
S'|'
p4880
NNNI2
I1
I0
tp4881
bS'KM'
p4882
tp4883
Rp4884
sS'AOSCPOS3'
p4885
g2
(g3
(S'S2'
p4886
I0
I1
tp4887
Rp4888
(I3
S'|'
p4889
NNNI2
I1
I0
tp4890
bS'KM'
p4891
tp4892
Rp4893
sS'4RT588T'
p4894
g2
(g3
(S'S4'
p4895
I0
I1
tp4896
Rp4897
(I3
S'|'
p4898
NNNI4
I1
I0
tp4899
bS'DEGF'
p4900
tp4901
Rp4902
sS'4MP5AV'
p4903
g2
(g3
(S'S3'
p4904
I0
I1
tp4905
Rp4906
(I3
S'|'
p4907
NNNI3
I1
I0
tp4908
bS'VDC'
p4909
tp4910
Rp4911
sS'4RT596T'
p4912
g2
(g3
(S'S4'
p4913
I0
I1
tp4914
Rp4915
(I3
S'|'
p4916
NNNI4
I1
I0
tp4917
bS'DEGF'
p4918
tp4919
Rp4920
sS'PLAED1IT'
p4921
g2
(g3
(S'S4'
p4922
I0
I1
tp4923
Rp4924
(I3
S'|'
p4925
NNNI4
I1
I0
tp4926
bS'DEGF'
p4927
tp4928
Rp4929
sS'OOBTHR50'
p4930
g2
(g3
(S'S4'
p4931
I0
I1
tp4932
Rp4933
(I3
S'|'
p4934
NNNI4
I1
I0
tp4935
bS'DEGF'
p4936
tp4937
Rp4938
sS'OOBTHR53'
p4939
g2
(g3
(S'S4'
p4940
I0
I1
tp4941
Rp4942
(I3
S'|'
p4943
NNNI4
I1
I0
tp4944
bS'DEGF'
p4945
tp4946
Rp4947
sS'OOBTHR52'
p4948
g2
(g3
(S'S4'
p4949
I0
I1
tp4950
Rp4951
(I3
S'|'
p4952
NNNI4
I1
I0
tp4953
bS'DEGF'
p4954
tp4955
Rp4956
sS'OOBTHR55'
p4957
g2
(g3
(S'S4'
p4958
I0
I1
tp4959
Rp4960
(I3
S'|'
p4961
NNNI4
I1
I0
tp4962
bS'DEGF'
p4963
tp4964
Rp4965
sS'OOBTHR54'
p4966
g2
(g3
(S'S4'
p4967
I0
I1
tp4968
Rp4969
(I3
S'|'
p4970
NNNI4
I1
I0
tp4971
bS'DEGF'
p4972
tp4973
Rp4974
sS'OOBTHR57'
p4975
g2
(g3
(S'S4'
p4976
I0
I1
tp4977
Rp4978
(I3
S'|'
p4979
NNNI4
I1
I0
tp4980
bS'DEGF'
p4981
tp4982
Rp4983
sS'OOBTHR56'
p4984
g2
(g3
(S'S4'
p4985
I0
I1
tp4986
Rp4987
(I3
S'|'
p4988
NNNI4
I1
I0
tp4989
bS'DEGF'
p4990
tp4991
Rp4992
sS'OOBTHR59'
p4993
g2
(g3
(S'S4'
p4994
I0
I1
tp4995
Rp4996
(I3
S'|'
p4997
NNNI4
I1
I0
tp4998
bS'DEGF'
p4999
tp5000
Rp5001
sS'OOBTHR58'
p5002
g2
(g3
(S'S4'
p5003
I0
I1
tp5004
Rp5005
(I3
S'|'
p5006
NNNI4
I1
I0
tp5007
bS'DEGF'
p5008
tp5009
Rp5010
sS'CTXBV'
p5011
g2
(g3
(S'S1'
p5012
I0
I1
tp5013
Rp5014
(I3
S'|'
p5015
NNNI1
I1
I0
tp5016
bg200
tp5017
Rp5018
sS'ARWA6BT'
p5019
g2
(g3
(S'S4'
p5020
I0
I1
tp5021
Rp5022
(I3
S'|'
p5023
NNNI4
I1
I0
tp5024
bS'DEGF'
p5025
tp5026
Rp5027
sS'EB3DI'
p5028
g2
(g3
(S'S3'
p5029
I0
I1
tp5030
Rp5031
(I3
S'|'
p5032
NNNI3
I1
I0
tp5033
bS'AMP'
p5034
tp5035
Rp5036
sS'TPC_PAN'
p5037
g2
(g3
(S'S4'
p5038
I0
I1
tp5039
Rp5040
(I3
S'|'
p5041
NNNI4
I1
I0
tp5042
bS'DEGF'
p5043
tp5044
Rp5045
sS'6CSSI3'
p5046
g2
(g3
(S'S4'
p5047
I0
I1
tp5048
Rp5049
(I3
S'|'
p5050
NNNI4
I1
I0
tp5051
bS'MAMP'
p5052
tp5053
Rp5054
sS'1DPAMZT'
p5055
g2
(g3
(S'S4'
p5056
I0
I1
tp5057
Rp5058
(I3
S'|'
p5059
NNNI4
I1
I0
tp5060
bS'DEGC'
p5061
tp5062
Rp5063
sS'4RT703T'
p5064
g2
(g3
(S'S4'
p5065
I0
I1
tp5066
Rp5067
(I3
S'|'
p5068
NNNI4
I1
I0
tp5069
bS'DEGF'
p5070
tp5071
Rp5072
sS'1DEP1AVO'
p5073
g2
(g3
(S'S1'
p5074
I0
I1
tp5075
Rp5076
(I3
S'|'
p5077
NNNI1
I1
I0
tp5078
bg200
tp5079
Rp5080
sS'1MAHOBT'
p5081
g2
(g3
(S'S4'
p5082
I0
I1
tp5083
Rp5084
(I3
S'|'
p5085
NNNI4
I1
I0
tp5086
bS'DEGC'
p5087
tp5088
Rp5089
sS'4ALL1AT'
p5090
g2
(g3
(S'S4'
p5091
I0
I1
tp5092
Rp5093
(I3
S'|'
p5094
NNNI4
I1
I0
tp5095
bS'DEGF'
p5096
tp5097
Rp5098
sS'OHRTHR44_WIDE'
p5099
g2
(g3
(S'S4'
p5100
I0
I1
tp5101
Rp5102
(I3
S'|'
p5103
NNNI4
I1
I0
tp5104
bS'DEGF'
p5105
tp5106
Rp5107
sS'4OAVOBAT_WIDE'
p5108
g2
(g3
(S'S4'
p5109
I0
I1
tp5110
Rp5111
(I3
S'|'
p5112
NNNI4
I1
I0
tp5113
bS'DEGF'
p5114
tp5115
Rp5116
sS'62RCSTMR'
p5117
g2
(g3
(S'S3'
p5118
I0
I1
tp5119
Rp5120
(I3
S'|'
p5121
NNNI3
I1
I0
tp5122
bS'MIN'
p5123
tp5124
Rp5125
sS'4RT708T'
p5126
g2
(g3
(S'S4'
p5127
I0
I1
tp5128
Rp5129
(I3
S'|'
p5130
NNNI4
I1
I0
tp5131
bS'DEGF'
p5132
tp5133
Rp5134
sS'OOBAGRD6'
p5135
g2
(g3
(S'S4'
p5136
I0
I1
tp5137
Rp5138
(I3
S'|'
p5139
NNNI4
I1
I0
tp5140
bS'DEGF'
p5141
tp5142
Rp5143
sS'TB1T3'
p5144
g2
(g3
(S'S4'
p5145
I0
I1
tp5146
Rp5147
(I3
S'|'
p5148
NNNI4
I1
I0
tp5149
bS'DEGF'
p5150
tp5151
Rp5152
sS'OHRTHR20_WIDE'
p5153
g2
(g3
(S'S4'
p5154
I0
I1
tp5155
Rp5156
(I3
S'|'
p5157
NNNI4
I1
I0
tp5158
bS'DEGF'
p5159
tp5160
Rp5161
sS'TB1T1'
p5162
g2
(g3
(S'S4'
p5163
I0
I1
tp5164
Rp5165
(I3
S'|'
p5166
NNNI4
I1
I0
tp5167
bS'DEGF'
p5168
tp5169
Rp5170
sS'OOBAGRD3'
p5171
g2
(g3
(S'S4'
p5172
I0
I1
tp5173
Rp5174
(I3
S'|'
p5175
NNNI4
I1
I0
tp5176
bS'DEGF'
p5177
tp5178
Rp5179
sS'EB3CI'
p5180
g2
(g3
(S'S3'
p5181
I0
I1
tp5182
Rp5183
(I3
S'|'
p5184
NNNI3
I1
I0
tp5185
bS'AMP'
p5186
tp5187
Rp5188
sS'AORESZ1_1'
p5189
g2
(g3
(S'S3'
p5190
I0
I1
tp5191
Rp5192
(I3
S'|'
p5193
NNNI3
I1
I0
tp5194
bS'RAD'
p5195
tp5196
Rp5197
sS'TATECDPT'
p5198
g2
(g3
(S'S4'
p5199
I0
I1
tp5200
Rp5201
(I3
S'|'
p5202
NNNI4
I1
I0
tp5203
bS'DEGF'
p5204
tp5205
Rp5206
sS'4RT581T'
p5207
g2
(g3
(S'S4'
p5208
I0
I1
tp5209
Rp5210
(I3
S'|'
p5211
NNNI4
I1
I0
tp5212
bS'DEGF'
p5213
tp5214
Rp5215
sS'1HOPRBPR'
p5216
g2
(g3
(S'S4'
p5217
I0
I1
tp5218
Rp5219
(I3
S'|'
p5220
NNNI4
I1
I0
tp5221
bS'TORR'
p5222
tp5223
Rp5224
sS'1CRBT'
p5225
g2
(g3
(S'S4'
p5226
I0
I1
tp5227
Rp5228
(I3
S'|'
p5229
NNNI4
I1
I0
tp5230
bS'DEGC'
p5231
tp5232
Rp5233
sS'AORWPI4B'
p5234
g2
(g3
(S'S4'
p5235
I0
I1
tp5236
Rp5237
(I3
S'|'
p5238
NNNI4
I1
I0
tp5239
bS'MSEC'
p5240
tp5241
Rp5242
sS'TCM_PAN'
p5243
g2
(g3
(S'S4'
p5244
I0
I1
tp5245
Rp5246
(I3
S'|'
p5247
NNNI4
I1
I0
tp5248
bS'DEGF'
p5249
tp5250
Rp5251
sS'CTXAV'
p5252
g2
(g3
(S'S1'
p5253
I0
I1
tp5254
Rp5255
(I3
S'|'
p5256
NNNI1
I1
I0
tp5257
bg200
tp5258
Rp5259
sS'3SDP15V'
p5260
S'V'
p5261
sS'TFSPPCM'
p5262
g2
(g3
(S'S4'
p5263
I0
I1
tp5264
Rp5265
(I3
S'|'
p5266
NNNI4
I1
I0
tp5267
bS'DEGF'
p5268
tp5269
Rp5270
sS'EB1CI'
p5271
g2
(g3
(S'S3'
p5272
I0
I1
tp5273
Rp5274
(I3
S'|'
p5275
NNNI3
I1
I0
tp5276
bS'AMP'
p5277
tp5278
Rp5279
sS'TFSPPCP'
p5280
g2
(g3
(S'S4'
p5281
I0
I1
tp5282
Rp5283
(I3
S'|'
p5284
NNNI4
I1
I0
tp5285
bS'DEGF'
p5286
tp5287
Rp5288
sS'CUSOAOVN'
p5289
g2
(g3
(S'S1'
p5290
I0
I1
tp5291
Rp5292
(I3
S'|'
p5293
NNNI1
I1
I0
tp5294
bS'W'
p5295
tp5296
Rp5297
sS'1DPP0BVO'
p5298
g2
(g3
(S'S1'
p5299
I0
I1
tp5300
Rp5301
(I3
S'|'
p5302
NNNI1
I1
I0
tp5303
bg200
tp5304
Rp5305
sS'POM1THV2T'
p5306
g2
(g3
(S'S4'
p5307
I0
I1
tp5308
Rp5309
(I3
S'|'
p5310
NNNI4
I1
I0
tp5311
bS'DEGF'
p5312
tp5313
Rp5314
sS'ANGLEEPHEM_SUN_EARTHCENTANG'
p5315
S'deg'
p5316
sS'TEPHIN'
p5317
g2
(g3
(S'S4'
p5318
I0
I1
tp5319
Rp5320
(I3
S'|'
p5321
NNNI4
I1
I0
tp5322
bS'DEGF'
p5323
tp5324
Rp5325
sS'ELBI_LOW'
p5326
g2
(g3
(S'S3'
p5327
I0
I1
tp5328
Rp5329
(I3
S'|'
p5330
NNNI3
I1
I0
tp5331
bS'AMP'
p5332
tp5333
Rp5334
sS'4PRT1AT'
p5335
g2
(g3
(S'S4'
p5336
I0
I1
tp5337
Rp5338
(I3
S'|'
p5339
NNNI4
I1
I0
tp5340
bS'DEGF'
p5341
tp5342
Rp5343
sS'4RT710T'
p5344
g2
(g3
(S'S4'
p5345
I0
I1
tp5346
Rp5347
(I3
S'|'
p5348
NNNI4
I1
I0
tp5349
bS'DEGF'
p5350
tp5351
Rp5352
sS'TMP_FEP0_RAM'
p5353
g1149
sS'AOZABR'
p5354
g2
(g3
(S'S3'
p5355
I0
I1
tp5356
Rp5357
(I3
S'|'
p5358
NNNI3
I1
I0
tp5359
bS'RAD'
p5360
tp5361
Rp5362
sS'AORESZ5_1'
p5363
g2
(g3
(S'S3'
p5364
I0
I1
tp5365
Rp5366
(I3
S'|'
p5367
NNNI3
I1
I0
tp5368
bS'RAD'
p5369
tp5370
Rp5371
sS'TB2T3'
p5372
g2
(g3
(S'S4'
p5373
I0
I1
tp5374
Rp5375
(I3
S'|'
p5376
NNNI4
I1
I0
tp5377
bS'DEGF'
p5378
tp5379
Rp5380
sS'TB2T2'
p5381
g2
(g3
(S'S4'
p5382
I0
I1
tp5383
Rp5384
(I3
S'|'
p5385
NNNI4
I1
I0
tp5386
bS'DEGF'
p5387
tp5388
Rp5389
sS'4HLL1BT'
p5390
g2
(g3
(S'S4'
p5391
I0
I1
tp5392
Rp5393
(I3
S'|'
p5394
NNNI4
I1
I0
tp5395
bS'DEGF'
p5396
tp5397
Rp5398
sS'ANGLEEPHEM_SUN_EARTHLIMBANG'
p5399
S'deg'
p5400
sS'AORWPI3B'
p5401
g2
(g3
(S'S4'
p5402
I0
I1
tp5403
Rp5404
(I3
S'|'
p5405
NNNI4
I1
I0
tp5406
bS'MSEC'
p5407
tp5408
Rp5409
sS'ORBITEPHEM0_VX'
p5410
S'm/s'
p5411
sS'PXTANK2T'
p5412
g2
(g3
(S'S4'
p5413
I0
I1
tp5414
Rp5415
(I3
S'|'
p5416
NNNI4
I1
I0
tp5417
bS'DEGF'
p5418
tp5419
Rp5420
sS'3TSMYDPT'
p5421
g2
(g3
(S'S4'
p5422
I0
I1
tp5423
Rp5424
(I3
S'|'
p5425
NNNI4
I1
I0
tp5426
bS'DEGC'
p5427
tp5428
Rp5429
sS'ORBITEPHEM0_VY'
p5430
S'm/s'
p5431
sS'3TTACS1T'
p5432
g2
(g3
(S'S4'
p5433
I0
I1
tp5434
Rp5435
(I3
S'|'
p5436
NNNI4
I1
I0
tp5437
bS'DEGC'
p5438
tp5439
Rp5440
sS'AORESY2_1'
p5441
g2
(g3
(S'S3'
p5442
I0
I1
tp5443
Rp5444
(I3
S'|'
p5445
NNNI3
I1
I0
tp5446
bS'RAD'
p5447
tp5448
Rp5449
sS'ORBITEPHEM0_VZ'
p5450
S'm/s'
p5451
sS'CUSOA28V'
p5452
g2
(g3
(S'S1'
p5453
I0
I1
tp5454
Rp5455
(I3
S'|'
p5456
NNNI1
I1
I0
tp5457
bg200
tp5458
Rp5459
sS'2TLEV2RT'
p5460
g2
(g3
(S'S2'
p5461
I0
I1
tp5462
Rp5463
(I3
S'|'
p5464
NNNI2
I1
I0
tp5465
bS'HZ'
p5466
tp5467
Rp5468
sS'OOBTHR33'
p5469
g2
(g3
(S'S4'
p5470
I0
I1
tp5471
Rp5472
(I3
S'|'
p5473
NNNI4
I1
I0
tp5474
bS'DEGF'
p5475
tp5476
Rp5477
sS'AORWSPD6'
p5478
g2
(g3
(S'S5'
p5479
I0
I1
tp5480
Rp5481
(I3
S'|'
p5482
NNNI5
I1
I0
tp5483
bS'RADPS'
p5484
tp5485
Rp5486
sS'ES1P5CV'
p5487
g2
(g3
(S'S1'
p5488
I0
I1
tp5489
Rp5490
(I3
S'|'
p5491
NNNI1
I1
I0
tp5492
bg200
tp5493
Rp5494
sS'6SUNER2'
p5495
g2
(g3
(S'S3'
p5496
I0
I1
tp5497
Rp5498
(I3
S'|'
p5499
NNNI3
I1
I0
tp5500
bS'RAD'
p5501
tp5502
Rp5503
sS'OHRTHR05_WIDE'
p5504
g2
(g3
(S'S4'
p5505
I0
I1
tp5506
Rp5507
(I3
S'|'
p5508
NNNI4
I1
I0
tp5509
bS'DEGF'
p5510
tp5511
Rp5512
sS'POR1TV01T'
p5513
g2
(g3
(S'S4'
p5514
I0
I1
tp5515
Rp5516
(I3
S'|'
p5517
NNNI4
I1
I0
tp5518
bS'DEGF'
p5519
tp5520
Rp5521
sS'PLAED2CT'
p5522
g2
(g3
(S'S4'
p5523
I0
I1
tp5524
Rp5525
(I3
S'|'
p5526
NNNI4
I1
I0
tp5527
bS'DEGF'
p5528
tp5529
Rp5530
sS'OOBTHR30'
p5531
g2
(g3
(S'S4'
p5532
I0
I1
tp5533
Rp5534
(I3
S'|'
p5535
NNNI4
I1
I0
tp5536
bS'DEGF'
p5537
tp5538
Rp5539
sS'ECNV2V'
p5540
g2
(g3
(S'S1'
p5541
I0
I1
tp5542
Rp5543
(I3
S'|'
p5544
NNNI1
I1
I0
tp5545
bg200
tp5546
Rp5547
sS'EOEB1CIC'
p5548
g2
(g3
(S'S3'
p5549
I0
I1
tp5550
Rp5551
(I3
S'|'
p5552
NNNI3
I1
I0
tp5553
bS'AMP'
p5554
tp5555
Rp5556
sS'AACCCDRT'
p5557
g2
(g3
(S'S4'
p5558
I0
I1
tp5559
Rp5560
(I3
S'|'
p5561
NNNI4
I1
I0
tp5562
bS'DEGF'
p5563
tp5564
Rp5565
sS'3TSMXSPT'
p5566
g2
(g3
(S'S4'
p5567
I0
I1
tp5568
Rp5569
(I3
S'|'
p5570
NNNI4
I1
I0
tp5571
bS'DEGC'
p5572
tp5573
Rp5574
sS'PLINE15T'
p5575
g2
(g3
(S'S4'
p5576
I0
I1
tp5577
Rp5578
(I3
S'|'
p5579
NNNI4
I1
I0
tp5580
bS'DEGF'
p5581
tp5582
Rp5583
sS'AHKNATPR'
p5584
g2
(g3
(S'S1'
p5585
I0
I1
tp5586
Rp5587
(I3
S'|'
p5588
NNNI1
I1
I0
tp5589
bg200
tp5590
Rp5591
sS'HKDBIASLEAKI'
p5592
S'uA'
p5593
sS'61RCSTMR'
p5594
g2
(g3
(S'S3'
p5595
I0
I1
tp5596
Rp5597
(I3
S'|'
p5598
NNNI3
I1
I0
tp5599
bS'MIN'
p5600
tp5601
Rp5602
sS'AORWBTQ5'
p5603
g2
(g3
(S'S4'
p5604
I0
I1
tp5605
Rp5606
(I3
S'|'
p5607
NNNI4
I1
I0
tp5608
bS'FTLB'
p5609
tp5610
Rp5611
sS'TMP_FEP1_FB'
p5612
g1149
sS'SOLAREPHEM1_Z'
p5613
S'm'
p5614
sS'POLINE04T'
p5615
g2
(g3
(S'S4'
p5616
I0
I1
tp5617
Rp5618
(I3
S'|'
p5619
NNNI4
I1
I0
tp5620
bS'DEGF'
p5621
tp5622
Rp5623
sS'SOLAREPHEM1_X'
p5624
S'm'
p5625
sS'OOBTHR29_WIDE'
p5626
g2
(g3
(S'S4'
p5627
I0
I1
tp5628
Rp5629
(I3
S'|'
p5630
NNNI4
I1
I0
tp5631
bS'DEGF'
p5632
tp5633
Rp5634
sS'OOBTHR53_WIDE'
p5635
g2
(g3
(S'S4'
p5636
I0
I1
tp5637
Rp5638
(I3
S'|'
p5639
NNNI4
I1
I0
tp5640
bS'DEGF'
p5641
tp5642
Rp5643
sS'PLAEV3AT'
p5644
g2
(g3
(S'S4'
p5645
I0
I1
tp5646
Rp5647
(I3
S'|'
p5648
NNNI4
I1
I0
tp5649
bS'DEGF'
p5650
tp5651
Rp5652
sS'AFLCA1AI'
p5653
g2
(g3
(S'S4'
p5654
I0
I1
tp5655
Rp5656
(I3
S'|'
p5657
NNNI4
I1
I0
tp5658
bS'MAMP'
p5659
tp5660
Rp5661
sS'4RT585T'
p5662
g2
(g3
(S'S4'
p5663
I0
I1
tp5664
Rp5665
(I3
S'|'
p5666
NNNI4
I1
I0
tp5667
bS'DEGF'
p5668
tp5669
Rp5670
sS'OHRTHR36_WIDE'
p5671
g2
(g3
(S'S4'
p5672
I0
I1
tp5673
Rp5674
(I3
S'|'
p5675
NNNI4
I1
I0
tp5676
bS'DEGF'
p5677
tp5678
Rp5679
sS'2DCENTRT'
p5680
g2
(g3
(S'S4'
p5681
I0
I1
tp5682
Rp5683
(I3
S'|'
p5684
NNNI4
I1
I0
tp5685
bS'DEGC'
p5686
tp5687
Rp5688
sS'TPC_WDA'
p5689
g2
(g3
(S'S4'
p5690
I0
I1
tp5691
Rp5692
(I3
S'|'
p5693
NNNI4
I1
I0
tp5694
bS'DEGF'
p5695
tp5696
Rp5697
sS'EPA15V'
p5698
g2
(g3
(S'S1'
p5699
I0
I1
tp5700
Rp5701
(I3
S'|'
p5702
NNNI1
I1
I0
tp5703
bg200
tp5704
Rp5705
sS'3SDP5V'
p5706
S'V'
p5707
sS'AOSPACS2B'
p5708
g2
(g3
(S'S4'
p5709
I0
I1
tp5710
Rp5711
(I3
S'|'
p5712
NNNI4
I1
I0
tp5713
bS'MAMP'
p5714
tp5715
Rp5716
sS'AODVTIME'
p5717
g2
(g3
(S'S3'
p5718
I0
I1
tp5719
Rp5720
(I3
S'|'
p5721
NNNI3
I1
I0
tp5722
bS'SEC'
p5723
tp5724
Rp5725
sS'AODITHR3'
p5726
g2
(g3
(S'S3'
p5727
I0
I1
tp5728
Rp5729
(I3
S'|'
p5730
NNNI3
I1
I0
tp5731
bS'RAD'
p5732
tp5733
Rp5734
sS'AODITHR2'
p5735
g2
(g3
(S'S3'
p5736
I0
I1
tp5737
Rp5738
(I3
S'|'
p5739
NNNI3
I1
I0
tp5740
bS'RAD'
p5741
tp5742
Rp5743
sS'AODITHR1'
p5744
g2
(g3
(S'S3'
p5745
I0
I1
tp5746
Rp5747
(I3
S'|'
p5748
NNNI3
I1
I0
tp5749
bS'RAD'
p5750
tp5751
Rp5752
sS'POLINE16T'
p5753
g2
(g3
(S'S4'
p5754
I0
I1
tp5755
Rp5756
(I3
S'|'
p5757
NNNI4
I1
I0
tp5758
bS'DEGF'
p5759
tp5760
Rp5761
sS'AORESY1_1'
p5762
g2
(g3
(S'S3'
p5763
I0
I1
tp5764
Rp5765
(I3
S'|'
p5766
NNNI3
I1
I0
tp5767
bS'RAD'
p5768
tp5769
Rp5770
sS'ANGLEEPHEM_POINT_SUNCENTANG'
p5771
S'deg'
p5772
sS'EPB15V'
p5773
g2
(g3
(S'S1'
p5774
I0
I1
tp5775
Rp5776
(I3
S'|'
p5777
NNNI1
I1
I0
tp5778
bg200
tp5779
Rp5780
sS'3FARALAT'
p5781
g2
(g3
(S'S4'
p5782
I0
I1
tp5783
Rp5784
(I3
S'|'
p5785
NNNI4
I1
I0
tp5786
bS'DEGC'
p5787
tp5788
Rp5789
sS'TMP_FEP0_FB'
p5790
g1149
sS'TCM_PA2'
p5791
g2
(g3
(S'S4'
p5792
I0
I1
tp5793
Rp5794
(I3
S'|'
p5795
NNNI4
I1
I0
tp5796
bS'DEGF'
p5797
tp5798
Rp5799
sS'HKABIASLEAKI'
p5800
S'uA'
p5801
sS'TMP_FEP1_RAM'
p5802
g1149
sS'OHRTHR49_WIDE'
p5803
g2
(g3
(S'S4'
p5804
I0
I1
tp5805
Rp5806
(I3
S'|'
p5807
NNNI4
I1
I0
tp5808
bS'DEGF'
p5809
tp5810
Rp5811
sS'AORATE1'
p5812
g2
(g3
(S'S5'
p5813
I0
I1
tp5814
Rp5815
(I3
S'|'
p5816
NNNI5
I1
I0
tp5817
bS'RADPS'
p5818
tp5819
Rp5820
sS'AORATE3'
p5821
g2
(g3
(S'S5'
p5822
I0
I1
tp5823
Rp5824
(I3
S'|'
p5825
NNNI5
I1
I0
tp5826
bS'RADPS'
p5827
tp5828
Rp5829
sS'AORATE2'
p5830
g2
(g3
(S'S5'
p5831
I0
I1
tp5832
Rp5833
(I3
S'|'
p5834
NNNI5
I1
I0
tp5835
bS'RADPS'
p5836
tp5837
Rp5838
sS'ESAPYI'
p5839
g2
(g3
(S'S3'
p5840
I0
I1
tp5841
Rp5842
(I3
S'|'
p5843
NNNI3
I1
I0
tp5844
bS'AMP'
p5845
tp5846
Rp5847
sS'PHETANKT'
p5848
g2
(g3
(S'S4'
p5849
I0
I1
tp5850
Rp5851
(I3
S'|'
p5852
NNNI4
I1
I0
tp5853
bS'DEGF'
p5854
tp5855
Rp5856
sS'OHRTHR09_WIDE'
p5857
g2
(g3
(S'S4'
p5858
I0
I1
tp5859
Rp5860
(I3
S'|'
p5861
NNNI4
I1
I0
tp5862
bS'DEGF'
p5863
tp5864
Rp5865
sS'EORTDMN23D'
p5866
g2
(g3
(S'S4'
p5867
I0
I1
tp5868
Rp5869
(I3
S'|'
p5870
NNNI4
I1
I0
tp5871
bS'DEGF'
p5872
tp5873
Rp5874
sS'TFSPPCU'
p5875
g2
(g3
(S'S4'
p5876
I0
I1
tp5877
Rp5878
(I3
S'|'
p5879
NNNI4
I1
I0
tp5880
bS'DEGF'
p5881
tp5882
Rp5883
sS'PLINE02T'
p5884
g2
(g3
(S'S4'
p5885
I0
I1
tp5886
Rp5887
(I3
S'|'
p5888
NNNI4
I1
I0
tp5889
bS'DEGF'
p5890
tp5891
Rp5892
sS'2VLEV2RT'
p5893
g2
(g3
(S'S2'
p5894
I0
I1
tp5895
Rp5896
(I3
S'|'
p5897
NNNI2
I1
I0
tp5898
bS'HZ'
p5899
tp5900
Rp5901
sS'AWD3TQI'
p5902
g2
(g3
(S'S3'
p5903
I0
I1
tp5904
Rp5905
(I3
S'|'
p5906
NNNI3
I1
I0
tp5907
bS'AMP'
p5908
tp5909
Rp5910
sS'AAOTH2MT'
p5911
g2
(g3
(S'S4'
p5912
I0
I1
tp5913
Rp5914
(I3
S'|'
p5915
NNNI4
I1
I0
tp5916
bS'DEGF'
p5917
tp5918
Rp5919
sS'PLAED2DT'
p5920
g2
(g3
(S'S4'
p5921
I0
I1
tp5922
Rp5923
(I3
S'|'
p5924
NNNI4
I1
I0
tp5925
bS'DEGF'
p5926
tp5927
Rp5928
sS'POR2TV01T'
p5929
g2
(g3
(S'S4'
p5930
I0
I1
tp5931
Rp5932
(I3
S'|'
p5933
NNNI4
I1
I0
tp5934
bS'DEGF'
p5935
tp5936
Rp5937
sS'TCYLCMM'
p5938
g2
(g3
(S'S4'
p5939
I0
I1
tp5940
Rp5941
(I3
S'|'
p5942
NNNI4
I1
I0
tp5943
bS'DEGF'
p5944
tp5945
Rp5946
sS'4RT556T'
p5947
g2
(g3
(S'S4'
p5948
I0
I1
tp5949
Rp5950
(I3
S'|'
p5951
NNNI4
I1
I0
tp5952
bS'DEGF'
p5953
tp5954
Rp5955
sS'AFLCA4BI'
p5956
g2
(g3
(S'S4'
p5957
I0
I1
tp5958
Rp5959
(I3
S'|'
p5960
NNNI4
I1
I0
tp5961
bS'MAMP'
p5962
tp5963
Rp5964
sS'PM4THV1T'
p5965
g2
(g3
(S'S4'
p5966
I0
I1
tp5967
Rp5968
(I3
S'|'
p5969
NNNI4
I1
I0
tp5970
bS'DEGF'
p5971
tp5972
Rp5973
sS'CSITA15V'
p5974
g2
(g3
(S'S1'
p5975
I0
I1
tp5976
Rp5977
(I3
S'|'
p5978
NNNI1
I1
I0
tp5979
bg200
tp5980
Rp5981
sS'AFLC13AI'
p5982
g2
(g3
(S'S4'
p5983
I0
I1
tp5984
Rp5985
(I3
S'|'
p5986
NNNI4
I1
I0
tp5987
bS'MAMP'
p5988
tp5989
Rp5990
sS'AWD4CV5V'
p5991
g2
(g3
(S'S1'
p5992
I0
I1
tp5993
Rp5994
(I3
S'|'
p5995
NNNI1
I1
I0
tp5996
bg200
tp5997
Rp5998
sS'4RT576T'
p5999
g2
(g3
(S'S4'
p6000
I0
I1
tp6001
Rp6002
(I3
S'|'
p6003
NNNI4
I1
I0
tp6004
bS'DEGF'
p6005
tp6006
Rp6007
sS'AIRU1G1T'
p6008
g2
(g3
(S'S4'
p6009
I0
I1
tp6010
Rp6011
(I3
S'|'
p6012
NNNI4
I1
I0
tp6013
bS'DEGF'
p6014
tp6015
Rp6016
sS'PR2TV02T'
p6017
g2
(g3
(S'S4'
p6018
I0
I1
tp6019
Rp6020
(I3
S'|'
p6021
NNNI4
I1
I0
tp6022
bS'DEGF'
p6023
tp6024
Rp6025
sS'DEAM15VOLTB'
p6026
S'V'
p6027
sS'DEAM15VOLTA'
p6028
S'V'
p6029
sS'2P05VAVL'
p6030
g2
(g3
(S'S3'
p6031
I0
I1
tp6032
Rp6033
(I3
S'|'
p6034
NNNI3
I1
I0
tp6035
bS'VDC'
p6036
tp6037
Rp6038
sS'1VAHCBT'
p6039
g2
(g3
(S'S4'
p6040
I0
I1
tp6041
Rp6042
(I3
S'|'
p6043
NNNI4
I1
I0
tp6044
bS'DEGC'
p6045
tp6046
Rp6047
sS'PM2THV1T'
p6048
g2
(g3
(S'S4'
p6049
I0
I1
tp6050
Rp6051
(I3
S'|'
p6052
NNNI4
I1
I0
tp6053
bS'DEGF'
p6054
tp6055
Rp6056
sS'OHRTHR34_WIDE'
p6057
g2
(g3
(S'S4'
p6058
I0
I1
tp6059
Rp6060
(I3
S'|'
p6061
NNNI4
I1
I0
tp6062
bS'DEGF'
p6063
tp6064
Rp6065
sS'6RWCMD2'
p6066
g2
(g3
(S'S4'
p6067
I0
I1
tp6068
Rp6069
(I3
S'|'
p6070
NNNI4
I1
I0
tp6071
bS'FTLB'
p6072
tp6073
Rp6074
sS'PLAED1AT'
p6075
g2
(g3
(S'S4'
p6076
I0
I1
tp6077
Rp6078
(I3
S'|'
p6079
NNNI4
I1
I0
tp6080
bS'DEGF'
p6081
tp6082
Rp6083
sS'5EIOT'
p6084
g2
(g3
(S'S4'
p6085
I0
I1
tp6086
Rp6087
(I3
S'|'
p6088
NNNI4
I1
I0
tp6089
bS'DEGC'
p6090
tp6091
Rp6092
sS'4RT580T'
p6093
g2
(g3
(S'S4'
p6094
I0
I1
tp6095
Rp6096
(I3
S'|'
p6097
NNNI4
I1
I0
tp6098
bS'DEGF'
p6099
tp6100
Rp6101
sS'TEP_PCU'
p6102
g2
(g3
(S'S4'
p6103
I0
I1
tp6104
Rp6105
(I3
S'|'
p6106
NNNI4
I1
I0
tp6107
bS'DEGF'
p6108
tp6109
Rp6110
sS'TAPE1PST'
p6111
g2
(g3
(S'S4'
p6112
I0
I1
tp6113
Rp6114
(I3
S'|'
p6115
NNNI4
I1
I0
tp6116
bS'DEGF'
p6117
tp6118
Rp6119
sS'AOCSSI2'
p6120
g2
(g3
(S'S4'
p6121
I0
I1
tp6122
Rp6123
(I3
S'|'
p6124
NNNI4
I1
I0
tp6125
bS'MAMP'
p6126
tp6127
Rp6128
sS'AIRU1G1I'
p6129
g2
(g3
(S'S4'
p6130
I0
I1
tp6131
Rp6132
(I3
S'|'
p6133
NNNI4
I1
I0
tp6134
bS'MAMP'
p6135
tp6136
Rp6137
sS'OOBTHR24'
p6138
g2
(g3
(S'S4'
p6139
I0
I1
tp6140
Rp6141
(I3
S'|'
p6142
NNNI4
I1
I0
tp6143
bS'DEGF'
p6144
tp6145
Rp6146
sS'6TQCMD1'
p6147
g2
(g3
(S'S4'
p6148
I0
I1
tp6149
Rp6150
(I3
S'|'
p6151
NNNI4
I1
I0
tp6152
bS'FTLB'
p6153
tp6154
Rp6155
sS'6TQCMD2'
p6156
g2
(g3
(S'S4'
p6157
I0
I1
tp6158
Rp6159
(I3
S'|'
p6160
NNNI4
I1
I0
tp6161
bS'FTLB'
p6162
tp6163
Rp6164
sS'6TQCMD3'
p6165
g2
(g3
(S'S4'
p6166
I0
I1
tp6167
Rp6168
(I3
S'|'
p6169
NNNI4
I1
I0
tp6170
bS'FTLB'
p6171
tp6172
Rp6173
sS'OOBTHR20'
p6174
g2
(g3
(S'S4'
p6175
I0
I1
tp6176
Rp6177
(I3
S'|'
p6178
NNNI4
I1
I0
tp6179
bS'DEGF'
p6180
tp6181
Rp6182
sS'OOBTHR21'
p6183
g2
(g3
(S'S4'
p6184
I0
I1
tp6185
Rp6186
(I3
S'|'
p6187
NNNI4
I1
I0
tp6188
bS'DEGF'
p6189
tp6190
Rp6191
sS'OOBTHR22'
p6192
g2
(g3
(S'S4'
p6193
I0
I1
tp6194
Rp6195
(I3
S'|'
p6196
NNNI4
I1
I0
tp6197
bS'DEGF'
p6198
tp6199
Rp6200
sS'OOBTHR23'
p6201
g2
(g3
(S'S4'
p6202
I0
I1
tp6203
Rp6204
(I3
S'|'
p6205
NNNI4
I1
I0
tp6206
bS'DEGF'
p6207
tp6208
Rp6209
sS'PR1TV01T'
p6210
g2
(g3
(S'S4'
p6211
I0
I1
tp6212
Rp6213
(I3
S'|'
p6214
NNNI4
I1
I0
tp6215
bS'DEGF'
p6216
tp6217
Rp6218
sS'AVD2CV5V'
p6219
g2
(g3
(S'S1'
p6220
I0
I1
tp6221
Rp6222
(I3
S'|'
p6223
NNNI1
I1
I0
tp6224
bg200
tp6225
Rp6226
sS'OOBTHR28'
p6227
g2
(g3
(S'S4'
p6228
I0
I1
tp6229
Rp6230
(I3
S'|'
p6231
NNNI4
I1
I0
tp6232
bS'DEGF'
p6233
tp6234
Rp6235
sS'OOBTHR29'
p6236
g2
(g3
(S'S4'
p6237
I0
I1
tp6238
Rp6239
(I3
S'|'
p6240
NNNI4
I1
I0
tp6241
bS'DEGF'
p6242
tp6243
Rp6244
sS'OOBTHR12_WIDE'
p6245
g2
(g3
(S'S4'
p6246
I0
I1
tp6247
Rp6248
(I3
S'|'
p6249
NNNI4
I1
I0
tp6250
bS'DEGF'
p6251
tp6252
Rp6253
sS'3TTHRC3T'
p6254
g2
(g3
(S'S4'
p6255
I0
I1
tp6256
Rp6257
(I3
S'|'
p6258
NNNI4
I1
I0
tp6259
bS'DEGC'
p6260
tp6261
Rp6262
sS'EORTDMN16D'
p6263
g2
(g3
(S'S4'
p6264
I0
I1
tp6265
Rp6266
(I3
S'|'
p6267
NNNI4
I1
I0
tp6268
bS'DEGF'
p6269
tp6270
Rp6271
sS'2FHTRMZT'
p6272
g2
(g3
(S'S4'
p6273
I0
I1
tp6274
Rp6275
(I3
S'|'
p6276
NNNI4
I1
I0
tp6277
bS'DEGC'
p6278
tp6279
Rp6280
sS'AOSAANG1'
p6281
g2
(g3
(S'S3'
p6282
I0
I1
tp6283
Rp6284
(I3
S'|'
p6285
NNNI3
I1
I0
tp6286
bS'RAD'
p6287
tp6288
Rp6289
sS'AOSAANG2'
p6290
g2
(g3
(S'S3'
p6291
I0
I1
tp6292
Rp6293
(I3
S'|'
p6294
NNNI3
I1
I0
tp6295
bS'RAD'
p6296
tp6297
Rp6298
sS'6MUPCNT3'
p6299
g2
(g3
(S'S3'
p6300
I0
I1
tp6301
Rp6302
(I3
S'|'
p6303
NNNI3
I1
I0
tp6304
bS'SEC'
p6305
tp6306
Rp6307
sS'6MUPCNT2'
p6308
g2
(g3
(S'S3'
p6309
I0
I1
tp6310
Rp6311
(I3
S'|'
p6312
NNNI3
I1
I0
tp6313
bS'SEC'
p6314
tp6315
Rp6316
sS'6MUPCNT1'
p6317
g2
(g3
(S'S3'
p6318
I0
I1
tp6319
Rp6320
(I3
S'|'
p6321
NNNI3
I1
I0
tp6322
bS'SEC'
p6323
tp6324
Rp6325
sS'4RT561T'
p6326
g2
(g3
(S'S4'
p6327
I0
I1
tp6328
Rp6329
(I3
S'|'
p6330
NNNI4
I1
I0
tp6331
bS'DEGF'
p6332
tp6333
Rp6334
sS'6MUPCNT4'
p6335
g2
(g3
(S'S3'
p6336
I0
I1
tp6337
Rp6338
(I3
S'|'
p6339
NNNI3
I1
I0
tp6340
bS'SEC'
p6341
tp6342
Rp6343
sS'AWD4TQI'
p6344
g2
(g3
(S'S3'
p6345
I0
I1
tp6346
Rp6347
(I3
S'|'
p6348
NNNI3
I1
I0
tp6349
bS'AMP'
p6350
tp6351
Rp6352
sS'4LLL2AT'
p6353
g2
(g3
(S'S4'
p6354
I0
I1
tp6355
Rp6356
(I3
S'|'
p6357
NNNI4
I1
I0
tp6358
bS'DEGF'
p6359
tp6360
Rp6361
sS'AWD5CV5V'
p6362
g2
(g3
(S'S1'
p6363
I0
I1
tp6364
Rp6365
(I3
S'|'
p6366
NNNI1
I1
I0
tp6367
bg200
tp6368
Rp6369
sS'HKBBIASLEAKI'
p6370
S'uA'
p6371
sS'4ALL1BT'
p6372
g2
(g3
(S'S4'
p6373
I0
I1
tp6374
Rp6375
(I3
S'|'
p6376
NNNI4
I1
I0
tp6377
bS'DEGF'
p6378
tp6379
Rp6380
sS'AFLCA2BI'
p6381
g2
(g3
(S'S4'
p6382
I0
I1
tp6383
Rp6384
(I3
S'|'
p6385
NNNI4
I1
I0
tp6386
bS'MAMP'
p6387
tp6388
Rp6389
sS'4RT711T'
p6390
g2
(g3
(S'S4'
p6391
I0
I1
tp6392
Rp6393
(I3
S'|'
p6394
NNNI4
I1
I0
tp6395
bS'DEGF'
p6396
tp6397
Rp6398
sS'OHRTHR52_WIDE'
p6399
g2
(g3
(S'S4'
p6400
I0
I1
tp6401
Rp6402
(I3
S'|'
p6403
NNNI4
I1
I0
tp6404
bS'DEGF'
p6405
tp6406
Rp6407
sS'AGWS2V'
p6408
g2
(g3
(S'S1'
p6409
I0
I1
tp6410
Rp6411
(I3
S'|'
p6412
NNNI1
I1
I0
tp6413
bg200
tp6414
Rp6415
sS'3SDTSTSV'
p6416
S'V'
p6417
sS'AOIRERL1'
p6418
g2
(g3
(S'S3'
p6419
I0
I1
tp6420
Rp6421
(I3
S'|'
p6422
NNNI3
I1
I0
tp6423
bS'RAD'
p6424
tp6425
Rp6426
sS'AOIRERL2'
p6427
g2
(g3
(S'S3'
p6428
I0
I1
tp6429
Rp6430
(I3
S'|'
p6431
NNNI3
I1
I0
tp6432
bS'RAD'
p6433
tp6434
Rp6435
sS'AOIRERL3'
p6436
g2
(g3
(S'S3'
p6437
I0
I1
tp6438
Rp6439
(I3
S'|'
p6440
NNNI3
I1
I0
tp6441
bS'RAD'
p6442
tp6443
Rp6444
sS'PLAEV2BT'
p6445
g2
(g3
(S'S4'
p6446
I0
I1
tp6447
Rp6448
(I3
S'|'
p6449
NNNI4
I1
I0
tp6450
bS'DEGF'
p6451
tp6452
Rp6453
sS'4RT598T'
p6454
g2
(g3
(S'S4'
p6455
I0
I1
tp6456
Rp6457
(I3
S'|'
p6458
NNNI4
I1
I0
tp6459
bS'DEGF'
p6460
tp6461
Rp6462
sS'POLAEV1AT'
p6463
g2
(g3
(S'S4'
p6464
I0
I1
tp6465
Rp6466
(I3
S'|'
p6467
NNNI4
I1
I0
tp6468
bS'DEGF'
p6469
tp6470
Rp6471
sS'ASPEFSW3B'
p6472
g2
(g3
(S'S3'
p6473
I0
I1
tp6474
Rp6475
(I3
S'|'
p6476
NNNI3
I1
I0
tp6477
bS'DEG'
p6478
tp6479
Rp6480
sS'ANGLEEPHEM_TIME'
p6481
S's'
p6482
sS'LUNAREPHEM1_VZ'
p6483
S'm/s'
p6484
sS'LUNAREPHEM1_VY'
p6485
S'm/s'
p6486
sS'LUNAREPHEM1_VX'
p6487
S'm/s'
p6488
sS'AI1AX1Y'
p6489
g2
(g3
(S'S5'
p6490
I0
I1
tp6491
Rp6492
(I3
S'|'
p6493
NNNI5
I1
I0
tp6494
bS'DEGPS'
p6495
tp6496
Rp6497
sS'1DP28AVO'
p6498
g2
(g3
(S'S1'
p6499
I0
I1
tp6500
Rp6501
(I3
S'|'
p6502
NNNI1
I1
I0
tp6503
bg200
tp6504
Rp6505
sS'OHRTHR26_WIDE'
p6506
g2
(g3
(S'S4'
p6507
I0
I1
tp6508
Rp6509
(I3
S'|'
p6510
NNNI4
I1
I0
tp6511
bS'DEGF'
p6512
tp6513
Rp6514
sS'3SDPST'
p6515
g1149
sS'4RT587T'
p6516
g2
(g3
(S'S4'
p6517
I0
I1
tp6518
Rp6519
(I3
S'|'
p6520
NNNI4
I1
I0
tp6521
bS'DEGF'
p6522
tp6523
Rp6524
sS'AI1AX2Y'
p6525
g2
(g3
(S'S5'
p6526
I0
I1
tp6527
Rp6528
(I3
S'|'
p6529
NNNI5
I1
I0
tp6530
bS'DEGPS'
p6531
tp6532
Rp6533
sS'AI1AX2X'
p6534
g2
(g3
(S'S5'
p6535
I0
I1
tp6536
Rp6537
(I3
S'|'
p6538
NNNI5
I1
I0
tp6539
bS'DEGPS'
p6540
tp6541
Rp6542
sS'SOLAREPHEM0_X'
p6543
S'm'
p6544
sS'SOLAREPHEM0_Y'
p6545
S'm'
p6546
sS'1PIN1AT'
p6547
g2
(g3
(S'S4'
p6548
I0
I1
tp6549
Rp6550
(I3
S'|'
p6551
NNNI4
I1
I0
tp6552
bS'DEGC'
p6553
tp6554
Rp6555
sS'OOBTHR28_WIDE'
p6556
g2
(g3
(S'S4'
p6557
I0
I1
tp6558
Rp6559
(I3
S'|'
p6560
NNNI4
I1
I0
tp6561
bS'DEGF'
p6562
tp6563
Rp6564
sS'63RCSTMR'
p6565
g2
(g3
(S'S3'
p6566
I0
I1
tp6567
Rp6568
(I3
S'|'
p6569
NNNI3
I1
I0
tp6570
bS'MIN'
p6571
tp6572
Rp6573
sS'OOBTHR13_WIDE'
p6574
g2
(g3
(S'S4'
p6575
I0
I1
tp6576
Rp6577
(I3
S'|'
p6578
NNNI4
I1
I0
tp6579
bS'DEGF'
p6580
tp6581
Rp6582
sS'TCNR_BRM'
p6583
g2
(g3
(S'S4'
p6584
I0
I1
tp6585
Rp6586
(I3
S'|'
p6587
NNNI4
I1
I0
tp6588
bS'DEGF'
p6589
tp6590
Rp6591
sS'TCM_IFU'
p6592
g2
(g3
(S'S4'
p6593
I0
I1
tp6594
Rp6595
(I3
S'|'
p6596
NNNI4
I1
I0
tp6597
bS'DEGF'
p6598
tp6599
Rp6600
sS'4RT569T'
p6601
g2
(g3
(S'S4'
p6602
I0
I1
tp6603
Rp6604
(I3
S'|'
p6605
NNNI4
I1
I0
tp6606
bS'DEGF'
p6607
tp6608
Rp6609
sS'4RT597T'
p6610
g2
(g3
(S'S4'
p6611
I0
I1
tp6612
Rp6613
(I3
S'|'
p6614
NNNI4
I1
I0
tp6615
bS'DEGF'
p6616
tp6617
Rp6618
sS'4RT702T'
p6619
g2
(g3
(S'S4'
p6620
I0
I1
tp6621
Rp6622
(I3
S'|'
p6623
NNNI4
I1
I0
tp6624
bS'DEGF'
p6625
tp6626
Rp6627
sS'AACH1T'
p6628
g2
(g3
(S'S4'
p6629
I0
I1
tp6630
Rp6631
(I3
S'|'
p6632
NNNI4
I1
I0
tp6633
bS'DEGF'
p6634
tp6635
Rp6636
sS'POLINE07T'
p6637
g2
(g3
(S'S4'
p6638
I0
I1
tp6639
Rp6640
(I3
S'|'
p6641
NNNI4
I1
I0
tp6642
bS'DEGF'
p6643
tp6644
Rp6645
sS'AFLCA9AI'
p6646
g2
(g3
(S'S4'
p6647
I0
I1
tp6648
Rp6649
(I3
S'|'
p6650
NNNI4
I1
I0
tp6651
bS'MAMP'
p6652
tp6653
Rp6654
sS'HKP27I'
p6655
S'mA'
p6656
sS'AFLCA1BI'
p6657
g2
(g3
(S'S4'
p6658
I0
I1
tp6659
Rp6660
(I3
S'|'
p6661
NNNI4
I1
I0
tp6662
bS'MAMP'
p6663
tp6664
Rp6665
sS'HKP27V'
p6666
S'V'
p6667
sS'3SDFLXBT'
p6668
g1149
sS'4VRMHAV'
p6669
g2
(g3
(S'S3'
p6670
I0
I1
tp6671
Rp6672
(I3
S'|'
p6673
NNNI3
I1
I0
tp6674
bS'VDC'
p6675
tp6676
Rp6677
sS'2FRADPYT'
p6678
g2
(g3
(S'S4'
p6679
I0
I1
tp6680
Rp6681
(I3
S'|'
p6682
NNNI4
I1
I0
tp6683
bS'DEGC'
p6684
tp6685
Rp6686
sS'PCM01T'
p6687
g2
(g3
(S'S4'
p6688
I0
I1
tp6689
Rp6690
(I3
S'|'
p6691
NNNI4
I1
I0
tp6692
bS'DEGF'
p6693
tp6694
Rp6695
sS'C28VMONB'
p6696
g2
(g3
(S'S1'
p6697
I0
I1
tp6698
Rp6699
(I3
S'|'
p6700
NNNI1
I1
I0
tp6701
bg200
tp6702
Rp6703
sS'OHRTHR22_WIDE'
p6704
g2
(g3
(S'S4'
p6705
I0
I1
tp6706
Rp6707
(I3
S'|'
p6708
NNNI4
I1
I0
tp6709
bS'DEGF'
p6710
tp6711
Rp6712
sS'1DEP1BVO'
p6713
g2
(g3
(S'S1'
p6714
I0
I1
tp6715
Rp6716
(I3
S'|'
p6717
NNNI1
I1
I0
tp6718
bg200
tp6719
Rp6720
sS'AOSPACS3B'
p6721
g2
(g3
(S'S4'
p6722
I0
I1
tp6723
Rp6724
(I3
S'|'
p6725
NNNI4
I1
I0
tp6726
bS'MAMP'
p6727
tp6728
Rp6729
sS'ES2P5CV'
p6730
g2
(g3
(S'S1'
p6731
I0
I1
tp6732
Rp6733
(I3
S'|'
p6734
NNNI1
I1
I0
tp6735
bg200
tp6736
Rp6737
sS'AORWPI5B'
p6738
g2
(g3
(S'S4'
p6739
I0
I1
tp6740
Rp6741
(I3
S'|'
p6742
NNNI4
I1
I0
tp6743
bS'MSEC'
p6744
tp6745
Rp6746
sS'CUSOBOVN'
p6747
g2
(g3
(S'S1'
p6748
I0
I1
tp6749
Rp6750
(I3
S'|'
p6751
NNNI1
I1
I0
tp6752
bg5295
tp6753
Rp6754
sS'4HFSPAT'
p6755
g2
(g3
(S'S4'
p6756
I0
I1
tp6757
Rp6758
(I3
S'|'
p6759
NNNI4
I1
I0
tp6760
bS'DEGF'
p6761
tp6762
Rp6763
sS'OOBTHR25'
p6764
g2
(g3
(S'S4'
p6765
I0
I1
tp6766
Rp6767
(I3
S'|'
p6768
NNNI4
I1
I0
tp6769
bS'DEGF'
p6770
tp6771
Rp6772
sS'POM1THV1T'
p6773
g2
(g3
(S'S4'
p6774
I0
I1
tp6775
Rp6776
(I3
S'|'
p6777
NNNI4
I1
I0
tp6778
bS'DEGF'
p6779
tp6780
Rp6781
sS'OOBTHR50_WIDE'
p6782
g2
(g3
(S'S4'
p6783
I0
I1
tp6784
Rp6785
(I3
S'|'
p6786
NNNI4
I1
I0
tp6787
bS'DEGF'
p6788
tp6789
Rp6790
sS'AOACZAN5'
p6791
g2
(g3
(S'S4'
p6792
I0
I1
tp6793
Rp6794
(I3
S'|'
p6795
NNNI4
I1
I0
tp6796
bS'ASEC'
p6797
tp6798
Rp6799
sS'PLAED4AT'
p6800
g2
(g3
(S'S4'
p6801
I0
I1
tp6802
Rp6803
(I3
S'|'
p6804
NNNI4
I1
I0
tp6805
bS'DEGF'
p6806
tp6807
Rp6808
sS'AOACZAN7'
p6809
g2
(g3
(S'S4'
p6810
I0
I1
tp6811
Rp6812
(I3
S'|'
p6813
NNNI4
I1
I0
tp6814
bS'ASEC'
p6815
tp6816
Rp6817
sS'AOACZAN6'
p6818
g2
(g3
(S'S4'
p6819
I0
I1
tp6820
Rp6821
(I3
S'|'
p6822
NNNI4
I1
I0
tp6823
bS'ASEC'
p6824
tp6825
Rp6826
sS'AOACZAN1'
p6827
g2
(g3
(S'S4'
p6828
I0
I1
tp6829
Rp6830
(I3
S'|'
p6831
NNNI4
I1
I0
tp6832
bS'ASEC'
p6833
tp6834
Rp6835
sS'AOACZAN0'
p6836
g2
(g3
(S'S4'
p6837
I0
I1
tp6838
Rp6839
(I3
S'|'
p6840
NNNI4
I1
I0
tp6841
bS'ASEC'
p6842
tp6843
Rp6844
sS'AOACZAN3'
p6845
g2
(g3
(S'S4'
p6846
I0
I1
tp6847
Rp6848
(I3
S'|'
p6849
NNNI4
I1
I0
tp6850
bS'ASEC'
p6851
tp6852
Rp6853
sS'AOACZAN2'
p6854
g2
(g3
(S'S4'
p6855
I0
I1
tp6856
Rp6857
(I3
S'|'
p6858
NNNI4
I1
I0
tp6859
bS'ASEC'
p6860
tp6861
Rp6862
sS'OOBTHR26'
p6863
g2
(g3
(S'S4'
p6864
I0
I1
tp6865
Rp6866
(I3
S'|'
p6867
NNNI4
I1
I0
tp6868
bS'DEGF'
p6869
tp6870
Rp6871
sS'CRXALS'
p6872
g2
(g3
(S'S3'
p6873
I0
I1
tp6874
Rp6875
(I3
S'|'
p6876
NNNI3
I1
I0
tp6877
bS'KHZ'
p6878
tp6879
Rp6880
sS'AOSRERR1'
p6881
g2
(g3
(S'S5'
p6882
I0
I1
tp6883
Rp6884
(I3
S'|'
p6885
NNNI5
I1
I0
tp6886
bS'RADPS'
p6887
tp6888
Rp6889
sS'AOSRERR2'
p6890
g2
(g3
(S'S5'
p6891
I0
I1
tp6892
Rp6893
(I3
S'|'
p6894
NNNI5
I1
I0
tp6895
bS'RADPS'
p6896
tp6897
Rp6898
sS'AOSRERR3'
p6899
g2
(g3
(S'S5'
p6900
I0
I1
tp6901
Rp6902
(I3
S'|'
p6903
NNNI5
I1
I0
tp6904
bS'RADPS'
p6905
tp6906
Rp6907
sS'CXO5VOBB'
p6908
g2
(g3
(S'S1'
p6909
I0
I1
tp6910
Rp6911
(I3
S'|'
p6912
NNNI1
I1
I0
tp6913
bg200
tp6914
Rp6915
sS'TPC_RCTU'
p6916
g2
(g3
(S'S4'
p6917
I0
I1
tp6918
Rp6919
(I3
S'|'
p6920
NNNI4
I1
I0
tp6921
bS'DEGF'
p6922
tp6923
Rp6924
sS'CXO5VOBA'
p6925
g2
(g3
(S'S1'
p6926
I0
I1
tp6927
Rp6928
(I3
S'|'
p6929
NNNI1
I1
I0
tp6930
bg200
tp6931
Rp6932
sS'EORTDMN22D'
p6933
g2
(g3
(S'S4'
p6934
I0
I1
tp6935
Rp6936
(I3
S'|'
p6937
NNNI4
I1
I0
tp6938
bS'DEGF'
p6939
tp6940
Rp6941
sS'PM3THV1T'
p6942
g2
(g3
(S'S4'
p6943
I0
I1
tp6944
Rp6945
(I3
S'|'
p6946
NNNI4
I1
I0
tp6947
bS'DEGF'
p6948
tp6949
Rp6950
sS'3SDMAJFP'
p6951
S's'
p6952
sS'OHRTHR03_WIDE'
p6953
g2
(g3
(S'S4'
p6954
I0
I1
tp6955
Rp6956
(I3
S'|'
p6957
NNNI4
I1
I0
tp6958
bS'DEGF'
p6959
tp6960
Rp6961
sS'AOETIMEX'
p6962
g2
(g3
(S'S3'
p6963
I0
I1
tp6964
Rp6965
(I3
S'|'
p6966
NNNI3
I1
I0
tp6967
bS'SEC'
p6968
tp6969
Rp6970
sS'2CONDMXT'
p6971
g2
(g3
(S'S4'
p6972
I0
I1
tp6973
Rp6974
(I3
S'|'
p6975
NNNI4
I1
I0
tp6976
bS'DEGC'
p6977
tp6978
Rp6979
sS'6SARES2'
p6980
g2
(g3
(S'S3'
p6981
I0
I1
tp6982
Rp6983
(I3
S'|'
p6984
NNNI3
I1
I0
tp6985
bS'DEG'
p6986
tp6987
Rp6988
sS'6SARES1'
p6989
g2
(g3
(S'S3'
p6990
I0
I1
tp6991
Rp6992
(I3
S'|'
p6993
NNNI3
I1
I0
tp6994
bS'DEG'
p6995
tp6996
Rp6997
sS'1DEN0BVO'
p6998
g2
(g3
(S'S1'
p6999
I0
I1
tp7000
Rp7001
(I3
S'|'
p7002
NNNI1
I1
I0
tp7003
bg200
tp7004
Rp7005
sS'4IP15BV'
p7006
g2
(g3
(S'S3'
p7007
I0
I1
tp7008
Rp7009
(I3
S'|'
p7010
NNNI3
I1
I0
tp7011
bS'VDC'
p7012
tp7013
Rp7014
sS'4ALL2BT'
p7015
g2
(g3
(S'S4'
p7016
I0
I1
tp7017
Rp7018
(I3
S'|'
p7019
NNNI4
I1
I0
tp7020
bS'DEGF'
p7021
tp7022
Rp7023
sS'CIUB5V'
p7024
g2
(g3
(S'S1'
p7025
I0
I1
tp7026
Rp7027
(I3
S'|'
p7028
NNNI1
I1
I0
tp7029
bg200
tp7030
Rp7031
sS'3FAMTRAT'
p7032
g2
(g3
(S'S4'
p7033
I0
I1
tp7034
Rp7035
(I3
S'|'
p7036
NNNI4
I1
I0
tp7037
bS'DEGC'
p7038
tp7039
Rp7040
sS'CTUA15V'
p7041
g2
(g3
(S'S1'
p7042
I0
I1
tp7043
Rp7044
(I3
S'|'
p7045
NNNI1
I1
I0
tp7046
bg200
tp7047
Rp7048
sS'4CSDHBV'
p7049
g2
(g3
(S'S3'
p7050
I0
I1
tp7051
Rp7052
(I3
S'|'
p7053
NNNI3
I1
I0
tp7054
bS'VDC'
p7055
tp7056
Rp7057
sS'OHRTHR42_WIDE'
p7058
g2
(g3
(S'S4'
p7059
I0
I1
tp7060
Rp7061
(I3
S'|'
p7062
NNNI4
I1
I0
tp7063
bS'DEGF'
p7064
tp7065
Rp7066
sS'PLAED2ET'
p7067
g2
(g3
(S'S4'
p7068
I0
I1
tp7069
Rp7070
(I3
S'|'
p7071
NNNI4
I1
I0
tp7072
bS'DEGF'
p7073
tp7074
Rp7075
sS'AOINTTIM'
p7076
g2
(g3
(S'S3'
p7077
I0
I1
tp7078
Rp7079
(I3
S'|'
p7080
NNNI3
I1
I0
tp7081
bS'SEC'
p7082
tp7083
Rp7084
sS'3TTBRGBT'
p7085
g2
(g3
(S'S4'
p7086
I0
I1
tp7087
Rp7088
(I3
S'|'
p7089
NNNI4
I1
I0
tp7090
bS'DEGC'
p7091
tp7092
Rp7093
sS'AORWINT1'
p7094
g2
(g3
(S'S4'
p7095
I0
I1
tp7096
Rp7097
(I3
S'|'
p7098
NNNI4
I1
I0
tp7099
bS'MSEC'
p7100
tp7101
Rp7102
sS'AORWINT2'
p7103
g2
(g3
(S'S4'
p7104
I0
I1
tp7105
Rp7106
(I3
S'|'
p7107
NNNI4
I1
I0
tp7108
bS'MSEC'
p7109
tp7110
Rp7111
sS'AORWINT3'
p7112
g2
(g3
(S'S4'
p7113
I0
I1
tp7114
Rp7115
(I3
S'|'
p7116
NNNI4
I1
I0
tp7117
bS'MSEC'
p7118
tp7119
Rp7120
sS'AORWINT4'
p7121
g2
(g3
(S'S4'
p7122
I0
I1
tp7123
Rp7124
(I3
S'|'
p7125
NNNI4
I1
I0
tp7126
bS'MSEC'
p7127
tp7128
Rp7129
sS'AORWINT5'
p7130
g2
(g3
(S'S4'
p7131
I0
I1
tp7132
Rp7133
(I3
S'|'
p7134
NNNI4
I1
I0
tp7135
bS'MSEC'
p7136
tp7137
Rp7138
sS'4RT557T'
p7139
g2
(g3
(S'S4'
p7140
I0
I1
tp7141
Rp7142
(I3
S'|'
p7143
NNNI4
I1
I0
tp7144
bS'DEGF'
p7145
tp7146
Rp7147
sS'AFLCA4AI'
p7148
g2
(g3
(S'S4'
p7149
I0
I1
tp7150
Rp7151
(I3
S'|'
p7152
NNNI4
I1
I0
tp7153
bS'MAMP'
p7154
tp7155
Rp7156
sS'EORTDMN25D'
p7157
g2
(g3
(S'S4'
p7158
I0
I1
tp7159
Rp7160
(I3
S'|'
p7161
NNNI4
I1
I0
tp7162
bS'DEGF'
p7163
tp7164
Rp7165
sS'AORESY3'
p7166
g2
(g3
(S'S3'
p7167
I0
I1
tp7168
Rp7169
(I3
S'|'
p7170
NNNI3
I1
I0
tp7171
bS'RAD'
p7172
tp7173
Rp7174
sS'4RT577T'
p7175
g2
(g3
(S'S4'
p7176
I0
I1
tp7177
Rp7178
(I3
S'|'
p7179
NNNI4
I1
I0
tp7180
bS'DEGF'
p7181
tp7182
Rp7183
sS'4IN15AV'
p7184
g2
(g3
(S'S3'
p7185
I0
I1
tp7186
Rp7187
(I3
S'|'
p7188
NNNI3
I1
I0
tp7189
bS'VDC'
p7190
tp7191
Rp7192
sS'4PRT3BT'
p7193
g2
(g3
(S'S4'
p7194
I0
I1
tp7195
Rp7196
(I3
S'|'
p7197
NNNI4
I1
I0
tp7198
bS'DEGF'
p7199
tp7200
Rp7201
sS'OOBTHR03_WIDE'
p7202
g2
(g3
(S'S4'
p7203
I0
I1
tp7204
Rp7205
(I3
S'|'
p7206
NNNI4
I1
I0
tp7207
bS'DEGF'
p7208
tp7209
Rp7210
sS'ARWA3BT'
p7211
g2
(g3
(S'S4'
p7212
I0
I1
tp7213
Rp7214
(I3
S'|'
p7215
NNNI4
I1
I0
tp7216
bS'DEGF'
p7217
tp7218
Rp7219
sS'OHRTHR63'
p7220
g2
(g3
(S'S4'
p7221
I0
I1
tp7222
Rp7223
(I3
S'|'
p7224
NNNI4
I1
I0
tp7225
bS'DEGF'
p7226
tp7227
Rp7228
sS'OHRTHR62'
p7229
g2
(g3
(S'S4'
p7230
I0
I1
tp7231
Rp7232
(I3
S'|'
p7233
NNNI4
I1
I0
tp7234
bS'DEGF'
p7235
tp7236
Rp7237
sS'OHRTHR61'
p7238
g2
(g3
(S'S4'
p7239
I0
I1
tp7240
Rp7241
(I3
S'|'
p7242
NNNI4
I1
I0
tp7243
bS'DEGF'
p7244
tp7245
Rp7246
sS'EOEB3CIC'
p7247
g2
(g3
(S'S3'
p7248
I0
I1
tp7249
Rp7250
(I3
S'|'
p7251
NNNI3
I1
I0
tp7252
bS'AMP'
p7253
tp7254
Rp7255
sS'AOSYMOM3'
p7256
g2
(g3
(S'S7'
p7257
I0
I1
tp7258
Rp7259
(I3
S'|'
p7260
NNNI7
I1
I0
tp7261
bS'FTLBSEC'
p7262
tp7263
Rp7264
sS'AOSYMOM2'
p7265
g2
(g3
(S'S7'
p7266
I0
I1
tp7267
Rp7268
(I3
S'|'
p7269
NNNI7
I1
I0
tp7270
bS'FTLBSEC'
p7271
tp7272
Rp7273
sS'AOSYMOM1'
p7274
g2
(g3
(S'S7'
p7275
I0
I1
tp7276
Rp7277
(I3
S'|'
p7278
NNNI7
I1
I0
tp7279
bS'FTLBSEC'
p7280
tp7281
Rp7282
sS'AFLCA2AI'
p7283
g2
(g3
(S'S4'
p7284
I0
I1
tp7285
Rp7286
(I3
S'|'
p7287
NNNI4
I1
I0
tp7288
bS'MAMP'
p7289
tp7290
Rp7291
sS'PLAEV1BT'
p7292
g2
(g3
(S'S4'
p7293
I0
I1
tp7294
Rp7295
(I3
S'|'
p7296
NNNI4
I1
I0
tp7297
bS'DEGF'
p7298
tp7299
Rp7300
sS'TCYLAFT1'
p7301
g2
(g3
(S'S4'
p7302
I0
I1
tp7303
Rp7304
(I3
S'|'
p7305
NNNI4
I1
I0
tp7306
bS'DEGF'
p7307
tp7308
Rp7309
sS'3MRMMXMV'
p7310
S'PWMSTEP'
p7311
sS'OOBTHR63_WIDE'
p7312
g2
(g3
(S'S4'
p7313
I0
I1
tp7314
Rp7315
(I3
S'|'
p7316
NNNI4
I1
I0
tp7317
bS'DEGF'
p7318
tp7319
Rp7320
sS'OHRTHR04_WIDE'
p7321
g2
(g3
(S'S4'
p7322
I0
I1
tp7323
Rp7324
(I3
S'|'
p7325
NNNI4
I1
I0
tp7326
bS'DEGF'
p7327
tp7328
Rp7329
sS'ECNV3V'
p7330
g2
(g3
(S'S1'
p7331
I0
I1
tp7332
Rp7333
(I3
S'|'
p7334
NNNI1
I1
I0
tp7335
bg200
tp7336
Rp7337
sS'4RT559T'
p7338
g2
(g3
(S'S4'
p7339
I0
I1
tp7340
Rp7341
(I3
S'|'
p7342
NNNI4
I1
I0
tp7343
bS'DEGF'
p7344
tp7345
Rp7346
sS'TSCTSF1'
p7347
g2
(g3
(S'S4'
p7348
I0
I1
tp7349
Rp7350
(I3
S'|'
p7351
NNNI4
I1
I0
tp7352
bS'DEGF'
p7353
tp7354
Rp7355
sS'TSCTSF2'
p7356
g2
(g3
(S'S4'
p7357
I0
I1
tp7358
Rp7359
(I3
S'|'
p7360
NNNI4
I1
I0
tp7361
bS'DEGF'
p7362
tp7363
Rp7364
sS'TSCTSF3'
p7365
g2
(g3
(S'S4'
p7366
I0
I1
tp7367
Rp7368
(I3
S'|'
p7369
NNNI4
I1
I0
tp7370
bS'DEGF'
p7371
tp7372
Rp7373
sS'OHRTHR53_WIDE'
p7374
g2
(g3
(S'S4'
p7375
I0
I1
tp7376
Rp7377
(I3
S'|'
p7378
NNNI4
I1
I0
tp7379
bS'DEGF'
p7380
tp7381
Rp7382
sS'TSCTSF5'
p7383
g2
(g3
(S'S4'
p7384
I0
I1
tp7385
Rp7386
(I3
S'|'
p7387
NNNI4
I1
I0
tp7388
bS'DEGF'
p7389
tp7390
Rp7391
sS'TSCTSF6'
p7392
g2
(g3
(S'S4'
p7393
I0
I1
tp7394
Rp7395
(I3
S'|'
p7396
NNNI4
I1
I0
tp7397
bS'DEGF'
p7398
tp7399
Rp7400
sS'AFLCA6BI'
p7401
g2
(g3
(S'S4'
p7402
I0
I1
tp7403
Rp7404
(I3
S'|'
p7405
NNNI4
I1
I0
tp7406
bS'MAMP'
p7407
tp7408
Rp7409
sS'TEP_PPAN'
p7410
g2
(g3
(S'S4'
p7411
I0
I1
tp7412
Rp7413
(I3
S'|'
p7414
NNNI4
I1
I0
tp7415
bS'DEGF'
p7416
tp7417
Rp7418
sS'PLINE14T'
p7419
g2
(g3
(S'S4'
p7420
I0
I1
tp7421
Rp7422
(I3
S'|'
p7423
NNNI4
I1
I0
tp7424
bS'DEGF'
p7425
tp7426
Rp7427
sS'1DEICACU'
p7428
g2
(g3
(S'S3'
p7429
I0
I1
tp7430
Rp7431
(I3
S'|'
p7432
NNNI3
I1
I0
tp7433
bS'AMP'
p7434
tp7435
Rp7436
sS'OHRTHR17'
p7437
g2
(g3
(S'S4'
p7438
I0
I1
tp7439
Rp7440
(I3
S'|'
p7441
NNNI4
I1
I0
tp7442
bS'DEGF'
p7443
tp7444
Rp7445
sS'1MAHCAT'
p7446
g2
(g3
(S'S4'
p7447
I0
I1
tp7448
Rp7449
(I3
S'|'
p7450
NNNI4
I1
I0
tp7451
bS'DEGC'
p7452
tp7453
Rp7454
sS'HKEBOXTEMP'
p7455
S'DEGF'
p7456
sS'AOAVGDTQ'
p7457
g2
(g3
(S'S4'
p7458
I0
I1
tp7459
Rp7460
(I3
S'|'
p7461
NNNI4
I1
I0
tp7462
bS'FTLB'
p7463
tp7464
Rp7465
sS'EORTDMN17D'
p7466
g2
(g3
(S'S4'
p7467
I0
I1
tp7468
Rp7469
(I3
S'|'
p7470
NNNI4
I1
I0
tp7471
bS'DEGF'
p7472
tp7473
Rp7474
sS'TMP_FEP1_PCB'
p7475
g1149
sS'4RT560T'
p7476
g2
(g3
(S'S4'
p7477
I0
I1
tp7478
Rp7479
(I3
S'|'
p7480
NNNI4
I1
I0
tp7481
bS'DEGF'
p7482
tp7483
Rp7484
sS'AOMANANG'
p7485
g2
(g3
(S'S3'
p7486
I0
I1
tp7487
Rp7488
(I3
S'|'
p7489
NNNI3
I1
I0
tp7490
bS'RAD'
p7491
tp7492
Rp7493
sS'OHRTHR06_WIDE'
p7494
g2
(g3
(S'S4'
p7495
I0
I1
tp7496
Rp7497
(I3
S'|'
p7498
NNNI4
I1
I0
tp7499
bS'DEGF'
p7500
tp7501
Rp7502
sS'AFLCA7AI'
p7503
g2
(g3
(S'S4'
p7504
I0
I1
tp7505
Rp7506
(I3
S'|'
p7507
NNNI4
I1
I0
tp7508
bS'MAMP'
p7509
tp7510
Rp7511
sS'ORBITEPHEM1_X'
p7512
S'm'
p7513
sS'ORBITEPHEM1_Y'
p7514
S'm'
p7515
sS'ORBITEPHEM1_Z'
p7516
S'm'
p7517
sS'ANGLEEPHEM_DIST_SATEARTH'
p7518
S'm'
p7519
sS'OOBTHR19_WIDE'
p7520
g2
(g3
(S'S4'
p7521
I0
I1
tp7522
Rp7523
(I3
S'|'
p7524
NNNI4
I1
I0
tp7525
bS'DEGF'
p7526
tp7527
Rp7528
sS'PLINE08T'
p7529
g2
(g3
(S'S4'
p7530
I0
I1
tp7531
Rp7532
(I3
S'|'
p7533
NNNI4
I1
I0
tp7534
bS'DEGF'
p7535
tp7536
Rp7537
sS'OHRTHR27_WIDE'
p7538
g2
(g3
(S'S4'
p7539
I0
I1
tp7540
Rp7541
(I3
S'|'
p7542
NNNI4
I1
I0
tp7543
bS'DEGF'
p7544
tp7545
Rp7546
sS'AFSSPC1V'
p7547
g2
(g3
(S'S1'
p7548
I0
I1
tp7549
Rp7550
(I3
S'|'
p7551
NNNI1
I1
I0
tp7552
bg200
tp7553
Rp7554
sS'TMP_FEP1_MONG'
p7555
g1149
sS'DEAP6VOLTA'
p7556
S'V'
p7557
sS'DEAP6VOLTB'
p7558
S'V'
p7559
sS'AORWNTQ1'
p7560
g2
(g3
(S'S4'
p7561
I0
I1
tp7562
Rp7563
(I3
S'|'
p7564
NNNI4
I1
I0
tp7565
bS'FTLB'
p7566
tp7567
Rp7568
sS'4RT586T'
p7569
g2
(g3
(S'S4'
p7570
I0
I1
tp7571
Rp7572
(I3
S'|'
p7573
NNNI4
I1
I0
tp7574
bS'DEGF'
p7575
tp7576
Rp7577
sS'AORWNTQ3'
p7578
g2
(g3
(S'S4'
p7579
I0
I1
tp7580
Rp7581
(I3
S'|'
p7582
NNNI4
I1
I0
tp7583
bS'FTLB'
p7584
tp7585
Rp7586
sS'OOBTHR37'
p7587
g2
(g3
(S'S4'
p7588
I0
I1
tp7589
Rp7590
(I3
S'|'
p7591
NNNI4
I1
I0
tp7592
bS'DEGF'
p7593
tp7594
Rp7595
sS'OOBTHR36'
p7596
g2
(g3
(S'S4'
p7597
I0
I1
tp7598
Rp7599
(I3
S'|'
p7600
NNNI4
I1
I0
tp7601
bS'DEGF'
p7602
tp7603
Rp7604
sS'OOBTHR35'
p7605
g2
(g3
(S'S4'
p7606
I0
I1
tp7607
Rp7608
(I3
S'|'
p7609
NNNI4
I1
I0
tp7610
bS'DEGF'
p7611
tp7612
Rp7613
sS'OOBTHR34'
p7614
g2
(g3
(S'S4'
p7615
I0
I1
tp7616
Rp7617
(I3
S'|'
p7618
NNNI4
I1
I0
tp7619
bS'DEGF'
p7620
tp7621
Rp7622
sS'CUSOBIT'
p7623
g2
(g3
(S'S4'
p7624
I0
I1
tp7625
Rp7626
(I3
S'|'
p7627
NNNI4
I1
I0
tp7628
bS'DEGF'
p7629
tp7630
Rp7631
sS'OHRTHR25_WIDE'
p7632
g2
(g3
(S'S4'
p7633
I0
I1
tp7634
Rp7635
(I3
S'|'
p7636
NNNI4
I1
I0
tp7637
bS'DEGF'
p7638
tp7639
Rp7640
sS'OOBTHR31'
p7641
g2
(g3
(S'S4'
p7642
I0
I1
tp7643
Rp7644
(I3
S'|'
p7645
NNNI4
I1
I0
tp7646
bS'DEGF'
p7647
tp7648
Rp7649
sS'6SUNER3'
p7650
g2
(g3
(S'S3'
p7651
I0
I1
tp7652
Rp7653
(I3
S'|'
p7654
NNNI3
I1
I0
tp7655
bS'RAD'
p7656
tp7657
Rp7658
sS'OOBTHR39'
p7659
g2
(g3
(S'S4'
p7660
I0
I1
tp7661
Rp7662
(I3
S'|'
p7663
NNNI4
I1
I0
tp7664
bS'DEGF'
p7665
tp7666
Rp7667
sS'OOBTHR38'
p7668
g2
(g3
(S'S4'
p7669
I0
I1
tp7670
Rp7671
(I3
S'|'
p7672
NNNI4
I1
I0
tp7673
bS'DEGF'
p7674
tp7675
Rp7676
sS'OOBTHR51_WIDE'
p7677
g2
(g3
(S'S4'
p7678
I0
I1
tp7679
Rp7680
(I3
S'|'
p7681
NNNI4
I1
I0
tp7682
bS'DEGF'
p7683
tp7684
Rp7685
sS'PM2THV2T'
p7686
g2
(g3
(S'S4'
p7687
I0
I1
tp7688
Rp7689
(I3
S'|'
p7690
NNNI4
I1
I0
tp7691
bS'DEGF'
p7692
tp7693
Rp7694
sS'AVACMONV'
p7695
g2
(g3
(S'S1'
p7696
I0
I1
tp7697
Rp7698
(I3
S'|'
p7699
NNNI1
I1
I0
tp7700
bg200
tp7701
Rp7702
sS'4RT590T'
p7703
g2
(g3
(S'S4'
p7704
I0
I1
tp7705
Rp7706
(I3
S'|'
p7707
NNNI4
I1
I0
tp7708
bS'DEGF'
p7709
tp7710
Rp7711
sS'1OAHAT'
p7712
g2
(g3
(S'S4'
p7713
I0
I1
tp7714
Rp7715
(I3
S'|'
p7716
NNNI4
I1
I0
tp7717
bS'DEGC'
p7718
tp7719
Rp7720
sS'ARWA4BT'
p7721
g2
(g3
(S'S4'
p7722
I0
I1
tp7723
Rp7724
(I3
S'|'
p7725
NNNI4
I1
I0
tp7726
bS'DEGF'
p7727
tp7728
Rp7729
sS'PLAEV4AT'
p7730
g2
(g3
(S'S4'
p7731
I0
I1
tp7732
Rp7733
(I3
S'|'
p7734
NNNI4
I1
I0
tp7735
bS'DEGF'
p7736
tp7737
Rp7738
sS'AOMANRT'
p7739
g2
(g3
(S'S5'
p7740
I0
I1
tp7741
Rp7742
(I3
S'|'
p7743
NNNI5
I1
I0
tp7744
bS'RADPS'
p7745
tp7746
Rp7747
sS'4PRT1BT'
p7748
g2
(g3
(S'S4'
p7749
I0
I1
tp7750
Rp7751
(I3
S'|'
p7752
NNNI4
I1
I0
tp7753
bS'DEGF'
p7754
tp7755
Rp7756
sS'OOBTHR07_WIDE'
p7757
g2
(g3
(S'S4'
p7758
I0
I1
tp7759
Rp7760
(I3
S'|'
p7761
NNNI4
I1
I0
tp7762
bS'DEGF'
p7763
tp7764
Rp7765
sS'1VAHCAT'
p7766
g2
(g3
(S'S4'
p7767
I0
I1
tp7768
Rp7769
(I3
S'|'
p7770
NNNI4
I1
I0
tp7771
bS'DEGC'
p7772
tp7773
Rp7774
sS'TRSPOTPC'
p7775
g2
(g3
(S'S4'
p7776
I0
I1
tp7777
Rp7778
(I3
S'|'
p7779
NNNI4
I1
I0
tp7780
bS'DEGF'
p7781
tp7782
Rp7783
sS'PLAED3CT'
p7784
g2
(g3
(S'S4'
p7785
I0
I1
tp7786
Rp7787
(I3
S'|'
p7788
NNNI4
I1
I0
tp7789
bS'DEGF'
p7790
tp7791
Rp7792
sS'AIOBP5CV'
p7793
g2
(g3
(S'S1'
p7794
I0
I1
tp7795
Rp7796
(I3
S'|'
p7797
NNNI1
I1
I0
tp7798
bg200
tp7799
Rp7800
sS'AOFFTQ1'
p7801
g2
(g3
(S'S4'
p7802
I0
I1
tp7803
Rp7804
(I3
S'|'
p7805
NNNI4
I1
I0
tp7806
bS'FTLB'
p7807
tp7808
Rp7809
sS'AOFFTQ2'
p7810
g2
(g3
(S'S4'
p7811
I0
I1
tp7812
Rp7813
(I3
S'|'
p7814
NNNI4
I1
I0
tp7815
bS'FTLB'
p7816
tp7817
Rp7818
sS'SOLAREPHEM0_VY'
p7819
S'm/s'
p7820
sS'SOLAREPHEM0_VX'
p7821
S'm/s'
p7822
sS'SOLAREPHEM0_VZ'
p7823
S'm/s'
p7824
sS'ORBITEPHEM1_VZ'
p7825
S'm/s'
p7826
sS'ORBITEPHEM1_VY'
p7827
S'm/s'
p7828
sS'ORBITEPHEM1_VX'
p7829
S'm/s'
p7830
sS'AOADBCH2A_PCAD'
p7831
g2
(g3
(S'S3'
p7832
I0
I1
tp7833
Rp7834
(I3
S'|'
p7835
NNNI3
I1
I0
tp7836
bS'DEG'
p7837
tp7838
Rp7839
sS'AORWPI6B'
p7840
g2
(g3
(S'S4'
p7841
I0
I1
tp7842
Rp7843
(I3
S'|'
p7844
NNNI4
I1
I0
tp7845
bS'MSEC'
p7846
tp7847
Rp7848
sS'EOECNV1C'
p7849
g2
(g3
(S'S1'
p7850
I0
I1
tp7851
Rp7852
(I3
S'|'
p7853
NNNI1
I1
I0
tp7854
bg200
tp7855
Rp7856
sS'AFLCABH'
p7857
g2
(g3
(S'S1'
p7858
I0
I1
tp7859
Rp7860
(I3
S'|'
p7861
NNNI1
I1
I0
tp7862
bg200
tp7863
Rp7864
sS'AFLCA3BI'
p7865
g2
(g3
(S'S4'
p7866
I0
I1
tp7867
Rp7868
(I3
S'|'
p7869
NNNI4
I1
I0
tp7870
bS'MAMP'
p7871
tp7872
Rp7873
sS'POLAEV1BT'
p7874
g2
(g3
(S'S4'
p7875
I0
I1
tp7876
Rp7877
(I3
S'|'
p7878
NNNI4
I1
I0
tp7879
bS'DEGF'
p7880
tp7881
Rp7882
sS'AAOTALT'
p7883
g2
(g3
(S'S4'
p7884
I0
I1
tp7885
Rp7886
(I3
S'|'
p7887
NNNI4
I1
I0
tp7888
bS'DEGF'
p7889
tp7890
Rp7891
sS'OHRTHR50_WIDE'
p7892
g2
(g3
(S'S4'
p7893
I0
I1
tp7894
Rp7895
(I3
S'|'
p7896
NNNI4
I1
I0
tp7897
bS'DEGF'
p7898
tp7899
Rp7900
sS'3TSPYFET'
p7901
g2
(g3
(S'S4'
p7902
I0
I1
tp7903
Rp7904
(I3
S'|'
p7905
NNNI4
I1
I0
tp7906
bS'DEGC'
p7907
tp7908
Rp7909
sS'AOCMDRT2'
p7910
g2
(g3
(S'S5'
p7911
I0
I1
tp7912
Rp7913
(I3
S'|'
p7914
NNNI5
I1
I0
tp7915
bS'RADPS'
p7916
tp7917
Rp7918
sS'AOCMDRT3'
p7919
g2
(g3
(S'S5'
p7920
I0
I1
tp7921
Rp7922
(I3
S'|'
p7923
NNNI5
I1
I0
tp7924
bS'RADPS'
p7925
tp7926
Rp7927
sS'AI2AX2X'
p7928
g2
(g3
(S'S5'
p7929
I0
I1
tp7930
Rp7931
(I3
S'|'
p7932
NNNI5
I1
I0
tp7933
bS'DEGPS'
p7934
tp7935
Rp7936
sS'OOBTHR46_WIDE'
p7937
g2
(g3
(S'S4'
p7938
I0
I1
tp7939
Rp7940
(I3
S'|'
p7941
NNNI4
I1
I0
tp7942
bS'DEGF'
p7943
tp7944
Rp7945
sS'4RT704T'
p7946
g2
(g3
(S'S4'
p7947
I0
I1
tp7948
Rp7949
(I3
S'|'
p7950
NNNI4
I1
I0
tp7951
bS'DEGF'
p7952
tp7953
Rp7954
sS'1DEN1BVO'
p7955
g2
(g3
(S'S1'
p7956
I0
I1
tp7957
Rp7958
(I3
S'|'
p7959
NNNI1
I1
I0
tp7960
bg200
tp7961
Rp7962
sS'4SP52V'
p7963
g2
(g3
(S'S3'
p7964
I0
I1
tp7965
Rp7966
(I3
S'|'
p7967
NNNI3
I1
I0
tp7968
bS'VDC'
p7969
tp7970
Rp7971
sS'EORTDMN29D'
p7972
g2
(g3
(S'S4'
p7973
I0
I1
tp7974
Rp7975
(I3
S'|'
p7976
NNNI4
I1
I0
tp7977
bS'DEGF'
p7978
tp7979
Rp7980
sS'PLAED3BT'
p7981
g2
(g3
(S'S4'
p7982
I0
I1
tp7983
Rp7984
(I3
S'|'
p7985
NNNI4
I1
I0
tp7986
bS'DEGF'
p7987
tp7988
Rp7989
sS'OOBTHR39_WIDE'
p7990
g2
(g3
(S'S4'
p7991
I0
I1
tp7992
Rp7993
(I3
S'|'
p7994
NNNI4
I1
I0
tp7995
bS'DEGF'
p7996
tp7997
Rp7998
sS'PXTANKOP'
p7999
g2
(g3
(S'S4'
p8000
I0
I1
tp8001
Rp8002
(I3
S'|'
p8003
NNNI4
I1
I0
tp8004
bS'PSIA'
p8005
tp8006
Rp8007
sS'4OAVHRMT'
p8008
g2
(g3
(S'S4'
p8009
I0
I1
tp8010
Rp8011
(I3
S'|'
p8012
NNNI4
I1
I0
tp8013
bS'DEGF'
p8014
tp8015
Rp8016
sS'PFFP01T'
p8017
g2
(g3
(S'S4'
p8018
I0
I1
tp8019
Rp8020
(I3
S'|'
p8021
NNNI4
I1
I0
tp8022
bS'DEGF'
p8023
tp8024
Rp8025
sS'2N15VAVL'
p8026
g2
(g3
(S'S3'
p8027
I0
I1
tp8028
Rp8029
(I3
S'|'
p8030
NNNI3
I1
I0
tp8031
bS'VDC'
p8032
tp8033
Rp8034
sS'2N15VBVL'
p8035
g2
(g3
(S'S3'
p8036
I0
I1
tp8037
Rp8038
(I3
S'|'
p8039
NNNI3
I1
I0
tp8040
bS'VDC'
p8041
tp8042
Rp8043
sS'OOBTHR27_WIDE'
p8044
g2
(g3
(S'S4'
p8045
I0
I1
tp8046
Rp8047
(I3
S'|'
p8048
NNNI4
I1
I0
tp8049
bS'DEGF'
p8050
tp8051
Rp8052
sS'ASPEFSW2B'
p8053
g2
(g3
(S'S3'
p8054
I0
I1
tp8055
Rp8056
(I3
S'|'
p8057
NNNI3
I1
I0
tp8058
bS'DEG'
p8059
tp8060
Rp8061
sS'HKEBIASLEAKI'
p8062
S'uA'
p8063
sS'1DEP0AVO'
p8064
g2
(g3
(S'S1'
p8065
I0
I1
tp8066
Rp8067
(I3
S'|'
p8068
NNNI1
I1
I0
tp8069
bg200
tp8070
Rp8071
sS'OOBTHR18_WIDE'
p8072
g2
(g3
(S'S4'
p8073
I0
I1
tp8074
Rp8075
(I3
S'|'
p8076
NNNI4
I1
I0
tp8077
bS'DEGF'
p8078
tp8079
Rp8080
sS'4PRT3AT'
p8081
g2
(g3
(S'S4'
p8082
I0
I1
tp8083
Rp8084
(I3
S'|'
p8085
NNNI4
I1
I0
tp8086
bS'DEGF'
p8087
tp8088
Rp8089
sS'PMTANK2T'
p8090
g2
(g3
(S'S4'
p8091
I0
I1
tp8092
Rp8093
(I3
S'|'
p8094
NNNI4
I1
I0
tp8095
bS'DEGF'
p8096
tp8097
Rp8098
sS'AACBPPT'
p8099
g2
(g3
(S'S4'
p8100
I0
I1
tp8101
Rp8102
(I3
S'|'
p8103
NNNI4
I1
I0
tp8104
bS'DEGF'
p8105
tp8106
Rp8107
sS'4HPOSBRO'
p8108
g2
(g3
(S'S3'
p8109
I0
I1
tp8110
Rp8111
(I3
S'|'
p8112
NNNI3
I1
I0
tp8113
bS'DEG'
p8114
tp8115
Rp8116
sS'1PDEAAT'
p8117
g2
(g3
(S'S4'
p8118
I0
I1
tp8119
Rp8120
(I3
S'|'
p8121
NNNI4
I1
I0
tp8122
bS'DEGC'
p8123
tp8124
Rp8125
sS'PCM02T'
p8126
g2
(g3
(S'S4'
p8127
I0
I1
tp8128
Rp8129
(I3
S'|'
p8130
NNNI4
I1
I0
tp8131
bS'DEGF'
p8132
tp8133
Rp8134
sS'3FAMYZAT'
p8135
g2
(g3
(S'S4'
p8136
I0
I1
tp8137
Rp8138
(I3
S'|'
p8139
NNNI4
I1
I0
tp8140
bS'DEGC'
p8141
tp8142
Rp8143
sS'AACCCDPT'
p8144
g2
(g3
(S'S4'
p8145
I0
I1
tp8146
Rp8147
(I3
S'|'
p8148
NNNI4
I1
I0
tp8149
bS'DEGF'
p8150
tp8151
Rp8152
sS'OHRTHR56_WIDE'
p8153
g2
(g3
(S'S4'
p8154
I0
I1
tp8155
Rp8156
(I3
S'|'
p8157
NNNI4
I1
I0
tp8158
bS'DEGF'
p8159
tp8160
Rp8161
sS'OOBTHR51'
p8162
g2
(g3
(S'S4'
p8163
I0
I1
tp8164
Rp8165
(I3
S'|'
p8166
NNNI4
I1
I0
tp8167
bS'DEGF'
p8168
tp8169
Rp8170
sS'AOSPBCS3B'
p8171
g2
(g3
(S'S4'
p8172
I0
I1
tp8173
Rp8174
(I3
S'|'
p8175
NNNI4
I1
I0
tp8176
bS'MAMP'
p8177
tp8178
Rp8179
sS'AWD1TQI'
p8180
g2
(g3
(S'S3'
p8181
I0
I1
tp8182
Rp8183
(I3
S'|'
p8184
NNNI3
I1
I0
tp8185
bS'AMP'
p8186
tp8187
Rp8188
sS'TCM_TX2'
p8189
g2
(g3
(S'S4'
p8190
I0
I1
tp8191
Rp8192
(I3
S'|'
p8193
NNNI4
I1
I0
tp8194
bS'DEGF'
p8195
tp8196
Rp8197
sS'TCM_TX1'
p8198
g2
(g3
(S'S4'
p8199
I0
I1
tp8200
Rp8201
(I3
S'|'
p8202
NNNI4
I1
I0
tp8203
bS'DEGF'
p8204
tp8205
Rp8206
sS'CTUA5V'
p8207
g2
(g3
(S'S1'
p8208
I0
I1
tp8209
Rp8210
(I3
S'|'
p8211
NNNI1
I1
I0
tp8212
bg200
tp8213
Rp8214
sS'TMZP_CNT'
p8215
g2
(g3
(S'S4'
p8216
I0
I1
tp8217
Rp8218
(I3
S'|'
p8219
NNNI4
I1
I0
tp8220
bS'DEGF'
p8221
tp8222
Rp8223
sS'DPA5VHKA'
p8224
S'V'
p8225
sS'AHKNATRD'
p8226
g2
(g3
(S'S1'
p8227
I0
I1
tp8228
Rp8229
(I3
S'|'
p8230
NNNI1
I1
I0
tp8231
bg200
tp8232
Rp8233
sS'EOEB3VC'
p8234
g2
(g3
(S'S1'
p8235
I0
I1
tp8236
Rp8237
(I3
S'|'
p8238
NNNI1
I1
I0
tp8239
bg200
tp8240
Rp8241
sS'DPA5VHKB'
p8242
S'V'
p8243
sS'ORBITEPHEM0_Y'
p8244
S'm'
p8245
sS'ORBITEPHEM0_X'
p8246
S'm'
p8247
sS'ORBITEPHEM0_Z'
p8248
S'm'
p8249
sS'4CSDOBV'
p8250
g2
(g3
(S'S3'
p8251
I0
I1
tp8252
Rp8253
(I3
S'|'
p8254
NNNI3
I1
I0
tp8255
bS'VDC'
p8256
tp8257
Rp8258
sS'6SUNER1'
p8259
g2
(g3
(S'S3'
p8260
I0
I1
tp8261
Rp8262
(I3
S'|'
p8263
NNNI3
I1
I0
tp8264
bS'RAD'
p8265
tp8266
Rp8267
sS'AFLCA9BI'
p8268
g2
(g3
(S'S4'
p8269
I0
I1
tp8270
Rp8271
(I3
S'|'
p8272
NNNI4
I1
I0
tp8273
bS'MAMP'
p8274
tp8275
Rp8276
sS'4LPOSARO'
p8277
g2
(g3
(S'S3'
p8278
I0
I1
tp8279
Rp8280
(I3
S'|'
p8281
NNNI3
I1
I0
tp8282
bS'DEG'
p8283
tp8284
Rp8285
sS'TEP_BPAN'
p8286
g2
(g3
(S'S4'
p8287
I0
I1
tp8288
Rp8289
(I3
S'|'
p8290
NNNI4
I1
I0
tp8291
bS'DEGF'
p8292
tp8293
Rp8294
sS'3SDFLXCT'
p8295
g1149
sS'OHRTHR58_WIDE'
p8296
g2
(g3
(S'S4'
p8297
I0
I1
tp8298
Rp8299
(I3
S'|'
p8300
NNNI4
I1
I0
tp8301
bS'DEGF'
p8302
tp8303
Rp8304
sS'4PRT5AT'
p8305
g2
(g3
(S'S4'
p8306
I0
I1
tp8307
Rp8308
(I3
S'|'
p8309
NNNI4
I1
I0
tp8310
bS'DEGF'
p8311
tp8312
Rp8313
sS'TMP_BEP_OSC'
p8314
g1149
sS'6SINTER2'
p8315
g2
(g3
(S'S3'
p8316
I0
I1
tp8317
Rp8318
(I3
S'|'
p8319
NNNI3
I1
I0
tp8320
bS'RAD'
p8321
tp8322
Rp8323
sS'6SINTER1'
p8324
g2
(g3
(S'S3'
p8325
I0
I1
tp8326
Rp8327
(I3
S'|'
p8328
NNNI3
I1
I0
tp8329
bS'RAD'
p8330
tp8331
Rp8332
sS'ARWA1BT'
p8333
g2
(g3
(S'S4'
p8334
I0
I1
tp8335
Rp8336
(I3
S'|'
p8337
NNNI4
I1
I0
tp8338
bS'DEGF'
p8339
tp8340
Rp8341
sS'PLAED4GT'
p8342
g2
(g3
(S'S4'
p8343
I0
I1
tp8344
Rp8345
(I3
S'|'
p8346
NNNI4
I1
I0
tp8347
bS'DEGF'
p8348
tp8349
Rp8350
sS'AFLC14BI'
p8351
g2
(g3
(S'S4'
p8352
I0
I1
tp8353
Rp8354
(I3
S'|'
p8355
NNNI4
I1
I0
tp8356
bS'MAMP'
p8357
tp8358
Rp8359
sS'OHRTHR30_WIDE'
p8360
g2
(g3
(S'S4'
p8361
I0
I1
tp8362
Rp8363
(I3
S'|'
p8364
NNNI4
I1
I0
tp8365
bS'DEGF'
p8366
tp8367
Rp8368
sS'POLINE06T'
p8369
g2
(g3
(S'S4'
p8370
I0
I1
tp8371
Rp8372
(I3
S'|'
p8373
NNNI4
I1
I0
tp8374
bS'DEGF'
p8375
tp8376
Rp8377
sS'AOSPACS4B'
p8378
g2
(g3
(S'S4'
p8379
I0
I1
tp8380
Rp8381
(I3
S'|'
p8382
NNNI4
I1
I0
tp8383
bS'MAMP'
p8384
tp8385
Rp8386
sS'OHRTHR58'
p8387
g2
(g3
(S'S4'
p8388
I0
I1
tp8389
Rp8390
(I3
S'|'
p8391
NNNI4
I1
I0
tp8392
bS'DEGF'
p8393
tp8394
Rp8395
sS'OHRTHR59'
p8396
g2
(g3
(S'S4'
p8397
I0
I1
tp8398
Rp8399
(I3
S'|'
p8400
NNNI4
I1
I0
tp8401
bS'DEGF'
p8402
tp8403
Rp8404
sS'OHRTHR52'
p8405
g2
(g3
(S'S4'
p8406
I0
I1
tp8407
Rp8408
(I3
S'|'
p8409
NNNI4
I1
I0
tp8410
bS'DEGF'
p8411
tp8412
Rp8413
sS'OHRTHR53'
p8414
g2
(g3
(S'S4'
p8415
I0
I1
tp8416
Rp8417
(I3
S'|'
p8418
NNNI4
I1
I0
tp8419
bS'DEGF'
p8420
tp8421
Rp8422
sS'OHRTHR50'
p8423
g2
(g3
(S'S4'
p8424
I0
I1
tp8425
Rp8426
(I3
S'|'
p8427
NNNI4
I1
I0
tp8428
bS'DEGF'
p8429
tp8430
Rp8431
sS'OHRTHR51'
p8432
g2
(g3
(S'S4'
p8433
I0
I1
tp8434
Rp8435
(I3
S'|'
p8436
NNNI4
I1
I0
tp8437
bS'DEGF'
p8438
tp8439
Rp8440
sS'OHRTHR56'
p8441
g2
(g3
(S'S4'
p8442
I0
I1
tp8443
Rp8444
(I3
S'|'
p8445
NNNI4
I1
I0
tp8446
bS'DEGF'
p8447
tp8448
Rp8449
sS'OHRTHR57'
p8450
g2
(g3
(S'S4'
p8451
I0
I1
tp8452
Rp8453
(I3
S'|'
p8454
NNNI4
I1
I0
tp8455
bS'DEGF'
p8456
tp8457
Rp8458
sS'OHRTHR54'
p8459
g2
(g3
(S'S4'
p8460
I0
I1
tp8461
Rp8462
(I3
S'|'
p8463
NNNI4
I1
I0
tp8464
bS'DEGF'
p8465
tp8466
Rp8467
sS'OHRTHR55'
p8468
g2
(g3
(S'S4'
p8469
I0
I1
tp8470
Rp8471
(I3
S'|'
p8472
NNNI4
I1
I0
tp8473
bS'DEGF'
p8474
tp8475
Rp8476
sS'TCYZ_RW1'
p8477
g2
(g3
(S'S4'
p8478
I0
I1
tp8479
Rp8480
(I3
S'|'
p8481
NNNI4
I1
I0
tp8482
bS'DEGF'
p8483
tp8484
Rp8485
sS'3TSMXCET'
p8486
g2
(g3
(S'S4'
p8487
I0
I1
tp8488
Rp8489
(I3
S'|'
p8490
NNNI4
I1
I0
tp8491
bS'DEGC'
p8492
tp8493
Rp8494
sS'TCYZ_RW6'
p8495
g2
(g3
(S'S4'
p8496
I0
I1
tp8497
Rp8498
(I3
S'|'
p8499
NNNI4
I1
I0
tp8500
bS'DEGF'
p8501
tp8502
Rp8503
sS'PLINE09T'
p8504
g2
(g3
(S'S4'
p8505
I0
I1
tp8506
Rp8507
(I3
S'|'
p8508
NNNI4
I1
I0
tp8509
bS'DEGF'
p8510
tp8511
Rp8512
sS'TSAPYT'
p8513
g2
(g3
(S'S4'
p8514
I0
I1
tp8515
Rp8516
(I3
S'|'
p8517
NNNI4
I1
I0
tp8518
bS'DEGF'
p8519
tp8520
Rp8521
sS'AI2AX2Y'
p8522
g2
(g3
(S'S5'
p8523
I0
I1
tp8524
Rp8525
(I3
S'|'
p8526
NNNI5
I1
I0
tp8527
bS'DEGPS'
p8528
tp8529
Rp8530
sS'ASPEA5CV'
p8531
g2
(g3
(S'S1'
p8532
I0
I1
tp8533
Rp8534
(I3
S'|'
p8535
NNNI1
I1
I0
tp8536
bg200
tp8537
Rp8538
sS'4RT568T'
p8539
g2
(g3
(S'S4'
p8540
I0
I1
tp8541
Rp8542
(I3
S'|'
p8543
NNNI4
I1
I0
tp8544
bS'DEGF'
p8545
tp8546
Rp8547
sS'4LFSPBT'
p8548
g2
(g3
(S'S4'
p8549
I0
I1
tp8550
Rp8551
(I3
S'|'
p8552
NNNI4
I1
I0
tp8553
bS'DEGF'
p8554
tp8555
Rp8556
sS'ACPB5CV'
p8557
g2
(g3
(S'S1'
p8558
I0
I1
tp8559
Rp8560
(I3
S'|'
p8561
NNNI1
I1
I0
tp8562
bg200
tp8563
Rp8564
sS'TSCIUSF1'
p8565
g2
(g3
(S'S4'
p8566
I0
I1
tp8567
Rp8568
(I3
S'|'
p8569
NNNI4
I1
I0
tp8570
bS'DEGF'
p8571
tp8572
Rp8573
sS'AOSPBCS1B'
p8574
g2
(g3
(S'S4'
p8575
I0
I1
tp8576
Rp8577
(I3
S'|'
p8578
NNNI4
I1
I0
tp8579
bS'MAMP'
p8580
tp8581
Rp8582
sS'TCM_PA1'
p8583
g2
(g3
(S'S4'
p8584
I0
I1
tp8585
Rp8586
(I3
S'|'
p8587
NNNI4
I1
I0
tp8588
bS'DEGF'
p8589
tp8590
Rp8591
sS'SOLAREPHEM0_Z'
p8592
S'm'
p8593
sS'AORWMOM1'
p8594
g2
(g3
(S'S7'
p8595
I0
I1
tp8596
Rp8597
(I3
S'|'
p8598
NNNI7
I1
I0
tp8599
bS'FTLBSEC'
p8600
tp8601
Rp8602
sS'4IP15AV'
p8603
g2
(g3
(S'S3'
p8604
I0
I1
tp8605
Rp8606
(I3
S'|'
p8607
NNNI3
I1
I0
tp8608
bS'VDC'
p8609
tp8610
Rp8611
sS'4ALL2AT'
p8612
g2
(g3
(S'S4'
p8613
I0
I1
tp8614
Rp8615
(I3
S'|'
p8616
NNNI4
I1
I0
tp8617
bS'DEGF'
p8618
tp8619
Rp8620
sS'PLAED2FT'
p8621
g2
(g3
(S'S4'
p8622
I0
I1
tp8623
Rp8624
(I3
S'|'
p8625
NNNI4
I1
I0
tp8626
bS'DEGF'
p8627
tp8628
Rp8629
sS'OOBTHR22_WIDE'
p8630
g2
(g3
(S'S4'
p8631
I0
I1
tp8632
Rp8633
(I3
S'|'
p8634
NNNI4
I1
I0
tp8635
bS'DEGF'
p8636
tp8637
Rp8638
sS'TAPEA2T'
p8639
g2
(g3
(S'S4'
p8640
I0
I1
tp8641
Rp8642
(I3
S'|'
p8643
NNNI4
I1
I0
tp8644
bS'DEGF'
p8645
tp8646
Rp8647
sS'AORWCMD4'
p8648
g2
(g3
(S'S4'
p8649
I0
I1
tp8650
Rp8651
(I3
S'|'
p8652
NNNI4
I1
I0
tp8653
bS'FTLB'
p8654
tp8655
Rp8656
sS'2PMT2T'
p8657
g2
(g3
(S'S4'
p8658
I0
I1
tp8659
Rp8660
(I3
S'|'
p8661
NNNI4
I1
I0
tp8662
bS'DEGC'
p8663
tp8664
Rp8665
sS'EIACVAV'
p8666
g2
(g3
(S'S1'
p8667
I0
I1
tp8668
Rp8669
(I3
S'|'
p8670
NNNI1
I1
I0
tp8671
bg200
tp8672
Rp8673
sS'EB3V'
p8674
g2
(g3
(S'S1'
p8675
I0
I1
tp8676
Rp8677
(I3
S'|'
p8678
NNNI1
I1
I0
tp8679
bg200
tp8680
Rp8681
sS'6CSSI4'
p8682
g2
(g3
(S'S4'
p8683
I0
I1
tp8684
Rp8685
(I3
S'|'
p8686
NNNI4
I1
I0
tp8687
bS'MAMP'
p8688
tp8689
Rp8690
sS'PLAED1HT'
p8691
g2
(g3
(S'S4'
p8692
I0
I1
tp8693
Rp8694
(I3
S'|'
p8695
NNNI4
I1
I0
tp8696
bS'DEGF'
p8697
tp8698
Rp8699
sS'6CSSI2'
p8700
g2
(g3
(S'S4'
p8701
I0
I1
tp8702
Rp8703
(I3
S'|'
p8704
NNNI4
I1
I0
tp8705
bS'MAMP'
p8706
tp8707
Rp8708
sS'HKN6I'
p8709
S'mA'
p8710
sS'3TTVALVT'
p8711
g2
(g3
(S'S4'
p8712
I0
I1
tp8713
Rp8714
(I3
S'|'
p8715
NNNI4
I1
I0
tp8716
bS'DEGC'
p8717
tp8718
Rp8719
sS'6CSSI1'
p8720
g2
(g3
(S'S4'
p8721
I0
I1
tp8722
Rp8723
(I3
S'|'
p8724
NNNI4
I1
I0
tp8725
bS'MAMP'
p8726
tp8727
Rp8728
sS'CUSOAIT'
p8729
g2
(g3
(S'S4'
p8730
I0
I1
tp8731
Rp8732
(I3
S'|'
p8733
NNNI4
I1
I0
tp8734
bS'DEGF'
p8735
tp8736
Rp8737
sS'4HPOSARO'
p8738
g2
(g3
(S'S3'
p8739
I0
I1
tp8740
Rp8741
(I3
S'|'
p8742
NNNI3
I1
I0
tp8743
bS'DEG'
p8744
tp8745
Rp8746
sS'OHRMGRD6'
p8747
g2
(g3
(S'S4'
p8748
I0
I1
tp8749
Rp8750
(I3
S'|'
p8751
NNNI4
I1
I0
tp8752
bS'DEGF'
p8753
tp8754
Rp8755
sS'OHRMGRD3'
p8756
g2
(g3
(S'S4'
p8757
I0
I1
tp8758
Rp8759
(I3
S'|'
p8760
NNNI4
I1
I0
tp8761
bS'DEGF'
p8762
tp8763
Rp8764
sS'OHRTHR35_WIDE'
p8765
g2
(g3
(S'S4'
p8766
I0
I1
tp8767
Rp8768
(I3
S'|'
p8769
NNNI4
I1
I0
tp8770
bS'DEGF'
p8771
tp8772
Rp8773
sS'EOEB3V'
p8774
g2
(g3
(S'S1'
p8775
I0
I1
tp8776
Rp8777
(I3
S'|'
p8778
NNNI1
I1
I0
tp8779
bg200
tp8780
Rp8781
sS'OHRTHR37_WIDE'
p8782
g2
(g3
(S'S4'
p8783
I0
I1
tp8784
Rp8785
(I3
S'|'
p8786
NNNI4
I1
I0
tp8787
bS'DEGF'
p8788
tp8789
Rp8790
sS'CIUA15V'
p8791
g2
(g3
(S'S1'
p8792
I0
I1
tp8793
Rp8794
(I3
S'|'
p8795
NNNI1
I1
I0
tp8796
bg200
tp8797
Rp8798
sS'TRSPOTEP'
p8799
g2
(g3
(S'S4'
p8800
I0
I1
tp8801
Rp8802
(I3
S'|'
p8803
NNNI4
I1
I0
tp8804
bS'DEGF'
p8805
tp8806
Rp8807
sS'TRSPOTEX'
p8808
g2
(g3
(S'S4'
p8809
I0
I1
tp8810
Rp8811
(I3
S'|'
p8812
NNNI4
I1
I0
tp8813
bS'DEGF'
p8814
tp8815
Rp8816
sS'TFUTSUPN'
p8817
g2
(g3
(S'S4'
p8818
I0
I1
tp8819
Rp8820
(I3
S'|'
p8821
NNNI4
I1
I0
tp8822
bS'DEGF'
p8823
tp8824
Rp8825
sS'OHRTHR14_WIDE'
p8826
g2
(g3
(S'S4'
p8827
I0
I1
tp8828
Rp8829
(I3
S'|'
p8830
NNNI4
I1
I0
tp8831
bS'DEGF'
p8832
tp8833
Rp8834
sS'1CRAT'
p8835
g2
(g3
(S'S4'
p8836
I0
I1
tp8837
Rp8838
(I3
S'|'
p8839
NNNI4
I1
I0
tp8840
bS'DEGC'
p8841
tp8842
Rp8843
sS'AOCMDAC1'
p8844
g2
(g3
(S'S5'
p8845
I0
I1
tp8846
Rp8847
(I3
S'|'
p8848
NNNI5
I1
I0
tp8849
bS'RADSS'
p8850
tp8851
Rp8852
sS'ANGLEEPHEM_POINT_RAMVECTORANG'
p8853
S'deg'
p8854
sS'TMP_FEP0_PCB'
p8855
g1149
sS'DEA24VOLTA'
p8856
S'V'
p8857
sS'AOCMDAC2'
p8858
g2
(g3
(S'S5'
p8859
I0
I1
tp8860
Rp8861
(I3
S'|'
p8862
NNNI5
I1
I0
tp8863
bS'RADSS'
p8864
tp8865
Rp8866
sS'PLAED1CT'
p8867
g2
(g3
(S'S4'
p8868
I0
I1
tp8869
Rp8870
(I3
S'|'
p8871
NNNI4
I1
I0
tp8872
bS'DEGF'
p8873
tp8874
Rp8875
sS'DEA24VOLTB'
p8876
S'V'
p8877
sS'OHRTHR24'
p8878
g2
(g3
(S'S4'
p8879
I0
I1
tp8880
Rp8881
(I3
S'|'
p8882
NNNI4
I1
I0
tp8883
bS'DEGF'
p8884
tp8885
Rp8886
sS'PLAEV4BT'
p8887
g2
(g3
(S'S4'
p8888
I0
I1
tp8889
Rp8890
(I3
S'|'
p8891
NNNI4
I1
I0
tp8892
bS'DEGF'
p8893
tp8894
Rp8895
sS'OOBTHR08'
p8896
g2
(g3
(S'S4'
p8897
I0
I1
tp8898
Rp8899
(I3
S'|'
p8900
NNNI4
I1
I0
tp8901
bS'DEGF'
p8902
tp8903
Rp8904
sS'OOBTHR09'
p8905
g2
(g3
(S'S4'
p8906
I0
I1
tp8907
Rp8908
(I3
S'|'
p8909
NNNI4
I1
I0
tp8910
bS'DEGF'
p8911
tp8912
Rp8913
sS'ARWA2BT'
p8914
g2
(g3
(S'S4'
p8915
I0
I1
tp8916
Rp8917
(I3
S'|'
p8918
NNNI4
I1
I0
tp8919
bS'DEGF'
p8920
tp8921
Rp8922
sS'CSITA5V'
p8923
g2
(g3
(S'S1'
p8924
I0
I1
tp8925
Rp8926
(I3
S'|'
p8927
NNNI1
I1
I0
tp8928
bg200
tp8929
Rp8930
sS'OOBTHR03'
p8931
g2
(g3
(S'S4'
p8932
I0
I1
tp8933
Rp8934
(I3
S'|'
p8935
NNNI4
I1
I0
tp8936
bS'DEGF'
p8937
tp8938
Rp8939
sS'TCYLAFT3'
p8940
g2
(g3
(S'S4'
p8941
I0
I1
tp8942
Rp8943
(I3
S'|'
p8944
NNNI4
I1
I0
tp8945
bS'DEGF'
p8946
tp8947
Rp8948
sS'TCYLAFT2'
p8949
g2
(g3
(S'S4'
p8950
I0
I1
tp8951
Rp8952
(I3
S'|'
p8953
NNNI4
I1
I0
tp8954
bS'DEGF'
p8955
tp8956
Rp8957
sS'OOBTHR06'
p8958
g2
(g3
(S'S4'
p8959
I0
I1
tp8960
Rp8961
(I3
S'|'
p8962
NNNI4
I1
I0
tp8963
bS'DEGF'
p8964
tp8965
Rp8966
sS'OOBTHR07'
p8967
g2
(g3
(S'S4'
p8968
I0
I1
tp8969
Rp8970
(I3
S'|'
p8971
NNNI4
I1
I0
tp8972
bS'DEGF'
p8973
tp8974
Rp8975
sS'OHRTHR24_WIDE'
p8976
g2
(g3
(S'S4'
p8977
I0
I1
tp8978
Rp8979
(I3
S'|'
p8980
NNNI4
I1
I0
tp8981
bS'DEGF'
p8982
tp8983
Rp8984
sS'OOBTHR05'
p8985
g2
(g3
(S'S4'
p8986
I0
I1
tp8987
Rp8988
(I3
S'|'
p8989
NNNI4
I1
I0
tp8990
bS'DEGF'
p8991
tp8992
Rp8993
sS'OHRTHR10_WIDE'
p8994
g2
(g3
(S'S4'
p8995
I0
I1
tp8996
Rp8997
(I3
S'|'
p8998
NNNI4
I1
I0
tp8999
bS'DEGF'
p9000
tp9001
Rp9002
sS'AOACYAN4'
p9003
g2
(g3
(S'S4'
p9004
I0
I1
tp9005
Rp9006
(I3
S'|'
p9007
NNNI4
I1
I0
tp9008
bS'ASEC'
p9009
tp9010
Rp9011
sS'AOACYAN5'
p9012
g2
(g3
(S'S4'
p9013
I0
I1
tp9014
Rp9015
(I3
S'|'
p9016
NNNI4
I1
I0
tp9017
bS'ASEC'
p9018
tp9019
Rp9020
sS'AOACYAN6'
p9021
g2
(g3
(S'S4'
p9022
I0
I1
tp9023
Rp9024
(I3
S'|'
p9025
NNNI4
I1
I0
tp9026
bS'ASEC'
p9027
tp9028
Rp9029
sS'AORTERR2'
p9030
g2
(g3
(S'S5'
p9031
I0
I1
tp9032
Rp9033
(I3
S'|'
p9034
NNNI5
I1
I0
tp9035
bS'RADPS'
p9036
tp9037
Rp9038
sS'AOACYAN0'
p9039
g2
(g3
(S'S4'
p9040
I0
I1
tp9041
Rp9042
(I3
S'|'
p9043
NNNI4
I1
I0
tp9044
bS'ASEC'
p9045
tp9046
Rp9047
sS'1MAHCBT'
p9048
g2
(g3
(S'S4'
p9049
I0
I1
tp9050
Rp9051
(I3
S'|'
p9052
NNNI4
I1
I0
tp9053
bS'DEGC'
p9054
tp9055
Rp9056
sS'AOACYAN2'
p9057
g2
(g3
(S'S4'
p9058
I0
I1
tp9059
Rp9060
(I3
S'|'
p9061
NNNI4
I1
I0
tp9062
bS'ASEC'
p9063
tp9064
Rp9065
sS'AOACYAN3'
p9066
g2
(g3
(S'S4'
p9067
I0
I1
tp9068
Rp9069
(I3
S'|'
p9070
NNNI4
I1
I0
tp9071
bS'ASEC'
p9072
tp9073
Rp9074
sS'OOBTHR62_WIDE'
p9075
g2
(g3
(S'S4'
p9076
I0
I1
tp9077
Rp9078
(I3
S'|'
p9079
NNNI4
I1
I0
tp9080
bS'DEGF'
p9081
tp9082
Rp9083
sS'3SFLXAST'
p9084
g2
(g3
(S'S4'
p9085
I0
I1
tp9086
Rp9087
(I3
S'|'
p9088
NNNI4
I1
I0
tp9089
bS'DEGC'
p9090
tp9091
Rp9092
sS'AORESY7'
p9093
g2
(g3
(S'S3'
p9094
I0
I1
tp9095
Rp9096
(I3
S'|'
p9097
NNNI3
I1
I0
tp9098
bS'RAD'
p9099
tp9100
Rp9101
sS'AORESY4'
p9102
g2
(g3
(S'S3'
p9103
I0
I1
tp9104
Rp9105
(I3
S'|'
p9106
NNNI3
I1
I0
tp9107
bS'RAD'
p9108
tp9109
Rp9110
sS'6RWNLTQ3'
p9111
g2
(g3
(S'S4'
p9112
I0
I1
tp9113
Rp9114
(I3
S'|'
p9115
NNNI4
I1
I0
tp9116
bS'FTLB'
p9117
tp9118
Rp9119
sS'6RWNLTQ4'
p9120
g2
(g3
(S'S4'
p9121
I0
I1
tp9122
Rp9123
(I3
S'|'
p9124
NNNI4
I1
I0
tp9125
bS'FTLB'
p9126
tp9127
Rp9128
sS'4RT563T'
p9129
g2
(g3
(S'S4'
p9130
I0
I1
tp9131
Rp9132
(I3
S'|'
p9133
NNNI4
I1
I0
tp9134
bS'DEGF'
p9135
tp9136
Rp9137
sS'AORESY0'
p9138
g2
(g3
(S'S3'
p9139
I0
I1
tp9140
Rp9141
(I3
S'|'
p9142
NNNI3
I1
I0
tp9143
bS'RAD'
p9144
tp9145
Rp9146
sS'CSITB15V'
p9147
g2
(g3
(S'S1'
p9148
I0
I1
tp9149
Rp9150
(I3
S'|'
p9151
NNNI1
I1
I0
tp9152
bg200
tp9153
Rp9154
sS'1DAHBVO'
p9155
g2
(g3
(S'S1'
p9156
I0
I1
tp9157
Rp9158
(I3
S'|'
p9159
NNNI1
I1
I0
tp9160
bg200
tp9161
Rp9162
sS'PLAED1ET'
p9163
g2
(g3
(S'S4'
p9164
I0
I1
tp9165
Rp9166
(I3
S'|'
p9167
NNNI4
I1
I0
tp9168
bS'DEGF'
p9169
tp9170
Rp9171
sS'POLAEV4AT'
p9172
g2
(g3
(S'S4'
p9173
I0
I1
tp9174
Rp9175
(I3
S'|'
p9176
NNNI4
I1
I0
tp9177
bS'DEGF'
p9178
tp9179
Rp9180
sS'4RT707T'
p9181
g2
(g3
(S'S4'
p9182
I0
I1
tp9183
Rp9184
(I3
S'|'
p9185
NNNI4
I1
I0
tp9186
bS'DEGF'
p9187
tp9188
Rp9189
sS'PLAED3AT'
p9190
g2
(g3
(S'S4'
p9191
I0
I1
tp9192
Rp9193
(I3
S'|'
p9194
NNNI4
I1
I0
tp9195
bS'DEGF'
p9196
tp9197
Rp9198
sS'TAPE2PST'
p9199
g2
(g3
(S'S4'
p9200
I0
I1
tp9201
Rp9202
(I3
S'|'
p9203
NNNI4
I1
I0
tp9204
bS'DEGF'
p9205
tp9206
Rp9207
sS'4PRT4BT'
p9208
g2
(g3
(S'S4'
p9209
I0
I1
tp9210
Rp9211
(I3
S'|'
p9212
NNNI4
I1
I0
tp9213
bS'DEGF'
p9214
tp9215
Rp9216
sS'1DAHHAVO'
p9217
g2
(g3
(S'S1'
p9218
I0
I1
tp9219
Rp9220
(I3
S'|'
p9221
NNNI1
I1
I0
tp9222
bg200
tp9223
Rp9224
sS'3SDTSMT'
p9225
g1149
sS'OOBTHR05_WIDE'
p9226
g2
(g3
(S'S4'
p9227
I0
I1
tp9228
Rp9229
(I3
S'|'
p9230
NNNI4
I1
I0
tp9231
bS'DEGF'
p9232
tp9233
Rp9234
sS'TPC_DEA'
p9235
g2
(g3
(S'S4'
p9236
I0
I1
tp9237
Rp9238
(I3
S'|'
p9239
NNNI4
I1
I0
tp9240
bS'DEGF'
p9241
tp9242
Rp9243
sS'PXTANKIP'
p9244
g2
(g3
(S'S4'
p9245
I0
I1
tp9246
Rp9247
(I3
S'|'
p9248
NNNI4
I1
I0
tp9249
bS'PSIA'
p9250
tp9251
Rp9252
sS'3TSCPOS'
p9253
g4525
sS'PXDM01T'
p9254
g2
(g3
(S'S4'
p9255
I0
I1
tp9256
Rp9257
(I3
S'|'
p9258
NNNI4
I1
I0
tp9259
bS'DEGF'
p9260
tp9261
Rp9262
sS'2CHTRPZT'
p9263
g2
(g3
(S'S4'
p9264
I0
I1
tp9265
Rp9266
(I3
S'|'
p9267
NNNI4
I1
I0
tp9268
bS'DEGC'
p9269
tp9270
Rp9271
sS'OHRTHR46_WIDE'
p9272
g2
(g3
(S'S4'
p9273
I0
I1
tp9274
Rp9275
(I3
S'|'
p9276
NNNI4
I1
I0
tp9277
bS'DEGF'
p9278
tp9279
Rp9280
sS'PLINE13T'
p9281
g2
(g3
(S'S4'
p9282
I0
I1
tp9283
Rp9284
(I3
S'|'
p9285
NNNI4
I1
I0
tp9286
bS'DEGF'
p9287
tp9288
Rp9289
sS'AVACMON'
p9290
g2
(g3
(S'S4'
p9291
I0
I1
tp9292
Rp9293
(I3
S'|'
p9294
NNNI4
I1
I0
tp9295
bS'DEGC'
p9296
tp9297
Rp9298
sS'TMZLGABM'
p9299
g2
(g3
(S'S4'
p9300
I0
I1
tp9301
Rp9302
(I3
S'|'
p9303
NNNI4
I1
I0
tp9304
bS'DEGF'
p9305
tp9306
Rp9307
sS'2P24VAVL'
p9308
g2
(g3
(S'S3'
p9309
I0
I1
tp9310
Rp9311
(I3
S'|'
p9312
NNNI3
I1
I0
tp9313
bS'VDC'
p9314
tp9315
Rp9316
sS'AOADACH1A_NBG'
p9317
g2
(g3
(S'S3'
p9318
I0
I1
tp9319
Rp9320
(I3
S'|'
p9321
NNNI3
I1
I0
tp9322
bS'DEG'
p9323
tp9324
Rp9325
sS'EEPA5V'
p9326
g2
(g3
(S'S1'
p9327
I0
I1
tp9328
Rp9329
(I3
S'|'
p9330
NNNI1
I1
I0
tp9331
bg200
tp9332
Rp9333
sS'PLAEV1AT'
p9334
g2
(g3
(S'S4'
p9335
I0
I1
tp9336
Rp9337
(I3
S'|'
p9338
NNNI4
I1
I0
tp9339
bS'DEGF'
p9340
tp9341
Rp9342
sS'GND_1'
p9343
S'V'
p9344
sS'GND_2'
p9345
S'V'
p9346
sS'1WRBT'
p9347
g2
(g3
(S'S4'
p9348
I0
I1
tp9349
Rp9350
(I3
S'|'
p9351
NNNI4
I1
I0
tp9352
bS'DEGC'
p9353
tp9354
Rp9355
sS'AOADBCH1A_NBG'
p9356
g2
(g3
(S'S3'
p9357
I0
I1
tp9358
Rp9359
(I3
S'|'
p9360
NNNI3
I1
I0
tp9361
bS'DEG'
p9362
tp9363
Rp9364
sS'CTSA5V'
p9365
g2
(g3
(S'S1'
p9366
I0
I1
tp9367
Rp9368
(I3
S'|'
p9369
NNNI1
I1
I0
tp9370
bg200
tp9371
Rp9372
sS'3SFLXBST'
p9373
g2
(g3
(S'S4'
p9374
I0
I1
tp9375
Rp9376
(I3
S'|'
p9377
NNNI4
I1
I0
tp9378
bS'DEGC'
p9379
tp9380
Rp9381
sS'1CBBT'
p9382
g2
(g3
(S'S4'
p9383
I0
I1
tp9384
Rp9385
(I3
S'|'
p9386
NNNI4
I1
I0
tp9387
bS'DEGC'
p9388
tp9389
Rp9390
sS'3SDAGV'
p9391
S'V'
p9392
sS'TMP_FEP0_ACTEL'
p9393
g1149
sS'AOSARES2'
p9394
g2
(g3
(S'S3'
p9395
I0
I1
tp9396
Rp9397
(I3
S'|'
p9398
NNNI3
I1
I0
tp9399
bS'DEG'
p9400
tp9401
Rp9402
sS'DEAP15VOLTA'
p9403
S'V'
p9404
sS'DEAP15VOLTB'
p9405
S'V'
p9406
sS'AOSARES1'
p9407
g2
(g3
(S'S3'
p9408
I0
I1
tp9409
Rp9410
(I3
S'|'
p9411
NNNI3
I1
I0
tp9412
bS'DEG'
p9413
tp9414
Rp9415
sS'4RT591T'
p9416
g2
(g3
(S'S4'
p9417
I0
I1
tp9418
Rp9419
(I3
S'|'
p9420
NNNI4
I1
I0
tp9421
bS'DEGF'
p9422
tp9423
Rp9424
sS'ANGLEEPHEM_POINT_MOONCENTANG'
p9425
S'deg'
p9426
sS'TMZP_MY'
p9427
g2
(g3
(S'S4'
p9428
I0
I1
tp9429
Rp9430
(I3
S'|'
p9431
NNNI4
I1
I0
tp9432
bS'DEGF'
p9433
tp9434
Rp9435
sS'CTSB15V'
p9436
g2
(g3
(S'S1'
p9437
I0
I1
tp9438
Rp9439
(I3
S'|'
p9440
NNNI1
I1
I0
tp9441
bg200
tp9442
Rp9443
sS'PXDM02T'
p9444
g2
(g3
(S'S4'
p9445
I0
I1
tp9446
Rp9447
(I3
S'|'
p9448
NNNI4
I1
I0
tp9449
bS'DEGF'
p9450
tp9451
Rp9452
sS'PLAEV3BT'
p9453
g2
(g3
(S'S4'
p9454
I0
I1
tp9455
Rp9456
(I3
S'|'
p9457
NNNI4
I1
I0
tp9458
bS'DEGF'
p9459
tp9460
Rp9461
sS'1DEICBCU'
p9462
g2
(g3
(S'S3'
p9463
I0
I1
tp9464
Rp9465
(I3
S'|'
p9466
NNNI3
I1
I0
tp9467
bS'AMP'
p9468
tp9469
Rp9470
sS'AIRU2VFT'
p9471
g2
(g3
(S'S4'
p9472
I0
I1
tp9473
Rp9474
(I3
S'|'
p9475
NNNI4
I1
I0
tp9476
bS'DEGF'
p9477
tp9478
Rp9479
sS'EOESAT1C'
p9480
g2
(g3
(S'S4'
p9481
I0
I1
tp9482
Rp9483
(I3
S'|'
p9484
NNNI4
I1
I0
tp9485
bS'DEGF'
p9486
tp9487
Rp9488
sS'TASPPCP'
p9489
g2
(g3
(S'S4'
p9490
I0
I1
tp9491
Rp9492
(I3
S'|'
p9493
NNNI4
I1
I0
tp9494
bS'DEGF'
p9495
tp9496
Rp9497
sS'AOADBCH2A_NBG'
p9498
g2
(g3
(S'S3'
p9499
I0
I1
tp9500
Rp9501
(I3
S'|'
p9502
NNNI3
I1
I0
tp9503
bS'DEG'
p9504
tp9505
Rp9506
sS'OHRTHR12_WIDE'
p9507
g2
(g3
(S'S4'
p9508
I0
I1
tp9509
Rp9510
(I3
S'|'
p9511
NNNI4
I1
I0
tp9512
bS'DEGF'
p9513
tp9514
Rp9515
sS'3TSPZDET'
p9516
g2
(g3
(S'S4'
p9517
I0
I1
tp9518
Rp9519
(I3
S'|'
p9520
NNNI4
I1
I0
tp9521
bS'DEGC'
p9522
tp9523
Rp9524
sS'PLAED4DT'
p9525
g2
(g3
(S'S4'
p9526
I0
I1
tp9527
Rp9528
(I3
S'|'
p9529
NNNI4
I1
I0
tp9530
bS'DEGF'
p9531
tp9532
Rp9533
sS'OOBTHR49_WIDE'
p9534
g2
(g3
(S'S4'
p9535
I0
I1
tp9536
Rp9537
(I3
S'|'
p9538
NNNI4
I1
I0
tp9539
bS'DEGF'
p9540
tp9541
Rp9542
sS'POLINE01T'
p9543
g2
(g3
(S'S4'
p9544
I0
I1
tp9545
Rp9546
(I3
S'|'
p9547
NNNI4
I1
I0
tp9548
bS'DEGF'
p9549
tp9550
Rp9551
sS'CIUA5V'
p9552
g2
(g3
(S'S1'
p9553
I0
I1
tp9554
Rp9555
(I3
S'|'
p9556
NNNI1
I1
I0
tp9557
bg200
tp9558
Rp9559
sS'AFLC14AI'
p9560
g2
(g3
(S'S4'
p9561
I0
I1
tp9562
Rp9563
(I3
S'|'
p9564
NNNI4
I1
I0
tp9565
bS'MAMP'
p9566
tp9567
Rp9568
sS'3FAPSAT'
p9569
g2
(g3
(S'S4'
p9570
I0
I1
tp9571
Rp9572
(I3
S'|'
p9573
NNNI4
I1
I0
tp9574
bS'DEGC'
p9575
tp9576
Rp9577
sS'OHRTHR45_WIDE'
p9578
g2
(g3
(S'S4'
p9579
I0
I1
tp9580
Rp9581
(I3
S'|'
p9582
NNNI4
I1
I0
tp9583
bS'DEGF'
p9584
tp9585
Rp9586
sS'PCM04T'
p9587
g2
(g3
(S'S4'
p9588
I0
I1
tp9589
Rp9590
(I3
S'|'
p9591
NNNI4
I1
I0
tp9592
bS'DEGF'
p9593
tp9594
Rp9595
sS'AORWNTQ4'
p9596
g2
(g3
(S'S4'
p9597
I0
I1
tp9598
Rp9599
(I3
S'|'
p9600
NNNI4
I1
I0
tp9601
bS'FTLB'
p9602
tp9603
Rp9604
sS'AORWNTQ5'
p9605
g2
(g3
(S'S4'
p9606
I0
I1
tp9607
Rp9608
(I3
S'|'
p9609
NNNI4
I1
I0
tp9610
bS'FTLB'
p9611
tp9612
Rp9613
sS'AORWNTQ6'
p9614
g2
(g3
(S'S4'
p9615
I0
I1
tp9616
Rp9617
(I3
S'|'
p9618
NNNI4
I1
I0
tp9619
bS'FTLB'
p9620
tp9621
Rp9622
sS'AORWMC6_1'
p9623
g2
(g3
(S'S7'
p9624
I0
I1
tp9625
Rp9626
(I3
S'|'
p9627
NNNI7
I1
I0
tp9628
bS'FTLBSEC'
p9629
tp9630
Rp9631
sS'EOECNV2C'
p9632
g2
(g3
(S'S1'
p9633
I0
I1
tp9634
Rp9635
(I3
S'|'
p9636
NNNI1
I1
I0
tp9637
bg200
tp9638
Rp9639
sS'AORWNTQ2'
p9640
g2
(g3
(S'S4'
p9641
I0
I1
tp9642
Rp9643
(I3
S'|'
p9644
NNNI4
I1
I0
tp9645
bS'FTLB'
p9646
tp9647
Rp9648
sS'CPA2V'
p9649
g2
(g3
(S'S1'
p9650
I0
I1
tp9651
Rp9652
(I3
S'|'
p9653
NNNI1
I1
I0
tp9654
bg200
tp9655
Rp9656
sS'ASPEFSW4B'
p9657
g2
(g3
(S'S3'
p9658
I0
I1
tp9659
Rp9660
(I3
S'|'
p9661
NNNI3
I1
I0
tp9662
bS'DEG'
p9663
tp9664
Rp9665
sS'TFSPRWC'
p9666
g2
(g3
(S'S4'
p9667
I0
I1
tp9668
Rp9669
(I3
S'|'
p9670
NNNI4
I1
I0
tp9671
bS'DEGF'
p9672
tp9673
Rp9674
sS'TCM_OBC'
p9675
g2
(g3
(S'S4'
p9676
I0
I1
tp9677
Rp9678
(I3
S'|'
p9679
NNNI4
I1
I0
tp9680
bS'DEGF'
p9681
tp9682
Rp9683
sS'AORWMC1'
p9684
g2
(g3
(S'S7'
p9685
I0
I1
tp9686
Rp9687
(I3
S'|'
p9688
NNNI7
I1
I0
tp9689
bS'FTLBSEC'
p9690
tp9691
Rp9692
sS'AORWMC4'
p9693
g2
(g3
(S'S7'
p9694
I0
I1
tp9695
Rp9696
(I3
S'|'
p9697
NNNI7
I1
I0
tp9698
bS'FTLBSEC'
p9699
tp9700
Rp9701
sS'AORWMC5'
p9702
g2
(g3
(S'S7'
p9703
I0
I1
tp9704
Rp9705
(I3
S'|'
p9706
NNNI7
I1
I0
tp9707
bS'FTLBSEC'
p9708
tp9709
Rp9710
sS'6ALPANG'
p9711
g2
(g3
(S'S3'
p9712
I0
I1
tp9713
Rp9714
(I3
S'|'
p9715
NNNI3
I1
I0
tp9716
bS'DEG'
p9717
tp9718
Rp9719
sS'TB1T2'
p9720
g2
(g3
(S'S4'
p9721
I0
I1
tp9722
Rp9723
(I3
S'|'
p9724
NNNI4
I1
I0
tp9725
bS'DEGF'
p9726
tp9727
Rp9728
sS'PLINE01T'
p9729
g2
(g3
(S'S4'
p9730
I0
I1
tp9731
Rp9732
(I3
S'|'
p9733
NNNI4
I1
I0
tp9734
bS'DEGF'
p9735
tp9736
Rp9737
sS'OHRTHR57_WIDE'
p9738
g2
(g3
(S'S4'
p9739
I0
I1
tp9740
Rp9741
(I3
S'|'
p9742
NNNI4
I1
I0
tp9743
bS'DEGF'
p9744
tp9745
Rp9746
sS'PLAED2GT'
p9747
g2
(g3
(S'S4'
p9748
I0
I1
tp9749
Rp9750
(I3
S'|'
p9751
NNNI4
I1
I0
tp9752
bS'DEGF'
p9753
tp9754
Rp9755
sS'1SSMYT'
p9756
g2
(g3
(S'S4'
p9757
I0
I1
tp9758
Rp9759
(I3
S'|'
p9760
NNNI4
I1
I0
tp9761
bS'DEGC'
p9762
tp9763
Rp9764
sS'4RT575T'
p9765
g2
(g3
(S'S4'
p9766
I0
I1
tp9767
Rp9768
(I3
S'|'
p9769
NNNI4
I1
I0
tp9770
bS'DEGF'
p9771
tp9772
Rp9773
sS'CPA1BPT'
p9774
g2
(g3
(S'S4'
p9775
I0
I1
tp9776
Rp9777
(I3
S'|'
p9778
NNNI4
I1
I0
tp9779
bS'DEGF'
p9780
tp9781
Rp9782
sS'PM4THV2T'
p9783
g2
(g3
(S'S4'
p9784
I0
I1
tp9785
Rp9786
(I3
S'|'
p9787
NNNI4
I1
I0
tp9788
bS'DEGF'
p9789
tp9790
Rp9791
sS'4VRMOAV'
p9792
g2
(g3
(S'S3'
p9793
I0
I1
tp9794
Rp9795
(I3
S'|'
p9796
NNNI3
I1
I0
tp9797
bS'VDC'
p9798
tp9799
Rp9800
sS'2PMT1T'
p9801
g2
(g3
(S'S4'
p9802
I0
I1
tp9803
Rp9804
(I3
S'|'
p9805
NNNI4
I1
I0
tp9806
bS'DEGC'
p9807
tp9808
Rp9809
sS'EB2V'
p9810
g2
(g3
(S'S1'
p9811
I0
I1
tp9812
Rp9813
(I3
S'|'
p9814
NNNI1
I1
I0
tp9815
bg200
tp9816
Rp9817
sS'EIACVBV'
p9818
g2
(g3
(S'S1'
p9819
I0
I1
tp9820
Rp9821
(I3
S'|'
p9822
NNNI1
I1
I0
tp9823
bg200
tp9824
Rp9825
sS'EORTDMN27D'
p9826
g2
(g3
(S'S4'
p9827
I0
I1
tp9828
Rp9829
(I3
S'|'
p9830
NNNI4
I1
I0
tp9831
bS'DEGF'
p9832
tp9833
Rp9834
sS'1DAHHBVO'
p9835
g2
(g3
(S'S1'
p9836
I0
I1
tp9837
Rp9838
(I3
S'|'
p9839
NNNI1
I1
I0
tp9840
bg200
tp9841
Rp9842
sS'1VAHOBT'
p9843
g2
(g3
(S'S4'
p9844
I0
I1
tp9845
Rp9846
(I3
S'|'
p9847
NNNI4
I1
I0
tp9848
bS'DEGC'
p9849
tp9850
Rp9851
sS'CRXBLS'
p9852
g2
(g3
(S'S3'
p9853
I0
I1
tp9854
Rp9855
(I3
S'|'
p9856
NNNI3
I1
I0
tp9857
bS'KHZ'
p9858
tp9859
Rp9860
sS'PMTANK1T'
p9861
g2
(g3
(S'S4'
p9862
I0
I1
tp9863
Rp9864
(I3
S'|'
p9865
NNNI4
I1
I0
tp9866
bS'DEGF'
p9867
tp9868
Rp9869
sS'OHRTHR49'
p9870
g2
(g3
(S'S4'
p9871
I0
I1
tp9872
Rp9873
(I3
S'|'
p9874
NNNI4
I1
I0
tp9875
bS'DEGF'
p9876
tp9877
Rp9878
sS'POLINE12T'
p9879
g2
(g3
(S'S4'
p9880
I0
I1
tp9881
Rp9882
(I3
S'|'
p9883
NNNI4
I1
I0
tp9884
bS'DEGF'
p9885
tp9886
Rp9887
sS'TASPPCM'
p9888
g2
(g3
(S'S4'
p9889
I0
I1
tp9890
Rp9891
(I3
S'|'
p9892
NNNI4
I1
I0
tp9893
bS'DEGF'
p9894
tp9895
Rp9896
sS'OHRTHR45'
p9897
g2
(g3
(S'S4'
p9898
I0
I1
tp9899
Rp9900
(I3
S'|'
p9901
NNNI4
I1
I0
tp9902
bS'DEGF'
p9903
tp9904
Rp9905
sS'OHRTHR44'
p9906
g2
(g3
(S'S4'
p9907
I0
I1
tp9908
Rp9909
(I3
S'|'
p9910
NNNI4
I1
I0
tp9911
bS'DEGF'
p9912
tp9913
Rp9914
sS'OHRTHR47'
p9915
g2
(g3
(S'S4'
p9916
I0
I1
tp9917
Rp9918
(I3
S'|'
p9919
NNNI4
I1
I0
tp9920
bS'DEGF'
p9921
tp9922
Rp9923
sS'OHRTHR46'
p9924
g2
(g3
(S'S4'
p9925
I0
I1
tp9926
Rp9927
(I3
S'|'
p9928
NNNI4
I1
I0
tp9929
bS'DEGF'
p9930
tp9931
Rp9932
sS'OHRTHR41'
p9933
g2
(g3
(S'S4'
p9934
I0
I1
tp9935
Rp9936
(I3
S'|'
p9937
NNNI4
I1
I0
tp9938
bS'DEGF'
p9939
tp9940
Rp9941
sS'OHRTHR40'
p9942
g2
(g3
(S'S4'
p9943
I0
I1
tp9944
Rp9945
(I3
S'|'
p9946
NNNI4
I1
I0
tp9947
bS'DEGF'
p9948
tp9949
Rp9950
sS'OHRTHR43'
p9951
g2
(g3
(S'S4'
p9952
I0
I1
tp9953
Rp9954
(I3
S'|'
p9955
NNNI4
I1
I0
tp9956
bS'DEGF'
p9957
tp9958
Rp9959
sS'OHRTHR42'
p9960
g2
(g3
(S'S4'
p9961
I0
I1
tp9962
Rp9963
(I3
S'|'
p9964
NNNI4
I1
I0
tp9965
bS'DEGF'
p9966
tp9967
Rp9968
sS'AWD2TQI'
p9969
g2
(g3
(S'S3'
p9970
I0
I1
tp9971
Rp9972
(I3
S'|'
p9973
NNNI3
I1
I0
tp9974
bS'AMP'
p9975
tp9976
Rp9977
sS'PCM03T'
p9978
g2
(g3
(S'S4'
p9979
I0
I1
tp9980
Rp9981
(I3
S'|'
p9982
NNNI4
I1
I0
tp9983
bS'DEGF'
p9984
tp9985
Rp9986
sS'EOEB1DIC'
p9987
g2
(g3
(S'S3'
p9988
I0
I1
tp9989
Rp9990
(I3
S'|'
p9991
NNNI3
I1
I0
tp9992
bS'AMP'
p9993
tp9994
Rp9995
sS'TASPPCU'
p9996
g2
(g3
(S'S4'
p9997
I0
I1
tp9998
Rp9999
(I3
S'|'
p10000
NNNI4
I1
I0
tp10001
bS'DEGF'
p10002
tp10003
Rp10004
sS'POM2THV1T'
p10005
g2
(g3
(S'S4'
p10006
I0
I1
tp10007
Rp10008
(I3
S'|'
p10009
NNNI4
I1
I0
tp10010
bS'DEGF'
p10011
tp10012
Rp10013
sS'64RCSTMR'
p10014
g2
(g3
(S'S3'
p10015
I0
I1
tp10016
Rp10017
(I3
S'|'
p10018
NNNI3
I1
I0
tp10019
bS'MIN'
p10020
tp10021
Rp10022
sS'TEP_EIA'
p10023
g2
(g3
(S'S4'
p10024
I0
I1
tp10025
Rp10026
(I3
S'|'
p10027
NNNI4
I1
I0
tp10028
bS'DEGF'
p10029
tp10030
Rp10031
sS'PLAED1FT'
p10032
g2
(g3
(S'S4'
p10033
I0
I1
tp10034
Rp10035
(I3
S'|'
p10036
NNNI4
I1
I0
tp10037
bS'DEGF'
p10038
tp10039
Rp10040
sS'OOBTHR30_WIDE'
p10041
g2
(g3
(S'S4'
p10042
I0
I1
tp10043
Rp10044
(I3
S'|'
p10045
NNNI4
I1
I0
tp10046
bS'DEGF'
p10047
tp10048
Rp10049
sS'AWD6TQI'
p10050
g2
(g3
(S'S3'
p10051
I0
I1
tp10052
Rp10053
(I3
S'|'
p10054
NNNI3
I1
I0
tp10055
bS'AMP'
p10056
tp10057
Rp10058
s.