(dp1
S'TCYLAFT1'
p2
S'K'
sS'AORWPI4B'
p3
S'ms'
p4
sS'1DEAMZT'
p5
S'K'
sS'4RT709T'
p6
S'K'
sS'PLINE16T'
p7
S'K'
sS'EORTDMN18D'
p8
S'K'
sS'AOSUNER2'
p9
S'rad'
p10
sS'LUNAREPHEM1_TIME'
p11
S's'
sS'TFSPPCM'
p12
S'K'
sS'EB1CI'
p13
S'A'
sS'OHRTHR38'
p14
S'K'
sS'OHRTHR39'
p15
S'K'
sS'TFSPPCP'
p16
S'K'
sS'ASPEFSW3B'
p17
S'deg'
p18
sS'CUSOAOVN'
p19
S'W'
sS'OOBTHR47'
p20
S'K'
sS'OHRTHR30'
p21
S'K'
sS'OHRTHR31'
p22
S'K'
sS'OHRTHR33'
p23
S'K'
sS'1DPP0BVO'
p24
S'V'
sS'OHRTHR35'
p25
S'K'
sS'POM1THV2T'
p26
S'K'
sS'OHRTHR37'
p27
S'K'
sS'EORTDMN11D'
p28
S'K'
sS'AFLC11BI'
p29
S'mA'
p30
sS'ANGLEEPHEM_SUN_EARTHCENTANG'
p31
S'deg'
p32
sS'AORWMC3_1'
p33
S'J*s'
p34
sS'TEPHIN'
p35
S'K'
sS'3TTHRC1T'
p36
S'K'
sS'ELBI_LOW'
p37
S'A'
sS'OHRTHR08_WIDE'
p38
S'K'
sS'PLAED4FT'
p39
S'K'
sS'4RT562T'
p40
S'K'
sS'AFLCA2BI'
p41
S'mA'
p42
sS'4RT710T'
p43
S'K'
sS'ASPEB5CV'
p44
S'V'
sS'TMP_FEP0_RAM'
p45
S'K'
sS'TPC_PAN'
p46
S'K'
sS'AOZABR'
p47
S'rad'
p48
sS'AORESZ5_1'
p49
S'rad'
p50
sS'1DEP1BVO'
p51
S'V'
sS'AORTERR3'
p52
S'rad/s'
p53
sS'TB2T2'
p54
S'K'
sS'PLINE06T'
p55
S'K'
sS'ANGLEEPHEM_SUN_EARTHLIMBANG'
p56
S'deg'
p57
sS'AORWPI3B'
p58
S'ms'
p59
sS'POR2TV02T'
p60
S'K'
sS'1DAHAVO'
p61
S'V'
sS'OOBTHR36_WIDE'
p62
S'K'
sS'AOSPACS3B'
p63
S'mA'
p64
sS'ORBITEPHEM0_VX'
p65
S'm/s'
p66
sS'PXTANK2T'
p67
S'K'
sS'OOBTHR24_WIDE'
p68
S'K'
sS'AI1AX1X'
p69
S'deg/s'
p70
sS'3TSMYDPT'
p71
S'K'
sS'ORBITEPHEM0_VY'
p72
S'm/s'
p73
sS'3TTACS1T'
p74
S'K'
sS'AIRU2G2T'
p75
S'K'
sS'ORBITEPHEM0_VZ'
p76
S'm/s'
p77
sS'OHRTHR41_WIDE'
p78
S'K'
sS'AORTERR2'
p79
S'rad/s'
p80
sS'CUSOA28V'
p81
S'V'
sS'PLAED2AT'
p82
S'K'
sS'OHRTHR31_WIDE'
p83
S'K'
sS'AVACMON'
p84
S'K'
sS'4RT556T'
p85
S'K'
sS'OOBTHR33'
p86
S'K'
sS'3TRMTRAT'
p87
S'K'
sS'OHRTHR25_WIDE'
p88
S'K'
sS'ES1P5CV'
p89
S'V'
sS'EOESAC1C'
p90
S'A'
sS'OOBTHR18'
p91
S'K'
sS'OHRTHR05_WIDE'
p92
S'K'
sS'POR1TV01T'
p93
S'K'
sS'OOBTHR14'
p94
S'K'
sS'OOBTHR17'
p95
S'K'
sS'OOBTHR30'
p96
S'K'
sS'OOBTHR11'
p97
S'K'
sS'OOBTHR10'
p98
S'K'
sS'ECNV2V'
p99
S'V'
sS'OOBTHR12'
p100
S'K'
sS'4HLL2BT'
p101
S'K'
sS'EOEB1CIC'
p102
S'A'
sS'TB3T1'
p103
S'K'
sS'OOBTHR10_WIDE'
p104
S'K'
sS'4HLL1AT'
p105
S'K'
sS'AACCCDRT'
p106
S'K'
sS'ESAMYI'
p107
S'A'
sS'4RT581T'
p108
S'K'
sS'TMYSADA'
p109
S'K'
sS'OHRTHR43_WIDE'
p110
S'K'
sS'1HOPRAPR'
p111
S'kPa'
p112
sS'OHRTHR34'
p113
S'K'
sS'AFLCA5AI'
p114
S'mA'
p115
sS'HKP6I'
p116
S'mA'
p117
sS'3TSMXSPT'
p118
S'K'
sS'AORESY3'
p119
S'rad'
p120
sS'CVEER'
p121
S'V'
sS'CVEEP'
p122
S'V'
sS'HKP6V'
p123
S'V'
sS'2P05VBVL'
p124
S'V'
sS'PLAED3IT'
p125
S'K'
sS'4RT592T'
p126
S'K'
sS'HKDBIASLEAKI'
p127
S'uA'
p128
sS'61RCSTMR'
p129
S's'
sS'AIRU1BT'
p130
S'K'
sS'PR2TV01T'
p131
S'K'
sS'TCM_SSR1'
p132
S'K'
sS'6DRFTQC2'
p133
S'J'
sS'6DRFTQC3'
p134
S'J'
sS'POLINE04T'
p135
S'K'
sS'6DRFTQC1'
p136
S'J'
sS'OOBTHR29_WIDE'
p137
S'K'
sS'OOBTHR53_WIDE'
p138
S'K'
sS'5EPHINT'
p139
S'K'
sS'4VRMOBV'
p140
S'V'
sS'PLAEV3AT'
p141
S'K'
sS'AORESY0'
p142
S'rad'
p143
sS'AFLCA1AI'
p144
S'mA'
p145
sS'AOSRERR3'
p146
S'rad/s'
p147
sS'TEP_PSU1'
p148
S'K'
sS'OHRTHR36_WIDE'
p149
S'K'
sS'2DCENTRT'
p150
S'K'
sS'OOBTHR60'
p151
S'K'
sS'OOBTHR61'
p152
S'K'
sS'OOBTHR62'
p153
S'K'
sS'OOBTHR63'
p154
S'K'
sS'PLINE11T'
p155
S'K'
sS'AFLC14BI'
p156
S'mA'
p157
sS'EPA15V'
p158
S'V'
sS'AOALPANG'
p159
S'deg'
p160
sS'AFLCAAH'
p161
S'V'
sS'OHRTHR30_WIDE'
p162
S'K'
sS'AOSPACS2B'
p163
S'mA'
p164
sS'4RT584T'
p165
S'K'
sS'AODVTIME'
p166
S's'
sS'OOBTHR45_WIDE'
p167
S'K'
sS'AODITHR3'
p168
S'rad'
p169
sS'AAOTH2MT'
p170
S'K'
sS'AODITHR1'
p171
S'rad'
p172
sS'OHRTHR62_WIDE'
p173
S'K'
sS'PLAED1BT'
p174
S'K'
sS'3TTRALAT'
p175
S'K'
sS'AFLC12AI'
p176
S'mA'
p177
sS'AOSACMD2'
p178
S'rad'
p179
sS'POLINE16T'
p180
S'K'
sS'OOBTHR31'
p181
S'K'
sS'TRSPMTPC'
p182
S'K'
sS'4PRT1BT'
p183
S'K'
sS'AORESY1_1'
p184
S'rad'
p185
sS'ANGLEEPHEM_POINT_SUNCENTANG'
p186
S'deg'
p187
sS'OOBTHR46'
p188
S'K'
sS'EPB15V'
p189
S'V'
sS'2UVLSPXT'
p190
S'K'
sS'TFSSBKT2'
p191
S'K'
sS'3FARALAT'
p192
S'K'
sS'TMP_FEP0_FB'
p193
S'K'
sS'AOCMDRT1'
p194
S'rad/s'
p195
sS'4HLL2AT'
p196
S'K'
sS'TCM_PA2'
p197
S'K'
sS'OOBTHR09_WIDE'
p198
S'K'
sS'AOADACH1A_PCAD'
p199
S'deg'
p200
sS'ANGLEEPHEM_POINT_EARTHLIMBANG'
p201
S'deg'
p202
sS'TMP_FEP1_RAM'
p203
S'K'
sS'3FAPYZAT'
p204
S'K'
sS'OHRTHR08'
p205
S'K'
sS'TFUTSUPN'
p206
S'K'
sS'PLAED3GT'
p207
S'K'
sS'AORATE1'
p208
S'rad/s'
p209
sS'SOLAREPHEM1_X'
p210
S'm'
sS'AORATE3'
p211
S'rad/s'
p212
sS'AORATE2'
p213
S'rad/s'
p214
sS'EORTDMN12D'
p215
S'K'
sS'4RT598T'
p216
S'K'
sS'EOECNV3C'
p217
S'V'
sS'3TTACS2T'
p218
S'K'
sS'TCM_CTU'
p219
S'K'
sS'ESAPYI'
p220
S'A'
sS'4HFSPBT'
p221
S'K'
sS'EEPB5V'
p222
S'V'
sS'3FAFLAAT'
p223
S'K'
sS'4MP28BV'
p224
S'V'
sS'OHRTHR09_WIDE'
p225
S'K'
sS'PLAED3DT'
p226
S'K'
sS'OHRTHR51'
p227
S'K'
sS'EORTDMN23D'
p228
S'K'
sS'AOACZAN4'
p229
S'arcsec'
p230
sS'PLINE02T'
p231
S'K'
sS'4ALL1AT'
p232
S'K'
sS'PLAED4DT'
p233
S'K'
sS'2CEAHVPT'
p234
S'K'
sS'PLAEV2AT'
p235
S'K'
sS'PXTANKOP'
p236
S'kPa'
p237
sS'AORESZ6_5'
p238
S'rad'
p239
sS'AWD3TQI'
p240
S'A'
sS'TRSPRWCM'
p241
S'K'
sS'AOSUNER3'
p242
S'rad'
p243
sS'CTXAV'
p244
S'V'
sS'AAOTAPMT'
p245
S'K'
sS'PLAED2DT'
p246
S'K'
sS'TMZP_PY'
p247
S'K'
sS'POR2TV01T'
p248
S'K'
sS'AORWPI6B'
p249
S'ms'
p250
sS'4PRT1AT'
p251
S'K'
sS'OHRTHR54_WIDE'
p252
S'K'
sS'1DPAMYT'
p253
S'K'
sS'1DACTBT'
p254
S'K'
sS'2TLEV2RT'
p255
S'count'
p256
sS'AFLCA4BI'
p257
S'mA'
p258
sS'AOACZAN2'
p259
S'arcsec'
p260
sS'PM4THV1T'
p261
S'K'
sS'CSITA15V'
p262
S'V'
sS'DEAP6VOLTB'
p263
S'V'
sS'AFLC13AI'
p264
S'mA'
p265
sS'AORWBTQ1'
p266
S'J'
sS'AORWBTQ2'
p267
S'J'
sS'AORWBTQ3'
p268
S'J'
sS'AORWBTQ4'
p269
S'J'
sS'AGWS1V'
p270
S'V'
sS'AORWBTQ6'
p271
S'J'
sS'AWD6CV5V'
p272
S'V'
sS'3FABRCAT'
p273
S'K'
sS'AWD4CV5V'
p274
S'V'
sS'4RT576T'
p275
S'K'
sS'AWD1TQI'
p276
S'A'
sS'OHRTHR53'
p277
S'K'
sS'HKABIASLEAKI'
p278
S'uA'
p279
sS'TCYZ_RW6'
p280
S'K'
sS'OOBTHR20_WIDE'
p281
S'K'
sS'PR2TV02T'
p282
S'K'
sS'PLAED4AT'
p283
S'K'
sS'DEAM15VOLTB'
p284
S'V'
sS'DEAM15VOLTA'
p285
S'V'
sS'2P05VAVL'
p286
S'V'
sS'PLAEV4AT'
p287
S'K'
sS'1VAHCBT'
p288
S'K'
sS'PM2THV1T'
p289
S'K'
sS'PLINE09T'
p290
S'K'
sS'4PRT5AT'
p291
S'K'
sS'1DPP0AVO'
p292
S'V'
sS'3FAFLBAT'
p293
S'K'
sS'5EIOT'
p294
S'K'
sS'CPCB5V'
p295
S'V'
sS'PLAED1IT'
p296
S'K'
sS'OOBTHR37_WIDE'
p297
S'K'
sS'3MRMMXMV'
p298
S'PWM'
p299
sS'3FAPOS'
p300
S'mm'
p301
sS'CPCA5V'
p302
S'V'
sS'CXPNAIT'
p303
S'K'
sS'TEIO'
p304
S'K'
sS'TSAPYT'
p305
S'K'
sS'AORWMC2_1'
p306
S'J*s'
p307
sS'OHRTHR47_WIDE'
p308
S'K'
sS'OOBTHR52_WIDE'
p309
S'K'
sS'AOSARES1'
p310
S'deg'
p311
sS'AACBPRT'
p312
S'K'
sS'PLAED1AT'
p313
S'K'
sS'OHRTHR34_WIDE'
p314
S'K'
sS'TPCM_RW4'
p315
S'K'
sS'4RT580T'
p316
S'K'
sS'TEP_PCU'
p317
S'K'
sS'4VRMHBV'
p318
S'V'
sS'PHETANKT'
p319
S'K'
sS'TAPE1PST'
p320
S'K'
sS'AOCSSI2'
p321
S'mA'
p322
sS'AIRU1G1I'
p323
S'mA'
p324
sS'OOBTHR24'
p325
S'K'
sS'6TQCMD1'
p326
S'J'
sS'6TQCMD2'
p327
S'J'
sS'6TQCMD3'
p328
S'J'
sS'OOBTHR20'
p329
S'K'
sS'OOBTHR21'
p330
S'K'
sS'OOBTHR22'
p331
S'K'
sS'OOBTHR23'
p332
S'K'
sS'PR1TV01T'
p333
S'K'
sS'AVD2CV5V'
p334
S'V'
sS'TPCM_RW5'
p335
S'K'
sS'OOBTHR28'
p336
S'K'
sS'OOBTHR29'
p337
S'K'
sS'OOBTHR12_WIDE'
p338
S'K'
sS'AIOBP5CV'
p339
S'V'
sS'EORTDMN16D'
p340
S'K'
sS'2FHTRMZT'
p341
S'K'
sS'AOSAANG1'
p342
S'rad'
p343
sS'AOSAANG2'
p344
S'rad'
p345
sS'4RT577T'
p346
S'K'
sS'6MUPCNT3'
p347
S's'
sS'6MUPCNT2'
p348
S's'
sS'6MUPCNT1'
p349
S's'
sS'4RT561T'
p350
S'K'
sS'EOEBCC_LOW'
p351
S'A'
sS'AOADBCH1A_NBG'
p352
S'deg'
p353
sS'6MUPCNT4'
p354
S's'
sS'OHRTHR57'
p355
S'K'
sS'AOMANTIM'
p356
S's'
sS'CTUB5V'
p357
S'V'
sS'AWD4TQI'
p358
S'A'
sS'4LLL2AT'
p359
S'K'
sS'AWD5CV5V'
p360
S'V'
sS'HKBBIASLEAKI'
p361
S'uA'
p362
sS'4ALL1BT'
p363
S'K'
sS'PR1TV02T'
p364
S'K'
sS'CPCB15V'
p365
S'V'
sS'4RT711T'
p366
S'K'
sS'OHRTHR52_WIDE'
p367
S'K'
sS'AGWS2V'
p368
S'V'
sS'OOBTHR38_WIDE'
p369
S'K'
sS'EORTDMN26D'
p370
S'K'
sS'EB1V'
p371
S'V'
sS'AOIRERL1'
p372
S'rad'
p373
sS'AOIRERL2'
p374
S'rad'
p375
sS'AOIRERL3'
p376
S'rad'
p377
sS'3SFLXCST'
p378
S'K'
sS'PLINE07T'
p379
S'K'
sS'PLAEV2BT'
p380
S'K'
sS'AOSCVEL1'
p381
S'km/s'
p382
sS'AOSCVEL3'
p383
S'km/s'
p384
sS'AOSCVEL2'
p385
S'km/s'
p386
sS'1DE28AVO'
p387
S'V'
sS'TSCTSF1'
p388
S'K'
sS'EOEB3DIC'
p389
S'A'
sS'AFLC13BI'
p390
S'mA'
p391
sS'PR4TV02T'
p392
S'K'
sS'ACPA5CV'
p393
S'V'
sS'4RT563T'
p394
S'K'
sS'AOGBIAS1'
p395
S'rad/s'
p396
sS'AOGBIAS2'
p397
S'rad/s'
p398
sS'AOGBIAS3'
p399
S'rad/s'
p400
sS'1DEN1AVO'
p401
S'V'
sS'1DEN0AVO'
p402
S'V'
sS'OHRTHR03_WIDE'
p403
S'K'
sS'PFTANKIP'
p404
S'kPa'
p405
sS'ANGLEEPHEM_TIME'
p406
S's'
sS'1DPICBCU'
p407
S'A'
sS'LUNAREPHEM1_VY'
p408
S'm/s'
p409
sS'LUNAREPHEM1_VX'
p410
S'm/s'
p411
sS'AI1AX1Y'
p412
S'deg/s'
p413
sS'1DP28AVO'
p414
S'V'
sS'OOBTHR15_WIDE'
p415
S'K'
sS'4CSDHAV'
p416
S'V'
sS'OHRTHR26_WIDE'
p417
S'K'
sS'4RT587T'
p418
S'K'
sS'AI1AX2Y'
p419
S'deg/s'
p420
sS'AI1AX2X'
p421
S'deg/s'
p422
sS'AOSYMOM2'
p423
S'J*s'
p424
sS'SOLAREPHEM0_Y'
p425
S'm'
sS'AORWCMD5'
p426
S'J'
sS'POR1TV02T'
p427
S'K'
sS'OHRTHR29'
p428
S'K'
sS'AORWCMD6'
p429
S'J'
sS'AORWCMD1'
p430
S'J'
sS'OOBTHR46_WIDE'
p431
S'K'
sS'AORWCMD3'
p432
S'J'
sS'AORWCMD2'
p433
S'J'
sS'OHRTHR23'
p434
S'K'
sS'OHRTHR22'
p435
S'K'
sS'OHRTHR21'
p436
S'K'
sS'OHRTHR20'
p437
S'K'
sS'OHRTHR27'
p438
S'K'
sS'OHRTHR26'
p439
S'K'
sS'OHRTHR25'
p440
S'K'
sS'POM2THV2T'
p441
S'K'
sS'4IN15BV'
p442
S'V'
sS'63RCSTMR'
p443
S's'
sS'OOBTHR13_WIDE'
p444
S'K'
sS'4RT594T'
p445
S'K'
sS'TCNR_BRM'
p446
S'K'
sS'AOSYMOM1'
p447
S'J*s'
p448
sS'TCYLFMZP'
p449
S'K'
sS'4RT569T'
p450
S'K'
sS'4RT578T'
p451
S'K'
sS'4RT597T'
p452
S'K'
sS'TEP_RCTU'
p453
S'K'
sS'4RT702T'
p454
S'K'
sS'ASPEFSW1B'
p455
S'deg'
p456
sS'SOLAREPHEM0_X'
p457
S'm'
sS'1VAHOAT'
p458
S'K'
sS'AACH1T'
p459
S'K'
sS'4PRT2AT'
p460
S'K'
sS'POLINE07T'
p461
S'K'
sS'TPC_ESE'
p462
S'K'
sS'HKCBIASLEAKI'
p463
S'uA'
p464
sS'AFLCA9AI'
p465
S'mA'
p466
sS'OHRTHR36'
p467
S'K'
sS'HKP27I'
p468
S'mA'
p469
sS'CTSB5V'
p470
S'V'
sS'PHOFP1T'
p471
S'K'
sS'SOLAREPHEM1_VZ'
p472
S'm/s'
p473
sS'AFLCA1BI'
p474
S'mA'
p475
sS'HKP27V'
p476
S'V'
sS'3SFLXAST'
p477
S'K'
sS'PR4TV01T'
p478
S'K'
sS'TAPEA1T'
p479
S'K'
sS'SOLAREPHEM1_VX'
p480
S'm/s'
p481
sS'PLINE10T'
p482
S'K'
sS'SOLAREPHEM0_VY'
p483
S'm/s'
p484
sS'TCM_PA1'
p485
S'K'
sS'OOBTHR17_WIDE'
p486
S'K'
sS'PLINE03T'
p487
S'K'
sS'2FRADPYT'
p488
S'K'
sS'1DE28BVO'
p489
S'V'
sS'C28VMONB'
p490
S'V'
sS'4RT595T'
p491
S'K'
sS'SOLAREPHEM0_VZ'
p492
S'm/s'
p493
sS'OHRTHR22_WIDE'
p494
S'K'
sS'AFLC10BI'
p495
S'mA'
p496
sS'4LLL2BT'
p497
S'K'
sS'LUNAREPHEM0_VX'
p498
S'm/s'
p499
sS'LUNAREPHEM0_VY'
p500
S'm/s'
p501
sS'LUNAREPHEM0_VZ'
p502
S'm/s'
p503
sS'AOADACH2A_PCAD'
p504
S'deg'
p505
sS'ES2P5CV'
p506
S'V'
sS'AORWPI5B'
p507
S'ms'
p508
sS'4PRT4AT'
p509
S'K'
sS'CUSOBOVN'
p510
S'W'
sS'ORBITEPHEM1_VY'
p511
S'm/s'
p512
sS'TFSPCMM'
p513
S'K'
sS'EORTDMN19D'
p514
S'K'
sS'OOBTHR02_WIDE'
p515
S'K'
sS'4HFSPAT'
p516
S'K'
sS'4MP5BV'
p517
S'V'
sS'AOINTTIM'
p518
S's'
sS'TFSPCMP'
p519
S'K'
sS'POM1THV1T'
p520
S'K'
sS'OOBTHR50_WIDE'
p521
S'K'
sS'4LLL1BT'
p522
S'K'
sS'AOACZAN5'
p523
S'arcsec'
p524
sS'OHRTHR21_WIDE'
p525
S'K'
sS'AOACZAN7'
p526
S'arcsec'
p527
sS'AOACZAN6'
p528
S'arcsec'
p529
sS'AOACZAN1'
p530
S'arcsec'
p531
sS'AOACZAN0'
p532
S'arcsec'
p533
sS'AOACZAN3'
p534
S'arcsec'
p535
sS'OOBTHR25'
p536
S'K'
sS'3TTHRC2T'
p537
S'K'
sS'OOBTHR26'
p538
S'K'
sS'TCYLAFT4'
p539
S'K'
sS'CRXALS'
p540
S'kHz'
p541
sS'AOYABR'
p542
S'rad'
p543
sS'AOSRERR1'
p544
S'rad/s'
p545
sS'AOSRERR2'
p546
S'rad/s'
p547
sS'TIME'
p548
S's'
sS'PLAED2GT'
p549
S'K'
sS'TESH1'
p550
S'K'
sS'CXO5VOBB'
p551
S'V'
sS'AOSAEST1'
p552
S'rad'
p553
sS'1DAHACU'
p554
S'A'
sS'CXO5VOBA'
p555
S'V'
sS'EORTDMN22D'
p556
S'K'
sS'PM3THV1T'
p557
S'K'
sS'1DEP2BVO'
p558
S'V'
sS'AOETIMEX'
p559
S's'
sS'2CONDMXT'
p560
S'K'
sS'6SARES2'
p561
S'deg'
p562
sS'6SARES1'
p563
S'deg'
p564
sS'AORWINT5'
p565
S'ms'
p566
sS'1DEN0BVO'
p567
S'V'
sS'4IP15BV'
p568
S'V'
sS'4ALL2BT'
p569
S'K'
sS'AORWINT6'
p570
S'ms'
p571
sS'CIUB5V'
p572
S'V'
sS'4ALL2AT'
p573
S'K'
sS'3FAMTRAT'
p574
S'K'
sS'OOBTHR08_WIDE'
p575
S'K'
sS'CTUA15V'
p576
S'V'
sS'SOLAREPHEM1_VY'
p577
S'm/s'
p578
sS'AOADACH2A_NBG'
p579
S'deg'
p580
sS'OHRTHR42_WIDE'
p581
S'K'
sS'PLAED2ET'
p582
S'K'
sS'CSSR1CAV'
p583
S'V'
sS'TMP_BEP_OSC'
p584
S'K'
sS'EOEB2DIC'
p585
S'A'
sS'3TTBRGBT'
p586
S'K'
sS'EOEBCC'
p587
S'A'
sS'AORWINT2'
p588
S'ms'
p589
sS'AORWINT3'
p590
S'ms'
p591
sS'AORWINT4'
p592
S'ms'
p593
sS'1DACTAT'
p594
S'deg'
p595
sS'OOBTHR13'
p596
S'K'
sS'AFLCA4AI'
p597
S'mA'
p598
sS'OOBTHR15'
p599
S'K'
sS'4SP51V'
p600
S'V'
sS'EORTDMN25D'
p601
S'K'
sS'PLAED2CT'
p602
S'K'
sS'EOEB1VC'
p603
S'V'
sS'C10VREFB'
p604
S'V'
sS'C10VREFA'
p605
S'V'
sS'DEAP15VOLTA'
p606
S'V'
sS'EOEB2VC'
p607
S'V'
sS'ORBITEPHEM0_TIME'
p608
S's'
sS'AWD1CV5V'
p609
S'V'
sS'OOBTHR03_WIDE'
p610
S'K'
sS'SOLAREPHEM1_Z'
p611
S'm'
sS'AFLCA8BI'
p612
S'mA'
p613
sS'PLAED1DT'
p614
S'K'
sS'ARWA3BT'
p615
S'K'
sS'AOACINTT'
p616
S'ms'
p617
sS'POLAEV1AT'
p618
S'K'
sS'OHRTHR63'
p619
S'K'
sS'OHRTHR62'
p620
S'K'
sS'OHRTHR61'
p621
S'K'
sS'EOEB3CIC'
p622
S'A'
sS'AOSYMOM3'
p623
S'J*s'
p624
sS'EOESAC2C'
p625
S'A'
sS'6BETANG'
p626
S'deg'
p627
sS'4RT701T'
p628
S'K'
sS'AFLCA2AI'
p629
S'mA'
p630
sS'HKP5I'
p631
S'mA'
p632
sS'1OAHBT'
p633
S'K'
sS'OOBTHR19'
p634
S'K'
sS'1DAHBCU'
p635
S'A'
sS'OOBTHR63_WIDE'
p636
S'K'
sS'PMFP01T'
p637
S'K'
sS'AFLCA5BI'
p638
S'mA'
p639
sS'OHRTHR04_WIDE'
p640
S'K'
sS'ECNV3V'
p641
S'V'
sS'PLINE15T'
p642
S'K'
sS'4RT583T'
p643
S'K'
sS'HKP5V'
p644
S'V'
sS'OHRTHR51_WIDE'
p645
S'K'
sS'AIOAP5CV'
p646
S'V'
sS'HKN6V'
p647
S'V'
sS'AOMANRT'
p648
S'rad/s'
p649
sS'TATECDRT'
p650
S'K'
sS'4RT559T'
p651
S'K'
sS'4PRT3BT'
p652
S'K'
sS'TSCTSF2'
p653
S'K'
sS'TSCTSF3'
p654
S'K'
sS'OHRTHR53_WIDE'
p655
S'K'
sS'HKGHV'
p656
S'V'
sS'4PRT5BT'
p657
S'K'
sS'OHRTHR13_WIDE'
p658
S'K'
sS'TCM_RFAS'
p659
S'K'
sS'OHRTHR11_WIDE'
p660
S'K'
sS'PLAED4ET'
p661
S'K'
sS'TCM_TX1'
p662
S'K'
sS'ANGLEEPHEM_POINT_SUNLIMBANG'
p663
S'deg'
p664
sS'6SARATC2'
p665
S'rad/s'
p666
sS'1DEICACU'
p667
S'A'
sS'6SARATC1'
p668
S'rad/s'
p669
sS'1MAHCAT'
p670
S'K'
sS'PMTANK3T'
p671
S'K'
sS'PR3TV02T'
p672
S'K'
sS'TESH2'
p673
S'K'
sS'3TSPZSPT'
p674
S'K'
sS'HKEBOXTEMP'
p675
S'K'
sS'AORWINT1'
p676
S'ms'
p677
sS'1DEP3BVO'
p678
S'V'
sS'ORBITEPHEM1_TIME'
p679
S's'
sS'AOAVGDTQ'
p680
S'J'
sS'EORTDMN17D'
p681
S'K'
sS'PLAED4BT'
p682
S'K'
sS'ADE1P5CV'
p683
S'V'
sS'TFSPPCU'
p684
S'K'
sS'6RWSPD1'
p685
S'rad/s'
p686
sS'AOMANANG'
p687
S'rad'
p688
sS'6RWSPD3'
p689
S'rad/s'
p690
sS'6RWSPD2'
p691
S'rad/s'
p692
sS'6RWSPD5'
p693
S'rad/s'
p694
sS'6RWSPD4'
p695
S'rad/s'
p696
sS'OHRTHR06_WIDE'
p697
S'K'
sS'POLINE03T'
p698
S'K'
sS'1MAHOAT'
p699
S'K'
sS'OHRTHR11'
p700
S'K'
sS'AFLCA7AI'
p701
S'mA'
p702
sS'EB2DI'
p703
S'A'
sS'HKN6I'
p704
S'mA'
p705
sS'TRSPRWBB'
p706
S'K'
sS'AORESZ4'
p707
S'rad'
p708
sS'AOSACMD1'
p709
S'rad'
p710
sS'AORWNTQ3'
p711
S'J'
sS'ANGLEEPHEM_POINT_MOONLIMBANG'
p712
S'deg'
p713
sS'ORBITEPHEM1_X'
p714
S'm'
sS'ORBITEPHEM1_Y'
p715
S'm'
sS'ORBITEPHEM1_Z'
p716
S'm'
sS'ANGLEEPHEM_DIST_SATEARTH'
p717
S'm'
sS'OOBTHR19_WIDE'
p718
S'K'
sS'AFLCA3BI'
p719
S'mA'
p720
sS'FPTEMP_12'
p721
S'K'
sS'AORWPI1B'
p722
S'ms'
p723
sS'EB1DI'
p724
S'A'
sS'OHRTHR27_WIDE'
p725
S'K'
sS'LUNAREPHEM1_X'
p726
S'm'
sS'LUNAREPHEM1_Y'
p727
S'm'
sS'LUNAREPHEM1_Z'
p728
S'm'
sS'TASPRWC'
p729
S'K'
sS'TSCIUSF5'
p730
S'K'
sS'AVD1CV5V'
p731
S'V'
sS'DEAP6VOLTA'
p732
S'V'
sS'TSCIUSF8'
p733
S'K'
sS'2SHEV2RT'
p734
S'count'
p735
sS'AACH2T'
p736
S'K'
sS'ADE2P5CV'
p737
S'V'
sS'OOBTHR06_WIDE'
p738
S'K'
sS'TASPPCP'
p739
S'K'
sS'OHRTHR02_WIDE'
p740
S'K'
sS'3TTACS3T'
p741
S'K'
sS'CTSA15V'
p742
S'V'
sS'PFDM102T'
p743
S'K'
sS'3FAPSAT'
p744
S'K'
sS'AWD3CV5V'
p745
S'V'
sS'AORTERR1'
p746
S'rad/s'
p747
sS'SOLAREPHEM1_Y'
p748
S'm'
sS'4RT586T'
p749
S'K'
sS'OOBTHR26_WIDE'
p750
S'K'
sS'OHRTHR60'
p751
S'K'
sS'PXDM01T'
p752
S'K'
sS'OOBTHR37'
p753
S'K'
sS'OOBTHR36'
p754
S'K'
sS'OOBTHR35'
p755
S'K'
sS'OOBTHR34'
p756
S'K'
sS'CUSOBIT'
p757
S'K'
sS'6SUNER1'
p758
S'rad'
p759
sS'6SUNER2'
p760
S'rad'
p761
sS'6SUNER3'
p762
S'rad'
p763
sS'OOBTHR31_WIDE'
p764
S'K'
sS'OOBTHR39'
p765
S'K'
sS'OOBTHR38'
p766
S'K'
sS'2P24VBVL'
p767
S'V'
sS'OOBTHR51_WIDE'
p768
S'K'
sS'OOBTHR04_WIDE'
p769
S'K'
sS'3FABRAAT'
p770
S'K'
sS'1DEP3AVO'
p771
S'V'
sS'AIRU1G2T'
p772
S'K'
sS'TPC_CEA'
p773
S'K'
sS'DEA28VOLTA'
p774
S'V'
sS'AIRU1G2I'
p775
S'mA'
p776
sS'PM2THV2T'
p777
S'K'
sS'TSAMYT'
p778
S'K'
sS'AVACMONV'
p779
S'V'
sS'4RT590T'
p780
S'K'
sS'TEP_PSU2'
p781
S'K'
sS'TPZLGABM'
p782
S'K'
sS'1OAHAT'
p783
S'K'
sS'AHKNATPR'
p784
S'V'
sS'ASPEFSW4B'
p785
S'deg'
p786
sS'ARWA4BT'
p787
S'K'
sS'AAOTALT'
p788
S'K'
sS'4CSDHBV'
p789
S'V'
sS'AORWSPD6'
p790
S'rad/s'
p791
sS'AOCSSI1'
p792
S'mA'
p793
sS'TPC_DEA'
p794
S'K'
sS'AOCSSI3'
p795
S'mA'
p796
sS'AIRU2G1T'
p797
S'K'
sS'AOCSSI4'
p798
S'mA'
p799
sS'3FAFLCAT'
p800
S'K'
sS'AIRU2G1I'
p801
S'mA'
p802
sS'CTUB15V'
p803
S'V'
sS'OOBTHR07_WIDE'
p804
S'K'
sS'1VAHCAT'
p805
S'K'
sS'TB3T2'
p806
S'K'
sS'TB3T3'
p807
S'K'
sS'DEAM6VOLTB'
p808
S'V'
sS'TRSPOTPC'
p809
S'K'
sS'PLAED3CT'
p810
S'K'
sS'1PIN1AT'
p811
S'K'
sS'PFTANK2T'
p812
S'K'
sS'1DP28BVO'
p813
S'V'
sS'AOFFTQ1'
p814
S'J'
sS'TPCP_RW3'
p815
S'K'
sS'PLAEV1BT'
p816
S'K'
sS'AOFFTQ2'
p817
S'J'
sS'PFDM201T'
p818
S'K'
sS'OOBTHR21_WIDE'
p819
S'K'
sS'SOLAREPHEM0_VX'
p820
S'm/s'
p821
sS'AOFFTQ3'
p822
S'J'
sS'AI2AX1Y'
p823
S'deg/s'
p824
sS'ORBITEPHEM1_VZ'
p825
S'm/s'
p826
sS'1PDEABT'
p827
S'K'
sS'ORBITEPHEM1_VX'
p828
S'm/s'
p829
sS'PLAED2HT'
p830
S'K'
sS'4PRTAV'
p831
S'V'
sS'TFSSHDT1'
p832
S'K'
sS'AOADBCH2A_PCAD'
p833
S'deg'
p834
sS'4RT704T'
p835
S'K'
sS'OOBTHR14_WIDE'
p836
S'K'
sS'TCM_PAN'
p837
S'K'
sS'TCM_SSR2'
p838
S'K'
sS'PMTANKP'
p839
S'kPa'
p840
sS'EOECNV1C'
p841
S'V'
sS'AFLCABH'
p842
S'V'
sS'3FLCABPT'
p843
S'K'
sS'OHRTHR18'
p844
S'K'
sS'OHRTHR19'
p845
S'K'
sS'OHRTHR17'
p846
S'K'
sS'OHRTHR14'
p847
S'K'
sS'OHRTHR15'
p848
S'K'
sS'OHRTHR12'
p849
S'K'
sS'OHRTHR13'
p850
S'K'
sS'OHRTHR10'
p851
S'K'
sS'POLAEV1BT'
p852
S'K'
sS'4PRTBV'
p853
S'V'
sS'CIUB15V'
p854
S'V'
sS'3TTHRC3T'
p855
S'K'
sS'HKFBIASLEAKI'
p856
S'uA'
p857
sS'ANGLEEPHEM_POINT_EARTHCENTANG'
p858
S'deg'
p859
sS'OHRTHR33_WIDE'
p860
S'K'
sS'OOBTHR33_WIDE'
p861
S'K'
sS'AIRU2BT'
p862
S'K'
sS'AORWSPD1'
p863
S'rad/s'
p864
sS'AORWSPD2'
p865
S'rad/s'
p866
sS'AORWSPD3'
p867
S'rad/s'
p868
sS'AORWSPD4'
p869
S'rad/s'
p870
sS'AORWSPD5'
p871
S'rad/s'
p872
sS'OOBTHR23_WIDE'
p873
S'K'
sS'PM1THV1T'
p874
S'K'
sS'AOCMDRT2'
p875
S'rad/s'
p876
sS'AOCMDRT3'
p877
S'rad/s'
p878
sS'AI2AX2X'
p879
S'deg/s'
p880
sS'EORTDMN13D'
p881
S'K'
sS'4RT564T'
p882
S'K'
sS'EORTDMN21D'
p883
S'K'
sS'PMTANK1T'
p884
S'K'
sS'TPC_RCTU'
p885
S'K'
sS'OHRTHR14_WIDE'
p886
S'K'
sS'4SP52V'
p887
S'V'
sS'1DEN1BVO'
p888
S'V'
sS'PM3THV2T'
p889
S'K'
sS'EORTDMN29D'
p890
S'K'
sS'PLAEV4BT'
p891
S'K'
sS'PLINE04T'
p892
S'K'
sS'PLAED3BT'
p893
S'K'
sS'OOBTHR39_WIDE'
p894
S'K'
sS'TB2T1'
p895
S'K'
sS'OHRTHR07_WIDE'
p896
S'K'
sS'4OAVHRMT'
p897
S'K'
sS'EORTDMN28D'
p898
S'K'
sS'PFFP01T'
p899
S'K'
sS'2N15VAVL'
p900
S'V'
sS'2N15VBVL'
p901
S'V'
sS'OOBTHR27_WIDE'
p902
S'K'
sS'TMP_FEP1_PCB'
p903
S'K'
sS'4RT593T'
p904
S'K'
sS'AOSPBCS2B'
p905
S'mA'
p906
sS'HKEBIASLEAKI'
p907
S'uA'
p908
sS'1DEP0AVO'
p909
S'V'
sS'4CSDOAV'
p910
S'V'
sS'TRSPRWBC'
p911
S'K'
sS'TEP_BPAN'
p912
S'K'
sS'1WRAT'
p913
S'K'
sS'PLAED1GT'
p914
S'K'
sS'4RT560T'
p915
S'K'
sS'AORESY6_1'
p916
S'rad'
p917
sS'PLINE01T'
p918
S'K'
sS'6RWCMD4'
p919
S'J'
sS'6RWCMD5'
p920
S'J'
sS'6RWCMD6'
p921
S'J'
sS'AFLCA8AI'
p922
S'mA'
p923
sS'AACBPPT'
p924
S'K'
sS'6RWCMD1'
p925
S'J'
sS'6RWCMD2'
p926
S'J'
sS'6RWCMD3'
p927
S'J'
sS'PCM02T'
p928
S'K'
sS'TCYLPCP'
p929
S'K'
sS'3FAMYZAT'
p930
S'K'
sS'OOBTHR40_WIDE'
p931
S'K'
sS'TCM_OBC'
p932
S'K'
sS'TSCTSF4'
p933
S'K'
sS'TCYZ_RW1'
p934
S'K'
sS'OOBTHR25_WIDE'
p935
S'K'
sS'4OAVOBAT'
p936
S'K'
sS'TSCTSF5'
p937
S'K'
sS'OOBTHR54_WIDE'
p938
S'K'
sS'PLAEV1AT'
p939
S'K'
sS'TPC_WDA'
p940
S'K'
sS'TSCTSF6'
p941
S'K'
sS'AOSPBCS3B'
p942
S'mA'
p943
sS'TCM_TX2'
p944
S'K'
sS'OHRTHR56_WIDE'
p945
S'K'
sS'CTUA5V'
p946
S'V'
sS'AFLCA6BI'
p947
S'mA'
p948
sS'TMZP_CNT'
p949
S'K'
sS'4RT582T'
p950
S'K'
sS'OHRTHR55_WIDE'
p951
S'K'
sS'TMP_BEP_PCB'
p952
S'K'
sS'AHKNATRD'
p953
S'V'
sS'EOEB3VC'
p954
S'V'
sS'DPA5VHKB'
p955
S'V'
sS'ORBITEPHEM0_Y'
p956
S'm'
sS'ORBITEPHEM0_X'
p957
S'm'
sS'ORBITEPHEM0_Z'
p958
S'm'
sS'4CSDOBV'
p959
S'V'
sS'AFLCA9BI'
p960
S'mA'
p961
sS'3SFLXBST'
p962
S'K'
sS'1DEP2AVO'
p963
S'V'
sS'3RCTUBPT'
p964
S'K'
sS'6SURTER3'
p965
S'rad/s'
p966
sS'6SURTER2'
p967
S'rad/s'
p968
sS'6SURTER1'
p969
S'rad/s'
p970
sS'TMP_FEP0_ACTEL'
p971
S'K'
sS'OOBTHR49'
p972
S'K'
sS'CRXBV'
p973
S'V'
sS'OHRTHR58_WIDE'
p974
S'K'
sS'OOBTHR44'
p975
S'K'
sS'OOBTHR45'
p976
S'K'
sS'OOBTHR42'
p977
S'K'
sS'OOBTHR43'
p978
S'K'
sS'OOBTHR40'
p979
S'K'
sS'OOBTHR41'
p980
S'K'
sS'OOBTHR51'
p981
S'K'
sS'PLAED2IT'
p982
S'K'
sS'DEA24VOLTA'
p983
S'V'
sS'OOBTHR50'
p984
S'K'
sS'OOBTHR27'
p985
S'K'
sS'4HLL1BT'
p986
S'K'
sS'AWD2CV5V'
p987
S'V'
sS'OOBTHR53'
p988
S'K'
sS'EORTDMN14D'
p989
S'K'
sS'LUNAREPHEM1_VZ'
p990
S'm/s'
p991
sS'ARWA1BT'
p992
S'K'
sS'4HPOSBRO'
p993
S'deg'
p994
sS'AFLCA7BI'
p995
S'mA'
p996
sS'AORWNTQ1'
p997
S'J'
sS'PLAED4GT'
p998
S'K'
sS'LUNAREPHEM0_Y'
p999
S'm'
sS'LUNAREPHEM0_X'
p1000
S'm'
sS'OOBTHR28_WIDE'
p1001
S'K'
sS'LUNAREPHEM0_Z'
p1002
S'm'
sS'POLINE06T'
p1003
S'K'
sS'3FASEAAT'
p1004
S'K'
sS'AOSPACS4B'
p1005
S'mA'
p1006
sS'OHRTHR58'
p1007
S'K'
sS'OHRTHR59'
p1008
S'K'
sS'OHRTHR52'
p1009
S'K'
sS'OHRTHR29_WIDE'
p1010
S'K'
sS'OHRTHR50'
p1011
S'K'
sS'CXPNBIT'
p1012
S'K'
sS'OHRTHR56'
p1013
S'K'
sS'2P15VAVL'
p1014
S'V'
sS'OHRTHR54'
p1015
S'K'
sS'OHRTHR55'
p1016
S'K'
sS'AORWPI2B'
p1017
S'ms'
p1018
sS'OOBTHR59'
p1019
S'K'
sS'AI2AX1X'
p1020
S'deg/s'
p1021
sS'3TSMXCET'
p1022
S'K'
sS'AODITHR2'
p1023
S'rad'
p1024
sS'DPA5VHKA'
p1025
S'V'
sS'ARWA2BT'
p1026
S'K'
sS'PLAED3ET'
p1027
S'K'
sS'OOBTHR04'
p1028
S'K'
sS'OHRTHR18_WIDE'
p1029
S'K'
sS'CPA1V'
p1030
S'V'
sS'AI2AX2Y'
p1031
S'deg/s'
p1032
sS'ASPEA5CV'
p1033
S'V'
sS'4IP15AV'
p1034
S'V'
sS'PXTANK1T'
p1035
S'K'
sS'4RT568T'
p1036
S'K'
sS'4LFSPBT'
p1037
S'K'
sS'ACPB5CV'
p1038
S'V'
sS'4PRT3AT'
p1039
S'K'
sS'OOBTHR02'
p1040
S'K'
sS'1DPICACU'
p1041
S'A'
sS'TCYLPCM'
p1042
S'K'
sS'SOLAREPHEM0_TIME'
p1043
S's'
sS'OOBTHR35_WIDE'
p1044
S'K'
sS'TOXTSUPN'
p1045
S'K'
sS'AOSPBCS1B'
p1046
S'mA'
p1047
sS'4RT589T'
p1048
S'K'
sS'TCYLAFT2'
p1049
S'K'
sS'ASPEFSW2B'
p1050
S'deg'
p1051
sS'TFSSHDT2'
p1052
S'K'
sS'TCYLRWC'
p1053
S'K'
sS'AORWMOM2'
p1054
S'J*s'
p1055
sS'SOLAREPHEM0_Z'
p1056
S'm'
sS'AORWMOM1'
p1057
S'J*s'
p1058
sS'4RT700T'
p1059
S'K'
sS'4OAVHRMT_WIDE'
p1060
S'K'
sS'4LLL1AT'
p1061
S'K'
sS'1CBAT'
p1062
S'K'
sS'CPA2BPT'
p1063
S'K'
sS'PLAED4IT'
p1064
S'K'
sS'EB3DI'
p1065
S'A'
sS'PLAED2FT'
p1066
S'K'
sS'TCYLAFT6'
p1067
S'K'
sS'OOBTHR22_WIDE'
p1068
S'K'
sS'TAPEA2T'
p1069
S'K'
sS'AFLC10AI'
p1070
S'mA'
p1071
sS'AORWCMD4'
p1072
S'J'
sS'2PMT2T'
p1073
S'K'
sS'EIACVAV'
p1074
S'V'
sS'4LPOSBRO'
p1075
S'deg'
p1076
sS'EB3V'
p1077
S'V'
sS'6CSSI4'
p1078
S'mA'
p1079
sS'PLAED1HT'
p1080
S'K'
sS'6CSSI2'
p1081
S'mA'
p1082
sS'EORTDMN24D'
p1083
S'K'
sS'3TTVALVT'
p1084
S'K'
sS'6CSSI1'
p1085
S'mA'
p1086
sS'PXDM02T'
p1087
S'K'
sS'TCYLCMM'
p1088
S'K'
sS'AOCMDAC1'
p1089
S'rad/s**2'
p1090
sS'CUSOAIT'
p1091
S'K'
sS'OOBTHR18_WIDE'
p1092
S'K'
sS'4HPOSARO'
p1093
S'deg'
p1094
sS'OHRMGRD6'
p1095
S'deltaK'
p1096
sS'POLINE05T'
p1097
S'K'
sS'OHRMGRD3'
p1098
g1096
sS'TB2T3'
p1099
S'K'
sS'OHRTHR35_WIDE'
p1100
S'K'
sS'EOEB3V'
p1101
S'V'
sS'DEA28VOLTB'
p1102
S'V'
sS'AORESY2_1'
p1103
S'rad'
p1104
sS'4IN15AV'
p1105
S'V'
sS'OHRTHR37_WIDE'
p1106
S'K'
sS'CIUA15V'
p1107
S'V'
sS'AOTQCMD1'
p1108
S'J'
sS'AOTQCMD3'
p1109
S'J'
sS'AOTQCMD2'
p1110
S'J'
sS'TRSPOTEP'
p1111
S'K'
sS'AIRU2G2I'
p1112
S'mA'
p1113
sS'AOCMDAC2'
p1114
S'rad/s**2'
p1115
sS'TRSPOTEX'
p1116
S'K'
sS'LUNAREPHEM0_TIME'
p1117
S's'
sS'AOSPACS1B'
p1118
S'mA'
p1119
sS'EOEBC'
p1120
S'A'
sS'TB1T1'
p1121
S'K'
sS'AOACYAN7'
p1122
S'arcsec'
p1123
sS'1CRAT'
p1124
S'K'
sS'AFSSPC2V'
p1125
S'V'
sS'PMTANK2T'
p1126
S'K'
sS'4RT558T'
p1127
S'K'
sS'OOBTHR11_WIDE'
p1128
S'K'
sS'ANGLEEPHEM_POINT_RAMVECTORANG'
p1129
S'deg'
p1130
sS'TMP_FEP0_PCB'
p1131
S'K'
sS'1SSPYT'
p1132
S'K'
sS'AFLC11AI'
p1133
S'mA'
p1134
sS'PLAED1CT'
p1135
S'K'
sS'DEA24VOLTB'
p1136
S'V'
sS'AOCMDAC3'
p1137
S'rad/s**2'
p1138
sS'OHRTHR24'
p1139
S'K'
sS'PLAED4HT'
p1140
S'K'
sS'2DTSTATT'
p1141
S'K'
sS'OOBTHR08'
p1142
S'K'
sS'OOBTHR09'
p1143
S'K'
sS'AAOTASMT'
p1144
S'K'
sS'CSITA5V'
p1145
S'V'
sS'OOBTHR03'
p1146
S'K'
sS'TCYLAFT3'
p1147
S'K'
sS'6RWSPD6'
p1148
S'rad/s'
p1149
sS'OOBTHR06'
p1150
S'K'
sS'OOBTHR07'
p1151
S'K'
sS'OHRTHR24_WIDE'
p1152
S'K'
sS'OOBTHR05'
p1153
S'K'
sS'EOESAT2C'
p1154
S'K'
sS'GND_1'
p1155
S'V'
sS'OHRTHR10_WIDE'
p1156
S'K'
sS'PR3TV01T'
p1157
S'K'
sS'TBOLTCUT'
p1158
S'K'
sS'AOACYAN4'
p1159
S'arcsec'
p1160
sS'AOACYAN5'
p1161
S'arcsec'
p1162
sS'AOACYAN6'
p1163
S'arcsec'
p1164
sS'1PDEAAT'
p1165
S'K'
sS'AOACYAN0'
p1166
S'arcsec'
p1167
sS'1MAHCBT'
p1168
S'K'
sS'AOACYAN2'
p1169
S'arcsec'
p1170
sS'AOACYAN3'
p1171
S'arcsec'
p1172
sS'OOBTHR62_WIDE'
p1173
S'K'
sS'OHRTHR23_WIDE'
p1174
S'K'
sS'TFSSBKT1'
p1175
S'K'
sS'PLAED4CT'
p1176
S'K'
sS'CUSOB28V'
p1177
S'V'
sS'6RWNLTQ1'
p1178
S'J'
sS'6RWNLTQ2'
p1179
S'J'
sS'CSITB5V'
p1180
S'V'
sS'6RWNLTQ4'
p1181
S'J'
sS'6RWNLTQ5'
p1182
S'J'
sS'6RWNLTQ6'
p1183
S'J'
sS'CSITB15V'
p1184
S'V'
sS'EB2CI'
p1185
S'A'
sS'TEP_PPAN'
p1186
S'K'
sS'AORESZ2_1'
p1187
S'rad'
p1188
sS'1DAHBVO'
p1189
S'V'
sS'AACCCDPT'
p1190
S'K'
sS'POLAEV2BT'
p1191
S'K'
sS'PLAED1ET'
p1192
S'K'
sS'POLAEV4AT'
p1193
S'K'
sS'CSSR2CBV'
p1194
S'V'
sS'4RT707T'
p1195
S'K'
sS'TCM_IFU'
p1196
S'K'
sS'OHRTHR49_WIDE'
p1197
S'K'
sS'PLINE05T'
p1198
S'K'
sS'PLAED3AT'
p1199
S'K'
sS'TAPE2PST'
p1200
S'K'
sS'4IP5BV'
p1201
S'V'
sS'4PRT4BT'
p1202
S'K'
sS'1DAHHAVO'
p1203
S'V'
sS'OHRTHR49'
p1204
S'K'
sS'3TSPYFET'
p1205
S'K'
sS'OOBTHR05_WIDE'
p1206
S'K'
sS'POLINE02T'
p1207
S'K'
sS'TFSPRWC'
p1208
S'K'
sS'4RT555T'
p1209
S'K'
sS'AORESY7'
p1210
S'rad'
p1211
sS'PXTANKIP'
p1212
S'kPa'
p1213
sS'3TSCPOS'
p1214
S'mm'
p1215
sS'AORESY4'
p1216
S'rad'
p1217
sS'GND_2'
p1218
S'V'
sS'ARWA5BT'
p1219
S'K'
sS'PFDM202T'
p1220
S'K'
sS'6RWNLTQ3'
p1221
S'J'
sS'2CHTRPZT'
p1222
S'K'
sS'4RT579T'
p1223
S'K'
sS'TCM_USO'
p1224
S'K'
sS'OHRTHR46_WIDE'
p1225
S'K'
sS'PLINE13T'
p1226
S'K'
sS'AOATTER1'
p1227
S'rad'
p1228
sS'AOATTER2'
p1229
S'rad'
p1230
sS'AOATTER3'
p1231
S'rad'
p1232
sS'TMZLGABM'
p1233
S'K'
sS'TMP_FEP1_FB'
p1234
S'K'
sS'2P24VAVL'
p1235
S'V'
sS'AWD5TQI'
p1236
S'A'
sS'AORWBTQ5'
p1237
S'J'
sS'4VRMHAV'
p1238
S'V'
sS'AOADACH1A_NBG'
p1239
S'deg'
p1240
sS'ECNV1V'
p1241
S'V'
sS'EEPA5V'
p1242
S'V'
sS'4RT585T'
p1243
S'K'
sS'PLAED2BT'
p1244
S'K'
sS'OHRTHR03'
p1245
S'K'
sS'OHRTHR02'
p1246
S'K'
sS'OHRTHR05'
p1247
S'K'
sS'OHRTHR04'
p1248
S'K'
sS'OHRTHR07'
p1249
S'K'
sS'OHRTHR06'
p1250
S'K'
sS'OHRTHR09'
p1251
S'K'
sS'1WRBT'
p1252
S'K'
sS'TMP_FEP1_ACTEL'
p1253
S'K'
sS'AIRU1VFT'
p1254
S'K'
sS'AORESZ6_6'
p1255
S'rad'
p1256
sS'AORESZ6_7'
p1257
S'rad'
p1258
sS'AORESZ6_4'
p1259
S'rad'
p1260
sS'2VLEV2RT'
p1261
S'count'
p1262
sS'AORESZ6_2'
p1263
S'rad'
p1264
sS'AORESZ6_3'
p1265
S'rad'
p1266
sS'CTSA5V'
p1267
S'V'
sS'AORESZ6_1'
p1268
S'rad'
p1269
sS'4RT570T'
p1270
S'K'
sS'AIRU1G1T'
p1271
S'K'
sS'4RT705T'
p1272
S'K'
sS'ELBI'
p1273
S'A'
sS'1CBBT'
p1274
S'K'
sS'AORESZ6_8'
p1275
S'rad'
p1276
sS'3BTU_BPT'
p1277
S'K'
sS'AOSARES2'
p1278
S'deg'
p1279
sS'AORESY5_1'
p1280
S'rad'
p1281
sS'DEAP15VOLTB'
p1282
S'V'
sS'ELBV'
p1283
S'V'
sS'4RT591T'
p1284
S'K'
sS'3LDRTPOS'
p1285
S'mm'
p1286
sS'1DEP0BVO'
p1287
S'V'
sS'ANGLEEPHEM_POINT_MOONCENTANG'
p1288
S'deg'
p1289
sS'SOLAREPHEM1_TIME'
p1290
S's'
sS'TMZP_MY'
p1291
S'K'
sS'CTSB15V'
p1292
S'V'
sS'4OAVOBAT_WIDE'
p1293
S'K'
sS'CPCA15V'
p1294
S'V'
sS'TMYHNG'
p1295
S'K'
sS'AOADBCH2A_NBG'
p1296
S'deg'
p1297
sS'SIM_Y'
p1298
S'mm'
p1299
sS'PLAEV3BT'
p1300
S'K'
sS'SIM_Z'
p1301
S'mm'
p1302
sS'TCYLFMZM'
p1303
S'K'
sS'1DEICBCU'
p1304
S'A'
sS'DPAGNDREF1'
p1305
S'V'
sS'PFTANKOP'
p1306
S'kPa'
p1307
sS'DPAGNDREF2'
p1308
S'V'
sS'PLINE12T'
p1309
S'K'
sS'AIRU2VFT'
p1310
S'K'
sS'EOESAT1C'
p1311
S'K'
sS'CRXAV'
p1312
S'V'
sS'C28VMONA'
p1313
S'V'
sS'OHRTHR12_WIDE'
p1314
S'K'
sS'TSCIUSF1'
p1315
S'K'
sS'3TSPZDET'
p1316
S'K'
sS'TPYSADA'
p1317
S'K'
sS'EORTDMN15D'
p1318
S'K'
sS'OOBTHR34_WIDE'
p1319
S'K'
sS'PHETANKP'
p1320
S'kPa'
p1321
sS'PLINE08T'
p1322
S'K'
sS'OOBTHR49_WIDE'
p1323
S'K'
sS'POLINE01T'
p1324
S'K'
sS'TPC_FSSE'
p1325
S'K'
sS'PLAED3FT'
p1326
S'K'
sS'AFLC12BI'
p1327
S'mA'
p1328
sS'CIUA5V'
p1329
S'V'
sS'AOADBCH1A_PCAD'
p1330
S'deg'
p1331
sS'AFLC14AI'
p1332
S'mA'
p1333
sS'AFLCA3AI'
p1334
S'mA'
p1335
sS'TCYLAFT5'
p1336
S'K'
sS'OOBTHR44_WIDE'
p1337
S'K'
sS'AORESZ7'
p1338
S'rad'
p1339
sS'3TTRALCT'
p1340
S'K'
sS'2P15VBVL'
p1341
S'V'
sS'OHRTHR45_WIDE'
p1342
S'K'
sS'AORESZ3'
p1343
S'rad'
p1344
sS'PCM04T'
p1345
S'K'
sS'OOBTHR41_WIDE'
p1346
S'K'
sS'AORESZ0'
p1347
S'rad'
p1348
sS'AORWNTQ4'
p1349
S'J'
sS'AORWNTQ5'
p1350
S'J'
sS'AORWNTQ6'
p1351
S'J'
sS'TSCIUSF2'
p1352
S'K'
sS'AORWMC6_1'
p1353
S'J*s'
p1354
sS'EOECNV2C'
p1355
S'V'
sS'AORWNTQ2'
p1356
S'J'
sS'CPA2V'
p1357
S'V'
sS'DEAM6VOLTA'
p1358
S'V'
sS'PLAED3HT'
p1359
S'K'
sS'AOSPBCS4B'
p1360
S'mA'
p1361
sS'4RT567T'
p1362
S'K'
sS'4LFSPAT'
p1363
S'K'
sS'PFDM101T'
p1364
S'K'
sS'6RATE2'
p1365
S'rad/s'
p1366
sS'6RATE3'
p1367
S'rad/s'
p1368
sS'6RATE1'
p1369
S'rad/s'
p1370
sS'6SAEST1'
p1371
S'rad'
p1372
sS'AORWMC1'
p1373
S'J*s'
p1374
sS'6SAEST2'
p1375
S'rad'
p1376
sS'AORWMC4'
p1377
S'J*s'
p1378
sS'AORWMC5'
p1379
S'J*s'
p1380
sS'6ALPANG'
p1381
S'deg'
p1382
sS'FPTEMP_11'
p1383
S'K'
sS'OHRTHR50_WIDE'
p1384
S'K'
sS'PM1THV2T'
p1385
S'K'
sS'TB1T2'
p1386
S'K'
sS'TMP_FEP1_MONG'
p1387
S'K'
sS'TEP_EIA'
p1388
S'K'
sS'AOACYAN1'
p1389
S'arcsec'
p1390
sS'AOSCPOS1'
p1391
S'km'
p1392
sS'AOSCPOS2'
p1393
S'km'
p1394
sS'AOSCPOS3'
p1395
S'km'
p1396
sS'4RT588T'
p1397
S'K'
sS'AFLCA6AI'
p1398
S'mA'
p1399
sS'PCM01T'
p1400
S'K'
sS'4MP5AV'
p1401
S'V'
sS'4RT596T'
p1402
S'K'
sS'TPCP_RW2'
p1403
S'K'
sS'6SINTER3'
p1404
S'rad'
p1405
sS'6SINTER2'
p1406
S'rad'
p1407
sS'6SINTER1'
p1408
S'rad'
p1409
sS'OOBTHR52'
p1410
S'K'
sS'OOBTHR55'
p1411
S'K'
sS'OOBTHR54'
p1412
S'K'
sS'OOBTHR57'
p1413
S'K'
sS'OOBTHR56'
p1414
S'K'
sS'OHRTHR57_WIDE'
p1415
S'K'
sS'OOBTHR58'
p1416
S'K'
sS'SIM_X'
p1417
S'mm'
p1418
sS'PLINE14T'
p1419
S'K'
sS'1SSMYT'
p1420
S'K'
sS'CTXBV'
p1421
S'V'
sS'4PRT2BT'
p1422
S'K'
sS'ARWA6BT'
p1423
S'K'
sS'4RT575T'
p1424
S'K'
sS'CPA1BPT'
p1425
S'K'
sS'PM4THV2T'
p1426
S'K'
sS'4IP5AV'
p1427
S'V'
sS'4VRMOAV'
p1428
S'V'
sS'6CSSI3'
p1429
S'mA'
p1430
sS'2PMT1T'
p1431
S'K'
sS'EB2V'
p1432
S'V'
sS'1DPAMZT'
p1433
S'K'
sS'EIACVBV'
p1434
S'V'
sS'EORTDMN27D'
p1435
S'K'
sS'4RT703T'
p1436
S'K'
sS'1DAHHBVO'
p1437
S'V'
sS'AFSSPC1V'
p1438
S'V'
sS'1DEP1AVO'
p1439
S'V'
sS'1VAHOBT'
p1440
S'K'
sS'1MAHOBT'
p1441
S'K'
sS'4RT706T'
p1442
S'K'
sS'PFTANK1T'
p1443
S'K'
sS'CRXBLS'
p1444
S'kHz'
p1445
sS'AOSAEST2'
p1446
S'rad'
p1447
sS'4RT557T'
p1448
S'K'
sS'OHRTHR44_WIDE'
p1449
S'K'
sS'POLINE12T'
p1450
S'K'
sS'TASPPCM'
p1451
S'K'
sS'OHRTHR45'
p1452
S'K'
sS'OHRTHR44'
p1453
S'K'
sS'OHRTHR47'
p1454
S'K'
sS'OHRTHR46'
p1455
S'K'
sS'OHRTHR41'
p1456
S'K'
sS'OHRTHR40'
p1457
S'K'
sS'OHRTHR43'
p1458
S'K'
sS'OHRTHR42'
p1459
S'K'
sS'AWD2TQI'
p1460
S'A'
sS'4LPOSARO'
p1461
S'deg'
p1462
sS'PCM03T'
p1463
S'K'
sS'EOEB1DIC'
p1464
S'A'
sS'TMP_FEP0_MONG'
p1465
S'K'
sS'62RCSTMR'
p1466
S's'
sS'TASPPCU'
p1467
S'K'
sS'4RT565T'
p1468
S'K'
sS'POM2THV1T'
p1469
S'K'
sS'64RCSTMR'
p1470
S's'
sS'4RT708T'
p1471
S'K'
sS'OOBAGRD6'
p1472
g1096
sS'TB1T3'
p1473
S'K'
sS'OHRTHR20_WIDE'
p1474
S'K'
sS'AOBETANG'
p1475
S'deg'
p1476
sS'OOBAGRD3'
p1477
g1096
sS'PLAED1FT'
p1478
S'K'
sS'EB3CI'
p1479
S'A'
sS'AORESZ1_1'
p1480
S'rad'
p1481
sS'TATECDPT'
p1482
S'K'
sS'OOBTHR30_WIDE'
p1483
S'K'
sS'AOSUNER1'
p1484
S'rad'
p1485
sS'4MP28AV'
p1486
S'V'
sS'1HOPRBPR'
p1487
S'kPa'
p1488
sS'1CRBT'
p1489
S'K'
sS'AWD6TQI'
p1490
S'A'
s.