(dp0
S'AORWPI4B'
p1
S'MSEC'
p2
sS'1DEAMZT'
p3
S'DEGC'
p4
sS'PLINE16T'
p5
S'DEGF'
p6
sS'EORTDMN18D'
p7
S'DEGF'
p8
sS'CTXAV'
p9
S'V'
p10
sS'TFSPPCM'
p11
S'DEGF'
p12
sS'EB1CI'
p13
S'AMP'
p14
sS'OHRTHR38'
p15
S'DEGF'
p16
sS'OHRTHR39'
p17
S'DEGF'
p18
sS'TFSPPCP'
p19
S'DEGF'
p20
sS'ASPEFSW3B'
p21
S'DEG'
p22
sS'CUSOAOVN'
p23
S'W'
p24
sS'OHRTHR30'
p25
S'DEGF'
p26
sS'OHRTHR31'
p27
S'DEGF'
p28
sS'OHRTHR33'
p29
S'DEGF'
p30
sS'1DPP0BVO'
p31
g10
sS'OHRTHR35'
p32
S'DEGF'
p33
sS'OHRTHR36'
p34
S'DEGF'
p35
sS'OHRTHR37'
p36
S'DEGF'
p37
sS'EORTDMN11D'
p38
S'DEGF'
p39
sS'AFLC11BI'
p40
S'MAMP'
p41
sS'AORWMC3_1'
p42
S'FTLBSEC'
p43
sS'PLAED2FT'
p44
S'DEGF'
p45
sS'TEPHIN'
p46
S'DEGF'
p47
sS'3TTHRC1T'
p48
S'DEGC'
p49
sS'1PDEAAT'
p50
S'DEGC'
p51
sS'ELBI_LOW'
p52
S'AMP'
p53
sS'4RT562T'
p54
S'DEGF'
p55
sS'4PRT1AT'
p56
S'DEGF'
p57
sS'AORWMOM1'
p58
S'FTLBSEC'
p59
sS'TMZP_PY'
p60
S'DEGF'
p61
sS'4RT710T'
p62
S'DEGF'
p63
sS'ASPEB5CV'
p64
g10
sS'TMP_FEP0_RAM'
p65
S'DEGC'
p66
sS'AOZABR'
p67
S'RAD'
p68
sS'AORESZ5_1'
p69
S'RAD'
p70
sS'TB2T3'
p71
S'DEGF'
p72
sS'TB2T2'
p73
S'DEGF'
p74
sS'PLINE06T'
p75
S'DEGF'
p76
sS'AOADBCH1A_PCAD'
p77
S'DEG'
p78
sS'AORWPI3B'
p79
S'MSEC'
p80
sS'1DAHAVO'
p81
g10
sS'PXTANK2T'
p82
S'DEGF'
p83
sS'TPCP_RW3'
p84
S'DEGF'
p85
sS'3TSMYDPT'
p86
S'DEGC'
p87
sS'PR1TV02T'
p88
S'DEGF'
p89
sS'3TTACS1T'
p90
S'DEGC'
p91
sS'AORESY2_1'
p92
S'RAD'
p93
sS'PHOFP1T'
p94
S'DEGF'
p95
sS'4MP5AV'
p96
S'VDC'
p97
sS'AORTERR2'
p98
S'RADPS'
p99
sS'CUSOA28V'
p100
g10
sS'OOBTHR34'
p101
S'DEGF'
p102
sS'AVACMON'
p103
S'DEGC'
p104
sS'EOECNV2C'
p105
g10
sS'OOBTHR33'
p106
S'DEGF'
p107
sS'AOATTER3'
p108
S'RAD'
p109
sS'TAPEA1T'
p110
S'DEGF'
p111
sS'ES1P5CV'
p112
g10
sS'EOESAC1C'
p113
S'AMP'
p114
sS'OOBTHR18'
p115
S'DEGF'
p116
sS'PFTANKIP'
p117
S'PSIA'
p118
sS'CVEEP'
p119
g10
sS'OOBTHR14'
p120
S'DEGF'
p121
sS'OOBTHR17'
p122
S'DEGF'
p123
sS'OOBTHR30'
p124
S'DEGF'
p125
sS'OOBTHR11'
p126
S'DEGF'
p127
sS'OOBTHR10'
p128
S'DEGF'
p129
sS'ECNV2V'
p130
g10
sS'OOBTHR12'
p131
S'DEGF'
p132
sS'EOEB3CIC'
p133
S'AMP'
p134
sS'CUSOBOVN'
p135
g24
sS'EOEB1CIC'
p136
S'AMP'
p137
sS'TB3T1'
p138
S'DEGF'
p139
sS'4HLL1AT'
p140
S'DEGF'
p141
sS'AOSCPOS3'
p142
S'KM'
p143
sS'AACCCDRT'
p144
S'DEGF'
p145
sS'ESAMYI'
p146
S'AMP'
p147
sS'TMYSADA'
p148
S'DEGF'
p149
sS'AACH2T'
p150
S'DEGF'
p151
sS'OHRTHR34'
p152
S'DEGF'
p153
sS'AFLCA5AI'
p154
S'MAMP'
p155
sS'3TSMXSPT'
p156
S'DEGC'
p157
sS'AORESY3'
p158
S'RAD'
p159
sS'CVEER'
p160
g10
sS'4RT584T'
p161
S'DEGF'
p162
sS'OOBTHR13'
p163
S'DEGF'
p164
sS'2P05VBVL'
p165
S'VDC'
p166
sS'PLAED3IT'
p167
S'DEGF'
p168
sS'EORTDMN22D'
p169
S'DEGF'
p170
sS'4RT592T'
p171
S'DEGF'
p172
sS'61RCSTMR'
p173
S'MIN'
p174
sS'AIRU1BT'
p175
S'DEGF'
p176
sS'PR2TV01T'
p177
S'DEGF'
p178
sS'TCM_SSR1'
p179
S'DEGF'
p180
sS'6DRFTQC2'
p181
S'FTLB'
p182
sS'6DRFTQC3'
p183
S'FTLB'
p184
sS'6DRFTQC1'
p185
S'FTLB'
p186
sS'5EPHINT'
p187
S'DEGC'
p188
sS'4VRMOBV'
p189
S'VDC'
p190
sS'PLAEV3AT'
p191
S'DEGF'
p192
sS'AORESY0'
p193
S'RAD'
p194
sS'AFLCA1AI'
p195
S'MAMP'
p196
sS'2DCENTRT'
p197
S'DEGC'
p198
sS'OOBTHR60'
p199
S'DEGF'
p200
sS'OOBTHR61'
p201
S'DEGF'
p202
sS'OOBTHR62'
p203
S'DEGF'
p204
sS'OOBTHR63'
p205
S'DEGF'
p206
sS'PLINE11T'
p207
S'DEGF'
p208
sS'EPA15V'
p209
g10
sS'AOALPANG'
p210
S'DEG'
p211
sS'TRSPMTPC'
p212
S'DEGF'
p213
sS'AOSPACS2B'
p214
S'MAMP'
p215
sS'AODVTIME'
p216
S'SEC'
p217
sS'3FASEAAT'
p218
S'DEGC'
p219
sS'AODITHR3'
p220
S'RAD'
p221
sS'AODITHR2'
p222
S'RAD'
p223
sS'AODITHR1'
p224
S'RAD'
p225
sS'PLAED1BT'
p226
S'DEGF'
p227
sS'TCYLPCM'
p228
S'DEGF'
p229
sS'AFLC12AI'
p230
S'MAMP'
p231
sS'AOSACMD2'
p232
S'RAD'
p233
sS'AOADACH1A_PCAD'
p234
S'DEG'
p235
sS'OOBTHR31'
p236
S'DEGF'
p237
sS'OHRTHR04'
p238
S'DEGF'
p239
sS'OOBTHR46'
p240
S'DEGF'
p241
sS'EPB15V'
p242
g10
sS'2UVLSPXT'
p243
S'DEGC'
p244
sS'TFSSBKT2'
p245
S'DEGF'
p246
sS'3FARALAT'
p247
S'DEGC'
p248
sS'TMP_FEP0_FB'
p249
g66
sS'4HLL2AT'
p250
S'DEGF'
p251
sS'TCM_PA2'
p252
S'DEGF'
p253
sS'OHRTHR58'
p254
S'DEGF'
p255
sS'TMP_FEP1_RAM'
p256
g66
sS'3FAPYZAT'
p257
S'DEGC'
p258
sS'OHRTHR08'
p259
S'DEGF'
p260
sS'AOSCVEL3'
p261
S'KMPS'
p262
sS'PLAED3GT'
p263
S'DEGF'
p264
sS'AORATE1'
p265
S'RADPS'
p266
sS'AORATE3'
p267
S'RADPS'
p268
sS'AORATE2'
p269
S'RADPS'
p270
sS'CRXAV'
p271
g10
sS'EORTDMN12D'
p272
S'DEGF'
p273
sS'EOECNV3C'
p274
g10
sS'3TTACS2T'
p275
S'DEGC'
p276
sS'TCM_CTU'
p277
S'DEGF'
p278
sS'ESAPYI'
p279
S'AMP'
p280
sS'4HFSPBT'
p281
S'DEGF'
p282
sS'EEPB5V'
p283
g10
sS'3FAFLAAT'
p284
S'DEGC'
p285
sS'TSAMYT'
p286
S'DEGF'
p287
sS'4MP28BV'
p288
S'VDC'
p289
sS'PFDM101T'
p290
S'DEGF'
p291
sS'OHRTHR50'
p292
S'DEGF'
p293
sS'PLAED3DT'
p294
S'DEGF'
p295
sS'OHRTHR51'
p296
S'DEGF'
p297
sS'EORTDMN23D'
p298
S'DEGF'
p299
sS'AWD3CV5V'
p300
g10
sS'PLINE02T'
p301
S'DEGF'
p302
sS'4RT706T'
p303
S'DEGF'
p304
sS'TPCM_RW5'
p305
S'DEGF'
p306
sS'2CEAHVPT'
p307
S'DEGC'
p308
sS'PLAEV2AT'
p309
S'DEGF'
p310
sS'EOEB2DIC'
p311
S'AMP'
p312
sS'AORESZ6_5'
p313
S'RAD'
p314
sS'AOSUNER1'
p315
S'RAD'
p316
sS'TRSPRWCM'
p317
S'DEGF'
p318
sS'AOSUNER3'
p319
S'RAD'
p320
sS'AOSUNER2'
p321
S'RAD'
p322
sS'OHRTHR55'
p323
S'DEGF'
p324
sS'PLAED2DT'
p325
S'DEGF'
p326
sS'AORESY6_1'
p327
S'RAD'
p328
sS'TESH2'
p329
S'DEGF'
p330
sS'CTSA5V'
p331
g10
sS'1DPAMYT'
p332
S'DEGC'
p333
sS'1DACTBT'
p334
S'DEGC'
p335
sS'4RT556T'
p336
S'DEGF'
p337
sS'AFLCA4BI'
p338
S'MAMP'
p339
sS'AORESZ6_1'
p340
S'RAD'
p341
sS'PM4THV1T'
p342
S'DEGF'
p343
sS'CSITA15V'
p344
g10
sS'TPZLGABM'
p345
S'DEGF'
p346
sS'AFLC13AI'
p347
S'MAMP'
p348
sS'AORWBTQ1'
p349
S'FTLB'
p350
sS'AORWBTQ2'
p351
S'FTLB'
p352
sS'AORWBTQ3'
p353
S'FTLB'
p354
sS'AORWBTQ4'
p355
S'FTLB'
p356
sS'AGWS1V'
p357
g10
sS'AORWBTQ6'
p358
S'FTLB'
p359
sS'AWD6CV5V'
p360
g10
sS'3FABRCAT'
p361
S'DEGC'
p362
sS'AWD4CV5V'
p363
g10
sS'4RT576T'
p364
S'DEGF'
p365
sS'AIRU1G1T'
p366
S'DEGF'
p367
sS'OHRTHR53'
p368
S'DEGF'
p369
sS'PR2TV02T'
p370
S'DEGF'
p371
sS'PLAED4AT'
p372
S'DEGF'
p373
sS'2P05VAVL'
p374
S'VDC'
p375
sS'PLAEV4AT'
p376
S'DEGF'
p377
sS'1VAHCBT'
p378
S'DEGC'
p379
sS'PM2THV1T'
p380
S'DEGF'
p381
sS'PLINE09T'
p382
S'DEGF'
p383
sS'1DPP0AVO'
p384
g10
sS'5EIOT'
p385
S'DEGC'
p386
sS'CPCB5V'
p387
g10
sS'PLAED1IT'
p388
S'DEGF'
p389
sS'3MRMMXMV'
p390
S'PWMSTEP'
p391
sS'CPCA5V'
p392
g10
sS'AFLCA2BI'
p393
S'MAMP'
p394
sS'TEIO'
p395
S'DEGF'
p396
sS'AORWMC2_1'
p397
S'FTLBSEC'
p398
sS'ELBV'
p399
g10
sS'AACBPRT'
p400
S'DEGF'
p401
sS'PLAED1AT'
p402
S'DEGF'
p403
sS'PFTANK1T'
p404
S'DEGF'
p405
sS'TPCM_RW4'
p406
S'DEGF'
p407
sS'4RT580T'
p408
S'DEGF'
p409
sS'TEP_PCU'
p410
S'DEGF'
p411
sS'4VRMHBV'
p412
S'VDC'
p413
sS'PHETANKT'
p414
S'DEGF'
p415
sS'TAPE1PST'
p416
S'DEGF'
p417
sS'4RT558T'
p418
S'DEGF'
p419
sS'1DEP0BVO'
p420
g10
sS'OOBTHR24'
p421
S'DEGF'
p422
sS'6TQCMD1'
p423
S'FTLB'
p424
sS'6TQCMD2'
p425
S'FTLB'
p426
sS'6TQCMD3'
p427
S'FTLB'
p428
sS'OOBTHR20'
p429
S'DEGF'
p430
sS'OOBTHR21'
p431
S'DEGF'
p432
sS'OOBTHR22'
p433
S'DEGF'
p434
sS'OOBTHR23'
p435
S'DEGF'
p436
sS'OHRTHR03'
p437
S'DEGF'
p438
sS'AVD2CV5V'
p439
g10
sS'OOBTHR28'
p440
S'DEGF'
p441
sS'OOBTHR29'
p442
S'DEGF'
p443
sS'TB2T1'
p444
S'DEGF'
p445
sS'EORTDMN16D'
p446
S'DEGF'
p447
sS'2FHTRMZT'
p448
S'DEGC'
p449
sS'AOSAANG1'
p450
S'RAD'
p451
sS'AOSAANG2'
p452
S'RAD'
p453
sS'CTSB15V'
p454
g10
sS'6MUPCNT3'
p455
S'SEC'
p456
sS'6MUPCNT2'
p457
S'SEC'
p458
sS'6MUPCNT1'
p459
S'SEC'
p460
sS'4RT561T'
p461
S'DEGF'
p462
sS'AOSAEST2'
p463
S'RAD'
p464
sS'6MUPCNT4'
p465
S'SEC'
p466
sS'OHRTHR57'
p467
S'DEGF'
p468
sS'AOMANTIM'
p469
S'SEC'
p470
sS'CTUB5V'
p471
g10
sS'AWD4TQI'
p472
S'AMP'
p473
sS'4LLL2AT'
p474
S'DEGF'
p475
sS'AWD5CV5V'
p476
g10
sS'4ALL1BT'
p477
S'DEGF'
p478
sS'CPCB15V'
p479
g10
sS'4RT711T'
p480
S'DEGF'
p481
sS'AAOTALT'
p482
S'DEGF'
p483
sS'AGWS2V'
p484
g10
sS'EORTDMN26D'
p485
S'DEGF'
p486
sS'EB1V'
p487
g10
sS'AOFFTQ1'
p488
S'FTLB'
p489
sS'AOFFTQ2'
p490
S'FTLB'
p491
sS'AOFFTQ3'
p492
S'FTLB'
p493
sS'OHRTHR05'
p494
S'DEGF'
p495
sS'3SFLXCST'
p496
S'DEGC'
p497
sS'PLINE07T'
p498
S'DEGF'
p499
sS'PLAEV2BT'
p500
S'DEGF'
p501
sS'AOSCVEL1'
p502
S'KMPS'
p503
sS'3TSPYFET'
p504
S'DEGC'
p505
sS'4RT598T'
p506
S'DEGF'
p507
sS'1DE28AVO'
p508
g10
sS'2N15VBVL'
p509
S'VDC'
p510
sS'AFLC13BI'
p511
S'MAMP'
p512
sS'PR4TV02T'
p513
S'DEGF'
p514
sS'AOGBIAS1'
p515
S'RADPS'
p516
sS'AOGBIAS2'
p517
S'RADPS'
p518
sS'AOGBIAS3'
p519
S'RADPS'
p520
sS'1DEN1AVO'
p521
g10
sS'1DEN0AVO'
p522
g10
sS'1DEP2BVO'
p523
g10
sS'TMP_FEP1_FB'
p524
g66
sS'1DPICBCU'
p525
S'AMP'
p526
sS'1DP28AVO'
p527
g10
sS'2CONDMXT'
p528
S'DEGC'
p529
sS'4CSDHAV'
p530
S'VDC'
p531
sS'4RT587T'
p532
S'DEGF'
p533
sS'AI1AX2Y'
p534
S'DEGPS'
p535
sS'AI1AX2X'
p536
S'DEGPS'
p537
sS'TEP_PPAN'
p538
S'DEGF'
p539
sS'AORWCMD5'
p540
S'FTLB'
p541
sS'AORWCMD4'
p542
S'FTLB'
p543
sS'OHRTHR29'
p544
S'DEGF'
p545
sS'AORWCMD6'
p546
S'FTLB'
p547
sS'AORWCMD1'
p548
S'FTLB'
p549
sS'AORWCMD3'
p550
S'FTLB'
p551
sS'AORWCMD2'
p552
S'FTLB'
p553
sS'OHRTHR23'
p554
S'DEGF'
p555
sS'OHRTHR22'
p556
S'DEGF'
p557
sS'OHRTHR21'
p558
S'DEGF'
p559
sS'OHRTHR20'
p560
S'DEGF'
p561
sS'OHRTHR27'
p562
S'DEGF'
p563
sS'AOCMDAC1'
p564
S'RADSS'
p565
sS'AOCMDAC2'
p566
S'RADSS'
p567
sS'AOCMDAC3'
p568
S'RADSS'
p569
sS'4IN15BV'
p570
S'VDC'
p571
sS'63RCSTMR'
p572
S'MIN'
p573
sS'TCNR_BRM'
p574
S'DEGF'
p575
sS'TCM_IFU'
p576
S'DEGF'
p577
sS'TCYLFMZP'
p578
S'DEGF'
p579
sS'EOEB1VC'
p580
g10
sS'TCYLFMZM'
p581
S'DEGF'
p582
sS'4RT597T'
p583
S'DEGF'
p584
sS'TEP_RCTU'
p585
S'DEGF'
p586
sS'4RT702T'
p587
S'DEGF'
p588
sS'AOSPBCS1B'
p589
S'MAMP'
p590
sS'1VAHOAT'
p591
S'DEGC'
p592
sS'AACH1T'
p593
S'DEGF'
p594
sS'4PRT2AT'
p595
S'DEGF'
p596
sS'TPC_ESE'
p597
S'DEGF'
p598
sS'EB3V'
p599
g10
sS'AFLCA9AI'
p600
S'MAMP'
p601
sS'CTSB5V'
p602
g10
sS'AFLCA1BI'
p603
S'MAMP'
p604
sS'4VRMHAV'
p605
S'VDC'
p606
sS'PR4TV01T'
p607
S'DEGF'
p608
sS'PLINE10T'
p609
S'DEGF'
p610
sS'TPC_RCTU'
p611
S'DEGF'
p612
sS'TCM_PA1'
p613
S'DEGF'
p614
sS'EORTDMN27D'
p615
S'DEGF'
p616
sS'AESAPHA1'
p617
S'DEG'
p618
sS'AESAPHA2'
p619
S'DEG'
p620
sS'PLINE03T'
p621
S'DEGF'
p622
sS'2FRADPYT'
p623
S'DEGC'
p624
sS'1DE28BVO'
p625
g10
sS'AOADACH2A_NBG'
p626
S'DEG'
p627
sS'AORWMOM2'
p628
S'FTLBSEC'
p629
sS'PLAED4FT'
p630
S'DEGF'
p631
sS'C28VMONA'
p632
g10
sS'4LLL2BT'
p633
S'DEGF'
p634
sS'1DEP1BVO'
p635
g10
sS'AOSPACS3B'
p636
S'MAMP'
p637
sS'PLAEV4BT'
p638
S'DEGF'
p639
sS'ES2P5CV'
p640
g10
sS'AORWPI5B'
p641
S'MSEC'
p642
sS'4HLL2BT'
p643
S'DEGF'
p644
sS'TFSPCMM'
p645
S'DEGF'
p646
sS'EORTDMN19D'
p647
S'DEGF'
p648
sS'4HFSPAT'
p649
S'DEGF'
p650
sS'4MP5BV'
p651
S'VDC'
p652
sS'3TTRALAT'
p653
S'DEGC'
p654
sS'TFSPCMP'
p655
S'DEGF'
p656
sS'AOACZAN5'
p657
S'ASEC'
p658
sS'AOACZAN4'
p659
S'ASEC'
p660
sS'AOACZAN7'
p661
S'ASEC'
p662
sS'AOACZAN6'
p663
S'ASEC'
p664
sS'AOACZAN1'
p665
S'ASEC'
p666
sS'AOACZAN0'
p667
S'ASEC'
p668
sS'AOACZAN3'
p669
S'ASEC'
p670
sS'AOACZAN2'
p671
S'ASEC'
p672
sS'3TTHRC2T'
p673
S'DEGC'
p674
sS'EOEBCC'
p675
S'AMP'
p676
sS'TCYLAFT4'
p677
S'DEGF'
p678
sS'OOBTHR26'
p679
S'DEGF'
p680
sS'CRXALS'
p681
S'KHZ'
p682
sS'AOYABR'
p683
S'RAD'
p684
sS'AOSRERR1'
p685
S'RADPS'
p686
sS'AOSRERR2'
p687
S'RADPS'
p688
sS'AOSRERR3'
p689
S'RADPS'
p690
sS'PLAED2GT'
p691
S'DEGF'
p692
sS'CXO5VOBB'
p693
g10
sS'AOSAEST1'
p694
S'RAD'
p695
sS'1DAHACU'
p696
S'AMP'
p697
sS'4RT565T'
p698
S'DEGF'
p699
sS'AORWINT3'
p700
S'MSEC'
p701
sS'PM3THV1T'
p702
S'DEGF'
p703
sS'4LPOSBRO'
p704
S'DEG'
p705
sS'AOETIMEX'
p706
S'SEC'
p707
sS'4RT594T'
p708
S'DEGF'
p709
sS'6SARES2'
p710
S'DEG'
p711
sS'6SARES1'
p712
S'DEG'
p713
sS'4RT701T'
p714
S'DEGF'
p715
sS'1DEN0BVO'
p716
g10
sS'4IP15BV'
p717
S'VDC'
p718
sS'4ALL2BT'
p719
S'DEGF'
p720
sS'AORWINT6'
p721
S'MSEC'
p722
sS'CIUB5V'
p723
g10
sS'3FAMTRAT'
p724
S'DEGC'
p725
sS'OOBTHR19'
p726
S'DEGF'
p727
sS'CTUA15V'
p728
g10
sS'4CSDHBV'
p729
S'VDC'
p730
sS'AFLC10BI'
p731
S'MAMP'
p732
sS'PLAED2ET'
p733
S'DEGF'
p734
sS'CSSR1CAV'
p735
g10
sS'TMP_BEP_OSC'
p736
g66
sS'AOINTTIM'
p737
S'SEC'
p738
sS'3TTBRGBT'
p739
S'DEGC'
p740
sS'EOESAC2C'
p741
S'AMP'
p742
sS'AORWINT1'
p743
S'MSEC'
p744
sS'AORWINT2'
p745
S'MSEC'
p746
sS'4IP5AV'
p747
S'VDC'
p748
sS'AORWINT4'
p749
S'MSEC'
p750
sS'1DACTAT'
p751
S'DEG'
p752
sS'4RT557T'
p753
S'DEGF'
p754
sS'AFLCA4AI'
p755
S'MAMP'
p756
sS'OOBTHR15'
p757
S'DEGF'
p758
sS'4SP51V'
p759
S'VDC'
p760
sS'EORTDMN25D'
p761
S'DEGF'
p762
sS'PLAED2CT'
p763
S'DEGF'
p764
sS'4RT577T'
p765
S'DEGF'
p766
sS'4IN15AV'
p767
S'VDC'
p768
sS'C10VREFA'
p769
S'VDC'
p770
sS'EOEB2VC'
p771
g10
sS'4PRT3BT'
p772
S'DEGF'
p773
sS'AWD1CV5V'
p774
g10
sS'PMTANK3T'
p775
S'DEGF'
p776
sS'AFLCA8BI'
p777
S'MAMP'
p778
sS'PLAED1DT'
p779
S'DEGF'
p780
sS'ARWA3BT'
p781
S'DEGF'
p782
sS'AOACINTT'
p783
S'MSEC'
p784
sS'OHRTHR63'
p785
S'DEGF'
p786
sS'3BTU_BPT'
p787
S'DEGC'
p788
sS'OHRTHR61'
p789
S'DEGF'
p790
sS'C10VREFB'
p791
S'VDC'
p792
sS'AOSYMOM3'
p793
S'FTLBSEC'
p794
sS'AOSYMOM2'
p795
S'FTLBSEC'
p796
sS'6BETANG'
p797
S'DEG'
p798
sS'EOEBCC_LOW'
p799
S'AMP'
p800
sS'AFLCA2AI'
p801
S'MAMP'
p802
sS'1OAHBT'
p803
S'DEGC'
p804
sS'TCYLAFT1'
p805
S'DEGF'
p806
sS'1DAHBCU'
p807
S'AMP'
p808
sS'PLAEV1AT'
p809
S'DEGF'
p810
sS'PMFP01T'
p811
S'DEGF'
p812
sS'AFLCA5BI'
p813
S'MAMP'
p814
sS'ECNV3V'
p815
g10
sS'PLINE15T'
p816
S'DEGF'
p817
sS'4RT583T'
p818
S'DEGF'
p819
sS'AIOAP5CV'
p820
g10
sS'TFSPRWC'
p821
S'DEGF'
p822
sS'4RT593T'
p823
S'DEGF'
p824
sS'TATECDRT'
p825
S'DEGF'
p826
sS'4RT559T'
p827
S'DEGF'
p828
sS'TSCTSF1'
p829
S'DEGF'
p830
sS'TSCTSF2'
p831
S'DEGF'
p832
sS'TSCTSF3'
p833
S'DEGF'
p834
sS'TSCTSF4'
p835
S'DEGF'
p836
sS'TSCTSF5'
p837
S'DEGF'
p838
sS'4PRT5BT'
p839
S'DEGF'
p840
sS'AFLCA6BI'
p841
S'MAMP'
p842
sS'TCM_RFAS'
p843
S'DEGF'
p844
sS'PLAED4ET'
p845
S'DEGF'
p846
sS'3FAFLBAT'
p847
S'DEGC'
p848
sS'6SARATC2'
p849
S'RADPS'
p850
sS'1DEICACU'
p851
S'AMP'
p852
sS'6SARATC1'
p853
S'RADPS'
p854
sS'1MAHCAT'
p855
S'DEGC'
p856
sS'PR3TV02T'
p857
S'DEGF'
p858
sS'3TSPZSPT'
p859
S'DEGC'
p860
sS'HKEBOXTEMP'
p861
S'DEGF'
p862
sS'1DEP3BVO'
p863
g10
sS'AOAVGDTQ'
p864
S'FTLB'
p865
sS'CXO5VOBA'
p866
g10
sS'EORTDMN17D'
p867
S'DEGF'
p868
sS'PLAED4BT'
p869
S'DEGF'
p870
sS'ADE1P5CV'
p871
g10
sS'TFSPPCU'
p872
S'DEGF'
p873
sS'4RT560T'
p874
S'DEGF'
p875
sS'AORESZ7'
p876
S'RAD'
p877
sS'6RWSPD3'
p878
S'RADPS'
p879
sS'6RWSPD2'
p880
S'RADPS'
p881
sS'6RWSPD5'
p882
S'RADPS'
p883
sS'6RWSPD4'
p884
S'RADPS'
p885
sS'6RWSPD6'
p886
S'RADPS'
p887
sS'1MAHOAT'
p888
S'DEGC'
p889
sS'AFLCA7AI'
p890
S'MAMP'
p891
sS'EB2DI'
p892
S'AMP'
p893
sS'EORTDMN24D'
p894
S'DEGF'
p895
sS'TRSPRWBB'
p896
S'DEGF'
p897
sS'TRSPRWBC'
p898
S'DEGF'
p899
sS'FPTEMP_11'
p900
g66
sS'FPTEMP_12'
p901
g66
sS'AORWPI1B'
p902
S'MSEC'
p903
sS'EB1DI'
p904
S'AMP'
p905
sS'PLAED3FT'
p906
S'DEGF'
p907
sS'AFLCA3AI'
p908
S'MAMP'
p909
sS'AFSSPC1V'
p910
g10
sS'TSCIUSF2'
p911
S'DEGF'
p912
sS'TSCIUSF5'
p913
S'DEGF'
p914
sS'AVD1CV5V'
p915
g10
sS'TSCIUSF8'
p916
S'DEGF'
p917
sS'1HOPRAPR'
p918
S'TORR'
p919
sS'ADE2P5CV'
p920
g10
sS'TASPPCP'
p921
S'DEGF'
p922
sS'3TTACS3T'
p923
S'DEGC'
p924
sS'CTSA15V'
p925
g10
sS'PFDM102T'
p926
S'DEGF'
p927
sS'PFDM202T'
p928
S'DEGF'
p929
sS'4MP28AV'
p930
S'VDC'
p931
sS'4RT586T'
p932
S'DEGF'
p933
sS'TEP_PSU1'
p934
S'DEGF'
p935
sS'CPA2V'
p936
g10
sS'PXDM01T'
p937
S'DEGF'
p938
sS'OOBTHR37'
p939
S'DEGF'
p940
sS'OOBTHR36'
p941
S'DEGF'
p942
sS'OOBTHR35'
p943
S'DEGF'
p944
sS'4RT705T'
p945
S'DEGF'
p946
sS'CUSOBIT'
p947
S'DEGF'
p948
sS'6SUNER1'
p949
S'RAD'
p950
sS'6SUNER2'
p951
S'RAD'
p952
sS'6SUNER3'
p953
S'RAD'
p954
sS'AOSYMOM1'
p955
S'FTLBSEC'
p956
sS'OOBTHR39'
p957
S'DEGF'
p958
sS'OOBTHR38'
p959
S'DEGF'
p960
sS'2P24VBVL'
p961
S'VDC'
p962
sS'AIRU2G2T'
p963
S'DEGF'
p964
sS'AWD3TQI'
p965
S'AMP'
p966
sS'1DEP3AVO'
p967
g10
sS'AIRU1G2T'
p968
S'DEGF'
p969
sS'TPC_CEA'
p970
S'DEGF'
p971
sS'AIRU1G2I'
p972
S'MAMP'
p973
sS'PM2THV2T'
p974
S'DEGF'
p975
sS'OOBTHR08'
p976
S'DEGF'
p977
sS'AVACMONV'
p978
g10
sS'4RT590T'
p979
S'DEGF'
p980
sS'TCYLAFT6'
p981
S'DEGF'
p982
sS'TEP_PSU2'
p983
S'DEGF'
p984
sS'OOBTHR25'
p985
S'DEGF'
p986
sS'1OAHAT'
p987
S'DEGC'
p988
sS'AHKNATPR'
p989
g10
sS'ASPEFSW4B'
p990
S'DEG'
p991
sS'ARWA4BT'
p992
S'DEGF'
p993
sS'PLAED4IT'
p994
S'DEGF'
p995
sS'AOMANRT'
p996
S'RADPS'
p997
sS'AOCSSI1'
p998
S'MAMP'
p999
sS'TPC_DEA'
p1000
S'DEGF'
p1001
sS'AOCSSI3'
p1002
S'MAMP'
p1003
sS'AIRU2G1T'
p1004
S'DEGF'
p1005
sS'AOCSSI4'
p1006
S'MAMP'
p1007
sS'AIRU2G1I'
p1008
S'MAMP'
p1009
sS'CTUB15V'
p1010
g10
sS'1VAHCAT'
p1011
S'DEGC'
p1012
sS'TB3T2'
p1013
S'DEGF'
p1014
sS'TB3T3'
p1015
S'DEGF'
p1016
sS'TRSPOTPC'
p1017
S'DEGF'
p1018
sS'PLAED3CT'
p1019
S'DEGF'
p1020
sS'1PIN1AT'
p1021
S'DEGC'
p1022
sS'PFTANK2T'
p1023
S'DEGF'
p1024
sS'1DP28BVO'
p1025
g10
sS'AOIRERL1'
p1026
S'RAD'
p1027
sS'PLAEV1BT'
p1028
S'DEGF'
p1029
sS'AOIRERL2'
p1030
S'RAD'
p1031
sS'PFDM201T'
p1032
S'DEGF'
p1033
sS'TCM_OBC'
p1034
S'DEGF'
p1035
sS'AOIRERL3'
p1036
S'RAD'
p1037
sS'1PDEABT'
p1038
S'DEGC'
p1039
sS'TPCP_RW2'
p1040
S'DEGF'
p1041
sS'PLAED2HT'
p1042
S'DEGF'
p1043
sS'AOADBCH2A_PCAD'
p1044
S'DEG'
p1045
sS'TRSPOTEP'
p1046
S'DEGF'
p1047
sS'AORWPI6B'
p1048
S'MSEC'
p1049
sS'TCM_PAN'
p1050
S'DEGF'
p1051
sS'TCM_SSR2'
p1052
S'DEGF'
p1053
sS'PMTANKP'
p1054
S'PSIA'
p1055
sS'EOECNV1C'
p1056
g10
sS'AFLCABH'
p1057
g10
sS'3FLCABPT'
p1058
S'DEGC'
p1059
sS'OHRTHR18'
p1060
S'DEGF'
p1061
sS'OHRTHR19'
p1062
S'DEGF'
p1063
sS'AFLCA3BI'
p1064
S'MAMP'
p1065
sS'OHRTHR14'
p1066
S'DEGF'
p1067
sS'OHRTHR15'
p1068
S'DEGF'
p1069
sS'OHRTHR12'
p1070
S'DEGF'
p1071
sS'OHRTHR13'
p1072
S'DEGF'
p1073
sS'OHRTHR10'
p1074
S'DEGF'
p1075
sS'OHRTHR11'
p1076
S'DEGF'
p1077
sS'CIUB15V'
p1078
g10
sS'3TTHRC3T'
p1079
S'DEGC'
p1080
sS'PLAED3HT'
p1081
S'DEGF'
p1082
sS'AIRU2BT'
p1083
S'DEGF'
p1084
sS'AORWSPD1'
p1085
S'RADPS'
p1086
sS'AORWSPD2'
p1087
S'RADPS'
p1088
sS'AORWSPD3'
p1089
S'RADPS'
p1090
sS'AORWSPD4'
p1091
S'RADPS'
p1092
sS'AORWSPD5'
p1093
S'RADPS'
p1094
sS'AORWSPD6'
p1095
S'RADPS'
p1096
sS'PM1THV1T'
p1097
S'DEGF'
p1098
sS'AOCMDRT2'
p1099
S'RADPS'
p1100
sS'AOCMDRT3'
p1101
S'RADPS'
p1102
sS'AI2AX2X'
p1103
S'DEGPS'
p1104
sS'AI2AX2Y'
p1105
S'DEGPS'
p1106
sS'4RT564T'
p1107
S'DEGF'
p1108
sS'EORTDMN21D'
p1109
S'DEGF'
p1110
sS'4RT704T'
p1111
S'DEGF'
p1112
sS'EOEBC'
p1113
S'AMP'
p1114
sS'PM3THV2T'
p1115
S'DEGF'
p1116
sS'1DEN1BVO'
p1117
g10
sS'4SP52V'
p1118
S'VDC'
p1119
sS'EORTDMN29D'
p1120
S'DEGF'
p1121
sS'PLINE04T'
p1122
S'DEGF'
p1123
sS'PLAED3BT'
p1124
S'DEGF'
p1125
sS'AIOBP5CV'
p1126
g10
sS'PXTANKOP'
p1127
S'PSIA'
p1128
sS'4OAVHRMT'
p1129
S'DEGF'
p1130
sS'EORTDMN28D'
p1131
S'DEGF'
p1132
sS'PFFP01T'
p1133
S'DEGF'
p1134
sS'2N15VAVL'
p1135
S'VDC'
p1136
sS'4RT578T'
p1137
S'DEGF'
p1138
sS'4LFSPBT'
p1139
S'DEGF'
p1140
sS'TMP_FEP1_PCB'
p1141
g66
sS'AOSPBCS2B'
p1142
S'MAMP'
p1143
sS'1DEP0AVO'
p1144
g10
sS'4CSDOAV'
p1145
S'VDC'
p1146
sS'TEP_BPAN'
p1147
S'DEGF'
p1148
sS'1WRAT'
p1149
S'DEGC'
p1150
sS'PLAED1GT'
p1151
S'DEGF'
p1152
sS'TASPRWC'
p1153
S'DEGF'
p1154
sS'4PRT3AT'
p1155
S'DEGF'
p1156
sS'PLINE01T'
p1157
S'DEGF'
p1158
sS'6RWCMD4'
p1159
S'FTLB'
p1160
sS'6RWCMD5'
p1161
S'FTLB'
p1162
sS'6RWCMD6'
p1163
S'FTLB'
p1164
sS'AFLCA8AI'
p1165
S'MAMP'
p1166
sS'AACBPPT'
p1167
S'DEGF'
p1168
sS'6RWCMD1'
p1169
S'FTLB'
p1170
sS'6RWCMD2'
p1171
S'FTLB'
p1172
sS'6RWCMD3'
p1173
S'FTLB'
p1174
sS'PCM02T'
p1175
S'DEGF'
p1176
sS'TCYLPCP'
p1177
S'DEGF'
p1178
sS'3FAMYZAT'
p1179
S'DEGC'
p1180
sS'AACCCDPT'
p1181
S'DEGF'
p1182
sS'OHRTHR17'
p1183
S'DEGF'
p1184
sS'OOBTHR41'
p1185
S'DEGF'
p1186
sS'4OAVOBAT'
p1187
S'DEGF'
p1188
sS'OOBTHR51'
p1189
S'DEGF'
p1190
sS'TPC_WDA'
p1191
S'DEGF'
p1192
sS'TSCTSF6'
p1193
S'DEGF'
p1194
sS'4RT709T'
p1195
S'DEGF'
p1196
sS'AWD1TQI'
p1197
S'AMP'
p1198
sS'TCM_TX2'
p1199
S'DEGF'
p1200
sS'TCM_TX1'
p1201
S'DEGF'
p1202
sS'CTUA5V'
p1203
g10
sS'4LLL1BT'
p1204
S'DEGF'
p1205
sS'TMZP_CNT'
p1206
S'DEGF'
p1207
sS'4RT582T'
p1208
S'DEGF'
p1209
sS'TMP_BEP_PCB'
p1210
g66
sS'AHKNATRD'
p1211
g10
sS'EOEB3VC'
p1212
g10
sS'OOBTHR50'
p1213
S'DEGF'
p1214
sS'AFLCA6AI'
p1215
S'MAMP'
p1216
sS'4CSDOBV'
p1217
S'VDC'
p1218
sS'AFLCA9BI'
p1219
S'MAMP'
p1220
sS'1DEP2AVO'
p1221
g10
sS'3RCTUBPT'
p1222
S'DEGC'
p1223
sS'6SURTER3'
p1224
S'RADPS'
p1225
sS'6SURTER2'
p1226
S'RADPS'
p1227
sS'6SURTER1'
p1228
S'RADPS'
p1229
sS'OHRTHR62'
p1230
S'DEGF'
p1231
sS'OOBTHR49'
p1232
S'DEGF'
p1233
sS'CRXBV'
p1234
g10
sS'OOBTHR47'
p1235
S'DEGF'
p1236
sS'OOBTHR44'
p1237
S'DEGF'
p1238
sS'OOBTHR45'
p1239
S'DEGF'
p1240
sS'OOBTHR42'
p1241
S'DEGF'
p1242
sS'OOBTHR43'
p1243
S'DEGF'
p1244
sS'OOBTHR40'
p1245
S'DEGF'
p1246
sS'4PRT5AT'
p1247
S'DEGF'
p1248
sS'AI1AX1X'
p1249
S'DEGPS'
p1250
sS'PLAED2IT'
p1251
S'DEGF'
p1252
sS'6SINTER2'
p1253
S'RAD'
p1254
sS'OOBTHR27'
p1255
S'DEGF'
p1256
sS'AWD2CV5V'
p1257
g10
sS'OOBTHR53'
p1258
S'DEGF'
p1259
sS'EORTDMN14D'
p1260
S'DEGF'
p1261
sS'OHRMGRD3'
p1262
S'DEGF'
p1263
sS'ARWA1BT'
p1264
S'DEGF'
p1265
sS'AFLCA7BI'
p1266
S'MAMP'
p1267
sS'PLAED4GT'
p1268
S'DEGF'
p1269
sS'PFTANKOP'
p1270
S'PSIA'
p1271
sS'TESH1'
p1272
S'DEGF'
p1273
sS'AFLC14BI'
p1274
S'MAMP'
p1275
sS'AOSPACS4B'
p1276
S'MAMP'
p1277
sS'ACPA5CV'
p1278
g10
sS'OHRTHR59'
p1279
S'DEGF'
p1280
sS'OHRTHR52'
p1281
S'DEGF'
p1282
sS'AESACHD2'
p1283
S'DEG'
p1284
sS'AESACHD1'
p1285
S'DEG'
p1286
sS'4LFSPAT'
p1287
S'DEGF'
p1288
sS'OHRTHR56'
p1289
S'DEGF'
p1290
sS'2P15VAVL'
p1291
S'VDC'
p1292
sS'OHRTHR54'
p1293
S'DEGF'
p1294
sS'AAOTAPMT'
p1295
S'DEGF'
p1296
sS'AORWPI2B'
p1297
S'MSEC'
p1298
sS'TCYZ_RW1'
p1299
S'DEGF'
p1300
sS'OHRTHR60'
p1301
S'DEGF'
p1302
sS'OOBTHR09'
p1303
S'DEGF'
p1304
sS'3TSMXCET'
p1305
S'DEGC'
p1306
sS'TCYZ_RW6'
p1307
S'DEGF'
p1308
sS'ARWA2BT'
p1309
S'DEGF'
p1310
sS'PLAED3ET'
p1311
S'DEGF'
p1312
sS'3FAPOS'
p1313
S'FASTEP'
p1314
sS'TSAPYT'
p1315
S'DEGF'
p1316
sS'CPA1V'
p1317
g10
sS'ASPEA5CV'
p1318
g10
sS'PXTANK1T'
p1319
S'DEGF'
p1320
sS'4RT568T'
p1321
S'DEGF'
p1322
sS'ACPB5CV'
p1323
g10
sS'OOBTHR02'
p1324
S'DEGF'
p1325
sS'1DPICACU'
p1326
S'AMP'
p1327
sS'OOBTHR03'
p1328
S'DEGF'
p1329
sS'OOBTHR54'
p1330
S'DEGF'
p1331
sS'TOXTSUPN'
p1332
S'DEGF'
p1333
sS'AOSACMD1'
p1334
S'RAD'
p1335
sS'4RT589T'
p1336
S'DEGF'
p1337
sS'ASPEFSW2B'
p1338
S'DEG'
p1339
sS'TCYLRWC'
p1340
S'DEGF'
p1341
sS'4RT595T'
p1342
S'DEGF'
p1343
sS'TCYLAFT5'
p1344
S'DEGF'
p1345
sS'3TRMTRAT'
p1346
S'DEGC'
p1347
sS'4RT700T'
p1348
S'DEGF'
p1349
sS'OOBTHR07'
p1350
S'DEGF'
p1351
sS'1CBAT'
p1352
S'DEGC'
p1353
sS'CPA2BPT'
p1354
S'DEGF'
p1355
sS'4IP15AV'
p1356
S'VDC'
p1357
sS'4ALL2AT'
p1358
S'DEGF'
p1359
sS'4PRT4AT'
p1360
S'DEGF'
p1361
sS'OOBTHR05'
p1362
S'DEGF'
p1363
sS'PLAED2AT'
p1364
S'DEGF'
p1365
sS'TAPEA2T'
p1366
S'DEGF'
p1367
sS'AFLC10AI'
p1368
S'MAMP'
p1369
sS'2PMT2T'
p1370
S'DEGC'
p1371
sS'EIACVAV'
p1372
g10
sS'4IP5BV'
p1373
S'VDC'
p1374
sS'6CSSI4'
p1375
S'MAMP'
p1376
sS'PLAED1HT'
p1377
S'DEGF'
p1378
sS'6CSSI2'
p1379
S'MAMP'
p1380
sS'6CSSI3'
p1381
S'MAMP'
p1382
sS'3TTVALVT'
p1383
S'DEGC'
p1384
sS'6CSSI1'
p1385
S'MAMP'
p1386
sS'PXDM02T'
p1387
S'DEGF'
p1388
sS'TCYLCMM'
p1389
S'DEGF'
p1390
sS'CUSOAIT'
p1391
S'DEGF'
p1392
sS'4HPOSARO'
p1393
S'DEG'
p1394
sS'OHRMGRD6'
p1395
S'DEGF'
p1396
sS'4VRMOAV'
p1397
S'VDC'
p1398
sS'EOEB3V'
p1399
g10
sS'3FAFLCAT'
p1400
S'DEGC'
p1401
sS'EB2V'
p1402
g10
sS'AOTQCMD1'
p1403
S'FTLB'
p1404
sS'AOTQCMD3'
p1405
S'FTLB'
p1406
sS'AOTQCMD2'
p1407
S'FTLB'
p1408
sS'CXPNBIT'
p1409
S'DEGF'
p1410
sS'OHRTHR25'
p1411
S'DEGF'
p1412
sS'AIRU2G2I'
p1413
S'MAMP'
p1414
sS'TRSPOTEX'
p1415
S'DEGF'
p1416
sS'TFUTSUPN'
p1417
S'DEGF'
p1418
sS'AOSPACS1B'
p1419
S'MAMP'
p1420
sS'6RWSPD1'
p1421
S'RADPS'
p1422
sS'TB1T1'
p1423
S'DEGF'
p1424
sS'AOACYAN7'
p1425
S'ASEC'
p1426
sS'1CRAT'
p1427
S'DEGC'
p1428
sS'AOACYAN0'
p1429
S'ASEC'
p1430
sS'PMTANK2T'
p1431
S'DEGF'
p1432
sS'AOACYAN1'
p1433
S'ASEC'
p1434
sS'TMP_FEP0_PCB'
p1435
g66
sS'1SSPYT'
p1436
S'DEGC'
p1437
sS'AOACYAN2'
p1438
S'ASEC'
p1439
sS'PLAED1CT'
p1440
S'DEGF'
p1441
sS'OHRTHR24'
p1442
S'DEGF'
p1443
sS'PLAED4HT'
p1444
S'DEGF'
p1445
sS'2DTSTATT'
p1446
S'DEGC'
p1447
sS'AI2AX1Y'
p1448
S'DEGPS'
p1449
sS'AI2AX1X'
p1450
S'DEGPS'
p1451
sS'AAOTASMT'
p1452
S'DEGF'
p1453
sS'CSITA5V'
p1454
g10
sS'AORTERR1'
p1455
S'RADPS'
p1456
sS'TCYLAFT3'
p1457
S'DEGF'
p1458
sS'TCYLAFT2'
p1459
S'DEGF'
p1460
sS'OOBTHR06'
p1461
S'DEGF'
p1462
sS'4LLL1AT'
p1463
S'DEGF'
p1464
sS'OOBTHR04'
p1465
S'DEGF'
p1466
sS'4HPOSBRO'
p1467
S'DEG'
p1468
sS'EOESAT2C'
p1469
S'DEGF'
p1470
sS'AORTERR3'
p1471
S'RADPS'
p1472
sS'PR3TV01T'
p1473
S'DEGF'
p1474
sS'TBOLTCUT'
p1475
S'DEGF'
p1476
sS'AOACYAN4'
p1477
S'ASEC'
p1478
sS'AOACYAN5'
p1479
S'ASEC'
p1480
sS'AOACYAN6'
p1481
S'ASEC'
p1482
sS'AFLCAAH'
p1483
g10
sS'AFSSPC2V'
p1484
g10
sS'1MAHCBT'
p1485
S'DEGC'
p1486
sS'AFLC11AI'
p1487
S'MAMP'
p1488
sS'AOACYAN3'
p1489
S'ASEC'
p1490
sS'TFSSBKT1'
p1491
S'DEGF'
p1492
sS'PLAED4CT'
p1493
S'DEGF'
p1494
sS'3SFLXAST'
p1495
S'DEGC'
p1496
sS'6RWNLTQ1'
p1497
S'FTLB'
p1498
sS'6RWNLTQ2'
p1499
S'FTLB'
p1500
sS'6RWNLTQ3'
p1501
S'FTLB'
p1502
sS'6RWNLTQ4'
p1503
S'FTLB'
p1504
sS'4RT563T'
p1505
S'DEGF'
p1506
sS'6RWNLTQ6'
p1507
S'FTLB'
p1508
sS'CSITB15V'
p1509
g10
sS'EB2CI'
p1510
S'AMP'
p1511
sS'AORESZ2_1'
p1512
S'RAD'
p1513
sS'1DAHBVO'
p1514
g10
sS'PLAED1ET'
p1515
S'DEGF'
p1516
sS'PR1TV01T'
p1517
S'DEGF'
p1518
sS'CSSR2CBV'
p1519
g10
sS'4RT707T'
p1520
S'DEGF'
p1521
sS'PLINE05T'
p1522
S'DEGF'
p1523
sS'PLAED3AT'
p1524
S'DEGF'
p1525
sS'TAPE2PST'
p1526
S'DEGF'
p1527
sS'4PRT4BT'
p1528
S'DEGF'
p1529
sS'1DAHHAVO'
p1530
g10
sS'ASPEFSW1B'
p1531
S'DEG'
p1532
sS'CUSOB28V'
p1533
g10
sS'TMP_FEP1_ACTEL'
p1534
g66
sS'4RT555T'
p1535
S'DEGF'
p1536
sS'AORESY7'
p1537
S'RAD'
p1538
sS'AOSPBCS3B'
p1539
S'MAMP'
p1540
sS'PXTANKIP'
p1541
S'PSIA'
p1542
sS'3TSCPOS'
p1543
S'TSCSTEP'
p1544
sS'AORESY4'
p1545
S'RAD'
p1546
sS'ARWA5BT'
p1547
S'DEGF'
p1548
sS'CSITB5V'
p1549
g10
sS'2CHTRPZT'
p1550
S'DEGC'
p1551
sS'4RT579T'
p1552
S'DEGF'
p1553
sS'TCM_USO'
p1554
S'DEGF'
p1555
sS'PLINE13T'
p1556
S'DEGF'
p1557
sS'AOATTER1'
p1558
S'RAD'
p1559
sS'AOATTER2'
p1560
S'RAD'
p1561
sS'6RWNLTQ5'
p1562
S'FTLB'
p1563
sS'TMZLGABM'
p1564
S'DEGF'
p1565
sS'AOCSSI2'
p1566
S'MAMP'
p1567
sS'2P24VAVL'
p1568
S'VDC'
p1569
sS'AWD5TQI'
p1570
S'AMP'
p1571
sS'AORWBTQ5'
p1572
S'FTLB'
p1573
sS'OHRTHR41'
p1574
S'DEGF'
p1575
sS'ECNV1V'
p1576
g10
sS'EEPA5V'
p1577
g10
sS'4RT585T'
p1578
S'DEGF'
p1579
sS'PLAED2BT'
p1580
S'DEGF'
p1581
sS'AAOTH2MT'
p1582
S'DEGF'
p1583
sS'OHRTHR02'
p1584
S'DEGF'
p1585
sS'4HLL1BT'
p1586
S'DEGF'
p1587
sS'AORESY1_1'
p1588
S'RAD'
p1589
sS'OHRTHR07'
p1590
S'DEGF'
p1591
sS'OHRTHR06'
p1592
S'DEGF'
p1593
sS'OHRTHR09'
p1594
S'DEGF'
p1595
sS'1WRBT'
p1596
S'DEGC'
p1597
sS'AIRU1VFT'
p1598
S'DEGF'
p1599
sS'AORESZ6_6'
p1600
S'RAD'
p1601
sS'AORESZ6_7'
p1602
S'RAD'
p1603
sS'AORESZ6_4'
p1604
S'RAD'
p1605
sS'AOADBCH1A_NBG'
p1606
S'DEG'
p1607
sS'AORESZ6_2'
p1608
S'RAD'
p1609
sS'AORESZ6_3'
p1610
S'RAD'
p1611
sS'AOSCVEL2'
p1612
S'KMPS'
p1613
sS'3SFLXBST'
p1614
S'DEGC'
p1615
sS'4RT570T'
p1616
S'DEGF'
p1617
sS'3FABRAAT'
p1618
S'DEGC'
p1619
sS'TASPPCM'
p1620
S'DEGF'
p1621
sS'ELBI'
p1622
S'AMP'
p1623
sS'1CBBT'
p1624
S'DEGC'
p1625
sS'AORESZ6_8'
p1626
S'RAD'
p1627
sS'TMP_FEP0_ACTEL'
p1628
g66
sS'AOSARES2'
p1629
S'DEG'
p1630
sS'AORESY5_1'
p1631
S'RAD'
p1632
sS'AOSARES1'
p1633
S'DEG'
p1634
sS'4RT591T'
p1635
S'DEGF'
p1636
sS'3LDRTPOS'
p1637
g1544
sS'AIRU1G1I'
p1638
S'MAMP'
p1639
sS'4PRTAV'
p1640
S'VDC'
p1641
sS'TMZP_MY'
p1642
S'DEGF'
p1643
sS'AOCMDRT1'
p1644
S'RADPS'
p1645
sS'CPCA15V'
p1646
g10
sS'TMYHNG'
p1647
S'DEGF'
p1648
sS'PLAEV3BT'
p1649
S'DEGF'
p1650
sS'1DEICBCU'
p1651
S'AMP'
p1652
sS'PLINE12T'
p1653
S'DEGF'
p1654
sS'AIRU2VFT'
p1655
S'DEGF'
p1656
sS'EOESAT1C'
p1657
S'DEGF'
p1658
sS'C28VMONB'
p1659
g10
sS'AOADBCH2A_NBG'
p1660
S'DEG'
p1661
sS'AOADACH2A_PCAD'
p1662
S'DEG'
p1663
sS'3TSPZDET'
p1664
S'DEGC'
p1665
sS'AORWINT5'
p1666
S'MSEC'
p1667
sS'TPYSADA'
p1668
S'DEGF'
p1669
sS'EORTDMN15D'
p1670
S'DEGF'
p1671
sS'PLAED4DT'
p1672
S'DEGF'
p1673
sS'PHETANKP'
p1674
S'PSIA'
p1675
sS'PLINE08T'
p1676
S'DEGF'
p1677
sS'TPC_FSSE'
p1678
S'DEGF'
p1679
sS'AFLC12BI'
p1680
S'MAMP'
p1681
sS'CIUA5V'
p1682
g10
sS'AFLC14AI'
p1683
S'MAMP'
p1684
sS'TSCIUSF1'
p1685
S'DEGF'
p1686
sS'3FAPSAT'
p1687
S'DEGC'
p1688
sS'AOMANANG'
p1689
S'RAD'
p1690
sS'3TTRALCT'
p1691
S'DEGC'
p1692
sS'2P15VBVL'
p1693
S'VDC'
p1694
sS'AORESZ4'
p1695
S'RAD'
p1696
sS'AORESZ3'
p1697
S'RAD'
p1698
sS'AORESZ0'
p1699
S'RAD'
p1700
sS'AORWNTQ4'
p1701
S'FTLB'
p1702
sS'AORWNTQ5'
p1703
S'FTLB'
p1704
sS'AORWNTQ6'
p1705
S'FTLB'
p1706
sS'TMP_FEP1_MONG'
p1707
g66
sS'AORWMC6_1'
p1708
S'FTLBSEC'
p1709
sS'AORWNTQ1'
p1710
S'FTLB'
p1711
sS'AORWNTQ2'
p1712
S'FTLB'
p1713
sS'AORWNTQ3'
p1714
S'FTLB'
p1715
sS'AOSPBCS4B'
p1716
S'MAMP'
p1717
sS'4RT567T'
p1718
S'DEGF'
p1719
sS'4PRT1BT'
p1720
S'DEGF'
p1721
sS'6RATE2'
p1722
S'RADPS'
p1723
sS'6RATE3'
p1724
S'RADPS'
p1725
sS'6RATE1'
p1726
S'RADPS'
p1727
sS'6SAEST1'
p1728
S'RAD'
p1729
sS'AORWMC1'
p1730
S'FTLBSEC'
p1731
sS'6SAEST2'
p1732
S'RAD'
p1733
sS'AORWMC4'
p1734
S'FTLBSEC'
p1735
sS'AORWMC5'
p1736
S'FTLBSEC'
p1737
sS'6ALPANG'
p1738
S'DEG'
p1739
sS'TB1T2'
p1740
S'DEGF'
p1741
sS'PM1THV2T'
p1742
S'DEGF'
p1743
sS'EB3DI'
p1744
S'AMP'
p1745
sS'AOSCPOS1'
p1746
S'KM'
p1747
sS'AOSCPOS2'
p1748
S'KM'
p1749
sS'4RT569T'
p1750
S'DEGF'
p1751
sS'4RT588T'
p1752
S'DEGF'
p1753
sS'PCM01T'
p1754
S'DEGF'
p1755
sS'4RT596T'
p1756
S'DEGF'
p1757
sS'6SINTER3'
p1758
S'RAD'
p1759
sS'AI1AX1Y'
p1760
S'DEGPS'
p1761
sS'6SINTER1'
p1762
S'RAD'
p1763
sS'OOBTHR52'
p1764
S'DEGF'
p1765
sS'OOBTHR55'
p1766
S'DEGF'
p1767
sS'EORTDMN13D'
p1768
S'DEGF'
p1769
sS'OOBTHR57'
p1770
S'DEGF'
p1771
sS'OOBTHR56'
p1772
S'DEGF'
p1773
sS'OOBTHR59'
p1774
S'DEGF'
p1775
sS'OOBTHR58'
p1776
S'DEGF'
p1777
sS'PLINE14T'
p1778
S'DEGF'
p1779
sS'1SSMYT'
p1780
S'DEGC'
p1781
sS'CTXBV'
p1782
g10
sS'4PRT2BT'
p1783
S'DEGF'
p1784
sS'ARWA6BT'
p1785
S'DEGF'
p1786
sS'4RT575T'
p1787
S'DEGF'
p1788
sS'CPA1BPT'
p1789
S'DEGF'
p1790
sS'PM4THV2T'
p1791
S'DEGF'
p1792
sS'TPC_PAN'
p1793
S'DEGF'
p1794
sS'2PMT1T'
p1795
S'DEGC'
p1796
sS'CIUA15V'
p1797
g10
sS'1DPAMZT'
p1798
S'DEGC'
p1799
sS'EIACVBV'
p1800
g10
sS'4PRTBV'
p1801
S'VDC'
p1802
sS'4RT703T'
p1803
S'DEGF'
p1804
sS'1DAHHBVO'
p1805
g10
sS'1DEP1AVO'
p1806
g10
sS'1VAHOBT'
p1807
S'DEGC'
p1808
sS'1MAHOBT'
p1809
S'DEGC'
p1810
sS'CXPNAIT'
p1811
S'DEGF'
p1812
sS'4ALL1AT'
p1813
S'DEGF'
p1814
sS'CRXBLS'
p1815
S'KHZ'
p1816
sS'PMTANK1T'
p1817
S'DEGF'
p1818
sS'OHRTHR49'
p1819
S'DEGF'
p1820
sS'EOEB3DIC'
p1821
S'AMP'
p1822
sS'OHRTHR45'
p1823
S'DEGF'
p1824
sS'OHRTHR44'
p1825
S'DEGF'
p1826
sS'OHRTHR47'
p1827
S'DEGF'
p1828
sS'OHRTHR46'
p1829
S'DEGF'
p1830
sS'AOADACH1A_NBG'
p1831
S'DEG'
p1832
sS'OHRTHR40'
p1833
S'DEGF'
p1834
sS'OHRTHR43'
p1835
S'DEGF'
p1836
sS'OHRTHR42'
p1837
S'DEGF'
p1838
sS'AWD2TQI'
p1839
S'AMP'
p1840
sS'4LPOSARO'
p1841
S'DEG'
p1842
sS'PCM03T'
p1843
S'DEGF'
p1844
sS'EOEB1DIC'
p1845
S'AMP'
p1846
sS'TMP_FEP0_MONG'
p1847
g66
sS'62RCSTMR'
p1848
S'MIN'
p1849
sS'TASPPCU'
p1850
S'DEGF'
p1851
sS'PCM04T'
p1852
S'DEGF'
p1853
sS'64RCSTMR'
p1854
S'MIN'
p1855
sS'4RT708T'
p1856
S'DEGF'
p1857
sS'OOBAGRD6'
p1858
S'DEGF'
p1859
sS'TB1T3'
p1860
S'DEGF'
p1861
sS'TEP_EIA'
p1862
S'DEGF'
p1863
sS'AOBETANG'
p1864
S'DEG'
p1865
sS'OOBAGRD3'
p1866
S'DEGF'
p1867
sS'PLAED1FT'
p1868
S'DEGF'
p1869
sS'EB3CI'
p1870
S'AMP'
p1871
sS'AORESZ1_1'
p1872
S'RAD'
p1873
sS'TATECDPT'
p1874
S'DEGF'
p1875
sS'4RT581T'
p1876
S'DEGF'
p1877
sS'1HOPRBPR'
p1878
S'TORR'
p1879
sS'1CRBT'
p1880
S'DEGC'
p1881
sS'OHRTHR26'
p1882
S'DEGF'
p1883
sS'AWD6TQI'
p1884
S'AMP'
p1885
s.