(dp0
S'AORWPI4B'
p1
cnumpy.core.multiarray
scalar
p2
(cnumpy
dtype
p3
(S'S4'
p4
I0
I1
tp5
Rp6
(I3
S'|'
p7
NNNI4
I1
I0
tp8
bS'MSEC'
p9
tp10
Rp11
sS'1DEAMZT'
p12
g2
(g3
(S'S4'
p13
I0
I1
tp14
Rp15
(I3
S'|'
p16
NNNI4
I1
I0
tp17
bS'DEGC'
p18
tp19
Rp20
sS'PLINE16T'
p21
g2
(g3
(S'S4'
p22
I0
I1
tp23
Rp24
(I3
S'|'
p25
NNNI4
I1
I0
tp26
bS'DEGF'
p27
tp28
Rp29
sS'EORTDMN18D'
p30
g2
(g3
(S'S4'
p31
I0
I1
tp32
Rp33
(I3
S'|'
p34
NNNI4
I1
I0
tp35
bS'DEGF'
p36
tp37
Rp38
sS'CTXAV'
p39
g2
(g3
(S'S1'
p40
I0
I1
tp41
Rp42
(I3
S'|'
p43
NNNI1
I1
I0
tp44
bS'V'
p45
tp46
Rp47
sS'TFSPPCM'
p48
g2
(g3
(S'S4'
p49
I0
I1
tp50
Rp51
(I3
S'|'
p52
NNNI4
I1
I0
tp53
bS'DEGF'
p54
tp55
Rp56
sS'EB1CI'
p57
g2
(g3
(S'S3'
p58
I0
I1
tp59
Rp60
(I3
S'|'
p61
NNNI3
I1
I0
tp62
bS'AMP'
p63
tp64
Rp65
sS'OHRTHR38'
p66
g2
(g3
(S'S4'
p67
I0
I1
tp68
Rp69
(I3
S'|'
p70
NNNI4
I1
I0
tp71
bS'DEGF'
p72
tp73
Rp74
sS'OHRTHR39'
p75
g2
(g3
(S'S4'
p76
I0
I1
tp77
Rp78
(I3
S'|'
p79
NNNI4
I1
I0
tp80
bS'DEGF'
p81
tp82
Rp83
sS'TFSPPCP'
p84
g2
(g3
(S'S4'
p85
I0
I1
tp86
Rp87
(I3
S'|'
p88
NNNI4
I1
I0
tp89
bS'DEGF'
p90
tp91
Rp92
sS'ASPEFSW3B'
p93
g2
(g3
(S'S3'
p94
I0
I1
tp95
Rp96
(I3
S'|'
p97
NNNI3
I1
I0
tp98
bS'DEG'
p99
tp100
Rp101
sS'CUSOAOVN'
p102
g2
(g3
(S'S1'
p103
I0
I1
tp104
Rp105
(I3
S'|'
p106
NNNI1
I1
I0
tp107
bS'W'
p108
tp109
Rp110
sS'OHRTHR30'
p111
g2
(g3
(S'S4'
p112
I0
I1
tp113
Rp114
(I3
S'|'
p115
NNNI4
I1
I0
tp116
bS'DEGF'
p117
tp118
Rp119
sS'OHRTHR31'
p120
g2
(g3
(S'S4'
p121
I0
I1
tp122
Rp123
(I3
S'|'
p124
NNNI4
I1
I0
tp125
bS'DEGF'
p126
tp127
Rp128
sS'OHRTHR33'
p129
g2
(g3
(S'S4'
p130
I0
I1
tp131
Rp132
(I3
S'|'
p133
NNNI4
I1
I0
tp134
bS'DEGF'
p135
tp136
Rp137
sS'1DPP0BVO'
p138
g2
(g3
(S'S1'
p139
I0
I1
tp140
Rp141
(I3
S'|'
p142
NNNI1
I1
I0
tp143
bg45
tp144
Rp145
sS'OHRTHR35'
p146
g2
(g3
(S'S4'
p147
I0
I1
tp148
Rp149
(I3
S'|'
p150
NNNI4
I1
I0
tp151
bS'DEGF'
p152
tp153
Rp154
sS'OHRTHR36'
p155
g2
(g3
(S'S4'
p156
I0
I1
tp157
Rp158
(I3
S'|'
p159
NNNI4
I1
I0
tp160
bS'DEGF'
p161
tp162
Rp163
sS'OHRTHR37'
p164
g2
(g3
(S'S4'
p165
I0
I1
tp166
Rp167
(I3
S'|'
p168
NNNI4
I1
I0
tp169
bS'DEGF'
p170
tp171
Rp172
sS'EORTDMN11D'
p173
g2
(g3
(S'S4'
p174
I0
I1
tp175
Rp176
(I3
S'|'
p177
NNNI4
I1
I0
tp178
bS'DEGF'
p179
tp180
Rp181
sS'AFLC11BI'
p182
g2
(g3
(S'S4'
p183
I0
I1
tp184
Rp185
(I3
S'|'
p186
NNNI4
I1
I0
tp187
bS'MAMP'
p188
tp189
Rp190
sS'AORWMC3_1'
p191
g2
(g3
(S'S7'
p192
I0
I1
tp193
Rp194
(I3
S'|'
p195
NNNI7
I1
I0
tp196
bS'FTLBSEC'
p197
tp198
Rp199
sS'PLAED2FT'
p200
g2
(g3
(S'S4'
p201
I0
I1
tp202
Rp203
(I3
S'|'
p204
NNNI4
I1
I0
tp205
bS'DEGF'
p206
tp207
Rp208
sS'TEPHIN'
p209
g2
(g3
(S'S4'
p210
I0
I1
tp211
Rp212
(I3
S'|'
p213
NNNI4
I1
I0
tp214
bS'DEGF'
p215
tp216
Rp217
sS'3TTHRC1T'
p218
g2
(g3
(S'S4'
p219
I0
I1
tp220
Rp221
(I3
S'|'
p222
NNNI4
I1
I0
tp223
bS'DEGC'
p224
tp225
Rp226
sS'1PDEAAT'
p227
g2
(g3
(S'S4'
p228
I0
I1
tp229
Rp230
(I3
S'|'
p231
NNNI4
I1
I0
tp232
bS'DEGC'
p233
tp234
Rp235
sS'ELBI_LOW'
p236
g2
(g3
(S'S3'
p237
I0
I1
tp238
Rp239
(I3
S'|'
p240
NNNI3
I1
I0
tp241
bS'AMP'
p242
tp243
Rp244
sS'4RT562T'
p245
g2
(g3
(S'S4'
p246
I0
I1
tp247
Rp248
(I3
S'|'
p249
NNNI4
I1
I0
tp250
bS'DEGF'
p251
tp252
Rp253
sS'4PRT1AT'
p254
g2
(g3
(S'S4'
p255
I0
I1
tp256
Rp257
(I3
S'|'
p258
NNNI4
I1
I0
tp259
bS'DEGF'
p260
tp261
Rp262
sS'AORWMOM1'
p263
g2
(g3
(S'S7'
p264
I0
I1
tp265
Rp266
(I3
S'|'
p267
NNNI7
I1
I0
tp268
bS'FTLBSEC'
p269
tp270
Rp271
sS'TMZP_PY'
p272
g2
(g3
(S'S4'
p273
I0
I1
tp274
Rp275
(I3
S'|'
p276
NNNI4
I1
I0
tp277
bS'DEGF'
p278
tp279
Rp280
sS'4RT710T'
p281
g2
(g3
(S'S4'
p282
I0
I1
tp283
Rp284
(I3
S'|'
p285
NNNI4
I1
I0
tp286
bS'DEGF'
p287
tp288
Rp289
sS'ASPEB5CV'
p290
g2
(g3
(S'S1'
p291
I0
I1
tp292
Rp293
(I3
S'|'
p294
NNNI1
I1
I0
tp295
bg45
tp296
Rp297
sS'TMP_FEP0_RAM'
p298
S'DEGC'
p299
sS'AOZABR'
p300
g2
(g3
(S'S3'
p301
I0
I1
tp302
Rp303
(I3
S'|'
p304
NNNI3
I1
I0
tp305
bS'RAD'
p306
tp307
Rp308
sS'AORESZ5_1'
p309
g2
(g3
(S'S3'
p310
I0
I1
tp311
Rp312
(I3
S'|'
p313
NNNI3
I1
I0
tp314
bS'RAD'
p315
tp316
Rp317
sS'TB2T3'
p318
g2
(g3
(S'S4'
p319
I0
I1
tp320
Rp321
(I3
S'|'
p322
NNNI4
I1
I0
tp323
bS'DEGF'
p324
tp325
Rp326
sS'TB2T2'
p327
g2
(g3
(S'S4'
p328
I0
I1
tp329
Rp330
(I3
S'|'
p331
NNNI4
I1
I0
tp332
bS'DEGF'
p333
tp334
Rp335
sS'PLINE06T'
p336
g2
(g3
(S'S4'
p337
I0
I1
tp338
Rp339
(I3
S'|'
p340
NNNI4
I1
I0
tp341
bS'DEGF'
p342
tp343
Rp344
sS'AOADBCH1A_PCAD'
p345
g2
(g3
(S'S3'
p346
I0
I1
tp347
Rp348
(I3
S'|'
p349
NNNI3
I1
I0
tp350
bS'DEG'
p351
tp352
Rp353
sS'AORWPI3B'
p354
g2
(g3
(S'S4'
p355
I0
I1
tp356
Rp357
(I3
S'|'
p358
NNNI4
I1
I0
tp359
bS'MSEC'
p360
tp361
Rp362
sS'1DAHAVO'
p363
g2
(g3
(S'S1'
p364
I0
I1
tp365
Rp366
(I3
S'|'
p367
NNNI1
I1
I0
tp368
bg45
tp369
Rp370
sS'PXTANK2T'
p371
g2
(g3
(S'S4'
p372
I0
I1
tp373
Rp374
(I3
S'|'
p375
NNNI4
I1
I0
tp376
bS'DEGF'
p377
tp378
Rp379
sS'TPCP_RW3'
p380
g2
(g3
(S'S4'
p381
I0
I1
tp382
Rp383
(I3
S'|'
p384
NNNI4
I1
I0
tp385
bS'DEGF'
p386
tp387
Rp388
sS'3TSMYDPT'
p389
g2
(g3
(S'S4'
p390
I0
I1
tp391
Rp392
(I3
S'|'
p393
NNNI4
I1
I0
tp394
bS'DEGC'
p395
tp396
Rp397
sS'PR1TV02T'
p398
g2
(g3
(S'S4'
p399
I0
I1
tp400
Rp401
(I3
S'|'
p402
NNNI4
I1
I0
tp403
bS'DEGF'
p404
tp405
Rp406
sS'3TTACS1T'
p407
g2
(g3
(S'S4'
p408
I0
I1
tp409
Rp410
(I3
S'|'
p411
NNNI4
I1
I0
tp412
bS'DEGC'
p413
tp414
Rp415
sS'AORESY2_1'
p416
g2
(g3
(S'S3'
p417
I0
I1
tp418
Rp419
(I3
S'|'
p420
NNNI3
I1
I0
tp421
bS'RAD'
p422
tp423
Rp424
sS'PHOFP1T'
p425
g2
(g3
(S'S4'
p426
I0
I1
tp427
Rp428
(I3
S'|'
p429
NNNI4
I1
I0
tp430
bS'DEGF'
p431
tp432
Rp433
sS'4MP5AV'
p434
g2
(g3
(S'S3'
p435
I0
I1
tp436
Rp437
(I3
S'|'
p438
NNNI3
I1
I0
tp439
bS'VDC'
p440
tp441
Rp442
sS'AORTERR2'
p443
g2
(g3
(S'S5'
p444
I0
I1
tp445
Rp446
(I3
S'|'
p447
NNNI5
I1
I0
tp448
bS'RADPS'
p449
tp450
Rp451
sS'CUSOA28V'
p452
g2
(g3
(S'S1'
p453
I0
I1
tp454
Rp455
(I3
S'|'
p456
NNNI1
I1
I0
tp457
bg45
tp458
Rp459
sS'OOBTHR34'
p460
g2
(g3
(S'S4'
p461
I0
I1
tp462
Rp463
(I3
S'|'
p464
NNNI4
I1
I0
tp465
bS'DEGF'
p466
tp467
Rp468
sS'AVACMON'
p469
g2
(g3
(S'S4'
p470
I0
I1
tp471
Rp472
(I3
S'|'
p473
NNNI4
I1
I0
tp474
bS'DEGC'
p475
tp476
Rp477
sS'EOECNV2C'
p478
g2
(g3
(S'S1'
p479
I0
I1
tp480
Rp481
(I3
S'|'
p482
NNNI1
I1
I0
tp483
bg45
tp484
Rp485
sS'OOBTHR33'
p486
g2
(g3
(S'S4'
p487
I0
I1
tp488
Rp489
(I3
S'|'
p490
NNNI4
I1
I0
tp491
bS'DEGF'
p492
tp493
Rp494
sS'AOATTER3'
p495
g2
(g3
(S'S3'
p496
I0
I1
tp497
Rp498
(I3
S'|'
p499
NNNI3
I1
I0
tp500
bS'RAD'
p501
tp502
Rp503
sS'TAPEA1T'
p504
g2
(g3
(S'S4'
p505
I0
I1
tp506
Rp507
(I3
S'|'
p508
NNNI4
I1
I0
tp509
bS'DEGF'
p510
tp511
Rp512
sS'ES1P5CV'
p513
g2
(g3
(S'S1'
p514
I0
I1
tp515
Rp516
(I3
S'|'
p517
NNNI1
I1
I0
tp518
bg45
tp519
Rp520
sS'EOESAC1C'
p521
g2
(g3
(S'S3'
p522
I0
I1
tp523
Rp524
(I3
S'|'
p525
NNNI3
I1
I0
tp526
bS'AMP'
p527
tp528
Rp529
sS'OOBTHR18'
p530
g2
(g3
(S'S4'
p531
I0
I1
tp532
Rp533
(I3
S'|'
p534
NNNI4
I1
I0
tp535
bS'DEGF'
p536
tp537
Rp538
sS'PFTANKIP'
p539
g2
(g3
(S'S4'
p540
I0
I1
tp541
Rp542
(I3
S'|'
p543
NNNI4
I1
I0
tp544
bS'PSIA'
p545
tp546
Rp547
sS'CVEEP'
p548
g2
(g3
(S'S1'
p549
I0
I1
tp550
Rp551
(I3
S'|'
p552
NNNI1
I1
I0
tp553
bg45
tp554
Rp555
sS'OOBTHR14'
p556
g2
(g3
(S'S4'
p557
I0
I1
tp558
Rp559
(I3
S'|'
p560
NNNI4
I1
I0
tp561
bS'DEGF'
p562
tp563
Rp564
sS'OOBTHR17'
p565
g2
(g3
(S'S4'
p566
I0
I1
tp567
Rp568
(I3
S'|'
p569
NNNI4
I1
I0
tp570
bS'DEGF'
p571
tp572
Rp573
sS'OOBTHR30'
p574
g2
(g3
(S'S4'
p575
I0
I1
tp576
Rp577
(I3
S'|'
p578
NNNI4
I1
I0
tp579
bS'DEGF'
p580
tp581
Rp582
sS'OOBTHR11'
p583
g2
(g3
(S'S4'
p584
I0
I1
tp585
Rp586
(I3
S'|'
p587
NNNI4
I1
I0
tp588
bS'DEGF'
p589
tp590
Rp591
sS'OOBTHR10'
p592
g2
(g3
(S'S4'
p593
I0
I1
tp594
Rp595
(I3
S'|'
p596
NNNI4
I1
I0
tp597
bS'DEGF'
p598
tp599
Rp600
sS'ECNV2V'
p601
g2
(g3
(S'S1'
p602
I0
I1
tp603
Rp604
(I3
S'|'
p605
NNNI1
I1
I0
tp606
bg45
tp607
Rp608
sS'OOBTHR12'
p609
g2
(g3
(S'S4'
p610
I0
I1
tp611
Rp612
(I3
S'|'
p613
NNNI4
I1
I0
tp614
bS'DEGF'
p615
tp616
Rp617
sS'EOEB3CIC'
p618
g2
(g3
(S'S3'
p619
I0
I1
tp620
Rp621
(I3
S'|'
p622
NNNI3
I1
I0
tp623
bS'AMP'
p624
tp625
Rp626
sS'CUSOBOVN'
p627
g2
(g3
(S'S1'
p628
I0
I1
tp629
Rp630
(I3
S'|'
p631
NNNI1
I1
I0
tp632
bg108
tp633
Rp634
sS'EOEB1CIC'
p635
g2
(g3
(S'S3'
p636
I0
I1
tp637
Rp638
(I3
S'|'
p639
NNNI3
I1
I0
tp640
bS'AMP'
p641
tp642
Rp643
sS'TB3T1'
p644
g2
(g3
(S'S4'
p645
I0
I1
tp646
Rp647
(I3
S'|'
p648
NNNI4
I1
I0
tp649
bS'DEGF'
p650
tp651
Rp652
sS'4HLL1AT'
p653
g2
(g3
(S'S4'
p654
I0
I1
tp655
Rp656
(I3
S'|'
p657
NNNI4
I1
I0
tp658
bS'DEGF'
p659
tp660
Rp661
sS'AOSCPOS3'
p662
g2
(g3
(S'S2'
p663
I0
I1
tp664
Rp665
(I3
S'|'
p666
NNNI2
I1
I0
tp667
bS'KM'
p668
tp669
Rp670
sS'AACCCDRT'
p671
g2
(g3
(S'S4'
p672
I0
I1
tp673
Rp674
(I3
S'|'
p675
NNNI4
I1
I0
tp676
bS'DEGF'
p677
tp678
Rp679
sS'ESAMYI'
p680
g2
(g3
(S'S3'
p681
I0
I1
tp682
Rp683
(I3
S'|'
p684
NNNI3
I1
I0
tp685
bS'AMP'
p686
tp687
Rp688
sS'TMYSADA'
p689
g2
(g3
(S'S4'
p690
I0
I1
tp691
Rp692
(I3
S'|'
p693
NNNI4
I1
I0
tp694
bS'DEGF'
p695
tp696
Rp697
sS'AACH2T'
p698
g2
(g3
(S'S4'
p699
I0
I1
tp700
Rp701
(I3
S'|'
p702
NNNI4
I1
I0
tp703
bS'DEGF'
p704
tp705
Rp706
sS'OHRTHR34'
p707
g2
(g3
(S'S4'
p708
I0
I1
tp709
Rp710
(I3
S'|'
p711
NNNI4
I1
I0
tp712
bS'DEGF'
p713
tp714
Rp715
sS'AFLCA5AI'
p716
g2
(g3
(S'S4'
p717
I0
I1
tp718
Rp719
(I3
S'|'
p720
NNNI4
I1
I0
tp721
bS'MAMP'
p722
tp723
Rp724
sS'3TSMXSPT'
p725
g2
(g3
(S'S4'
p726
I0
I1
tp727
Rp728
(I3
S'|'
p729
NNNI4
I1
I0
tp730
bS'DEGC'
p731
tp732
Rp733
sS'AORESY3'
p734
g2
(g3
(S'S3'
p735
I0
I1
tp736
Rp737
(I3
S'|'
p738
NNNI3
I1
I0
tp739
bS'RAD'
p740
tp741
Rp742
sS'CVEER'
p743
g2
(g3
(S'S1'
p744
I0
I1
tp745
Rp746
(I3
S'|'
p747
NNNI1
I1
I0
tp748
bg45
tp749
Rp750
sS'4RT584T'
p751
g2
(g3
(S'S4'
p752
I0
I1
tp753
Rp754
(I3
S'|'
p755
NNNI4
I1
I0
tp756
bS'DEGF'
p757
tp758
Rp759
sS'OOBTHR13'
p760
g2
(g3
(S'S4'
p761
I0
I1
tp762
Rp763
(I3
S'|'
p764
NNNI4
I1
I0
tp765
bS'DEGF'
p766
tp767
Rp768
sS'2P05VBVL'
p769
g2
(g3
(S'S3'
p770
I0
I1
tp771
Rp772
(I3
S'|'
p773
NNNI3
I1
I0
tp774
bS'VDC'
p775
tp776
Rp777
sS'PLAED3IT'
p778
g2
(g3
(S'S4'
p779
I0
I1
tp780
Rp781
(I3
S'|'
p782
NNNI4
I1
I0
tp783
bS'DEGF'
p784
tp785
Rp786
sS'EORTDMN22D'
p787
g2
(g3
(S'S4'
p788
I0
I1
tp789
Rp790
(I3
S'|'
p791
NNNI4
I1
I0
tp792
bS'DEGF'
p793
tp794
Rp795
sS'4RT592T'
p796
g2
(g3
(S'S4'
p797
I0
I1
tp798
Rp799
(I3
S'|'
p800
NNNI4
I1
I0
tp801
bS'DEGF'
p802
tp803
Rp804
sS'61RCSTMR'
p805
g2
(g3
(S'S3'
p806
I0
I1
tp807
Rp808
(I3
S'|'
p809
NNNI3
I1
I0
tp810
bS'MIN'
p811
tp812
Rp813
sS'AIRU1BT'
p814
g2
(g3
(S'S4'
p815
I0
I1
tp816
Rp817
(I3
S'|'
p818
NNNI4
I1
I0
tp819
bS'DEGF'
p820
tp821
Rp822
sS'PR2TV01T'
p823
g2
(g3
(S'S4'
p824
I0
I1
tp825
Rp826
(I3
S'|'
p827
NNNI4
I1
I0
tp828
bS'DEGF'
p829
tp830
Rp831
sS'TCM_SSR1'
p832
g2
(g3
(S'S4'
p833
I0
I1
tp834
Rp835
(I3
S'|'
p836
NNNI4
I1
I0
tp837
bS'DEGF'
p838
tp839
Rp840
sS'6DRFTQC2'
p841
g2
(g3
(S'S4'
p842
I0
I1
tp843
Rp844
(I3
S'|'
p845
NNNI4
I1
I0
tp846
bS'FTLB'
p847
tp848
Rp849
sS'6DRFTQC3'
p850
g2
(g3
(S'S4'
p851
I0
I1
tp852
Rp853
(I3
S'|'
p854
NNNI4
I1
I0
tp855
bS'FTLB'
p856
tp857
Rp858
sS'6DRFTQC1'
p859
g2
(g3
(S'S4'
p860
I0
I1
tp861
Rp862
(I3
S'|'
p863
NNNI4
I1
I0
tp864
bS'FTLB'
p865
tp866
Rp867
sS'5EPHINT'
p868
g2
(g3
(S'S4'
p869
I0
I1
tp870
Rp871
(I3
S'|'
p872
NNNI4
I1
I0
tp873
bS'DEGC'
p874
tp875
Rp876
sS'4VRMOBV'
p877
g2
(g3
(S'S3'
p878
I0
I1
tp879
Rp880
(I3
S'|'
p881
NNNI3
I1
I0
tp882
bS'VDC'
p883
tp884
Rp885
sS'PLAEV3AT'
p886
g2
(g3
(S'S4'
p887
I0
I1
tp888
Rp889
(I3
S'|'
p890
NNNI4
I1
I0
tp891
bS'DEGF'
p892
tp893
Rp894
sS'AORESY0'
p895
g2
(g3
(S'S3'
p896
I0
I1
tp897
Rp898
(I3
S'|'
p899
NNNI3
I1
I0
tp900
bS'RAD'
p901
tp902
Rp903
sS'AFLCA1AI'
p904
g2
(g3
(S'S4'
p905
I0
I1
tp906
Rp907
(I3
S'|'
p908
NNNI4
I1
I0
tp909
bS'MAMP'
p910
tp911
Rp912
sS'2DCENTRT'
p913
g2
(g3
(S'S4'
p914
I0
I1
tp915
Rp916
(I3
S'|'
p917
NNNI4
I1
I0
tp918
bS'DEGC'
p919
tp920
Rp921
sS'OOBTHR60'
p922
g2
(g3
(S'S4'
p923
I0
I1
tp924
Rp925
(I3
S'|'
p926
NNNI4
I1
I0
tp927
bS'DEGF'
p928
tp929
Rp930
sS'OOBTHR61'
p931
g2
(g3
(S'S4'
p932
I0
I1
tp933
Rp934
(I3
S'|'
p935
NNNI4
I1
I0
tp936
bS'DEGF'
p937
tp938
Rp939
sS'OOBTHR62'
p940
g2
(g3
(S'S4'
p941
I0
I1
tp942
Rp943
(I3
S'|'
p944
NNNI4
I1
I0
tp945
bS'DEGF'
p946
tp947
Rp948
sS'OOBTHR63'
p949
g2
(g3
(S'S4'
p950
I0
I1
tp951
Rp952
(I3
S'|'
p953
NNNI4
I1
I0
tp954
bS'DEGF'
p955
tp956
Rp957
sS'PLINE11T'
p958
g2
(g3
(S'S4'
p959
I0
I1
tp960
Rp961
(I3
S'|'
p962
NNNI4
I1
I0
tp963
bS'DEGF'
p964
tp965
Rp966
sS'EPA15V'
p967
g2
(g3
(S'S1'
p968
I0
I1
tp969
Rp970
(I3
S'|'
p971
NNNI1
I1
I0
tp972
bg45
tp973
Rp974
sS'AOALPANG'
p975
g2
(g3
(S'S3'
p976
I0
I1
tp977
Rp978
(I3
S'|'
p979
NNNI3
I1
I0
tp980
bS'DEG'
p981
tp982
Rp983
sS'TRSPMTPC'
p984
g2
(g3
(S'S4'
p985
I0
I1
tp986
Rp987
(I3
S'|'
p988
NNNI4
I1
I0
tp989
bS'DEGF'
p990
tp991
Rp992
sS'AOSPACS2B'
p993
g2
(g3
(S'S4'
p994
I0
I1
tp995
Rp996
(I3
S'|'
p997
NNNI4
I1
I0
tp998
bS'MAMP'
p999
tp1000
Rp1001
sS'AODVTIME'
p1002
g2
(g3
(S'S3'
p1003
I0
I1
tp1004
Rp1005
(I3
S'|'
p1006
NNNI3
I1
I0
tp1007
bS'SEC'
p1008
tp1009
Rp1010
sS'3FASEAAT'
p1011
g2
(g3
(S'S4'
p1012
I0
I1
tp1013
Rp1014
(I3
S'|'
p1015
NNNI4
I1
I0
tp1016
bS'DEGC'
p1017
tp1018
Rp1019
sS'AODITHR3'
p1020
g2
(g3
(S'S3'
p1021
I0
I1
tp1022
Rp1023
(I3
S'|'
p1024
NNNI3
I1
I0
tp1025
bS'RAD'
p1026
tp1027
Rp1028
sS'AODITHR2'
p1029
g2
(g3
(S'S3'
p1030
I0
I1
tp1031
Rp1032
(I3
S'|'
p1033
NNNI3
I1
I0
tp1034
bS'RAD'
p1035
tp1036
Rp1037
sS'AODITHR1'
p1038
g2
(g3
(S'S3'
p1039
I0
I1
tp1040
Rp1041
(I3
S'|'
p1042
NNNI3
I1
I0
tp1043
bS'RAD'
p1044
tp1045
Rp1046
sS'PLAED1BT'
p1047
g2
(g3
(S'S4'
p1048
I0
I1
tp1049
Rp1050
(I3
S'|'
p1051
NNNI4
I1
I0
tp1052
bS'DEGF'
p1053
tp1054
Rp1055
sS'TCYLPCM'
p1056
g2
(g3
(S'S4'
p1057
I0
I1
tp1058
Rp1059
(I3
S'|'
p1060
NNNI4
I1
I0
tp1061
bS'DEGF'
p1062
tp1063
Rp1064
sS'AFLC12AI'
p1065
g2
(g3
(S'S4'
p1066
I0
I1
tp1067
Rp1068
(I3
S'|'
p1069
NNNI4
I1
I0
tp1070
bS'MAMP'
p1071
tp1072
Rp1073
sS'AOSACMD2'
p1074
g2
(g3
(S'S3'
p1075
I0
I1
tp1076
Rp1077
(I3
S'|'
p1078
NNNI3
I1
I0
tp1079
bS'RAD'
p1080
tp1081
Rp1082
sS'AOADACH1A_PCAD'
p1083
g2
(g3
(S'S3'
p1084
I0
I1
tp1085
Rp1086
(I3
S'|'
p1087
NNNI3
I1
I0
tp1088
bS'DEG'
p1089
tp1090
Rp1091
sS'OOBTHR31'
p1092
g2
(g3
(S'S4'
p1093
I0
I1
tp1094
Rp1095
(I3
S'|'
p1096
NNNI4
I1
I0
tp1097
bS'DEGF'
p1098
tp1099
Rp1100
sS'OHRTHR04'
p1101
g2
(g3
(S'S4'
p1102
I0
I1
tp1103
Rp1104
(I3
S'|'
p1105
NNNI4
I1
I0
tp1106
bS'DEGF'
p1107
tp1108
Rp1109
sS'OOBTHR46'
p1110
g2
(g3
(S'S4'
p1111
I0
I1
tp1112
Rp1113
(I3
S'|'
p1114
NNNI4
I1
I0
tp1115
bS'DEGF'
p1116
tp1117
Rp1118
sS'EPB15V'
p1119
g2
(g3
(S'S1'
p1120
I0
I1
tp1121
Rp1122
(I3
S'|'
p1123
NNNI1
I1
I0
tp1124
bg45
tp1125
Rp1126
sS'2UVLSPXT'
p1127
g2
(g3
(S'S4'
p1128
I0
I1
tp1129
Rp1130
(I3
S'|'
p1131
NNNI4
I1
I0
tp1132
bS'DEGC'
p1133
tp1134
Rp1135
sS'TFSSBKT2'
p1136
g2
(g3
(S'S4'
p1137
I0
I1
tp1138
Rp1139
(I3
S'|'
p1140
NNNI4
I1
I0
tp1141
bS'DEGF'
p1142
tp1143
Rp1144
sS'3FARALAT'
p1145
g2
(g3
(S'S4'
p1146
I0
I1
tp1147
Rp1148
(I3
S'|'
p1149
NNNI4
I1
I0
tp1150
bS'DEGC'
p1151
tp1152
Rp1153
sS'TMP_FEP0_FB'
p1154
g299
sS'4HLL2AT'
p1155
g2
(g3
(S'S4'
p1156
I0
I1
tp1157
Rp1158
(I3
S'|'
p1159
NNNI4
I1
I0
tp1160
bS'DEGF'
p1161
tp1162
Rp1163
sS'TCM_PA2'
p1164
g2
(g3
(S'S4'
p1165
I0
I1
tp1166
Rp1167
(I3
S'|'
p1168
NNNI4
I1
I0
tp1169
bS'DEGF'
p1170
tp1171
Rp1172
sS'OHRTHR58'
p1173
g2
(g3
(S'S4'
p1174
I0
I1
tp1175
Rp1176
(I3
S'|'
p1177
NNNI4
I1
I0
tp1178
bS'DEGF'
p1179
tp1180
Rp1181
sS'TMP_FEP1_RAM'
p1182
g299
sS'3FAPYZAT'
p1183
g2
(g3
(S'S4'
p1184
I0
I1
tp1185
Rp1186
(I3
S'|'
p1187
NNNI4
I1
I0
tp1188
bS'DEGC'
p1189
tp1190
Rp1191
sS'OHRTHR08'
p1192
g2
(g3
(S'S4'
p1193
I0
I1
tp1194
Rp1195
(I3
S'|'
p1196
NNNI4
I1
I0
tp1197
bS'DEGF'
p1198
tp1199
Rp1200
sS'AOSCVEL3'
p1201
g2
(g3
(S'S4'
p1202
I0
I1
tp1203
Rp1204
(I3
S'|'
p1205
NNNI4
I1
I0
tp1206
bS'KMPS'
p1207
tp1208
Rp1209
sS'PLAED3GT'
p1210
g2
(g3
(S'S4'
p1211
I0
I1
tp1212
Rp1213
(I3
S'|'
p1214
NNNI4
I1
I0
tp1215
bS'DEGF'
p1216
tp1217
Rp1218
sS'AORATE1'
p1219
g2
(g3
(S'S5'
p1220
I0
I1
tp1221
Rp1222
(I3
S'|'
p1223
NNNI5
I1
I0
tp1224
bS'RADPS'
p1225
tp1226
Rp1227
sS'AORATE3'
p1228
g2
(g3
(S'S5'
p1229
I0
I1
tp1230
Rp1231
(I3
S'|'
p1232
NNNI5
I1
I0
tp1233
bS'RADPS'
p1234
tp1235
Rp1236
sS'AORATE2'
p1237
g2
(g3
(S'S5'
p1238
I0
I1
tp1239
Rp1240
(I3
S'|'
p1241
NNNI5
I1
I0
tp1242
bS'RADPS'
p1243
tp1244
Rp1245
sS'CRXAV'
p1246
g2
(g3
(S'S1'
p1247
I0
I1
tp1248
Rp1249
(I3
S'|'
p1250
NNNI1
I1
I0
tp1251
bg45
tp1252
Rp1253
sS'EORTDMN12D'
p1254
g2
(g3
(S'S4'
p1255
I0
I1
tp1256
Rp1257
(I3
S'|'
p1258
NNNI4
I1
I0
tp1259
bS'DEGF'
p1260
tp1261
Rp1262
sS'EOECNV3C'
p1263
g2
(g3
(S'S1'
p1264
I0
I1
tp1265
Rp1266
(I3
S'|'
p1267
NNNI1
I1
I0
tp1268
bg45
tp1269
Rp1270
sS'3TTACS2T'
p1271
g2
(g3
(S'S4'
p1272
I0
I1
tp1273
Rp1274
(I3
S'|'
p1275
NNNI4
I1
I0
tp1276
bS'DEGC'
p1277
tp1278
Rp1279
sS'TCM_CTU'
p1280
g2
(g3
(S'S4'
p1281
I0
I1
tp1282
Rp1283
(I3
S'|'
p1284
NNNI4
I1
I0
tp1285
bS'DEGF'
p1286
tp1287
Rp1288
sS'ESAPYI'
p1289
g2
(g3
(S'S3'
p1290
I0
I1
tp1291
Rp1292
(I3
S'|'
p1293
NNNI3
I1
I0
tp1294
bS'AMP'
p1295
tp1296
Rp1297
sS'4HFSPBT'
p1298
g2
(g3
(S'S4'
p1299
I0
I1
tp1300
Rp1301
(I3
S'|'
p1302
NNNI4
I1
I0
tp1303
bS'DEGF'
p1304
tp1305
Rp1306
sS'EEPB5V'
p1307
g2
(g3
(S'S1'
p1308
I0
I1
tp1309
Rp1310
(I3
S'|'
p1311
NNNI1
I1
I0
tp1312
bg45
tp1313
Rp1314
sS'3FAFLAAT'
p1315
g2
(g3
(S'S4'
p1316
I0
I1
tp1317
Rp1318
(I3
S'|'
p1319
NNNI4
I1
I0
tp1320
bS'DEGC'
p1321
tp1322
Rp1323
sS'TSAMYT'
p1324
g2
(g3
(S'S4'
p1325
I0
I1
tp1326
Rp1327
(I3
S'|'
p1328
NNNI4
I1
I0
tp1329
bS'DEGF'
p1330
tp1331
Rp1332
sS'4MP28BV'
p1333
g2
(g3
(S'S3'
p1334
I0
I1
tp1335
Rp1336
(I3
S'|'
p1337
NNNI3
I1
I0
tp1338
bS'VDC'
p1339
tp1340
Rp1341
sS'PFDM101T'
p1342
g2
(g3
(S'S4'
p1343
I0
I1
tp1344
Rp1345
(I3
S'|'
p1346
NNNI4
I1
I0
tp1347
bS'DEGF'
p1348
tp1349
Rp1350
sS'OHRTHR50'
p1351
g2
(g3
(S'S4'
p1352
I0
I1
tp1353
Rp1354
(I3
S'|'
p1355
NNNI4
I1
I0
tp1356
bS'DEGF'
p1357
tp1358
Rp1359
sS'PLAED3DT'
p1360
g2
(g3
(S'S4'
p1361
I0
I1
tp1362
Rp1363
(I3
S'|'
p1364
NNNI4
I1
I0
tp1365
bS'DEGF'
p1366
tp1367
Rp1368
sS'OHRTHR51'
p1369
g2
(g3
(S'S4'
p1370
I0
I1
tp1371
Rp1372
(I3
S'|'
p1373
NNNI4
I1
I0
tp1374
bS'DEGF'
p1375
tp1376
Rp1377
sS'EORTDMN23D'
p1378
g2
(g3
(S'S4'
p1379
I0
I1
tp1380
Rp1381
(I3
S'|'
p1382
NNNI4
I1
I0
tp1383
bS'DEGF'
p1384
tp1385
Rp1386
sS'AWD3CV5V'
p1387
g2
(g3
(S'S1'
p1388
I0
I1
tp1389
Rp1390
(I3
S'|'
p1391
NNNI1
I1
I0
tp1392
bg45
tp1393
Rp1394
sS'PLINE02T'
p1395
g2
(g3
(S'S4'
p1396
I0
I1
tp1397
Rp1398
(I3
S'|'
p1399
NNNI4
I1
I0
tp1400
bS'DEGF'
p1401
tp1402
Rp1403
sS'4RT706T'
p1404
g2
(g3
(S'S4'
p1405
I0
I1
tp1406
Rp1407
(I3
S'|'
p1408
NNNI4
I1
I0
tp1409
bS'DEGF'
p1410
tp1411
Rp1412
sS'TPCM_RW5'
p1413
g2
(g3
(S'S4'
p1414
I0
I1
tp1415
Rp1416
(I3
S'|'
p1417
NNNI4
I1
I0
tp1418
bS'DEGF'
p1419
tp1420
Rp1421
sS'2CEAHVPT'
p1422
g2
(g3
(S'S4'
p1423
I0
I1
tp1424
Rp1425
(I3
S'|'
p1426
NNNI4
I1
I0
tp1427
bS'DEGC'
p1428
tp1429
Rp1430
sS'PLAEV2AT'
p1431
g2
(g3
(S'S4'
p1432
I0
I1
tp1433
Rp1434
(I3
S'|'
p1435
NNNI4
I1
I0
tp1436
bS'DEGF'
p1437
tp1438
Rp1439
sS'EOEB2DIC'
p1440
g2
(g3
(S'S3'
p1441
I0
I1
tp1442
Rp1443
(I3
S'|'
p1444
NNNI3
I1
I0
tp1445
bS'AMP'
p1446
tp1447
Rp1448
sS'AORESZ6_5'
p1449
g2
(g3
(S'S3'
p1450
I0
I1
tp1451
Rp1452
(I3
S'|'
p1453
NNNI3
I1
I0
tp1454
bS'RAD'
p1455
tp1456
Rp1457
sS'AOSUNER1'
p1458
g2
(g3
(S'S3'
p1459
I0
I1
tp1460
Rp1461
(I3
S'|'
p1462
NNNI3
I1
I0
tp1463
bS'RAD'
p1464
tp1465
Rp1466
sS'TRSPRWCM'
p1467
g2
(g3
(S'S4'
p1468
I0
I1
tp1469
Rp1470
(I3
S'|'
p1471
NNNI4
I1
I0
tp1472
bS'DEGF'
p1473
tp1474
Rp1475
sS'AOSUNER3'
p1476
g2
(g3
(S'S3'
p1477
I0
I1
tp1478
Rp1479
(I3
S'|'
p1480
NNNI3
I1
I0
tp1481
bS'RAD'
p1482
tp1483
Rp1484
sS'AOSUNER2'
p1485
g2
(g3
(S'S3'
p1486
I0
I1
tp1487
Rp1488
(I3
S'|'
p1489
NNNI3
I1
I0
tp1490
bS'RAD'
p1491
tp1492
Rp1493
sS'OHRTHR55'
p1494
g2
(g3
(S'S4'
p1495
I0
I1
tp1496
Rp1497
(I3
S'|'
p1498
NNNI4
I1
I0
tp1499
bS'DEGF'
p1500
tp1501
Rp1502
sS'PLAED2DT'
p1503
g2
(g3
(S'S4'
p1504
I0
I1
tp1505
Rp1506
(I3
S'|'
p1507
NNNI4
I1
I0
tp1508
bS'DEGF'
p1509
tp1510
Rp1511
sS'AORESY6_1'
p1512
g2
(g3
(S'S3'
p1513
I0
I1
tp1514
Rp1515
(I3
S'|'
p1516
NNNI3
I1
I0
tp1517
bS'RAD'
p1518
tp1519
Rp1520
sS'TESH2'
p1521
g2
(g3
(S'S4'
p1522
I0
I1
tp1523
Rp1524
(I3
S'|'
p1525
NNNI4
I1
I0
tp1526
bS'DEGF'
p1527
tp1528
Rp1529
sS'CTSA5V'
p1530
g2
(g3
(S'S1'
p1531
I0
I1
tp1532
Rp1533
(I3
S'|'
p1534
NNNI1
I1
I0
tp1535
bg45
tp1536
Rp1537
sS'1DPAMYT'
p1538
g2
(g3
(S'S4'
p1539
I0
I1
tp1540
Rp1541
(I3
S'|'
p1542
NNNI4
I1
I0
tp1543
bS'DEGC'
p1544
tp1545
Rp1546
sS'1DACTBT'
p1547
g2
(g3
(S'S4'
p1548
I0
I1
tp1549
Rp1550
(I3
S'|'
p1551
NNNI4
I1
I0
tp1552
bS'DEGC'
p1553
tp1554
Rp1555
sS'4RT556T'
p1556
g2
(g3
(S'S4'
p1557
I0
I1
tp1558
Rp1559
(I3
S'|'
p1560
NNNI4
I1
I0
tp1561
bS'DEGF'
p1562
tp1563
Rp1564
sS'AFLCA4BI'
p1565
g2
(g3
(S'S4'
p1566
I0
I1
tp1567
Rp1568
(I3
S'|'
p1569
NNNI4
I1
I0
tp1570
bS'MAMP'
p1571
tp1572
Rp1573
sS'AORESZ6_1'
p1574
g2
(g3
(S'S3'
p1575
I0
I1
tp1576
Rp1577
(I3
S'|'
p1578
NNNI3
I1
I0
tp1579
bS'RAD'
p1580
tp1581
Rp1582
sS'PM4THV1T'
p1583
g2
(g3
(S'S4'
p1584
I0
I1
tp1585
Rp1586
(I3
S'|'
p1587
NNNI4
I1
I0
tp1588
bS'DEGF'
p1589
tp1590
Rp1591
sS'CSITA15V'
p1592
g2
(g3
(S'S1'
p1593
I0
I1
tp1594
Rp1595
(I3
S'|'
p1596
NNNI1
I1
I0
tp1597
bg45
tp1598
Rp1599
sS'TPZLGABM'
p1600
g2
(g3
(S'S4'
p1601
I0
I1
tp1602
Rp1603
(I3
S'|'
p1604
NNNI4
I1
I0
tp1605
bS'DEGF'
p1606
tp1607
Rp1608
sS'AFLC13AI'
p1609
g2
(g3
(S'S4'
p1610
I0
I1
tp1611
Rp1612
(I3
S'|'
p1613
NNNI4
I1
I0
tp1614
bS'MAMP'
p1615
tp1616
Rp1617
sS'AORWBTQ1'
p1618
g2
(g3
(S'S4'
p1619
I0
I1
tp1620
Rp1621
(I3
S'|'
p1622
NNNI4
I1
I0
tp1623
bS'FTLB'
p1624
tp1625
Rp1626
sS'AORWBTQ2'
p1627
g2
(g3
(S'S4'
p1628
I0
I1
tp1629
Rp1630
(I3
S'|'
p1631
NNNI4
I1
I0
tp1632
bS'FTLB'
p1633
tp1634
Rp1635
sS'AORWBTQ3'
p1636
g2
(g3
(S'S4'
p1637
I0
I1
tp1638
Rp1639
(I3
S'|'
p1640
NNNI4
I1
I0
tp1641
bS'FTLB'
p1642
tp1643
Rp1644
sS'AORWBTQ4'
p1645
g2
(g3
(S'S4'
p1646
I0
I1
tp1647
Rp1648
(I3
S'|'
p1649
NNNI4
I1
I0
tp1650
bS'FTLB'
p1651
tp1652
Rp1653
sS'AGWS1V'
p1654
g2
(g3
(S'S1'
p1655
I0
I1
tp1656
Rp1657
(I3
S'|'
p1658
NNNI1
I1
I0
tp1659
bg45
tp1660
Rp1661
sS'AORWBTQ6'
p1662
g2
(g3
(S'S4'
p1663
I0
I1
tp1664
Rp1665
(I3
S'|'
p1666
NNNI4
I1
I0
tp1667
bS'FTLB'
p1668
tp1669
Rp1670
sS'AWD6CV5V'
p1671
g2
(g3
(S'S1'
p1672
I0
I1
tp1673
Rp1674
(I3
S'|'
p1675
NNNI1
I1
I0
tp1676
bg45
tp1677
Rp1678
sS'3FABRCAT'
p1679
g2
(g3
(S'S4'
p1680
I0
I1
tp1681
Rp1682
(I3
S'|'
p1683
NNNI4
I1
I0
tp1684
bS'DEGC'
p1685
tp1686
Rp1687
sS'AWD4CV5V'
p1688
g2
(g3
(S'S1'
p1689
I0
I1
tp1690
Rp1691
(I3
S'|'
p1692
NNNI1
I1
I0
tp1693
bg45
tp1694
Rp1695
sS'4RT576T'
p1696
g2
(g3
(S'S4'
p1697
I0
I1
tp1698
Rp1699
(I3
S'|'
p1700
NNNI4
I1
I0
tp1701
bS'DEGF'
p1702
tp1703
Rp1704
sS'AIRU1G1T'
p1705
g2
(g3
(S'S4'
p1706
I0
I1
tp1707
Rp1708
(I3
S'|'
p1709
NNNI4
I1
I0
tp1710
bS'DEGF'
p1711
tp1712
Rp1713
sS'OHRTHR53'
p1714
g2
(g3
(S'S4'
p1715
I0
I1
tp1716
Rp1717
(I3
S'|'
p1718
NNNI4
I1
I0
tp1719
bS'DEGF'
p1720
tp1721
Rp1722
sS'PR2TV02T'
p1723
g2
(g3
(S'S4'
p1724
I0
I1
tp1725
Rp1726
(I3
S'|'
p1727
NNNI4
I1
I0
tp1728
bS'DEGF'
p1729
tp1730
Rp1731
sS'PLAED4AT'
p1732
g2
(g3
(S'S4'
p1733
I0
I1
tp1734
Rp1735
(I3
S'|'
p1736
NNNI4
I1
I0
tp1737
bS'DEGF'
p1738
tp1739
Rp1740
sS'2P05VAVL'
p1741
g2
(g3
(S'S3'
p1742
I0
I1
tp1743
Rp1744
(I3
S'|'
p1745
NNNI3
I1
I0
tp1746
bS'VDC'
p1747
tp1748
Rp1749
sS'PLAEV4AT'
p1750
g2
(g3
(S'S4'
p1751
I0
I1
tp1752
Rp1753
(I3
S'|'
p1754
NNNI4
I1
I0
tp1755
bS'DEGF'
p1756
tp1757
Rp1758
sS'1VAHCBT'
p1759
g2
(g3
(S'S4'
p1760
I0
I1
tp1761
Rp1762
(I3
S'|'
p1763
NNNI4
I1
I0
tp1764
bS'DEGC'
p1765
tp1766
Rp1767
sS'PM2THV1T'
p1768
g2
(g3
(S'S4'
p1769
I0
I1
tp1770
Rp1771
(I3
S'|'
p1772
NNNI4
I1
I0
tp1773
bS'DEGF'
p1774
tp1775
Rp1776
sS'PLINE09T'
p1777
g2
(g3
(S'S4'
p1778
I0
I1
tp1779
Rp1780
(I3
S'|'
p1781
NNNI4
I1
I0
tp1782
bS'DEGF'
p1783
tp1784
Rp1785
sS'1DPP0AVO'
p1786
g2
(g3
(S'S1'
p1787
I0
I1
tp1788
Rp1789
(I3
S'|'
p1790
NNNI1
I1
I0
tp1791
bg45
tp1792
Rp1793
sS'5EIOT'
p1794
g2
(g3
(S'S4'
p1795
I0
I1
tp1796
Rp1797
(I3
S'|'
p1798
NNNI4
I1
I0
tp1799
bS'DEGC'
p1800
tp1801
Rp1802
sS'CPCB5V'
p1803
g2
(g3
(S'S1'
p1804
I0
I1
tp1805
Rp1806
(I3
S'|'
p1807
NNNI1
I1
I0
tp1808
bg45
tp1809
Rp1810
sS'PLAED1IT'
p1811
g2
(g3
(S'S4'
p1812
I0
I1
tp1813
Rp1814
(I3
S'|'
p1815
NNNI4
I1
I0
tp1816
bS'DEGF'
p1817
tp1818
Rp1819
sS'CPCA5V'
p1820
g2
(g3
(S'S1'
p1821
I0
I1
tp1822
Rp1823
(I3
S'|'
p1824
NNNI1
I1
I0
tp1825
bg45
tp1826
Rp1827
sS'AFLCA2BI'
p1828
g2
(g3
(S'S4'
p1829
I0
I1
tp1830
Rp1831
(I3
S'|'
p1832
NNNI4
I1
I0
tp1833
bS'MAMP'
p1834
tp1835
Rp1836
sS'TEIO'
p1837
g2
(g3
(S'S4'
p1838
I0
I1
tp1839
Rp1840
(I3
S'|'
p1841
NNNI4
I1
I0
tp1842
bS'DEGF'
p1843
tp1844
Rp1845
sS'AORWMC2_1'
p1846
g2
(g3
(S'S7'
p1847
I0
I1
tp1848
Rp1849
(I3
S'|'
p1850
NNNI7
I1
I0
tp1851
bS'FTLBSEC'
p1852
tp1853
Rp1854
sS'ELBV'
p1855
g2
(g3
(S'S1'
p1856
I0
I1
tp1857
Rp1858
(I3
S'|'
p1859
NNNI1
I1
I0
tp1860
bg45
tp1861
Rp1862
sS'AACBPRT'
p1863
g2
(g3
(S'S4'
p1864
I0
I1
tp1865
Rp1866
(I3
S'|'
p1867
NNNI4
I1
I0
tp1868
bS'DEGF'
p1869
tp1870
Rp1871
sS'PLAED1AT'
p1872
g2
(g3
(S'S4'
p1873
I0
I1
tp1874
Rp1875
(I3
S'|'
p1876
NNNI4
I1
I0
tp1877
bS'DEGF'
p1878
tp1879
Rp1880
sS'PFTANK1T'
p1881
g2
(g3
(S'S4'
p1882
I0
I1
tp1883
Rp1884
(I3
S'|'
p1885
NNNI4
I1
I0
tp1886
bS'DEGF'
p1887
tp1888
Rp1889
sS'TPCM_RW4'
p1890
g2
(g3
(S'S4'
p1891
I0
I1
tp1892
Rp1893
(I3
S'|'
p1894
NNNI4
I1
I0
tp1895
bS'DEGF'
p1896
tp1897
Rp1898
sS'4RT580T'
p1899
g2
(g3
(S'S4'
p1900
I0
I1
tp1901
Rp1902
(I3
S'|'
p1903
NNNI4
I1
I0
tp1904
bS'DEGF'
p1905
tp1906
Rp1907
sS'TEP_PCU'
p1908
g2
(g3
(S'S4'
p1909
I0
I1
tp1910
Rp1911
(I3
S'|'
p1912
NNNI4
I1
I0
tp1913
bS'DEGF'
p1914
tp1915
Rp1916
sS'4VRMHBV'
p1917
g2
(g3
(S'S3'
p1918
I0
I1
tp1919
Rp1920
(I3
S'|'
p1921
NNNI3
I1
I0
tp1922
bS'VDC'
p1923
tp1924
Rp1925
sS'PHETANKT'
p1926
g2
(g3
(S'S4'
p1927
I0
I1
tp1928
Rp1929
(I3
S'|'
p1930
NNNI4
I1
I0
tp1931
bS'DEGF'
p1932
tp1933
Rp1934
sS'TAPE1PST'
p1935
g2
(g3
(S'S4'
p1936
I0
I1
tp1937
Rp1938
(I3
S'|'
p1939
NNNI4
I1
I0
tp1940
bS'DEGF'
p1941
tp1942
Rp1943
sS'4RT558T'
p1944
g2
(g3
(S'S4'
p1945
I0
I1
tp1946
Rp1947
(I3
S'|'
p1948
NNNI4
I1
I0
tp1949
bS'DEGF'
p1950
tp1951
Rp1952
sS'1DEP0BVO'
p1953
g2
(g3
(S'S1'
p1954
I0
I1
tp1955
Rp1956
(I3
S'|'
p1957
NNNI1
I1
I0
tp1958
bg45
tp1959
Rp1960
sS'OOBTHR24'
p1961
g2
(g3
(S'S4'
p1962
I0
I1
tp1963
Rp1964
(I3
S'|'
p1965
NNNI4
I1
I0
tp1966
bS'DEGF'
p1967
tp1968
Rp1969
sS'6TQCMD1'
p1970
g2
(g3
(S'S4'
p1971
I0
I1
tp1972
Rp1973
(I3
S'|'
p1974
NNNI4
I1
I0
tp1975
bS'FTLB'
p1976
tp1977
Rp1978
sS'6TQCMD2'
p1979
g2
(g3
(S'S4'
p1980
I0
I1
tp1981
Rp1982
(I3
S'|'
p1983
NNNI4
I1
I0
tp1984
bS'FTLB'
p1985
tp1986
Rp1987
sS'6TQCMD3'
p1988
g2
(g3
(S'S4'
p1989
I0
I1
tp1990
Rp1991
(I3
S'|'
p1992
NNNI4
I1
I0
tp1993
bS'FTLB'
p1994
tp1995
Rp1996
sS'OOBTHR20'
p1997
g2
(g3
(S'S4'
p1998
I0
I1
tp1999
Rp2000
(I3
S'|'
p2001
NNNI4
I1
I0
tp2002
bS'DEGF'
p2003
tp2004
Rp2005
sS'OOBTHR21'
p2006
g2
(g3
(S'S4'
p2007
I0
I1
tp2008
Rp2009
(I3
S'|'
p2010
NNNI4
I1
I0
tp2011
bS'DEGF'
p2012
tp2013
Rp2014
sS'OOBTHR22'
p2015
g2
(g3
(S'S4'
p2016
I0
I1
tp2017
Rp2018
(I3
S'|'
p2019
NNNI4
I1
I0
tp2020
bS'DEGF'
p2021
tp2022
Rp2023
sS'OOBTHR23'
p2024
g2
(g3
(S'S4'
p2025
I0
I1
tp2026
Rp2027
(I3
S'|'
p2028
NNNI4
I1
I0
tp2029
bS'DEGF'
p2030
tp2031
Rp2032
sS'OHRTHR03'
p2033
g2
(g3
(S'S4'
p2034
I0
I1
tp2035
Rp2036
(I3
S'|'
p2037
NNNI4
I1
I0
tp2038
bS'DEGF'
p2039
tp2040
Rp2041
sS'AVD2CV5V'
p2042
g2
(g3
(S'S1'
p2043
I0
I1
tp2044
Rp2045
(I3
S'|'
p2046
NNNI1
I1
I0
tp2047
bg45
tp2048
Rp2049
sS'OOBTHR28'
p2050
g2
(g3
(S'S4'
p2051
I0
I1
tp2052
Rp2053
(I3
S'|'
p2054
NNNI4
I1
I0
tp2055
bS'DEGF'
p2056
tp2057
Rp2058
sS'OOBTHR29'
p2059
g2
(g3
(S'S4'
p2060
I0
I1
tp2061
Rp2062
(I3
S'|'
p2063
NNNI4
I1
I0
tp2064
bS'DEGF'
p2065
tp2066
Rp2067
sS'TB2T1'
p2068
g2
(g3
(S'S4'
p2069
I0
I1
tp2070
Rp2071
(I3
S'|'
p2072
NNNI4
I1
I0
tp2073
bS'DEGF'
p2074
tp2075
Rp2076
sS'EORTDMN16D'
p2077
g2
(g3
(S'S4'
p2078
I0
I1
tp2079
Rp2080
(I3
S'|'
p2081
NNNI4
I1
I0
tp2082
bS'DEGF'
p2083
tp2084
Rp2085
sS'2FHTRMZT'
p2086
g2
(g3
(S'S4'
p2087
I0
I1
tp2088
Rp2089
(I3
S'|'
p2090
NNNI4
I1
I0
tp2091
bS'DEGC'
p2092
tp2093
Rp2094
sS'AOSAANG1'
p2095
g2
(g3
(S'S3'
p2096
I0
I1
tp2097
Rp2098
(I3
S'|'
p2099
NNNI3
I1
I0
tp2100
bS'RAD'
p2101
tp2102
Rp2103
sS'AOSAANG2'
p2104
g2
(g3
(S'S3'
p2105
I0
I1
tp2106
Rp2107
(I3
S'|'
p2108
NNNI3
I1
I0
tp2109
bS'RAD'
p2110
tp2111
Rp2112
sS'CTSB15V'
p2113
g2
(g3
(S'S1'
p2114
I0
I1
tp2115
Rp2116
(I3
S'|'
p2117
NNNI1
I1
I0
tp2118
bg45
tp2119
Rp2120
sS'6MUPCNT3'
p2121
g2
(g3
(S'S3'
p2122
I0
I1
tp2123
Rp2124
(I3
S'|'
p2125
NNNI3
I1
I0
tp2126
bS'SEC'
p2127
tp2128
Rp2129
sS'6MUPCNT2'
p2130
g2
(g3
(S'S3'
p2131
I0
I1
tp2132
Rp2133
(I3
S'|'
p2134
NNNI3
I1
I0
tp2135
bS'SEC'
p2136
tp2137
Rp2138
sS'6MUPCNT1'
p2139
g2
(g3
(S'S3'
p2140
I0
I1
tp2141
Rp2142
(I3
S'|'
p2143
NNNI3
I1
I0
tp2144
bS'SEC'
p2145
tp2146
Rp2147
sS'4RT561T'
p2148
g2
(g3
(S'S4'
p2149
I0
I1
tp2150
Rp2151
(I3
S'|'
p2152
NNNI4
I1
I0
tp2153
bS'DEGF'
p2154
tp2155
Rp2156
sS'AOSAEST2'
p2157
g2
(g3
(S'S3'
p2158
I0
I1
tp2159
Rp2160
(I3
S'|'
p2161
NNNI3
I1
I0
tp2162
bS'RAD'
p2163
tp2164
Rp2165
sS'6MUPCNT4'
p2166
g2
(g3
(S'S3'
p2167
I0
I1
tp2168
Rp2169
(I3
S'|'
p2170
NNNI3
I1
I0
tp2171
bS'SEC'
p2172
tp2173
Rp2174
sS'OHRTHR57'
p2175
g2
(g3
(S'S4'
p2176
I0
I1
tp2177
Rp2178
(I3
S'|'
p2179
NNNI4
I1
I0
tp2180
bS'DEGF'
p2181
tp2182
Rp2183
sS'AOMANTIM'
p2184
g2
(g3
(S'S3'
p2185
I0
I1
tp2186
Rp2187
(I3
S'|'
p2188
NNNI3
I1
I0
tp2189
bS'SEC'
p2190
tp2191
Rp2192
sS'CTUB5V'
p2193
g2
(g3
(S'S1'
p2194
I0
I1
tp2195
Rp2196
(I3
S'|'
p2197
NNNI1
I1
I0
tp2198
bg45
tp2199
Rp2200
sS'AWD4TQI'
p2201
g2
(g3
(S'S3'
p2202
I0
I1
tp2203
Rp2204
(I3
S'|'
p2205
NNNI3
I1
I0
tp2206
bS'AMP'
p2207
tp2208
Rp2209
sS'4LLL2AT'
p2210
g2
(g3
(S'S4'
p2211
I0
I1
tp2212
Rp2213
(I3
S'|'
p2214
NNNI4
I1
I0
tp2215
bS'DEGF'
p2216
tp2217
Rp2218
sS'AWD5CV5V'
p2219
g2
(g3
(S'S1'
p2220
I0
I1
tp2221
Rp2222
(I3
S'|'
p2223
NNNI1
I1
I0
tp2224
bg45
tp2225
Rp2226
sS'4ALL1BT'
p2227
g2
(g3
(S'S4'
p2228
I0
I1
tp2229
Rp2230
(I3
S'|'
p2231
NNNI4
I1
I0
tp2232
bS'DEGF'
p2233
tp2234
Rp2235
sS'CPCB15V'
p2236
g2
(g3
(S'S1'
p2237
I0
I1
tp2238
Rp2239
(I3
S'|'
p2240
NNNI1
I1
I0
tp2241
bg45
tp2242
Rp2243
sS'4RT711T'
p2244
g2
(g3
(S'S4'
p2245
I0
I1
tp2246
Rp2247
(I3
S'|'
p2248
NNNI4
I1
I0
tp2249
bS'DEGF'
p2250
tp2251
Rp2252
sS'AAOTALT'
p2253
g2
(g3
(S'S4'
p2254
I0
I1
tp2255
Rp2256
(I3
S'|'
p2257
NNNI4
I1
I0
tp2258
bS'DEGF'
p2259
tp2260
Rp2261
sS'AGWS2V'
p2262
g2
(g3
(S'S1'
p2263
I0
I1
tp2264
Rp2265
(I3
S'|'
p2266
NNNI1
I1
I0
tp2267
bg45
tp2268
Rp2269
sS'EORTDMN26D'
p2270
g2
(g3
(S'S4'
p2271
I0
I1
tp2272
Rp2273
(I3
S'|'
p2274
NNNI4
I1
I0
tp2275
bS'DEGF'
p2276
tp2277
Rp2278
sS'EB1V'
p2279
g2
(g3
(S'S1'
p2280
I0
I1
tp2281
Rp2282
(I3
S'|'
p2283
NNNI1
I1
I0
tp2284
bg45
tp2285
Rp2286
sS'AOFFTQ1'
p2287
g2
(g3
(S'S4'
p2288
I0
I1
tp2289
Rp2290
(I3
S'|'
p2291
NNNI4
I1
I0
tp2292
bS'FTLB'
p2293
tp2294
Rp2295
sS'AOFFTQ2'
p2296
g2
(g3
(S'S4'
p2297
I0
I1
tp2298
Rp2299
(I3
S'|'
p2300
NNNI4
I1
I0
tp2301
bS'FTLB'
p2302
tp2303
Rp2304
sS'AOFFTQ3'
p2305
g2
(g3
(S'S4'
p2306
I0
I1
tp2307
Rp2308
(I3
S'|'
p2309
NNNI4
I1
I0
tp2310
bS'FTLB'
p2311
tp2312
Rp2313
sS'OHRTHR05'
p2314
g2
(g3
(S'S4'
p2315
I0
I1
tp2316
Rp2317
(I3
S'|'
p2318
NNNI4
I1
I0
tp2319
bS'DEGF'
p2320
tp2321
Rp2322
sS'3SFLXCST'
p2323
g2
(g3
(S'S4'
p2324
I0
I1
tp2325
Rp2326
(I3
S'|'
p2327
NNNI4
I1
I0
tp2328
bS'DEGC'
p2329
tp2330
Rp2331
sS'PLINE07T'
p2332
g2
(g3
(S'S4'
p2333
I0
I1
tp2334
Rp2335
(I3
S'|'
p2336
NNNI4
I1
I0
tp2337
bS'DEGF'
p2338
tp2339
Rp2340
sS'PLAEV2BT'
p2341
g2
(g3
(S'S4'
p2342
I0
I1
tp2343
Rp2344
(I3
S'|'
p2345
NNNI4
I1
I0
tp2346
bS'DEGF'
p2347
tp2348
Rp2349
sS'AOSCVEL1'
p2350
g2
(g3
(S'S4'
p2351
I0
I1
tp2352
Rp2353
(I3
S'|'
p2354
NNNI4
I1
I0
tp2355
bS'KMPS'
p2356
tp2357
Rp2358
sS'3TSPYFET'
p2359
g2
(g3
(S'S4'
p2360
I0
I1
tp2361
Rp2362
(I3
S'|'
p2363
NNNI4
I1
I0
tp2364
bS'DEGC'
p2365
tp2366
Rp2367
sS'4RT598T'
p2368
g2
(g3
(S'S4'
p2369
I0
I1
tp2370
Rp2371
(I3
S'|'
p2372
NNNI4
I1
I0
tp2373
bS'DEGF'
p2374
tp2375
Rp2376
sS'1DE28AVO'
p2377
g2
(g3
(S'S1'
p2378
I0
I1
tp2379
Rp2380
(I3
S'|'
p2381
NNNI1
I1
I0
tp2382
bg45
tp2383
Rp2384
sS'2N15VBVL'
p2385
g2
(g3
(S'S3'
p2386
I0
I1
tp2387
Rp2388
(I3
S'|'
p2389
NNNI3
I1
I0
tp2390
bS'VDC'
p2391
tp2392
Rp2393
sS'AFLC13BI'
p2394
g2
(g3
(S'S4'
p2395
I0
I1
tp2396
Rp2397
(I3
S'|'
p2398
NNNI4
I1
I0
tp2399
bS'MAMP'
p2400
tp2401
Rp2402
sS'PR4TV02T'
p2403
g2
(g3
(S'S4'
p2404
I0
I1
tp2405
Rp2406
(I3
S'|'
p2407
NNNI4
I1
I0
tp2408
bS'DEGF'
p2409
tp2410
Rp2411
sS'AOGBIAS1'
p2412
g2
(g3
(S'S5'
p2413
I0
I1
tp2414
Rp2415
(I3
S'|'
p2416
NNNI5
I1
I0
tp2417
bS'RADPS'
p2418
tp2419
Rp2420
sS'AOGBIAS2'
p2421
g2
(g3
(S'S5'
p2422
I0
I1
tp2423
Rp2424
(I3
S'|'
p2425
NNNI5
I1
I0
tp2426
bS'RADPS'
p2427
tp2428
Rp2429
sS'AOGBIAS3'
p2430
g2
(g3
(S'S5'
p2431
I0
I1
tp2432
Rp2433
(I3
S'|'
p2434
NNNI5
I1
I0
tp2435
bS'RADPS'
p2436
tp2437
Rp2438
sS'1DEN1AVO'
p2439
g2
(g3
(S'S1'
p2440
I0
I1
tp2441
Rp2442
(I3
S'|'
p2443
NNNI1
I1
I0
tp2444
bg45
tp2445
Rp2446
sS'1DEN0AVO'
p2447
g2
(g3
(S'S1'
p2448
I0
I1
tp2449
Rp2450
(I3
S'|'
p2451
NNNI1
I1
I0
tp2452
bg45
tp2453
Rp2454
sS'1DEP2BVO'
p2455
g2
(g3
(S'S1'
p2456
I0
I1
tp2457
Rp2458
(I3
S'|'
p2459
NNNI1
I1
I0
tp2460
bg45
tp2461
Rp2462
sS'TMP_FEP1_FB'
p2463
g299
sS'1DPICBCU'
p2464
g2
(g3
(S'S3'
p2465
I0
I1
tp2466
Rp2467
(I3
S'|'
p2468
NNNI3
I1
I0
tp2469
bS'AMP'
p2470
tp2471
Rp2472
sS'1DP28AVO'
p2473
g2
(g3
(S'S1'
p2474
I0
I1
tp2475
Rp2476
(I3
S'|'
p2477
NNNI1
I1
I0
tp2478
bg45
tp2479
Rp2480
sS'2CONDMXT'
p2481
g2
(g3
(S'S4'
p2482
I0
I1
tp2483
Rp2484
(I3
S'|'
p2485
NNNI4
I1
I0
tp2486
bS'DEGC'
p2487
tp2488
Rp2489
sS'4CSDHAV'
p2490
g2
(g3
(S'S3'
p2491
I0
I1
tp2492
Rp2493
(I3
S'|'
p2494
NNNI3
I1
I0
tp2495
bS'VDC'
p2496
tp2497
Rp2498
sS'4RT587T'
p2499
g2
(g3
(S'S4'
p2500
I0
I1
tp2501
Rp2502
(I3
S'|'
p2503
NNNI4
I1
I0
tp2504
bS'DEGF'
p2505
tp2506
Rp2507
sS'AI1AX2Y'
p2508
g2
(g3
(S'S5'
p2509
I0
I1
tp2510
Rp2511
(I3
S'|'
p2512
NNNI5
I1
I0
tp2513
bS'DEGPS'
p2514
tp2515
Rp2516
sS'AI1AX2X'
p2517
g2
(g3
(S'S5'
p2518
I0
I1
tp2519
Rp2520
(I3
S'|'
p2521
NNNI5
I1
I0
tp2522
bS'DEGPS'
p2523
tp2524
Rp2525
sS'TEP_PPAN'
p2526
g2
(g3
(S'S4'
p2527
I0
I1
tp2528
Rp2529
(I3
S'|'
p2530
NNNI4
I1
I0
tp2531
bS'DEGF'
p2532
tp2533
Rp2534
sS'AORWCMD5'
p2535
g2
(g3
(S'S4'
p2536
I0
I1
tp2537
Rp2538
(I3
S'|'
p2539
NNNI4
I1
I0
tp2540
bS'FTLB'
p2541
tp2542
Rp2543
sS'AORWCMD4'
p2544
g2
(g3
(S'S4'
p2545
I0
I1
tp2546
Rp2547
(I3
S'|'
p2548
NNNI4
I1
I0
tp2549
bS'FTLB'
p2550
tp2551
Rp2552
sS'OHRTHR29'
p2553
g2
(g3
(S'S4'
p2554
I0
I1
tp2555
Rp2556
(I3
S'|'
p2557
NNNI4
I1
I0
tp2558
bS'DEGF'
p2559
tp2560
Rp2561
sS'AORWCMD6'
p2562
g2
(g3
(S'S4'
p2563
I0
I1
tp2564
Rp2565
(I3
S'|'
p2566
NNNI4
I1
I0
tp2567
bS'FTLB'
p2568
tp2569
Rp2570
sS'AORWCMD1'
p2571
g2
(g3
(S'S4'
p2572
I0
I1
tp2573
Rp2574
(I3
S'|'
p2575
NNNI4
I1
I0
tp2576
bS'FTLB'
p2577
tp2578
Rp2579
sS'AORWCMD3'
p2580
g2
(g3
(S'S4'
p2581
I0
I1
tp2582
Rp2583
(I3
S'|'
p2584
NNNI4
I1
I0
tp2585
bS'FTLB'
p2586
tp2587
Rp2588
sS'AORWCMD2'
p2589
g2
(g3
(S'S4'
p2590
I0
I1
tp2591
Rp2592
(I3
S'|'
p2593
NNNI4
I1
I0
tp2594
bS'FTLB'
p2595
tp2596
Rp2597
sS'OHRTHR23'
p2598
g2
(g3
(S'S4'
p2599
I0
I1
tp2600
Rp2601
(I3
S'|'
p2602
NNNI4
I1
I0
tp2603
bS'DEGF'
p2604
tp2605
Rp2606
sS'OHRTHR22'
p2607
g2
(g3
(S'S4'
p2608
I0
I1
tp2609
Rp2610
(I3
S'|'
p2611
NNNI4
I1
I0
tp2612
bS'DEGF'
p2613
tp2614
Rp2615
sS'OHRTHR21'
p2616
g2
(g3
(S'S4'
p2617
I0
I1
tp2618
Rp2619
(I3
S'|'
p2620
NNNI4
I1
I0
tp2621
bS'DEGF'
p2622
tp2623
Rp2624
sS'OHRTHR20'
p2625
g2
(g3
(S'S4'
p2626
I0
I1
tp2627
Rp2628
(I3
S'|'
p2629
NNNI4
I1
I0
tp2630
bS'DEGF'
p2631
tp2632
Rp2633
sS'OHRTHR27'
p2634
g2
(g3
(S'S4'
p2635
I0
I1
tp2636
Rp2637
(I3
S'|'
p2638
NNNI4
I1
I0
tp2639
bS'DEGF'
p2640
tp2641
Rp2642
sS'AOCMDAC1'
p2643
g2
(g3
(S'S5'
p2644
I0
I1
tp2645
Rp2646
(I3
S'|'
p2647
NNNI5
I1
I0
tp2648
bS'RADSS'
p2649
tp2650
Rp2651
sS'AOCMDAC2'
p2652
g2
(g3
(S'S5'
p2653
I0
I1
tp2654
Rp2655
(I3
S'|'
p2656
NNNI5
I1
I0
tp2657
bS'RADSS'
p2658
tp2659
Rp2660
sS'AOCMDAC3'
p2661
g2
(g3
(S'S5'
p2662
I0
I1
tp2663
Rp2664
(I3
S'|'
p2665
NNNI5
I1
I0
tp2666
bS'RADSS'
p2667
tp2668
Rp2669
sS'4IN15BV'
p2670
g2
(g3
(S'S3'
p2671
I0
I1
tp2672
Rp2673
(I3
S'|'
p2674
NNNI3
I1
I0
tp2675
bS'VDC'
p2676
tp2677
Rp2678
sS'63RCSTMR'
p2679
g2
(g3
(S'S3'
p2680
I0
I1
tp2681
Rp2682
(I3
S'|'
p2683
NNNI3
I1
I0
tp2684
bS'MIN'
p2685
tp2686
Rp2687
sS'TCNR_BRM'
p2688
g2
(g3
(S'S4'
p2689
I0
I1
tp2690
Rp2691
(I3
S'|'
p2692
NNNI4
I1
I0
tp2693
bS'DEGF'
p2694
tp2695
Rp2696
sS'TCM_IFU'
p2697
g2
(g3
(S'S4'
p2698
I0
I1
tp2699
Rp2700
(I3
S'|'
p2701
NNNI4
I1
I0
tp2702
bS'DEGF'
p2703
tp2704
Rp2705
sS'TCYLFMZP'
p2706
g2
(g3
(S'S4'
p2707
I0
I1
tp2708
Rp2709
(I3
S'|'
p2710
NNNI4
I1
I0
tp2711
bS'DEGF'
p2712
tp2713
Rp2714
sS'EOEB1VC'
p2715
g2
(g3
(S'S1'
p2716
I0
I1
tp2717
Rp2718
(I3
S'|'
p2719
NNNI1
I1
I0
tp2720
bg45
tp2721
Rp2722
sS'TCYLFMZM'
p2723
g2
(g3
(S'S4'
p2724
I0
I1
tp2725
Rp2726
(I3
S'|'
p2727
NNNI4
I1
I0
tp2728
bS'DEGF'
p2729
tp2730
Rp2731
sS'4RT597T'
p2732
g2
(g3
(S'S4'
p2733
I0
I1
tp2734
Rp2735
(I3
S'|'
p2736
NNNI4
I1
I0
tp2737
bS'DEGF'
p2738
tp2739
Rp2740
sS'TEP_RCTU'
p2741
g2
(g3
(S'S4'
p2742
I0
I1
tp2743
Rp2744
(I3
S'|'
p2745
NNNI4
I1
I0
tp2746
bS'DEGF'
p2747
tp2748
Rp2749
sS'4RT702T'
p2750
g2
(g3
(S'S4'
p2751
I0
I1
tp2752
Rp2753
(I3
S'|'
p2754
NNNI4
I1
I0
tp2755
bS'DEGF'
p2756
tp2757
Rp2758
sS'AOSPBCS1B'
p2759
g2
(g3
(S'S4'
p2760
I0
I1
tp2761
Rp2762
(I3
S'|'
p2763
NNNI4
I1
I0
tp2764
bS'MAMP'
p2765
tp2766
Rp2767
sS'1VAHOAT'
p2768
g2
(g3
(S'S4'
p2769
I0
I1
tp2770
Rp2771
(I3
S'|'
p2772
NNNI4
I1
I0
tp2773
bS'DEGC'
p2774
tp2775
Rp2776
sS'AACH1T'
p2777
g2
(g3
(S'S4'
p2778
I0
I1
tp2779
Rp2780
(I3
S'|'
p2781
NNNI4
I1
I0
tp2782
bS'DEGF'
p2783
tp2784
Rp2785
sS'4PRT2AT'
p2786
g2
(g3
(S'S4'
p2787
I0
I1
tp2788
Rp2789
(I3
S'|'
p2790
NNNI4
I1
I0
tp2791
bS'DEGF'
p2792
tp2793
Rp2794
sS'TPC_ESE'
p2795
g2
(g3
(S'S4'
p2796
I0
I1
tp2797
Rp2798
(I3
S'|'
p2799
NNNI4
I1
I0
tp2800
bS'DEGF'
p2801
tp2802
Rp2803
sS'EB3V'
p2804
g2
(g3
(S'S1'
p2805
I0
I1
tp2806
Rp2807
(I3
S'|'
p2808
NNNI1
I1
I0
tp2809
bg45
tp2810
Rp2811
sS'AFLCA9AI'
p2812
g2
(g3
(S'S4'
p2813
I0
I1
tp2814
Rp2815
(I3
S'|'
p2816
NNNI4
I1
I0
tp2817
bS'MAMP'
p2818
tp2819
Rp2820
sS'CTSB5V'
p2821
g2
(g3
(S'S1'
p2822
I0
I1
tp2823
Rp2824
(I3
S'|'
p2825
NNNI1
I1
I0
tp2826
bg45
tp2827
Rp2828
sS'AFLCA1BI'
p2829
g2
(g3
(S'S4'
p2830
I0
I1
tp2831
Rp2832
(I3
S'|'
p2833
NNNI4
I1
I0
tp2834
bS'MAMP'
p2835
tp2836
Rp2837
sS'4VRMHAV'
p2838
g2
(g3
(S'S3'
p2839
I0
I1
tp2840
Rp2841
(I3
S'|'
p2842
NNNI3
I1
I0
tp2843
bS'VDC'
p2844
tp2845
Rp2846
sS'PR4TV01T'
p2847
g2
(g3
(S'S4'
p2848
I0
I1
tp2849
Rp2850
(I3
S'|'
p2851
NNNI4
I1
I0
tp2852
bS'DEGF'
p2853
tp2854
Rp2855
sS'PLINE10T'
p2856
g2
(g3
(S'S4'
p2857
I0
I1
tp2858
Rp2859
(I3
S'|'
p2860
NNNI4
I1
I0
tp2861
bS'DEGF'
p2862
tp2863
Rp2864
sS'TPC_RCTU'
p2865
g2
(g3
(S'S4'
p2866
I0
I1
tp2867
Rp2868
(I3
S'|'
p2869
NNNI4
I1
I0
tp2870
bS'DEGF'
p2871
tp2872
Rp2873
sS'TCM_PA1'
p2874
g2
(g3
(S'S4'
p2875
I0
I1
tp2876
Rp2877
(I3
S'|'
p2878
NNNI4
I1
I0
tp2879
bS'DEGF'
p2880
tp2881
Rp2882
sS'EORTDMN27D'
p2883
g2
(g3
(S'S4'
p2884
I0
I1
tp2885
Rp2886
(I3
S'|'
p2887
NNNI4
I1
I0
tp2888
bS'DEGF'
p2889
tp2890
Rp2891
sS'AESAPHA1'
p2892
g2
(g3
(S'S3'
p2893
I0
I1
tp2894
Rp2895
(I3
S'|'
p2896
NNNI3
I1
I0
tp2897
bS'DEG'
p2898
tp2899
Rp2900
sS'AESAPHA2'
p2901
g2
(g3
(S'S3'
p2902
I0
I1
tp2903
Rp2904
(I3
S'|'
p2905
NNNI3
I1
I0
tp2906
bS'DEG'
p2907
tp2908
Rp2909
sS'PLINE03T'
p2910
g2
(g3
(S'S4'
p2911
I0
I1
tp2912
Rp2913
(I3
S'|'
p2914
NNNI4
I1
I0
tp2915
bS'DEGF'
p2916
tp2917
Rp2918
sS'2FRADPYT'
p2919
g2
(g3
(S'S4'
p2920
I0
I1
tp2921
Rp2922
(I3
S'|'
p2923
NNNI4
I1
I0
tp2924
bS'DEGC'
p2925
tp2926
Rp2927
sS'1DE28BVO'
p2928
g2
(g3
(S'S1'
p2929
I0
I1
tp2930
Rp2931
(I3
S'|'
p2932
NNNI1
I1
I0
tp2933
bg45
tp2934
Rp2935
sS'AOADACH2A_NBG'
p2936
g2
(g3
(S'S3'
p2937
I0
I1
tp2938
Rp2939
(I3
S'|'
p2940
NNNI3
I1
I0
tp2941
bS'DEG'
p2942
tp2943
Rp2944
sS'AORWMOM2'
p2945
g2
(g3
(S'S7'
p2946
I0
I1
tp2947
Rp2948
(I3
S'|'
p2949
NNNI7
I1
I0
tp2950
bS'FTLBSEC'
p2951
tp2952
Rp2953
sS'PLAED4FT'
p2954
g2
(g3
(S'S4'
p2955
I0
I1
tp2956
Rp2957
(I3
S'|'
p2958
NNNI4
I1
I0
tp2959
bS'DEGF'
p2960
tp2961
Rp2962
sS'C28VMONA'
p2963
g2
(g3
(S'S1'
p2964
I0
I1
tp2965
Rp2966
(I3
S'|'
p2967
NNNI1
I1
I0
tp2968
bg45
tp2969
Rp2970
sS'4LLL2BT'
p2971
g2
(g3
(S'S4'
p2972
I0
I1
tp2973
Rp2974
(I3
S'|'
p2975
NNNI4
I1
I0
tp2976
bS'DEGF'
p2977
tp2978
Rp2979
sS'1DEP1BVO'
p2980
g2
(g3
(S'S1'
p2981
I0
I1
tp2982
Rp2983
(I3
S'|'
p2984
NNNI1
I1
I0
tp2985
bg45
tp2986
Rp2987
sS'AOSPACS3B'
p2988
g2
(g3
(S'S4'
p2989
I0
I1
tp2990
Rp2991
(I3
S'|'
p2992
NNNI4
I1
I0
tp2993
bS'MAMP'
p2994
tp2995
Rp2996
sS'PLAEV4BT'
p2997
g2
(g3
(S'S4'
p2998
I0
I1
tp2999
Rp3000
(I3
S'|'
p3001
NNNI4
I1
I0
tp3002
bS'DEGF'
p3003
tp3004
Rp3005
sS'ES2P5CV'
p3006
g2
(g3
(S'S1'
p3007
I0
I1
tp3008
Rp3009
(I3
S'|'
p3010
NNNI1
I1
I0
tp3011
bg45
tp3012
Rp3013
sS'AORWPI5B'
p3014
g2
(g3
(S'S4'
p3015
I0
I1
tp3016
Rp3017
(I3
S'|'
p3018
NNNI4
I1
I0
tp3019
bS'MSEC'
p3020
tp3021
Rp3022
sS'4HLL2BT'
p3023
g2
(g3
(S'S4'
p3024
I0
I1
tp3025
Rp3026
(I3
S'|'
p3027
NNNI4
I1
I0
tp3028
bS'DEGF'
p3029
tp3030
Rp3031
sS'TFSPCMM'
p3032
g2
(g3
(S'S4'
p3033
I0
I1
tp3034
Rp3035
(I3
S'|'
p3036
NNNI4
I1
I0
tp3037
bS'DEGF'
p3038
tp3039
Rp3040
sS'EORTDMN19D'
p3041
g2
(g3
(S'S4'
p3042
I0
I1
tp3043
Rp3044
(I3
S'|'
p3045
NNNI4
I1
I0
tp3046
bS'DEGF'
p3047
tp3048
Rp3049
sS'4HFSPAT'
p3050
g2
(g3
(S'S4'
p3051
I0
I1
tp3052
Rp3053
(I3
S'|'
p3054
NNNI4
I1
I0
tp3055
bS'DEGF'
p3056
tp3057
Rp3058
sS'4MP5BV'
p3059
g2
(g3
(S'S3'
p3060
I0
I1
tp3061
Rp3062
(I3
S'|'
p3063
NNNI3
I1
I0
tp3064
bS'VDC'
p3065
tp3066
Rp3067
sS'3TTRALAT'
p3068
g2
(g3
(S'S4'
p3069
I0
I1
tp3070
Rp3071
(I3
S'|'
p3072
NNNI4
I1
I0
tp3073
bS'DEGC'
p3074
tp3075
Rp3076
sS'TFSPCMP'
p3077
g2
(g3
(S'S4'
p3078
I0
I1
tp3079
Rp3080
(I3
S'|'
p3081
NNNI4
I1
I0
tp3082
bS'DEGF'
p3083
tp3084
Rp3085
sS'AOACZAN5'
p3086
g2
(g3
(S'S4'
p3087
I0
I1
tp3088
Rp3089
(I3
S'|'
p3090
NNNI4
I1
I0
tp3091
bS'ASEC'
p3092
tp3093
Rp3094
sS'AOACZAN4'
p3095
g2
(g3
(S'S4'
p3096
I0
I1
tp3097
Rp3098
(I3
S'|'
p3099
NNNI4
I1
I0
tp3100
bS'ASEC'
p3101
tp3102
Rp3103
sS'AOACZAN7'
p3104
g2
(g3
(S'S4'
p3105
I0
I1
tp3106
Rp3107
(I3
S'|'
p3108
NNNI4
I1
I0
tp3109
bS'ASEC'
p3110
tp3111
Rp3112
sS'AOACZAN6'
p3113
g2
(g3
(S'S4'
p3114
I0
I1
tp3115
Rp3116
(I3
S'|'
p3117
NNNI4
I1
I0
tp3118
bS'ASEC'
p3119
tp3120
Rp3121
sS'AOACZAN1'
p3122
g2
(g3
(S'S4'
p3123
I0
I1
tp3124
Rp3125
(I3
S'|'
p3126
NNNI4
I1
I0
tp3127
bS'ASEC'
p3128
tp3129
Rp3130
sS'AOACZAN0'
p3131
g2
(g3
(S'S4'
p3132
I0
I1
tp3133
Rp3134
(I3
S'|'
p3135
NNNI4
I1
I0
tp3136
bS'ASEC'
p3137
tp3138
Rp3139
sS'AOACZAN3'
p3140
g2
(g3
(S'S4'
p3141
I0
I1
tp3142
Rp3143
(I3
S'|'
p3144
NNNI4
I1
I0
tp3145
bS'ASEC'
p3146
tp3147
Rp3148
sS'AOACZAN2'
p3149
g2
(g3
(S'S4'
p3150
I0
I1
tp3151
Rp3152
(I3
S'|'
p3153
NNNI4
I1
I0
tp3154
bS'ASEC'
p3155
tp3156
Rp3157
sS'3TTHRC2T'
p3158
g2
(g3
(S'S4'
p3159
I0
I1
tp3160
Rp3161
(I3
S'|'
p3162
NNNI4
I1
I0
tp3163
bS'DEGC'
p3164
tp3165
Rp3166
sS'EOEBCC'
p3167
g2
(g3
(S'S3'
p3168
I0
I1
tp3169
Rp3170
(I3
S'|'
p3171
NNNI3
I1
I0
tp3172
bS'AMP'
p3173
tp3174
Rp3175
sS'TCYLAFT4'
p3176
g2
(g3
(S'S4'
p3177
I0
I1
tp3178
Rp3179
(I3
S'|'
p3180
NNNI4
I1
I0
tp3181
bS'DEGF'
p3182
tp3183
Rp3184
sS'OOBTHR26'
p3185
g2
(g3
(S'S4'
p3186
I0
I1
tp3187
Rp3188
(I3
S'|'
p3189
NNNI4
I1
I0
tp3190
bS'DEGF'
p3191
tp3192
Rp3193
sS'CRXALS'
p3194
g2
(g3
(S'S3'
p3195
I0
I1
tp3196
Rp3197
(I3
S'|'
p3198
NNNI3
I1
I0
tp3199
bS'KHZ'
p3200
tp3201
Rp3202
sS'AOYABR'
p3203
g2
(g3
(S'S3'
p3204
I0
I1
tp3205
Rp3206
(I3
S'|'
p3207
NNNI3
I1
I0
tp3208
bS'RAD'
p3209
tp3210
Rp3211
sS'AOSRERR1'
p3212
g2
(g3
(S'S5'
p3213
I0
I1
tp3214
Rp3215
(I3
S'|'
p3216
NNNI5
I1
I0
tp3217
bS'RADPS'
p3218
tp3219
Rp3220
sS'AOSRERR2'
p3221
g2
(g3
(S'S5'
p3222
I0
I1
tp3223
Rp3224
(I3
S'|'
p3225
NNNI5
I1
I0
tp3226
bS'RADPS'
p3227
tp3228
Rp3229
sS'AOSRERR3'
p3230
g2
(g3
(S'S5'
p3231
I0
I1
tp3232
Rp3233
(I3
S'|'
p3234
NNNI5
I1
I0
tp3235
bS'RADPS'
p3236
tp3237
Rp3238
sS'PLAED2GT'
p3239
g2
(g3
(S'S4'
p3240
I0
I1
tp3241
Rp3242
(I3
S'|'
p3243
NNNI4
I1
I0
tp3244
bS'DEGF'
p3245
tp3246
Rp3247
sS'CXO5VOBB'
p3248
g2
(g3
(S'S1'
p3249
I0
I1
tp3250
Rp3251
(I3
S'|'
p3252
NNNI1
I1
I0
tp3253
bg45
tp3254
Rp3255
sS'AOSAEST1'
p3256
g2
(g3
(S'S3'
p3257
I0
I1
tp3258
Rp3259
(I3
S'|'
p3260
NNNI3
I1
I0
tp3261
bS'RAD'
p3262
tp3263
Rp3264
sS'1DAHACU'
p3265
g2
(g3
(S'S3'
p3266
I0
I1
tp3267
Rp3268
(I3
S'|'
p3269
NNNI3
I1
I0
tp3270
bS'AMP'
p3271
tp3272
Rp3273
sS'4RT565T'
p3274
g2
(g3
(S'S4'
p3275
I0
I1
tp3276
Rp3277
(I3
S'|'
p3278
NNNI4
I1
I0
tp3279
bS'DEGF'
p3280
tp3281
Rp3282
sS'AORWINT3'
p3283
g2
(g3
(S'S4'
p3284
I0
I1
tp3285
Rp3286
(I3
S'|'
p3287
NNNI4
I1
I0
tp3288
bS'MSEC'
p3289
tp3290
Rp3291
sS'PM3THV1T'
p3292
g2
(g3
(S'S4'
p3293
I0
I1
tp3294
Rp3295
(I3
S'|'
p3296
NNNI4
I1
I0
tp3297
bS'DEGF'
p3298
tp3299
Rp3300
sS'4LPOSBRO'
p3301
g2
(g3
(S'S3'
p3302
I0
I1
tp3303
Rp3304
(I3
S'|'
p3305
NNNI3
I1
I0
tp3306
bS'DEG'
p3307
tp3308
Rp3309
sS'AOETIMEX'
p3310
g2
(g3
(S'S3'
p3311
I0
I1
tp3312
Rp3313
(I3
S'|'
p3314
NNNI3
I1
I0
tp3315
bS'SEC'
p3316
tp3317
Rp3318
sS'4RT594T'
p3319
g2
(g3
(S'S4'
p3320
I0
I1
tp3321
Rp3322
(I3
S'|'
p3323
NNNI4
I1
I0
tp3324
bS'DEGF'
p3325
tp3326
Rp3327
sS'6SARES2'
p3328
g2
(g3
(S'S3'
p3329
I0
I1
tp3330
Rp3331
(I3
S'|'
p3332
NNNI3
I1
I0
tp3333
bS'DEG'
p3334
tp3335
Rp3336
sS'6SARES1'
p3337
g2
(g3
(S'S3'
p3338
I0
I1
tp3339
Rp3340
(I3
S'|'
p3341
NNNI3
I1
I0
tp3342
bS'DEG'
p3343
tp3344
Rp3345
sS'4RT701T'
p3346
g2
(g3
(S'S4'
p3347
I0
I1
tp3348
Rp3349
(I3
S'|'
p3350
NNNI4
I1
I0
tp3351
bS'DEGF'
p3352
tp3353
Rp3354
sS'1DEN0BVO'
p3355
g2
(g3
(S'S1'
p3356
I0
I1
tp3357
Rp3358
(I3
S'|'
p3359
NNNI1
I1
I0
tp3360
bg45
tp3361
Rp3362
sS'4IP15BV'
p3363
g2
(g3
(S'S3'
p3364
I0
I1
tp3365
Rp3366
(I3
S'|'
p3367
NNNI3
I1
I0
tp3368
bS'VDC'
p3369
tp3370
Rp3371
sS'4ALL2BT'
p3372
g2
(g3
(S'S4'
p3373
I0
I1
tp3374
Rp3375
(I3
S'|'
p3376
NNNI4
I1
I0
tp3377
bS'DEGF'
p3378
tp3379
Rp3380
sS'AORWINT6'
p3381
g2
(g3
(S'S4'
p3382
I0
I1
tp3383
Rp3384
(I3
S'|'
p3385
NNNI4
I1
I0
tp3386
bS'MSEC'
p3387
tp3388
Rp3389
sS'CIUB5V'
p3390
g2
(g3
(S'S1'
p3391
I0
I1
tp3392
Rp3393
(I3
S'|'
p3394
NNNI1
I1
I0
tp3395
bg45
tp3396
Rp3397
sS'3FAMTRAT'
p3398
g2
(g3
(S'S4'
p3399
I0
I1
tp3400
Rp3401
(I3
S'|'
p3402
NNNI4
I1
I0
tp3403
bS'DEGC'
p3404
tp3405
Rp3406
sS'OOBTHR19'
p3407
g2
(g3
(S'S4'
p3408
I0
I1
tp3409
Rp3410
(I3
S'|'
p3411
NNNI4
I1
I0
tp3412
bS'DEGF'
p3413
tp3414
Rp3415
sS'CTUA15V'
p3416
g2
(g3
(S'S1'
p3417
I0
I1
tp3418
Rp3419
(I3
S'|'
p3420
NNNI1
I1
I0
tp3421
bg45
tp3422
Rp3423
sS'4CSDHBV'
p3424
g2
(g3
(S'S3'
p3425
I0
I1
tp3426
Rp3427
(I3
S'|'
p3428
NNNI3
I1
I0
tp3429
bS'VDC'
p3430
tp3431
Rp3432
sS'AFLC10BI'
p3433
g2
(g3
(S'S4'
p3434
I0
I1
tp3435
Rp3436
(I3
S'|'
p3437
NNNI4
I1
I0
tp3438
bS'MAMP'
p3439
tp3440
Rp3441
sS'PLAED2ET'
p3442
g2
(g3
(S'S4'
p3443
I0
I1
tp3444
Rp3445
(I3
S'|'
p3446
NNNI4
I1
I0
tp3447
bS'DEGF'
p3448
tp3449
Rp3450
sS'CSSR1CAV'
p3451
g2
(g3
(S'S1'
p3452
I0
I1
tp3453
Rp3454
(I3
S'|'
p3455
NNNI1
I1
I0
tp3456
bg45
tp3457
Rp3458
sS'TMP_BEP_OSC'
p3459
g299
sS'AOINTTIM'
p3460
g2
(g3
(S'S3'
p3461
I0
I1
tp3462
Rp3463
(I3
S'|'
p3464
NNNI3
I1
I0
tp3465
bS'SEC'
p3466
tp3467
Rp3468
sS'3TTBRGBT'
p3469
g2
(g3
(S'S4'
p3470
I0
I1
tp3471
Rp3472
(I3
S'|'
p3473
NNNI4
I1
I0
tp3474
bS'DEGC'
p3475
tp3476
Rp3477
sS'EOESAC2C'
p3478
g2
(g3
(S'S3'
p3479
I0
I1
tp3480
Rp3481
(I3
S'|'
p3482
NNNI3
I1
I0
tp3483
bS'AMP'
p3484
tp3485
Rp3486
sS'AORWINT1'
p3487
g2
(g3
(S'S4'
p3488
I0
I1
tp3489
Rp3490
(I3
S'|'
p3491
NNNI4
I1
I0
tp3492
bS'MSEC'
p3493
tp3494
Rp3495
sS'AORWINT2'
p3496
g2
(g3
(S'S4'
p3497
I0
I1
tp3498
Rp3499
(I3
S'|'
p3500
NNNI4
I1
I0
tp3501
bS'MSEC'
p3502
tp3503
Rp3504
sS'4IP5AV'
p3505
g2
(g3
(S'S3'
p3506
I0
I1
tp3507
Rp3508
(I3
S'|'
p3509
NNNI3
I1
I0
tp3510
bS'VDC'
p3511
tp3512
Rp3513
sS'AORWINT4'
p3514
g2
(g3
(S'S4'
p3515
I0
I1
tp3516
Rp3517
(I3
S'|'
p3518
NNNI4
I1
I0
tp3519
bS'MSEC'
p3520
tp3521
Rp3522
sS'1DACTAT'
p3523
g2
(g3
(S'S3'
p3524
I0
I1
tp3525
Rp3526
(I3
S'|'
p3527
NNNI3
I1
I0
tp3528
bS'DEG'
p3529
tp3530
Rp3531
sS'4RT557T'
p3532
g2
(g3
(S'S4'
p3533
I0
I1
tp3534
Rp3535
(I3
S'|'
p3536
NNNI4
I1
I0
tp3537
bS'DEGF'
p3538
tp3539
Rp3540
sS'AFLCA4AI'
p3541
g2
(g3
(S'S4'
p3542
I0
I1
tp3543
Rp3544
(I3
S'|'
p3545
NNNI4
I1
I0
tp3546
bS'MAMP'
p3547
tp3548
Rp3549
sS'OOBTHR15'
p3550
g2
(g3
(S'S4'
p3551
I0
I1
tp3552
Rp3553
(I3
S'|'
p3554
NNNI4
I1
I0
tp3555
bS'DEGF'
p3556
tp3557
Rp3558
sS'4SP51V'
p3559
g2
(g3
(S'S3'
p3560
I0
I1
tp3561
Rp3562
(I3
S'|'
p3563
NNNI3
I1
I0
tp3564
bS'VDC'
p3565
tp3566
Rp3567
sS'EORTDMN25D'
p3568
g2
(g3
(S'S4'
p3569
I0
I1
tp3570
Rp3571
(I3
S'|'
p3572
NNNI4
I1
I0
tp3573
bS'DEGF'
p3574
tp3575
Rp3576
sS'PLAED2CT'
p3577
g2
(g3
(S'S4'
p3578
I0
I1
tp3579
Rp3580
(I3
S'|'
p3581
NNNI4
I1
I0
tp3582
bS'DEGF'
p3583
tp3584
Rp3585
sS'4RT577T'
p3586
g2
(g3
(S'S4'
p3587
I0
I1
tp3588
Rp3589
(I3
S'|'
p3590
NNNI4
I1
I0
tp3591
bS'DEGF'
p3592
tp3593
Rp3594
sS'4IN15AV'
p3595
g2
(g3
(S'S3'
p3596
I0
I1
tp3597
Rp3598
(I3
S'|'
p3599
NNNI3
I1
I0
tp3600
bS'VDC'
p3601
tp3602
Rp3603
sS'C10VREFA'
p3604
g2
(g3
(S'S3'
p3605
I0
I1
tp3606
Rp3607
(I3
S'|'
p3608
NNNI3
I1
I0
tp3609
bS'VDC'
p3610
tp3611
Rp3612
sS'EOEB2VC'
p3613
g2
(g3
(S'S1'
p3614
I0
I1
tp3615
Rp3616
(I3
S'|'
p3617
NNNI1
I1
I0
tp3618
bg45
tp3619
Rp3620
sS'4PRT3BT'
p3621
g2
(g3
(S'S4'
p3622
I0
I1
tp3623
Rp3624
(I3
S'|'
p3625
NNNI4
I1
I0
tp3626
bS'DEGF'
p3627
tp3628
Rp3629
sS'AWD1CV5V'
p3630
g2
(g3
(S'S1'
p3631
I0
I1
tp3632
Rp3633
(I3
S'|'
p3634
NNNI1
I1
I0
tp3635
bg45
tp3636
Rp3637
sS'PMTANK3T'
p3638
g2
(g3
(S'S4'
p3639
I0
I1
tp3640
Rp3641
(I3
S'|'
p3642
NNNI4
I1
I0
tp3643
bS'DEGF'
p3644
tp3645
Rp3646
sS'AFLCA8BI'
p3647
g2
(g3
(S'S4'
p3648
I0
I1
tp3649
Rp3650
(I3
S'|'
p3651
NNNI4
I1
I0
tp3652
bS'MAMP'
p3653
tp3654
Rp3655
sS'PLAED1DT'
p3656
g2
(g3
(S'S4'
p3657
I0
I1
tp3658
Rp3659
(I3
S'|'
p3660
NNNI4
I1
I0
tp3661
bS'DEGF'
p3662
tp3663
Rp3664
sS'ARWA3BT'
p3665
g2
(g3
(S'S4'
p3666
I0
I1
tp3667
Rp3668
(I3
S'|'
p3669
NNNI4
I1
I0
tp3670
bS'DEGF'
p3671
tp3672
Rp3673
sS'AOACINTT'
p3674
g2
(g3
(S'S4'
p3675
I0
I1
tp3676
Rp3677
(I3
S'|'
p3678
NNNI4
I1
I0
tp3679
bS'MSEC'
p3680
tp3681
Rp3682
sS'OHRTHR63'
p3683
g2
(g3
(S'S4'
p3684
I0
I1
tp3685
Rp3686
(I3
S'|'
p3687
NNNI4
I1
I0
tp3688
bS'DEGF'
p3689
tp3690
Rp3691
sS'3BTU_BPT'
p3692
g2
(g3
(S'S4'
p3693
I0
I1
tp3694
Rp3695
(I3
S'|'
p3696
NNNI4
I1
I0
tp3697
bS'DEGC'
p3698
tp3699
Rp3700
sS'OHRTHR61'
p3701
g2
(g3
(S'S4'
p3702
I0
I1
tp3703
Rp3704
(I3
S'|'
p3705
NNNI4
I1
I0
tp3706
bS'DEGF'
p3707
tp3708
Rp3709
sS'C10VREFB'
p3710
g2
(g3
(S'S3'
p3711
I0
I1
tp3712
Rp3713
(I3
S'|'
p3714
NNNI3
I1
I0
tp3715
bS'VDC'
p3716
tp3717
Rp3718
sS'AOSYMOM3'
p3719
g2
(g3
(S'S7'
p3720
I0
I1
tp3721
Rp3722
(I3
S'|'
p3723
NNNI7
I1
I0
tp3724
bS'FTLBSEC'
p3725
tp3726
Rp3727
sS'AOSYMOM2'
p3728
g2
(g3
(S'S7'
p3729
I0
I1
tp3730
Rp3731
(I3
S'|'
p3732
NNNI7
I1
I0
tp3733
bS'FTLBSEC'
p3734
tp3735
Rp3736
sS'6BETANG'
p3737
g2
(g3
(S'S3'
p3738
I0
I1
tp3739
Rp3740
(I3
S'|'
p3741
NNNI3
I1
I0
tp3742
bS'DEG'
p3743
tp3744
Rp3745
sS'EOEBCC_LOW'
p3746
g2
(g3
(S'S3'
p3747
I0
I1
tp3748
Rp3749
(I3
S'|'
p3750
NNNI3
I1
I0
tp3751
bS'AMP'
p3752
tp3753
Rp3754
sS'AFLCA2AI'
p3755
g2
(g3
(S'S4'
p3756
I0
I1
tp3757
Rp3758
(I3
S'|'
p3759
NNNI4
I1
I0
tp3760
bS'MAMP'
p3761
tp3762
Rp3763
sS'1OAHBT'
p3764
g2
(g3
(S'S4'
p3765
I0
I1
tp3766
Rp3767
(I3
S'|'
p3768
NNNI4
I1
I0
tp3769
bS'DEGC'
p3770
tp3771
Rp3772
sS'TCYLAFT1'
p3773
g2
(g3
(S'S4'
p3774
I0
I1
tp3775
Rp3776
(I3
S'|'
p3777
NNNI4
I1
I0
tp3778
bS'DEGF'
p3779
tp3780
Rp3781
sS'1DAHBCU'
p3782
g2
(g3
(S'S3'
p3783
I0
I1
tp3784
Rp3785
(I3
S'|'
p3786
NNNI3
I1
I0
tp3787
bS'AMP'
p3788
tp3789
Rp3790
sS'PLAEV1AT'
p3791
g2
(g3
(S'S4'
p3792
I0
I1
tp3793
Rp3794
(I3
S'|'
p3795
NNNI4
I1
I0
tp3796
bS'DEGF'
p3797
tp3798
Rp3799
sS'PMFP01T'
p3800
g2
(g3
(S'S4'
p3801
I0
I1
tp3802
Rp3803
(I3
S'|'
p3804
NNNI4
I1
I0
tp3805
bS'DEGF'
p3806
tp3807
Rp3808
sS'AFLCA5BI'
p3809
g2
(g3
(S'S4'
p3810
I0
I1
tp3811
Rp3812
(I3
S'|'
p3813
NNNI4
I1
I0
tp3814
bS'MAMP'
p3815
tp3816
Rp3817
sS'ECNV3V'
p3818
g2
(g3
(S'S1'
p3819
I0
I1
tp3820
Rp3821
(I3
S'|'
p3822
NNNI1
I1
I0
tp3823
bg45
tp3824
Rp3825
sS'PLINE15T'
p3826
g2
(g3
(S'S4'
p3827
I0
I1
tp3828
Rp3829
(I3
S'|'
p3830
NNNI4
I1
I0
tp3831
bS'DEGF'
p3832
tp3833
Rp3834
sS'4RT583T'
p3835
g2
(g3
(S'S4'
p3836
I0
I1
tp3837
Rp3838
(I3
S'|'
p3839
NNNI4
I1
I0
tp3840
bS'DEGF'
p3841
tp3842
Rp3843
sS'AIOAP5CV'
p3844
g2
(g3
(S'S1'
p3845
I0
I1
tp3846
Rp3847
(I3
S'|'
p3848
NNNI1
I1
I0
tp3849
bg45
tp3850
Rp3851
sS'TFSPRWC'
p3852
g2
(g3
(S'S4'
p3853
I0
I1
tp3854
Rp3855
(I3
S'|'
p3856
NNNI4
I1
I0
tp3857
bS'DEGF'
p3858
tp3859
Rp3860
sS'4RT593T'
p3861
g2
(g3
(S'S4'
p3862
I0
I1
tp3863
Rp3864
(I3
S'|'
p3865
NNNI4
I1
I0
tp3866
bS'DEGF'
p3867
tp3868
Rp3869
sS'TATECDRT'
p3870
g2
(g3
(S'S4'
p3871
I0
I1
tp3872
Rp3873
(I3
S'|'
p3874
NNNI4
I1
I0
tp3875
bS'DEGF'
p3876
tp3877
Rp3878
sS'4RT559T'
p3879
g2
(g3
(S'S4'
p3880
I0
I1
tp3881
Rp3882
(I3
S'|'
p3883
NNNI4
I1
I0
tp3884
bS'DEGF'
p3885
tp3886
Rp3887
sS'TSCTSF1'
p3888
g2
(g3
(S'S4'
p3889
I0
I1
tp3890
Rp3891
(I3
S'|'
p3892
NNNI4
I1
I0
tp3893
bS'DEGF'
p3894
tp3895
Rp3896
sS'TSCTSF2'
p3897
g2
(g3
(S'S4'
p3898
I0
I1
tp3899
Rp3900
(I3
S'|'
p3901
NNNI4
I1
I0
tp3902
bS'DEGF'
p3903
tp3904
Rp3905
sS'TSCTSF3'
p3906
g2
(g3
(S'S4'
p3907
I0
I1
tp3908
Rp3909
(I3
S'|'
p3910
NNNI4
I1
I0
tp3911
bS'DEGF'
p3912
tp3913
Rp3914
sS'TSCTSF4'
p3915
g2
(g3
(S'S4'
p3916
I0
I1
tp3917
Rp3918
(I3
S'|'
p3919
NNNI4
I1
I0
tp3920
bS'DEGF'
p3921
tp3922
Rp3923
sS'TSCTSF5'
p3924
g2
(g3
(S'S4'
p3925
I0
I1
tp3926
Rp3927
(I3
S'|'
p3928
NNNI4
I1
I0
tp3929
bS'DEGF'
p3930
tp3931
Rp3932
sS'4PRT5BT'
p3933
g2
(g3
(S'S4'
p3934
I0
I1
tp3935
Rp3936
(I3
S'|'
p3937
NNNI4
I1
I0
tp3938
bS'DEGF'
p3939
tp3940
Rp3941
sS'AFLCA6BI'
p3942
g2
(g3
(S'S4'
p3943
I0
I1
tp3944
Rp3945
(I3
S'|'
p3946
NNNI4
I1
I0
tp3947
bS'MAMP'
p3948
tp3949
Rp3950
sS'TCM_RFAS'
p3951
g2
(g3
(S'S4'
p3952
I0
I1
tp3953
Rp3954
(I3
S'|'
p3955
NNNI4
I1
I0
tp3956
bS'DEGF'
p3957
tp3958
Rp3959
sS'PLAED4ET'
p3960
g2
(g3
(S'S4'
p3961
I0
I1
tp3962
Rp3963
(I3
S'|'
p3964
NNNI4
I1
I0
tp3965
bS'DEGF'
p3966
tp3967
Rp3968
sS'3FAFLBAT'
p3969
g2
(g3
(S'S4'
p3970
I0
I1
tp3971
Rp3972
(I3
S'|'
p3973
NNNI4
I1
I0
tp3974
bS'DEGC'
p3975
tp3976
Rp3977
sS'6SARATC2'
p3978
g2
(g3
(S'S5'
p3979
I0
I1
tp3980
Rp3981
(I3
S'|'
p3982
NNNI5
I1
I0
tp3983
bS'RADPS'
p3984
tp3985
Rp3986
sS'1DEICACU'
p3987
g2
(g3
(S'S3'
p3988
I0
I1
tp3989
Rp3990
(I3
S'|'
p3991
NNNI3
I1
I0
tp3992
bS'AMP'
p3993
tp3994
Rp3995
sS'6SARATC1'
p3996
g2
(g3
(S'S5'
p3997
I0
I1
tp3998
Rp3999
(I3
S'|'
p4000
NNNI5
I1
I0
tp4001
bS'RADPS'
p4002
tp4003
Rp4004
sS'1MAHCAT'
p4005
g2
(g3
(S'S4'
p4006
I0
I1
tp4007
Rp4008
(I3
S'|'
p4009
NNNI4
I1
I0
tp4010
bS'DEGC'
p4011
tp4012
Rp4013
sS'PR3TV02T'
p4014
g2
(g3
(S'S4'
p4015
I0
I1
tp4016
Rp4017
(I3
S'|'
p4018
NNNI4
I1
I0
tp4019
bS'DEGF'
p4020
tp4021
Rp4022
sS'3TSPZSPT'
p4023
g2
(g3
(S'S4'
p4024
I0
I1
tp4025
Rp4026
(I3
S'|'
p4027
NNNI4
I1
I0
tp4028
bS'DEGC'
p4029
tp4030
Rp4031
sS'HKEBOXTEMP'
p4032
S'DEGF'
p4033
sS'1DEP3BVO'
p4034
g2
(g3
(S'S1'
p4035
I0
I1
tp4036
Rp4037
(I3
S'|'
p4038
NNNI1
I1
I0
tp4039
bg45
tp4040
Rp4041
sS'AOAVGDTQ'
p4042
g2
(g3
(S'S4'
p4043
I0
I1
tp4044
Rp4045
(I3
S'|'
p4046
NNNI4
I1
I0
tp4047
bS'FTLB'
p4048
tp4049
Rp4050
sS'CXO5VOBA'
p4051
g2
(g3
(S'S1'
p4052
I0
I1
tp4053
Rp4054
(I3
S'|'
p4055
NNNI1
I1
I0
tp4056
bg45
tp4057
Rp4058
sS'EORTDMN17D'
p4059
g2
(g3
(S'S4'
p4060
I0
I1
tp4061
Rp4062
(I3
S'|'
p4063
NNNI4
I1
I0
tp4064
bS'DEGF'
p4065
tp4066
Rp4067
sS'PLAED4BT'
p4068
g2
(g3
(S'S4'
p4069
I0
I1
tp4070
Rp4071
(I3
S'|'
p4072
NNNI4
I1
I0
tp4073
bS'DEGF'
p4074
tp4075
Rp4076
sS'ADE1P5CV'
p4077
g2
(g3
(S'S1'
p4078
I0
I1
tp4079
Rp4080
(I3
S'|'
p4081
NNNI1
I1
I0
tp4082
bg45
tp4083
Rp4084
sS'TFSPPCU'
p4085
g2
(g3
(S'S4'
p4086
I0
I1
tp4087
Rp4088
(I3
S'|'
p4089
NNNI4
I1
I0
tp4090
bS'DEGF'
p4091
tp4092
Rp4093
sS'4RT560T'
p4094
g2
(g3
(S'S4'
p4095
I0
I1
tp4096
Rp4097
(I3
S'|'
p4098
NNNI4
I1
I0
tp4099
bS'DEGF'
p4100
tp4101
Rp4102
sS'AORESZ7'
p4103
g2
(g3
(S'S3'
p4104
I0
I1
tp4105
Rp4106
(I3
S'|'
p4107
NNNI3
I1
I0
tp4108
bS'RAD'
p4109
tp4110
Rp4111
sS'6RWSPD3'
p4112
g2
(g3
(S'S5'
p4113
I0
I1
tp4114
Rp4115
(I3
S'|'
p4116
NNNI5
I1
I0
tp4117
bS'RADPS'
p4118
tp4119
Rp4120
sS'6RWSPD2'
p4121
g2
(g3
(S'S5'
p4122
I0
I1
tp4123
Rp4124
(I3
S'|'
p4125
NNNI5
I1
I0
tp4126
bS'RADPS'
p4127
tp4128
Rp4129
sS'6RWSPD5'
p4130
g2
(g3
(S'S5'
p4131
I0
I1
tp4132
Rp4133
(I3
S'|'
p4134
NNNI5
I1
I0
tp4135
bS'RADPS'
p4136
tp4137
Rp4138
sS'6RWSPD4'
p4139
g2
(g3
(S'S5'
p4140
I0
I1
tp4141
Rp4142
(I3
S'|'
p4143
NNNI5
I1
I0
tp4144
bS'RADPS'
p4145
tp4146
Rp4147
sS'6RWSPD6'
p4148
g2
(g3
(S'S5'
p4149
I0
I1
tp4150
Rp4151
(I3
S'|'
p4152
NNNI5
I1
I0
tp4153
bS'RADPS'
p4154
tp4155
Rp4156
sS'1MAHOAT'
p4157
g2
(g3
(S'S4'
p4158
I0
I1
tp4159
Rp4160
(I3
S'|'
p4161
NNNI4
I1
I0
tp4162
bS'DEGC'
p4163
tp4164
Rp4165
sS'AFLCA7AI'
p4166
g2
(g3
(S'S4'
p4167
I0
I1
tp4168
Rp4169
(I3
S'|'
p4170
NNNI4
I1
I0
tp4171
bS'MAMP'
p4172
tp4173
Rp4174
sS'EB2DI'
p4175
g2
(g3
(S'S3'
p4176
I0
I1
tp4177
Rp4178
(I3
S'|'
p4179
NNNI3
I1
I0
tp4180
bS'AMP'
p4181
tp4182
Rp4183
sS'EORTDMN24D'
p4184
g2
(g3
(S'S4'
p4185
I0
I1
tp4186
Rp4187
(I3
S'|'
p4188
NNNI4
I1
I0
tp4189
bS'DEGF'
p4190
tp4191
Rp4192
sS'TRSPRWBB'
p4193
g2
(g3
(S'S4'
p4194
I0
I1
tp4195
Rp4196
(I3
S'|'
p4197
NNNI4
I1
I0
tp4198
bS'DEGF'
p4199
tp4200
Rp4201
sS'TRSPRWBC'
p4202
g2
(g3
(S'S4'
p4203
I0
I1
tp4204
Rp4205
(I3
S'|'
p4206
NNNI4
I1
I0
tp4207
bS'DEGF'
p4208
tp4209
Rp4210
sS'FPTEMP_11'
p4211
g299
sS'FPTEMP_12'
p4212
g299
sS'AORWPI1B'
p4213
g2
(g3
(S'S4'
p4214
I0
I1
tp4215
Rp4216
(I3
S'|'
p4217
NNNI4
I1
I0
tp4218
bS'MSEC'
p4219
tp4220
Rp4221
sS'EB1DI'
p4222
g2
(g3
(S'S3'
p4223
I0
I1
tp4224
Rp4225
(I3
S'|'
p4226
NNNI3
I1
I0
tp4227
bS'AMP'
p4228
tp4229
Rp4230
sS'PLAED3FT'
p4231
g2
(g3
(S'S4'
p4232
I0
I1
tp4233
Rp4234
(I3
S'|'
p4235
NNNI4
I1
I0
tp4236
bS'DEGF'
p4237
tp4238
Rp4239
sS'AFLCA3AI'
p4240
g2
(g3
(S'S4'
p4241
I0
I1
tp4242
Rp4243
(I3
S'|'
p4244
NNNI4
I1
I0
tp4245
bS'MAMP'
p4246
tp4247
Rp4248
sS'AFSSPC1V'
p4249
g2
(g3
(S'S1'
p4250
I0
I1
tp4251
Rp4252
(I3
S'|'
p4253
NNNI1
I1
I0
tp4254
bg45
tp4255
Rp4256
sS'TSCIUSF2'
p4257
g2
(g3
(S'S4'
p4258
I0
I1
tp4259
Rp4260
(I3
S'|'
p4261
NNNI4
I1
I0
tp4262
bS'DEGF'
p4263
tp4264
Rp4265
sS'TSCIUSF5'
p4266
g2
(g3
(S'S4'
p4267
I0
I1
tp4268
Rp4269
(I3
S'|'
p4270
NNNI4
I1
I0
tp4271
bS'DEGF'
p4272
tp4273
Rp4274
sS'AVD1CV5V'
p4275
g2
(g3
(S'S1'
p4276
I0
I1
tp4277
Rp4278
(I3
S'|'
p4279
NNNI1
I1
I0
tp4280
bg45
tp4281
Rp4282
sS'TSCIUSF8'
p4283
g2
(g3
(S'S4'
p4284
I0
I1
tp4285
Rp4286
(I3
S'|'
p4287
NNNI4
I1
I0
tp4288
bS'DEGF'
p4289
tp4290
Rp4291
sS'1HOPRAPR'
p4292
g2
(g3
(S'S4'
p4293
I0
I1
tp4294
Rp4295
(I3
S'|'
p4296
NNNI4
I1
I0
tp4297
bS'TORR'
p4298
tp4299
Rp4300
sS'ADE2P5CV'
p4301
g2
(g3
(S'S1'
p4302
I0
I1
tp4303
Rp4304
(I3
S'|'
p4305
NNNI1
I1
I0
tp4306
bg45
tp4307
Rp4308
sS'TASPPCP'
p4309
g2
(g3
(S'S4'
p4310
I0
I1
tp4311
Rp4312
(I3
S'|'
p4313
NNNI4
I1
I0
tp4314
bS'DEGF'
p4315
tp4316
Rp4317
sS'3TTACS3T'
p4318
g2
(g3
(S'S4'
p4319
I0
I1
tp4320
Rp4321
(I3
S'|'
p4322
NNNI4
I1
I0
tp4323
bS'DEGC'
p4324
tp4325
Rp4326
sS'CTSA15V'
p4327
g2
(g3
(S'S1'
p4328
I0
I1
tp4329
Rp4330
(I3
S'|'
p4331
NNNI1
I1
I0
tp4332
bg45
tp4333
Rp4334
sS'PFDM102T'
p4335
g2
(g3
(S'S4'
p4336
I0
I1
tp4337
Rp4338
(I3
S'|'
p4339
NNNI4
I1
I0
tp4340
bS'DEGF'
p4341
tp4342
Rp4343
sS'PFDM202T'
p4344
g2
(g3
(S'S4'
p4345
I0
I1
tp4346
Rp4347
(I3
S'|'
p4348
NNNI4
I1
I0
tp4349
bS'DEGF'
p4350
tp4351
Rp4352
sS'4MP28AV'
p4353
g2
(g3
(S'S3'
p4354
I0
I1
tp4355
Rp4356
(I3
S'|'
p4357
NNNI3
I1
I0
tp4358
bS'VDC'
p4359
tp4360
Rp4361
sS'4RT586T'
p4362
g2
(g3
(S'S4'
p4363
I0
I1
tp4364
Rp4365
(I3
S'|'
p4366
NNNI4
I1
I0
tp4367
bS'DEGF'
p4368
tp4369
Rp4370
sS'TEP_PSU1'
p4371
g2
(g3
(S'S4'
p4372
I0
I1
tp4373
Rp4374
(I3
S'|'
p4375
NNNI4
I1
I0
tp4376
bS'DEGF'
p4377
tp4378
Rp4379
sS'CPA2V'
p4380
g2
(g3
(S'S1'
p4381
I0
I1
tp4382
Rp4383
(I3
S'|'
p4384
NNNI1
I1
I0
tp4385
bg45
tp4386
Rp4387
sS'PXDM01T'
p4388
g2
(g3
(S'S4'
p4389
I0
I1
tp4390
Rp4391
(I3
S'|'
p4392
NNNI4
I1
I0
tp4393
bS'DEGF'
p4394
tp4395
Rp4396
sS'OOBTHR37'
p4397
g2
(g3
(S'S4'
p4398
I0
I1
tp4399
Rp4400
(I3
S'|'
p4401
NNNI4
I1
I0
tp4402
bS'DEGF'
p4403
tp4404
Rp4405
sS'OOBTHR36'
p4406
g2
(g3
(S'S4'
p4407
I0
I1
tp4408
Rp4409
(I3
S'|'
p4410
NNNI4
I1
I0
tp4411
bS'DEGF'
p4412
tp4413
Rp4414
sS'OOBTHR35'
p4415
g2
(g3
(S'S4'
p4416
I0
I1
tp4417
Rp4418
(I3
S'|'
p4419
NNNI4
I1
I0
tp4420
bS'DEGF'
p4421
tp4422
Rp4423
sS'4RT705T'
p4424
g2
(g3
(S'S4'
p4425
I0
I1
tp4426
Rp4427
(I3
S'|'
p4428
NNNI4
I1
I0
tp4429
bS'DEGF'
p4430
tp4431
Rp4432
sS'CUSOBIT'
p4433
g2
(g3
(S'S4'
p4434
I0
I1
tp4435
Rp4436
(I3
S'|'
p4437
NNNI4
I1
I0
tp4438
bS'DEGF'
p4439
tp4440
Rp4441
sS'6SUNER1'
p4442
g2
(g3
(S'S3'
p4443
I0
I1
tp4444
Rp4445
(I3
S'|'
p4446
NNNI3
I1
I0
tp4447
bS'RAD'
p4448
tp4449
Rp4450
sS'6SUNER2'
p4451
g2
(g3
(S'S3'
p4452
I0
I1
tp4453
Rp4454
(I3
S'|'
p4455
NNNI3
I1
I0
tp4456
bS'RAD'
p4457
tp4458
Rp4459
sS'6SUNER3'
p4460
g2
(g3
(S'S3'
p4461
I0
I1
tp4462
Rp4463
(I3
S'|'
p4464
NNNI3
I1
I0
tp4465
bS'RAD'
p4466
tp4467
Rp4468
sS'AOSYMOM1'
p4469
g2
(g3
(S'S7'
p4470
I0
I1
tp4471
Rp4472
(I3
S'|'
p4473
NNNI7
I1
I0
tp4474
bS'FTLBSEC'
p4475
tp4476
Rp4477
sS'OOBTHR39'
p4478
g2
(g3
(S'S4'
p4479
I0
I1
tp4480
Rp4481
(I3
S'|'
p4482
NNNI4
I1
I0
tp4483
bS'DEGF'
p4484
tp4485
Rp4486
sS'OOBTHR38'
p4487
g2
(g3
(S'S4'
p4488
I0
I1
tp4489
Rp4490
(I3
S'|'
p4491
NNNI4
I1
I0
tp4492
bS'DEGF'
p4493
tp4494
Rp4495
sS'2P24VBVL'
p4496
g2
(g3
(S'S3'
p4497
I0
I1
tp4498
Rp4499
(I3
S'|'
p4500
NNNI3
I1
I0
tp4501
bS'VDC'
p4502
tp4503
Rp4504
sS'AIRU2G2T'
p4505
g2
(g3
(S'S4'
p4506
I0
I1
tp4507
Rp4508
(I3
S'|'
p4509
NNNI4
I1
I0
tp4510
bS'DEGF'
p4511
tp4512
Rp4513
sS'AWD3TQI'
p4514
g2
(g3
(S'S3'
p4515
I0
I1
tp4516
Rp4517
(I3
S'|'
p4518
NNNI3
I1
I0
tp4519
bS'AMP'
p4520
tp4521
Rp4522
sS'1DEP3AVO'
p4523
g2
(g3
(S'S1'
p4524
I0
I1
tp4525
Rp4526
(I3
S'|'
p4527
NNNI1
I1
I0
tp4528
bg45
tp4529
Rp4530
sS'AIRU1G2T'
p4531
g2
(g3
(S'S4'
p4532
I0
I1
tp4533
Rp4534
(I3
S'|'
p4535
NNNI4
I1
I0
tp4536
bS'DEGF'
p4537
tp4538
Rp4539
sS'TPC_CEA'
p4540
g2
(g3
(S'S4'
p4541
I0
I1
tp4542
Rp4543
(I3
S'|'
p4544
NNNI4
I1
I0
tp4545
bS'DEGF'
p4546
tp4547
Rp4548
sS'AIRU1G2I'
p4549
g2
(g3
(S'S4'
p4550
I0
I1
tp4551
Rp4552
(I3
S'|'
p4553
NNNI4
I1
I0
tp4554
bS'MAMP'
p4555
tp4556
Rp4557
sS'PM2THV2T'
p4558
g2
(g3
(S'S4'
p4559
I0
I1
tp4560
Rp4561
(I3
S'|'
p4562
NNNI4
I1
I0
tp4563
bS'DEGF'
p4564
tp4565
Rp4566
sS'OOBTHR08'
p4567
g2
(g3
(S'S4'
p4568
I0
I1
tp4569
Rp4570
(I3
S'|'
p4571
NNNI4
I1
I0
tp4572
bS'DEGF'
p4573
tp4574
Rp4575
sS'AVACMONV'
p4576
g2
(g3
(S'S1'
p4577
I0
I1
tp4578
Rp4579
(I3
S'|'
p4580
NNNI1
I1
I0
tp4581
bg45
tp4582
Rp4583
sS'4RT590T'
p4584
g2
(g3
(S'S4'
p4585
I0
I1
tp4586
Rp4587
(I3
S'|'
p4588
NNNI4
I1
I0
tp4589
bS'DEGF'
p4590
tp4591
Rp4592
sS'TCYLAFT6'
p4593
g2
(g3
(S'S4'
p4594
I0
I1
tp4595
Rp4596
(I3
S'|'
p4597
NNNI4
I1
I0
tp4598
bS'DEGF'
p4599
tp4600
Rp4601
sS'TEP_PSU2'
p4602
g2
(g3
(S'S4'
p4603
I0
I1
tp4604
Rp4605
(I3
S'|'
p4606
NNNI4
I1
I0
tp4607
bS'DEGF'
p4608
tp4609
Rp4610
sS'OOBTHR25'
p4611
g2
(g3
(S'S4'
p4612
I0
I1
tp4613
Rp4614
(I3
S'|'
p4615
NNNI4
I1
I0
tp4616
bS'DEGF'
p4617
tp4618
Rp4619
sS'1OAHAT'
p4620
g2
(g3
(S'S4'
p4621
I0
I1
tp4622
Rp4623
(I3
S'|'
p4624
NNNI4
I1
I0
tp4625
bS'DEGC'
p4626
tp4627
Rp4628
sS'AHKNATPR'
p4629
g2
(g3
(S'S1'
p4630
I0
I1
tp4631
Rp4632
(I3
S'|'
p4633
NNNI1
I1
I0
tp4634
bg45
tp4635
Rp4636
sS'ASPEFSW4B'
p4637
g2
(g3
(S'S3'
p4638
I0
I1
tp4639
Rp4640
(I3
S'|'
p4641
NNNI3
I1
I0
tp4642
bS'DEG'
p4643
tp4644
Rp4645
sS'ARWA4BT'
p4646
g2
(g3
(S'S4'
p4647
I0
I1
tp4648
Rp4649
(I3
S'|'
p4650
NNNI4
I1
I0
tp4651
bS'DEGF'
p4652
tp4653
Rp4654
sS'PLAED4IT'
p4655
g2
(g3
(S'S4'
p4656
I0
I1
tp4657
Rp4658
(I3
S'|'
p4659
NNNI4
I1
I0
tp4660
bS'DEGF'
p4661
tp4662
Rp4663
sS'AOMANRT'
p4664
g2
(g3
(S'S5'
p4665
I0
I1
tp4666
Rp4667
(I3
S'|'
p4668
NNNI5
I1
I0
tp4669
bS'RADPS'
p4670
tp4671
Rp4672
sS'AOCSSI1'
p4673
g2
(g3
(S'S4'
p4674
I0
I1
tp4675
Rp4676
(I3
S'|'
p4677
NNNI4
I1
I0
tp4678
bS'MAMP'
p4679
tp4680
Rp4681
sS'TPC_DEA'
p4682
g2
(g3
(S'S4'
p4683
I0
I1
tp4684
Rp4685
(I3
S'|'
p4686
NNNI4
I1
I0
tp4687
bS'DEGF'
p4688
tp4689
Rp4690
sS'AOCSSI3'
p4691
g2
(g3
(S'S4'
p4692
I0
I1
tp4693
Rp4694
(I3
S'|'
p4695
NNNI4
I1
I0
tp4696
bS'MAMP'
p4697
tp4698
Rp4699
sS'AIRU2G1T'
p4700
g2
(g3
(S'S4'
p4701
I0
I1
tp4702
Rp4703
(I3
S'|'
p4704
NNNI4
I1
I0
tp4705
bS'DEGF'
p4706
tp4707
Rp4708
sS'AOCSSI4'
p4709
g2
(g3
(S'S4'
p4710
I0
I1
tp4711
Rp4712
(I3
S'|'
p4713
NNNI4
I1
I0
tp4714
bS'MAMP'
p4715
tp4716
Rp4717
sS'AIRU2G1I'
p4718
g2
(g3
(S'S4'
p4719
I0
I1
tp4720
Rp4721
(I3
S'|'
p4722
NNNI4
I1
I0
tp4723
bS'MAMP'
p4724
tp4725
Rp4726
sS'CTUB15V'
p4727
g2
(g3
(S'S1'
p4728
I0
I1
tp4729
Rp4730
(I3
S'|'
p4731
NNNI1
I1
I0
tp4732
bg45
tp4733
Rp4734
sS'1VAHCAT'
p4735
g2
(g3
(S'S4'
p4736
I0
I1
tp4737
Rp4738
(I3
S'|'
p4739
NNNI4
I1
I0
tp4740
bS'DEGC'
p4741
tp4742
Rp4743
sS'TB3T2'
p4744
g2
(g3
(S'S4'
p4745
I0
I1
tp4746
Rp4747
(I3
S'|'
p4748
NNNI4
I1
I0
tp4749
bS'DEGF'
p4750
tp4751
Rp4752
sS'TB3T3'
p4753
g2
(g3
(S'S4'
p4754
I0
I1
tp4755
Rp4756
(I3
S'|'
p4757
NNNI4
I1
I0
tp4758
bS'DEGF'
p4759
tp4760
Rp4761
sS'TRSPOTPC'
p4762
g2
(g3
(S'S4'
p4763
I0
I1
tp4764
Rp4765
(I3
S'|'
p4766
NNNI4
I1
I0
tp4767
bS'DEGF'
p4768
tp4769
Rp4770
sS'PLAED3CT'
p4771
g2
(g3
(S'S4'
p4772
I0
I1
tp4773
Rp4774
(I3
S'|'
p4775
NNNI4
I1
I0
tp4776
bS'DEGF'
p4777
tp4778
Rp4779
sS'1PIN1AT'
p4780
g2
(g3
(S'S4'
p4781
I0
I1
tp4782
Rp4783
(I3
S'|'
p4784
NNNI4
I1
I0
tp4785
bS'DEGC'
p4786
tp4787
Rp4788
sS'PFTANK2T'
p4789
g2
(g3
(S'S4'
p4790
I0
I1
tp4791
Rp4792
(I3
S'|'
p4793
NNNI4
I1
I0
tp4794
bS'DEGF'
p4795
tp4796
Rp4797
sS'1DP28BVO'
p4798
g2
(g3
(S'S1'
p4799
I0
I1
tp4800
Rp4801
(I3
S'|'
p4802
NNNI1
I1
I0
tp4803
bg45
tp4804
Rp4805
sS'AOIRERL1'
p4806
g2
(g3
(S'S3'
p4807
I0
I1
tp4808
Rp4809
(I3
S'|'
p4810
NNNI3
I1
I0
tp4811
bS'RAD'
p4812
tp4813
Rp4814
sS'PLAEV1BT'
p4815
g2
(g3
(S'S4'
p4816
I0
I1
tp4817
Rp4818
(I3
S'|'
p4819
NNNI4
I1
I0
tp4820
bS'DEGF'
p4821
tp4822
Rp4823
sS'AOIRERL2'
p4824
g2
(g3
(S'S3'
p4825
I0
I1
tp4826
Rp4827
(I3
S'|'
p4828
NNNI3
I1
I0
tp4829
bS'RAD'
p4830
tp4831
Rp4832
sS'PFDM201T'
p4833
g2
(g3
(S'S4'
p4834
I0
I1
tp4835
Rp4836
(I3
S'|'
p4837
NNNI4
I1
I0
tp4838
bS'DEGF'
p4839
tp4840
Rp4841
sS'TCM_OBC'
p4842
g2
(g3
(S'S4'
p4843
I0
I1
tp4844
Rp4845
(I3
S'|'
p4846
NNNI4
I1
I0
tp4847
bS'DEGF'
p4848
tp4849
Rp4850
sS'AOIRERL3'
p4851
g2
(g3
(S'S3'
p4852
I0
I1
tp4853
Rp4854
(I3
S'|'
p4855
NNNI3
I1
I0
tp4856
bS'RAD'
p4857
tp4858
Rp4859
sS'1PDEABT'
p4860
g2
(g3
(S'S4'
p4861
I0
I1
tp4862
Rp4863
(I3
S'|'
p4864
NNNI4
I1
I0
tp4865
bS'DEGC'
p4866
tp4867
Rp4868
sS'TPCP_RW2'
p4869
g2
(g3
(S'S4'
p4870
I0
I1
tp4871
Rp4872
(I3
S'|'
p4873
NNNI4
I1
I0
tp4874
bS'DEGF'
p4875
tp4876
Rp4877
sS'PLAED2HT'
p4878
g2
(g3
(S'S4'
p4879
I0
I1
tp4880
Rp4881
(I3
S'|'
p4882
NNNI4
I1
I0
tp4883
bS'DEGF'
p4884
tp4885
Rp4886
sS'AOADBCH2A_PCAD'
p4887
g2
(g3
(S'S3'
p4888
I0
I1
tp4889
Rp4890
(I3
S'|'
p4891
NNNI3
I1
I0
tp4892
bS'DEG'
p4893
tp4894
Rp4895
sS'TRSPOTEP'
p4896
g2
(g3
(S'S4'
p4897
I0
I1
tp4898
Rp4899
(I3
S'|'
p4900
NNNI4
I1
I0
tp4901
bS'DEGF'
p4902
tp4903
Rp4904
sS'AORWPI6B'
p4905
g2
(g3
(S'S4'
p4906
I0
I1
tp4907
Rp4908
(I3
S'|'
p4909
NNNI4
I1
I0
tp4910
bS'MSEC'
p4911
tp4912
Rp4913
sS'TCM_PAN'
p4914
g2
(g3
(S'S4'
p4915
I0
I1
tp4916
Rp4917
(I3
S'|'
p4918
NNNI4
I1
I0
tp4919
bS'DEGF'
p4920
tp4921
Rp4922
sS'TCM_SSR2'
p4923
g2
(g3
(S'S4'
p4924
I0
I1
tp4925
Rp4926
(I3
S'|'
p4927
NNNI4
I1
I0
tp4928
bS'DEGF'
p4929
tp4930
Rp4931
sS'PMTANKP'
p4932
g2
(g3
(S'S4'
p4933
I0
I1
tp4934
Rp4935
(I3
S'|'
p4936
NNNI4
I1
I0
tp4937
bS'PSIA'
p4938
tp4939
Rp4940
sS'EOECNV1C'
p4941
g2
(g3
(S'S1'
p4942
I0
I1
tp4943
Rp4944
(I3
S'|'
p4945
NNNI1
I1
I0
tp4946
bg45
tp4947
Rp4948
sS'AFLCABH'
p4949
g2
(g3
(S'S1'
p4950
I0
I1
tp4951
Rp4952
(I3
S'|'
p4953
NNNI1
I1
I0
tp4954
bg45
tp4955
Rp4956
sS'3FLCABPT'
p4957
g2
(g3
(S'S4'
p4958
I0
I1
tp4959
Rp4960
(I3
S'|'
p4961
NNNI4
I1
I0
tp4962
bS'DEGC'
p4963
tp4964
Rp4965
sS'OHRTHR18'
p4966
g2
(g3
(S'S4'
p4967
I0
I1
tp4968
Rp4969
(I3
S'|'
p4970
NNNI4
I1
I0
tp4971
bS'DEGF'
p4972
tp4973
Rp4974
sS'OHRTHR19'
p4975
g2
(g3
(S'S4'
p4976
I0
I1
tp4977
Rp4978
(I3
S'|'
p4979
NNNI4
I1
I0
tp4980
bS'DEGF'
p4981
tp4982
Rp4983
sS'AFLCA3BI'
p4984
g2
(g3
(S'S4'
p4985
I0
I1
tp4986
Rp4987
(I3
S'|'
p4988
NNNI4
I1
I0
tp4989
bS'MAMP'
p4990
tp4991
Rp4992
sS'OHRTHR14'
p4993
g2
(g3
(S'S4'
p4994
I0
I1
tp4995
Rp4996
(I3
S'|'
p4997
NNNI4
I1
I0
tp4998
bS'DEGF'
p4999
tp5000
Rp5001
sS'OHRTHR15'
p5002
g2
(g3
(S'S4'
p5003
I0
I1
tp5004
Rp5005
(I3
S'|'
p5006
NNNI4
I1
I0
tp5007
bS'DEGF'
p5008
tp5009
Rp5010
sS'OHRTHR12'
p5011
g2
(g3
(S'S4'
p5012
I0
I1
tp5013
Rp5014
(I3
S'|'
p5015
NNNI4
I1
I0
tp5016
bS'DEGF'
p5017
tp5018
Rp5019
sS'OHRTHR13'
p5020
g2
(g3
(S'S4'
p5021
I0
I1
tp5022
Rp5023
(I3
S'|'
p5024
NNNI4
I1
I0
tp5025
bS'DEGF'
p5026
tp5027
Rp5028
sS'OHRTHR10'
p5029
g2
(g3
(S'S4'
p5030
I0
I1
tp5031
Rp5032
(I3
S'|'
p5033
NNNI4
I1
I0
tp5034
bS'DEGF'
p5035
tp5036
Rp5037
sS'OHRTHR11'
p5038
g2
(g3
(S'S4'
p5039
I0
I1
tp5040
Rp5041
(I3
S'|'
p5042
NNNI4
I1
I0
tp5043
bS'DEGF'
p5044
tp5045
Rp5046
sS'CIUB15V'
p5047
g2
(g3
(S'S1'
p5048
I0
I1
tp5049
Rp5050
(I3
S'|'
p5051
NNNI1
I1
I0
tp5052
bg45
tp5053
Rp5054
sS'3TTHRC3T'
p5055
g2
(g3
(S'S4'
p5056
I0
I1
tp5057
Rp5058
(I3
S'|'
p5059
NNNI4
I1
I0
tp5060
bS'DEGC'
p5061
tp5062
Rp5063
sS'PLAED3HT'
p5064
g2
(g3
(S'S4'
p5065
I0
I1
tp5066
Rp5067
(I3
S'|'
p5068
NNNI4
I1
I0
tp5069
bS'DEGF'
p5070
tp5071
Rp5072
sS'AIRU2BT'
p5073
g2
(g3
(S'S4'
p5074
I0
I1
tp5075
Rp5076
(I3
S'|'
p5077
NNNI4
I1
I0
tp5078
bS'DEGF'
p5079
tp5080
Rp5081
sS'AORWSPD1'
p5082
g2
(g3
(S'S5'
p5083
I0
I1
tp5084
Rp5085
(I3
S'|'
p5086
NNNI5
I1
I0
tp5087
bS'RADPS'
p5088
tp5089
Rp5090
sS'AORWSPD2'
p5091
g2
(g3
(S'S5'
p5092
I0
I1
tp5093
Rp5094
(I3
S'|'
p5095
NNNI5
I1
I0
tp5096
bS'RADPS'
p5097
tp5098
Rp5099
sS'AORWSPD3'
p5100
g2
(g3
(S'S5'
p5101
I0
I1
tp5102
Rp5103
(I3
S'|'
p5104
NNNI5
I1
I0
tp5105
bS'RADPS'
p5106
tp5107
Rp5108
sS'AORWSPD4'
p5109
g2
(g3
(S'S5'
p5110
I0
I1
tp5111
Rp5112
(I3
S'|'
p5113
NNNI5
I1
I0
tp5114
bS'RADPS'
p5115
tp5116
Rp5117
sS'AORWSPD5'
p5118
g2
(g3
(S'S5'
p5119
I0
I1
tp5120
Rp5121
(I3
S'|'
p5122
NNNI5
I1
I0
tp5123
bS'RADPS'
p5124
tp5125
Rp5126
sS'AORWSPD6'
p5127
g2
(g3
(S'S5'
p5128
I0
I1
tp5129
Rp5130
(I3
S'|'
p5131
NNNI5
I1
I0
tp5132
bS'RADPS'
p5133
tp5134
Rp5135
sS'PM1THV1T'
p5136
g2
(g3
(S'S4'
p5137
I0
I1
tp5138
Rp5139
(I3
S'|'
p5140
NNNI4
I1
I0
tp5141
bS'DEGF'
p5142
tp5143
Rp5144
sS'AOCMDRT2'
p5145
g2
(g3
(S'S5'
p5146
I0
I1
tp5147
Rp5148
(I3
S'|'
p5149
NNNI5
I1
I0
tp5150
bS'RADPS'
p5151
tp5152
Rp5153
sS'AOCMDRT3'
p5154
g2
(g3
(S'S5'
p5155
I0
I1
tp5156
Rp5157
(I3
S'|'
p5158
NNNI5
I1
I0
tp5159
bS'RADPS'
p5160
tp5161
Rp5162
sS'AI2AX2X'
p5163
g2
(g3
(S'S5'
p5164
I0
I1
tp5165
Rp5166
(I3
S'|'
p5167
NNNI5
I1
I0
tp5168
bS'DEGPS'
p5169
tp5170
Rp5171
sS'AI2AX2Y'
p5172
g2
(g3
(S'S5'
p5173
I0
I1
tp5174
Rp5175
(I3
S'|'
p5176
NNNI5
I1
I0
tp5177
bS'DEGPS'
p5178
tp5179
Rp5180
sS'4RT564T'
p5181
g2
(g3
(S'S4'
p5182
I0
I1
tp5183
Rp5184
(I3
S'|'
p5185
NNNI4
I1
I0
tp5186
bS'DEGF'
p5187
tp5188
Rp5189
sS'EORTDMN21D'
p5190
g2
(g3
(S'S4'
p5191
I0
I1
tp5192
Rp5193
(I3
S'|'
p5194
NNNI4
I1
I0
tp5195
bS'DEGF'
p5196
tp5197
Rp5198
sS'4RT704T'
p5199
g2
(g3
(S'S4'
p5200
I0
I1
tp5201
Rp5202
(I3
S'|'
p5203
NNNI4
I1
I0
tp5204
bS'DEGF'
p5205
tp5206
Rp5207
sS'EOEBC'
p5208
g2
(g3
(S'S3'
p5209
I0
I1
tp5210
Rp5211
(I3
S'|'
p5212
NNNI3
I1
I0
tp5213
bS'AMP'
p5214
tp5215
Rp5216
sS'PM3THV2T'
p5217
g2
(g3
(S'S4'
p5218
I0
I1
tp5219
Rp5220
(I3
S'|'
p5221
NNNI4
I1
I0
tp5222
bS'DEGF'
p5223
tp5224
Rp5225
sS'1DEN1BVO'
p5226
g2
(g3
(S'S1'
p5227
I0
I1
tp5228
Rp5229
(I3
S'|'
p5230
NNNI1
I1
I0
tp5231
bg45
tp5232
Rp5233
sS'4SP52V'
p5234
g2
(g3
(S'S3'
p5235
I0
I1
tp5236
Rp5237
(I3
S'|'
p5238
NNNI3
I1
I0
tp5239
bS'VDC'
p5240
tp5241
Rp5242
sS'EORTDMN29D'
p5243
g2
(g3
(S'S4'
p5244
I0
I1
tp5245
Rp5246
(I3
S'|'
p5247
NNNI4
I1
I0
tp5248
bS'DEGF'
p5249
tp5250
Rp5251
sS'PLINE04T'
p5252
g2
(g3
(S'S4'
p5253
I0
I1
tp5254
Rp5255
(I3
S'|'
p5256
NNNI4
I1
I0
tp5257
bS'DEGF'
p5258
tp5259
Rp5260
sS'PLAED3BT'
p5261
g2
(g3
(S'S4'
p5262
I0
I1
tp5263
Rp5264
(I3
S'|'
p5265
NNNI4
I1
I0
tp5266
bS'DEGF'
p5267
tp5268
Rp5269
sS'AIOBP5CV'
p5270
g2
(g3
(S'S1'
p5271
I0
I1
tp5272
Rp5273
(I3
S'|'
p5274
NNNI1
I1
I0
tp5275
bg45
tp5276
Rp5277
sS'PXTANKOP'
p5278
g2
(g3
(S'S4'
p5279
I0
I1
tp5280
Rp5281
(I3
S'|'
p5282
NNNI4
I1
I0
tp5283
bS'PSIA'
p5284
tp5285
Rp5286
sS'4OAVHRMT'
p5287
g2
(g3
(S'S4'
p5288
I0
I1
tp5289
Rp5290
(I3
S'|'
p5291
NNNI4
I1
I0
tp5292
bS'DEGF'
p5293
tp5294
Rp5295
sS'EORTDMN28D'
p5296
g2
(g3
(S'S4'
p5297
I0
I1
tp5298
Rp5299
(I3
S'|'
p5300
NNNI4
I1
I0
tp5301
bS'DEGF'
p5302
tp5303
Rp5304
sS'PFFP01T'
p5305
g2
(g3
(S'S4'
p5306
I0
I1
tp5307
Rp5308
(I3
S'|'
p5309
NNNI4
I1
I0
tp5310
bS'DEGF'
p5311
tp5312
Rp5313
sS'2N15VAVL'
p5314
g2
(g3
(S'S3'
p5315
I0
I1
tp5316
Rp5317
(I3
S'|'
p5318
NNNI3
I1
I0
tp5319
bS'VDC'
p5320
tp5321
Rp5322
sS'4RT578T'
p5323
g2
(g3
(S'S4'
p5324
I0
I1
tp5325
Rp5326
(I3
S'|'
p5327
NNNI4
I1
I0
tp5328
bS'DEGF'
p5329
tp5330
Rp5331
sS'4LFSPBT'
p5332
g2
(g3
(S'S4'
p5333
I0
I1
tp5334
Rp5335
(I3
S'|'
p5336
NNNI4
I1
I0
tp5337
bS'DEGF'
p5338
tp5339
Rp5340
sS'TMP_FEP1_PCB'
p5341
g299
sS'AOSPBCS2B'
p5342
g2
(g3
(S'S4'
p5343
I0
I1
tp5344
Rp5345
(I3
S'|'
p5346
NNNI4
I1
I0
tp5347
bS'MAMP'
p5348
tp5349
Rp5350
sS'1DEP0AVO'
p5351
g2
(g3
(S'S1'
p5352
I0
I1
tp5353
Rp5354
(I3
S'|'
p5355
NNNI1
I1
I0
tp5356
bg45
tp5357
Rp5358
sS'4CSDOAV'
p5359
g2
(g3
(S'S3'
p5360
I0
I1
tp5361
Rp5362
(I3
S'|'
p5363
NNNI3
I1
I0
tp5364
bS'VDC'
p5365
tp5366
Rp5367
sS'TEP_BPAN'
p5368
g2
(g3
(S'S4'
p5369
I0
I1
tp5370
Rp5371
(I3
S'|'
p5372
NNNI4
I1
I0
tp5373
bS'DEGF'
p5374
tp5375
Rp5376
sS'1WRAT'
p5377
g2
(g3
(S'S4'
p5378
I0
I1
tp5379
Rp5380
(I3
S'|'
p5381
NNNI4
I1
I0
tp5382
bS'DEGC'
p5383
tp5384
Rp5385
sS'PLAED1GT'
p5386
g2
(g3
(S'S4'
p5387
I0
I1
tp5388
Rp5389
(I3
S'|'
p5390
NNNI4
I1
I0
tp5391
bS'DEGF'
p5392
tp5393
Rp5394
sS'TASPRWC'
p5395
g2
(g3
(S'S4'
p5396
I0
I1
tp5397
Rp5398
(I3
S'|'
p5399
NNNI4
I1
I0
tp5400
bS'DEGF'
p5401
tp5402
Rp5403
sS'4PRT3AT'
p5404
g2
(g3
(S'S4'
p5405
I0
I1
tp5406
Rp5407
(I3
S'|'
p5408
NNNI4
I1
I0
tp5409
bS'DEGF'
p5410
tp5411
Rp5412
sS'PLINE01T'
p5413
g2
(g3
(S'S4'
p5414
I0
I1
tp5415
Rp5416
(I3
S'|'
p5417
NNNI4
I1
I0
tp5418
bS'DEGF'
p5419
tp5420
Rp5421
sS'6RWCMD4'
p5422
g2
(g3
(S'S4'
p5423
I0
I1
tp5424
Rp5425
(I3
S'|'
p5426
NNNI4
I1
I0
tp5427
bS'FTLB'
p5428
tp5429
Rp5430
sS'6RWCMD5'
p5431
g2
(g3
(S'S4'
p5432
I0
I1
tp5433
Rp5434
(I3
S'|'
p5435
NNNI4
I1
I0
tp5436
bS'FTLB'
p5437
tp5438
Rp5439
sS'6RWCMD6'
p5440
g2
(g3
(S'S4'
p5441
I0
I1
tp5442
Rp5443
(I3
S'|'
p5444
NNNI4
I1
I0
tp5445
bS'FTLB'
p5446
tp5447
Rp5448
sS'AFLCA8AI'
p5449
g2
(g3
(S'S4'
p5450
I0
I1
tp5451
Rp5452
(I3
S'|'
p5453
NNNI4
I1
I0
tp5454
bS'MAMP'
p5455
tp5456
Rp5457
sS'AACBPPT'
p5458
g2
(g3
(S'S4'
p5459
I0
I1
tp5460
Rp5461
(I3
S'|'
p5462
NNNI4
I1
I0
tp5463
bS'DEGF'
p5464
tp5465
Rp5466
sS'6RWCMD1'
p5467
g2
(g3
(S'S4'
p5468
I0
I1
tp5469
Rp5470
(I3
S'|'
p5471
NNNI4
I1
I0
tp5472
bS'FTLB'
p5473
tp5474
Rp5475
sS'6RWCMD2'
p5476
g2
(g3
(S'S4'
p5477
I0
I1
tp5478
Rp5479
(I3
S'|'
p5480
NNNI4
I1
I0
tp5481
bS'FTLB'
p5482
tp5483
Rp5484
sS'6RWCMD3'
p5485
g2
(g3
(S'S4'
p5486
I0
I1
tp5487
Rp5488
(I3
S'|'
p5489
NNNI4
I1
I0
tp5490
bS'FTLB'
p5491
tp5492
Rp5493
sS'PCM02T'
p5494
g2
(g3
(S'S4'
p5495
I0
I1
tp5496
Rp5497
(I3
S'|'
p5498
NNNI4
I1
I0
tp5499
bS'DEGF'
p5500
tp5501
Rp5502
sS'TCYLPCP'
p5503
g2
(g3
(S'S4'
p5504
I0
I1
tp5505
Rp5506
(I3
S'|'
p5507
NNNI4
I1
I0
tp5508
bS'DEGF'
p5509
tp5510
Rp5511
sS'3FAMYZAT'
p5512
g2
(g3
(S'S4'
p5513
I0
I1
tp5514
Rp5515
(I3
S'|'
p5516
NNNI4
I1
I0
tp5517
bS'DEGC'
p5518
tp5519
Rp5520
sS'AACCCDPT'
p5521
g2
(g3
(S'S4'
p5522
I0
I1
tp5523
Rp5524
(I3
S'|'
p5525
NNNI4
I1
I0
tp5526
bS'DEGF'
p5527
tp5528
Rp5529
sS'OHRTHR17'
p5530
g2
(g3
(S'S4'
p5531
I0
I1
tp5532
Rp5533
(I3
S'|'
p5534
NNNI4
I1
I0
tp5535
bS'DEGF'
p5536
tp5537
Rp5538
sS'OOBTHR41'
p5539
g2
(g3
(S'S4'
p5540
I0
I1
tp5541
Rp5542
(I3
S'|'
p5543
NNNI4
I1
I0
tp5544
bS'DEGF'
p5545
tp5546
Rp5547
sS'4OAVOBAT'
p5548
g2
(g3
(S'S4'
p5549
I0
I1
tp5550
Rp5551
(I3
S'|'
p5552
NNNI4
I1
I0
tp5553
bS'DEGF'
p5554
tp5555
Rp5556
sS'OOBTHR51'
p5557
g2
(g3
(S'S4'
p5558
I0
I1
tp5559
Rp5560
(I3
S'|'
p5561
NNNI4
I1
I0
tp5562
bS'DEGF'
p5563
tp5564
Rp5565
sS'TPC_WDA'
p5566
g2
(g3
(S'S4'
p5567
I0
I1
tp5568
Rp5569
(I3
S'|'
p5570
NNNI4
I1
I0
tp5571
bS'DEGF'
p5572
tp5573
Rp5574
sS'TSCTSF6'
p5575
g2
(g3
(S'S4'
p5576
I0
I1
tp5577
Rp5578
(I3
S'|'
p5579
NNNI4
I1
I0
tp5580
bS'DEGF'
p5581
tp5582
Rp5583
sS'4RT709T'
p5584
g2
(g3
(S'S4'
p5585
I0
I1
tp5586
Rp5587
(I3
S'|'
p5588
NNNI4
I1
I0
tp5589
bS'DEGF'
p5590
tp5591
Rp5592
sS'AWD1TQI'
p5593
g2
(g3
(S'S3'
p5594
I0
I1
tp5595
Rp5596
(I3
S'|'
p5597
NNNI3
I1
I0
tp5598
bS'AMP'
p5599
tp5600
Rp5601
sS'TCM_TX2'
p5602
g2
(g3
(S'S4'
p5603
I0
I1
tp5604
Rp5605
(I3
S'|'
p5606
NNNI4
I1
I0
tp5607
bS'DEGF'
p5608
tp5609
Rp5610
sS'TCM_TX1'
p5611
g2
(g3
(S'S4'
p5612
I0
I1
tp5613
Rp5614
(I3
S'|'
p5615
NNNI4
I1
I0
tp5616
bS'DEGF'
p5617
tp5618
Rp5619
sS'CTUA5V'
p5620
g2
(g3
(S'S1'
p5621
I0
I1
tp5622
Rp5623
(I3
S'|'
p5624
NNNI1
I1
I0
tp5625
bg45
tp5626
Rp5627
sS'4LLL1BT'
p5628
g2
(g3
(S'S4'
p5629
I0
I1
tp5630
Rp5631
(I3
S'|'
p5632
NNNI4
I1
I0
tp5633
bS'DEGF'
p5634
tp5635
Rp5636
sS'TMZP_CNT'
p5637
g2
(g3
(S'S4'
p5638
I0
I1
tp5639
Rp5640
(I3
S'|'
p5641
NNNI4
I1
I0
tp5642
bS'DEGF'
p5643
tp5644
Rp5645
sS'4RT582T'
p5646
g2
(g3
(S'S4'
p5647
I0
I1
tp5648
Rp5649
(I3
S'|'
p5650
NNNI4
I1
I0
tp5651
bS'DEGF'
p5652
tp5653
Rp5654
sS'TMP_BEP_PCB'
p5655
g299
sS'AHKNATRD'
p5656
g2
(g3
(S'S1'
p5657
I0
I1
tp5658
Rp5659
(I3
S'|'
p5660
NNNI1
I1
I0
tp5661
bg45
tp5662
Rp5663
sS'EOEB3VC'
p5664
g2
(g3
(S'S1'
p5665
I0
I1
tp5666
Rp5667
(I3
S'|'
p5668
NNNI1
I1
I0
tp5669
bg45
tp5670
Rp5671
sS'OOBTHR50'
p5672
g2
(g3
(S'S4'
p5673
I0
I1
tp5674
Rp5675
(I3
S'|'
p5676
NNNI4
I1
I0
tp5677
bS'DEGF'
p5678
tp5679
Rp5680
sS'AFLCA6AI'
p5681
g2
(g3
(S'S4'
p5682
I0
I1
tp5683
Rp5684
(I3
S'|'
p5685
NNNI4
I1
I0
tp5686
bS'MAMP'
p5687
tp5688
Rp5689
sS'4CSDOBV'
p5690
g2
(g3
(S'S3'
p5691
I0
I1
tp5692
Rp5693
(I3
S'|'
p5694
NNNI3
I1
I0
tp5695
bS'VDC'
p5696
tp5697
Rp5698
sS'AFLCA9BI'
p5699
g2
(g3
(S'S4'
p5700
I0
I1
tp5701
Rp5702
(I3
S'|'
p5703
NNNI4
I1
I0
tp5704
bS'MAMP'
p5705
tp5706
Rp5707
sS'1DEP2AVO'
p5708
g2
(g3
(S'S1'
p5709
I0
I1
tp5710
Rp5711
(I3
S'|'
p5712
NNNI1
I1
I0
tp5713
bg45
tp5714
Rp5715
sS'3RCTUBPT'
p5716
g2
(g3
(S'S4'
p5717
I0
I1
tp5718
Rp5719
(I3
S'|'
p5720
NNNI4
I1
I0
tp5721
bS'DEGC'
p5722
tp5723
Rp5724
sS'6SURTER3'
p5725
g2
(g3
(S'S5'
p5726
I0
I1
tp5727
Rp5728
(I3
S'|'
p5729
NNNI5
I1
I0
tp5730
bS'RADPS'
p5731
tp5732
Rp5733
sS'6SURTER2'
p5734
g2
(g3
(S'S5'
p5735
I0
I1
tp5736
Rp5737
(I3
S'|'
p5738
NNNI5
I1
I0
tp5739
bS'RADPS'
p5740
tp5741
Rp5742
sS'6SURTER1'
p5743
g2
(g3
(S'S5'
p5744
I0
I1
tp5745
Rp5746
(I3
S'|'
p5747
NNNI5
I1
I0
tp5748
bS'RADPS'
p5749
tp5750
Rp5751
sS'OHRTHR62'
p5752
g2
(g3
(S'S4'
p5753
I0
I1
tp5754
Rp5755
(I3
S'|'
p5756
NNNI4
I1
I0
tp5757
bS'DEGF'
p5758
tp5759
Rp5760
sS'OOBTHR49'
p5761
g2
(g3
(S'S4'
p5762
I0
I1
tp5763
Rp5764
(I3
S'|'
p5765
NNNI4
I1
I0
tp5766
bS'DEGF'
p5767
tp5768
Rp5769
sS'CRXBV'
p5770
g2
(g3
(S'S1'
p5771
I0
I1
tp5772
Rp5773
(I3
S'|'
p5774
NNNI1
I1
I0
tp5775
bg45
tp5776
Rp5777
sS'OOBTHR47'
p5778
g2
(g3
(S'S4'
p5779
I0
I1
tp5780
Rp5781
(I3
S'|'
p5782
NNNI4
I1
I0
tp5783
bS'DEGF'
p5784
tp5785
Rp5786
sS'OOBTHR44'
p5787
g2
(g3
(S'S4'
p5788
I0
I1
tp5789
Rp5790
(I3
S'|'
p5791
NNNI4
I1
I0
tp5792
bS'DEGF'
p5793
tp5794
Rp5795
sS'OOBTHR45'
p5796
g2
(g3
(S'S4'
p5797
I0
I1
tp5798
Rp5799
(I3
S'|'
p5800
NNNI4
I1
I0
tp5801
bS'DEGF'
p5802
tp5803
Rp5804
sS'OOBTHR42'
p5805
g2
(g3
(S'S4'
p5806
I0
I1
tp5807
Rp5808
(I3
S'|'
p5809
NNNI4
I1
I0
tp5810
bS'DEGF'
p5811
tp5812
Rp5813
sS'OOBTHR43'
p5814
g2
(g3
(S'S4'
p5815
I0
I1
tp5816
Rp5817
(I3
S'|'
p5818
NNNI4
I1
I0
tp5819
bS'DEGF'
p5820
tp5821
Rp5822
sS'OOBTHR40'
p5823
g2
(g3
(S'S4'
p5824
I0
I1
tp5825
Rp5826
(I3
S'|'
p5827
NNNI4
I1
I0
tp5828
bS'DEGF'
p5829
tp5830
Rp5831
sS'4PRT5AT'
p5832
g2
(g3
(S'S4'
p5833
I0
I1
tp5834
Rp5835
(I3
S'|'
p5836
NNNI4
I1
I0
tp5837
bS'DEGF'
p5838
tp5839
Rp5840
sS'AI1AX1X'
p5841
g2
(g3
(S'S5'
p5842
I0
I1
tp5843
Rp5844
(I3
S'|'
p5845
NNNI5
I1
I0
tp5846
bS'DEGPS'
p5847
tp5848
Rp5849
sS'PLAED2IT'
p5850
g2
(g3
(S'S4'
p5851
I0
I1
tp5852
Rp5853
(I3
S'|'
p5854
NNNI4
I1
I0
tp5855
bS'DEGF'
p5856
tp5857
Rp5858
sS'6SINTER2'
p5859
g2
(g3
(S'S3'
p5860
I0
I1
tp5861
Rp5862
(I3
S'|'
p5863
NNNI3
I1
I0
tp5864
bS'RAD'
p5865
tp5866
Rp5867
sS'OOBTHR27'
p5868
g2
(g3
(S'S4'
p5869
I0
I1
tp5870
Rp5871
(I3
S'|'
p5872
NNNI4
I1
I0
tp5873
bS'DEGF'
p5874
tp5875
Rp5876
sS'AWD2CV5V'
p5877
g2
(g3
(S'S1'
p5878
I0
I1
tp5879
Rp5880
(I3
S'|'
p5881
NNNI1
I1
I0
tp5882
bg45
tp5883
Rp5884
sS'OOBTHR53'
p5885
g2
(g3
(S'S4'
p5886
I0
I1
tp5887
Rp5888
(I3
S'|'
p5889
NNNI4
I1
I0
tp5890
bS'DEGF'
p5891
tp5892
Rp5893
sS'EORTDMN14D'
p5894
g2
(g3
(S'S4'
p5895
I0
I1
tp5896
Rp5897
(I3
S'|'
p5898
NNNI4
I1
I0
tp5899
bS'DEGF'
p5900
tp5901
Rp5902
sS'OHRMGRD3'
p5903
g2
(g3
(S'S4'
p5904
I0
I1
tp5905
Rp5906
(I3
S'|'
p5907
NNNI4
I1
I0
tp5908
bS'DEGF'
p5909
tp5910
Rp5911
sS'ARWA1BT'
p5912
g2
(g3
(S'S4'
p5913
I0
I1
tp5914
Rp5915
(I3
S'|'
p5916
NNNI4
I1
I0
tp5917
bS'DEGF'
p5918
tp5919
Rp5920
sS'AFLCA7BI'
p5921
g2
(g3
(S'S4'
p5922
I0
I1
tp5923
Rp5924
(I3
S'|'
p5925
NNNI4
I1
I0
tp5926
bS'MAMP'
p5927
tp5928
Rp5929
sS'PLAED4GT'
p5930
g2
(g3
(S'S4'
p5931
I0
I1
tp5932
Rp5933
(I3
S'|'
p5934
NNNI4
I1
I0
tp5935
bS'DEGF'
p5936
tp5937
Rp5938
sS'PFTANKOP'
p5939
g2
(g3
(S'S4'
p5940
I0
I1
tp5941
Rp5942
(I3
S'|'
p5943
NNNI4
I1
I0
tp5944
bS'PSIA'
p5945
tp5946
Rp5947
sS'TESH1'
p5948
g2
(g3
(S'S4'
p5949
I0
I1
tp5950
Rp5951
(I3
S'|'
p5952
NNNI4
I1
I0
tp5953
bS'DEGF'
p5954
tp5955
Rp5956
sS'AFLC14BI'
p5957
g2
(g3
(S'S4'
p5958
I0
I1
tp5959
Rp5960
(I3
S'|'
p5961
NNNI4
I1
I0
tp5962
bS'MAMP'
p5963
tp5964
Rp5965
sS'AOSPACS4B'
p5966
g2
(g3
(S'S4'
p5967
I0
I1
tp5968
Rp5969
(I3
S'|'
p5970
NNNI4
I1
I0
tp5971
bS'MAMP'
p5972
tp5973
Rp5974
sS'ACPA5CV'
p5975
g2
(g3
(S'S1'
p5976
I0
I1
tp5977
Rp5978
(I3
S'|'
p5979
NNNI1
I1
I0
tp5980
bg45
tp5981
Rp5982
sS'OHRTHR59'
p5983
g2
(g3
(S'S4'
p5984
I0
I1
tp5985
Rp5986
(I3
S'|'
p5987
NNNI4
I1
I0
tp5988
bS'DEGF'
p5989
tp5990
Rp5991
sS'OHRTHR52'
p5992
g2
(g3
(S'S4'
p5993
I0
I1
tp5994
Rp5995
(I3
S'|'
p5996
NNNI4
I1
I0
tp5997
bS'DEGF'
p5998
tp5999
Rp6000
sS'AESACHD2'
p6001
g2
(g3
(S'S3'
p6002
I0
I1
tp6003
Rp6004
(I3
S'|'
p6005
NNNI3
I1
I0
tp6006
bS'DEG'
p6007
tp6008
Rp6009
sS'AESACHD1'
p6010
g2
(g3
(S'S3'
p6011
I0
I1
tp6012
Rp6013
(I3
S'|'
p6014
NNNI3
I1
I0
tp6015
bS'DEG'
p6016
tp6017
Rp6018
sS'4LFSPAT'
p6019
g2
(g3
(S'S4'
p6020
I0
I1
tp6021
Rp6022
(I3
S'|'
p6023
NNNI4
I1
I0
tp6024
bS'DEGF'
p6025
tp6026
Rp6027
sS'OHRTHR56'
p6028
g2
(g3
(S'S4'
p6029
I0
I1
tp6030
Rp6031
(I3
S'|'
p6032
NNNI4
I1
I0
tp6033
bS'DEGF'
p6034
tp6035
Rp6036
sS'2P15VAVL'
p6037
g2
(g3
(S'S3'
p6038
I0
I1
tp6039
Rp6040
(I3
S'|'
p6041
NNNI3
I1
I0
tp6042
bS'VDC'
p6043
tp6044
Rp6045
sS'OHRTHR54'
p6046
g2
(g3
(S'S4'
p6047
I0
I1
tp6048
Rp6049
(I3
S'|'
p6050
NNNI4
I1
I0
tp6051
bS'DEGF'
p6052
tp6053
Rp6054
sS'AAOTAPMT'
p6055
g2
(g3
(S'S4'
p6056
I0
I1
tp6057
Rp6058
(I3
S'|'
p6059
NNNI4
I1
I0
tp6060
bS'DEGF'
p6061
tp6062
Rp6063
sS'AORWPI2B'
p6064
g2
(g3
(S'S4'
p6065
I0
I1
tp6066
Rp6067
(I3
S'|'
p6068
NNNI4
I1
I0
tp6069
bS'MSEC'
p6070
tp6071
Rp6072
sS'TCYZ_RW1'
p6073
g2
(g3
(S'S4'
p6074
I0
I1
tp6075
Rp6076
(I3
S'|'
p6077
NNNI4
I1
I0
tp6078
bS'DEGF'
p6079
tp6080
Rp6081
sS'OHRTHR60'
p6082
g2
(g3
(S'S4'
p6083
I0
I1
tp6084
Rp6085
(I3
S'|'
p6086
NNNI4
I1
I0
tp6087
bS'DEGF'
p6088
tp6089
Rp6090
sS'OOBTHR09'
p6091
g2
(g3
(S'S4'
p6092
I0
I1
tp6093
Rp6094
(I3
S'|'
p6095
NNNI4
I1
I0
tp6096
bS'DEGF'
p6097
tp6098
Rp6099
sS'3TSMXCET'
p6100
g2
(g3
(S'S4'
p6101
I0
I1
tp6102
Rp6103
(I3
S'|'
p6104
NNNI4
I1
I0
tp6105
bS'DEGC'
p6106
tp6107
Rp6108
sS'TCYZ_RW6'
p6109
g2
(g3
(S'S4'
p6110
I0
I1
tp6111
Rp6112
(I3
S'|'
p6113
NNNI4
I1
I0
tp6114
bS'DEGF'
p6115
tp6116
Rp6117
sS'ARWA2BT'
p6118
g2
(g3
(S'S4'
p6119
I0
I1
tp6120
Rp6121
(I3
S'|'
p6122
NNNI4
I1
I0
tp6123
bS'DEGF'
p6124
tp6125
Rp6126
sS'PLAED3ET'
p6127
g2
(g3
(S'S4'
p6128
I0
I1
tp6129
Rp6130
(I3
S'|'
p6131
NNNI4
I1
I0
tp6132
bS'DEGF'
p6133
tp6134
Rp6135
sS'3FAPOS'
p6136
S'FASTEP'
p6137
sS'TSAPYT'
p6138
g2
(g3
(S'S4'
p6139
I0
I1
tp6140
Rp6141
(I3
S'|'
p6142
NNNI4
I1
I0
tp6143
bS'DEGF'
p6144
tp6145
Rp6146
sS'CPA1V'
p6147
g2
(g3
(S'S1'
p6148
I0
I1
tp6149
Rp6150
(I3
S'|'
p6151
NNNI1
I1
I0
tp6152
bg45
tp6153
Rp6154
sS'ASPEA5CV'
p6155
g2
(g3
(S'S1'
p6156
I0
I1
tp6157
Rp6158
(I3
S'|'
p6159
NNNI1
I1
I0
tp6160
bg45
tp6161
Rp6162
sS'PXTANK1T'
p6163
g2
(g3
(S'S4'
p6164
I0
I1
tp6165
Rp6166
(I3
S'|'
p6167
NNNI4
I1
I0
tp6168
bS'DEGF'
p6169
tp6170
Rp6171
sS'4RT568T'
p6172
g2
(g3
(S'S4'
p6173
I0
I1
tp6174
Rp6175
(I3
S'|'
p6176
NNNI4
I1
I0
tp6177
bS'DEGF'
p6178
tp6179
Rp6180
sS'ACPB5CV'
p6181
g2
(g3
(S'S1'
p6182
I0
I1
tp6183
Rp6184
(I3
S'|'
p6185
NNNI1
I1
I0
tp6186
bg45
tp6187
Rp6188
sS'OOBTHR02'
p6189
g2
(g3
(S'S4'
p6190
I0
I1
tp6191
Rp6192
(I3
S'|'
p6193
NNNI4
I1
I0
tp6194
bS'DEGF'
p6195
tp6196
Rp6197
sS'1DPICACU'
p6198
g2
(g3
(S'S3'
p6199
I0
I1
tp6200
Rp6201
(I3
S'|'
p6202
NNNI3
I1
I0
tp6203
bS'AMP'
p6204
tp6205
Rp6206
sS'OOBTHR03'
p6207
g2
(g3
(S'S4'
p6208
I0
I1
tp6209
Rp6210
(I3
S'|'
p6211
NNNI4
I1
I0
tp6212
bS'DEGF'
p6213
tp6214
Rp6215
sS'OOBTHR54'
p6216
g2
(g3
(S'S4'
p6217
I0
I1
tp6218
Rp6219
(I3
S'|'
p6220
NNNI4
I1
I0
tp6221
bS'DEGF'
p6222
tp6223
Rp6224
sS'TOXTSUPN'
p6225
g2
(g3
(S'S4'
p6226
I0
I1
tp6227
Rp6228
(I3
S'|'
p6229
NNNI4
I1
I0
tp6230
bS'DEGF'
p6231
tp6232
Rp6233
sS'AOSACMD1'
p6234
g2
(g3
(S'S3'
p6235
I0
I1
tp6236
Rp6237
(I3
S'|'
p6238
NNNI3
I1
I0
tp6239
bS'RAD'
p6240
tp6241
Rp6242
sS'4RT589T'
p6243
g2
(g3
(S'S4'
p6244
I0
I1
tp6245
Rp6246
(I3
S'|'
p6247
NNNI4
I1
I0
tp6248
bS'DEGF'
p6249
tp6250
Rp6251
sS'ASPEFSW2B'
p6252
g2
(g3
(S'S3'
p6253
I0
I1
tp6254
Rp6255
(I3
S'|'
p6256
NNNI3
I1
I0
tp6257
bS'DEG'
p6258
tp6259
Rp6260
sS'TCYLRWC'
p6261
g2
(g3
(S'S4'
p6262
I0
I1
tp6263
Rp6264
(I3
S'|'
p6265
NNNI4
I1
I0
tp6266
bS'DEGF'
p6267
tp6268
Rp6269
sS'4RT595T'
p6270
g2
(g3
(S'S4'
p6271
I0
I1
tp6272
Rp6273
(I3
S'|'
p6274
NNNI4
I1
I0
tp6275
bS'DEGF'
p6276
tp6277
Rp6278
sS'TCYLAFT5'
p6279
g2
(g3
(S'S4'
p6280
I0
I1
tp6281
Rp6282
(I3
S'|'
p6283
NNNI4
I1
I0
tp6284
bS'DEGF'
p6285
tp6286
Rp6287
sS'3TRMTRAT'
p6288
g2
(g3
(S'S4'
p6289
I0
I1
tp6290
Rp6291
(I3
S'|'
p6292
NNNI4
I1
I0
tp6293
bS'DEGC'
p6294
tp6295
Rp6296
sS'4RT700T'
p6297
g2
(g3
(S'S4'
p6298
I0
I1
tp6299
Rp6300
(I3
S'|'
p6301
NNNI4
I1
I0
tp6302
bS'DEGF'
p6303
tp6304
Rp6305
sS'OOBTHR07'
p6306
g2
(g3
(S'S4'
p6307
I0
I1
tp6308
Rp6309
(I3
S'|'
p6310
NNNI4
I1
I0
tp6311
bS'DEGF'
p6312
tp6313
Rp6314
sS'1CBAT'
p6315
g2
(g3
(S'S4'
p6316
I0
I1
tp6317
Rp6318
(I3
S'|'
p6319
NNNI4
I1
I0
tp6320
bS'DEGC'
p6321
tp6322
Rp6323
sS'CPA2BPT'
p6324
g2
(g3
(S'S4'
p6325
I0
I1
tp6326
Rp6327
(I3
S'|'
p6328
NNNI4
I1
I0
tp6329
bS'DEGF'
p6330
tp6331
Rp6332
sS'4IP15AV'
p6333
g2
(g3
(S'S3'
p6334
I0
I1
tp6335
Rp6336
(I3
S'|'
p6337
NNNI3
I1
I0
tp6338
bS'VDC'
p6339
tp6340
Rp6341
sS'4ALL2AT'
p6342
g2
(g3
(S'S4'
p6343
I0
I1
tp6344
Rp6345
(I3
S'|'
p6346
NNNI4
I1
I0
tp6347
bS'DEGF'
p6348
tp6349
Rp6350
sS'4PRT4AT'
p6351
g2
(g3
(S'S4'
p6352
I0
I1
tp6353
Rp6354
(I3
S'|'
p6355
NNNI4
I1
I0
tp6356
bS'DEGF'
p6357
tp6358
Rp6359
sS'OOBTHR05'
p6360
g2
(g3
(S'S4'
p6361
I0
I1
tp6362
Rp6363
(I3
S'|'
p6364
NNNI4
I1
I0
tp6365
bS'DEGF'
p6366
tp6367
Rp6368
sS'PLAED2AT'
p6369
g2
(g3
(S'S4'
p6370
I0
I1
tp6371
Rp6372
(I3
S'|'
p6373
NNNI4
I1
I0
tp6374
bS'DEGF'
p6375
tp6376
Rp6377
sS'TAPEA2T'
p6378
g2
(g3
(S'S4'
p6379
I0
I1
tp6380
Rp6381
(I3
S'|'
p6382
NNNI4
I1
I0
tp6383
bS'DEGF'
p6384
tp6385
Rp6386
sS'AFLC10AI'
p6387
g2
(g3
(S'S4'
p6388
I0
I1
tp6389
Rp6390
(I3
S'|'
p6391
NNNI4
I1
I0
tp6392
bS'MAMP'
p6393
tp6394
Rp6395
sS'2PMT2T'
p6396
g2
(g3
(S'S4'
p6397
I0
I1
tp6398
Rp6399
(I3
S'|'
p6400
NNNI4
I1
I0
tp6401
bS'DEGC'
p6402
tp6403
Rp6404
sS'EIACVAV'
p6405
g2
(g3
(S'S1'
p6406
I0
I1
tp6407
Rp6408
(I3
S'|'
p6409
NNNI1
I1
I0
tp6410
bg45
tp6411
Rp6412
sS'4IP5BV'
p6413
g2
(g3
(S'S3'
p6414
I0
I1
tp6415
Rp6416
(I3
S'|'
p6417
NNNI3
I1
I0
tp6418
bS'VDC'
p6419
tp6420
Rp6421
sS'6CSSI4'
p6422
g2
(g3
(S'S4'
p6423
I0
I1
tp6424
Rp6425
(I3
S'|'
p6426
NNNI4
I1
I0
tp6427
bS'MAMP'
p6428
tp6429
Rp6430
sS'PLAED1HT'
p6431
g2
(g3
(S'S4'
p6432
I0
I1
tp6433
Rp6434
(I3
S'|'
p6435
NNNI4
I1
I0
tp6436
bS'DEGF'
p6437
tp6438
Rp6439
sS'6CSSI2'
p6440
g2
(g3
(S'S4'
p6441
I0
I1
tp6442
Rp6443
(I3
S'|'
p6444
NNNI4
I1
I0
tp6445
bS'MAMP'
p6446
tp6447
Rp6448
sS'6CSSI3'
p6449
g2
(g3
(S'S4'
p6450
I0
I1
tp6451
Rp6452
(I3
S'|'
p6453
NNNI4
I1
I0
tp6454
bS'MAMP'
p6455
tp6456
Rp6457
sS'3TTVALVT'
p6458
g2
(g3
(S'S4'
p6459
I0
I1
tp6460
Rp6461
(I3
S'|'
p6462
NNNI4
I1
I0
tp6463
bS'DEGC'
p6464
tp6465
Rp6466
sS'6CSSI1'
p6467
g2
(g3
(S'S4'
p6468
I0
I1
tp6469
Rp6470
(I3
S'|'
p6471
NNNI4
I1
I0
tp6472
bS'MAMP'
p6473
tp6474
Rp6475
sS'PXDM02T'
p6476
g2
(g3
(S'S4'
p6477
I0
I1
tp6478
Rp6479
(I3
S'|'
p6480
NNNI4
I1
I0
tp6481
bS'DEGF'
p6482
tp6483
Rp6484
sS'TCYLCMM'
p6485
g2
(g3
(S'S4'
p6486
I0
I1
tp6487
Rp6488
(I3
S'|'
p6489
NNNI4
I1
I0
tp6490
bS'DEGF'
p6491
tp6492
Rp6493
sS'CUSOAIT'
p6494
g2
(g3
(S'S4'
p6495
I0
I1
tp6496
Rp6497
(I3
S'|'
p6498
NNNI4
I1
I0
tp6499
bS'DEGF'
p6500
tp6501
Rp6502
sS'4HPOSARO'
p6503
g2
(g3
(S'S3'
p6504
I0
I1
tp6505
Rp6506
(I3
S'|'
p6507
NNNI3
I1
I0
tp6508
bS'DEG'
p6509
tp6510
Rp6511
sS'OHRMGRD6'
p6512
g2
(g3
(S'S4'
p6513
I0
I1
tp6514
Rp6515
(I3
S'|'
p6516
NNNI4
I1
I0
tp6517
bS'DEGF'
p6518
tp6519
Rp6520
sS'4VRMOAV'
p6521
g2
(g3
(S'S3'
p6522
I0
I1
tp6523
Rp6524
(I3
S'|'
p6525
NNNI3
I1
I0
tp6526
bS'VDC'
p6527
tp6528
Rp6529
sS'EOEB3V'
p6530
g2
(g3
(S'S1'
p6531
I0
I1
tp6532
Rp6533
(I3
S'|'
p6534
NNNI1
I1
I0
tp6535
bg45
tp6536
Rp6537
sS'3FAFLCAT'
p6538
g2
(g3
(S'S4'
p6539
I0
I1
tp6540
Rp6541
(I3
S'|'
p6542
NNNI4
I1
I0
tp6543
bS'DEGC'
p6544
tp6545
Rp6546
sS'EB2V'
p6547
g2
(g3
(S'S1'
p6548
I0
I1
tp6549
Rp6550
(I3
S'|'
p6551
NNNI1
I1
I0
tp6552
bg45
tp6553
Rp6554
sS'AOTQCMD1'
p6555
g2
(g3
(S'S4'
p6556
I0
I1
tp6557
Rp6558
(I3
S'|'
p6559
NNNI4
I1
I0
tp6560
bS'FTLB'
p6561
tp6562
Rp6563
sS'AOTQCMD3'
p6564
g2
(g3
(S'S4'
p6565
I0
I1
tp6566
Rp6567
(I3
S'|'
p6568
NNNI4
I1
I0
tp6569
bS'FTLB'
p6570
tp6571
Rp6572
sS'AOTQCMD2'
p6573
g2
(g3
(S'S4'
p6574
I0
I1
tp6575
Rp6576
(I3
S'|'
p6577
NNNI4
I1
I0
tp6578
bS'FTLB'
p6579
tp6580
Rp6581
sS'CXPNBIT'
p6582
g2
(g3
(S'S4'
p6583
I0
I1
tp6584
Rp6585
(I3
S'|'
p6586
NNNI4
I1
I0
tp6587
bS'DEGF'
p6588
tp6589
Rp6590
sS'OHRTHR25'
p6591
g2
(g3
(S'S4'
p6592
I0
I1
tp6593
Rp6594
(I3
S'|'
p6595
NNNI4
I1
I0
tp6596
bS'DEGF'
p6597
tp6598
Rp6599
sS'AIRU2G2I'
p6600
g2
(g3
(S'S4'
p6601
I0
I1
tp6602
Rp6603
(I3
S'|'
p6604
NNNI4
I1
I0
tp6605
bS'MAMP'
p6606
tp6607
Rp6608
sS'TRSPOTEX'
p6609
g2
(g3
(S'S4'
p6610
I0
I1
tp6611
Rp6612
(I3
S'|'
p6613
NNNI4
I1
I0
tp6614
bS'DEGF'
p6615
tp6616
Rp6617
sS'TFUTSUPN'
p6618
g2
(g3
(S'S4'
p6619
I0
I1
tp6620
Rp6621
(I3
S'|'
p6622
NNNI4
I1
I0
tp6623
bS'DEGF'
p6624
tp6625
Rp6626
sS'AOSPACS1B'
p6627
g2
(g3
(S'S4'
p6628
I0
I1
tp6629
Rp6630
(I3
S'|'
p6631
NNNI4
I1
I0
tp6632
bS'MAMP'
p6633
tp6634
Rp6635
sS'6RWSPD1'
p6636
g2
(g3
(S'S5'
p6637
I0
I1
tp6638
Rp6639
(I3
S'|'
p6640
NNNI5
I1
I0
tp6641
bS'RADPS'
p6642
tp6643
Rp6644
sS'TB1T1'
p6645
g2
(g3
(S'S4'
p6646
I0
I1
tp6647
Rp6648
(I3
S'|'
p6649
NNNI4
I1
I0
tp6650
bS'DEGF'
p6651
tp6652
Rp6653
sS'AOACYAN7'
p6654
g2
(g3
(S'S4'
p6655
I0
I1
tp6656
Rp6657
(I3
S'|'
p6658
NNNI4
I1
I0
tp6659
bS'ASEC'
p6660
tp6661
Rp6662
sS'1CRAT'
p6663
g2
(g3
(S'S4'
p6664
I0
I1
tp6665
Rp6666
(I3
S'|'
p6667
NNNI4
I1
I0
tp6668
bS'DEGC'
p6669
tp6670
Rp6671
sS'AOACYAN0'
p6672
g2
(g3
(S'S4'
p6673
I0
I1
tp6674
Rp6675
(I3
S'|'
p6676
NNNI4
I1
I0
tp6677
bS'ASEC'
p6678
tp6679
Rp6680
sS'PMTANK2T'
p6681
g2
(g3
(S'S4'
p6682
I0
I1
tp6683
Rp6684
(I3
S'|'
p6685
NNNI4
I1
I0
tp6686
bS'DEGF'
p6687
tp6688
Rp6689
sS'AOACYAN1'
p6690
g2
(g3
(S'S4'
p6691
I0
I1
tp6692
Rp6693
(I3
S'|'
p6694
NNNI4
I1
I0
tp6695
bS'ASEC'
p6696
tp6697
Rp6698
sS'TMP_FEP0_PCB'
p6699
g299
sS'1SSPYT'
p6700
g2
(g3
(S'S4'
p6701
I0
I1
tp6702
Rp6703
(I3
S'|'
p6704
NNNI4
I1
I0
tp6705
bS'DEGC'
p6706
tp6707
Rp6708
sS'AOACYAN2'
p6709
g2
(g3
(S'S4'
p6710
I0
I1
tp6711
Rp6712
(I3
S'|'
p6713
NNNI4
I1
I0
tp6714
bS'ASEC'
p6715
tp6716
Rp6717
sS'PLAED1CT'
p6718
g2
(g3
(S'S4'
p6719
I0
I1
tp6720
Rp6721
(I3
S'|'
p6722
NNNI4
I1
I0
tp6723
bS'DEGF'
p6724
tp6725
Rp6726
sS'OHRTHR24'
p6727
g2
(g3
(S'S4'
p6728
I0
I1
tp6729
Rp6730
(I3
S'|'
p6731
NNNI4
I1
I0
tp6732
bS'DEGF'
p6733
tp6734
Rp6735
sS'PLAED4HT'
p6736
g2
(g3
(S'S4'
p6737
I0
I1
tp6738
Rp6739
(I3
S'|'
p6740
NNNI4
I1
I0
tp6741
bS'DEGF'
p6742
tp6743
Rp6744
sS'2DTSTATT'
p6745
g2
(g3
(S'S4'
p6746
I0
I1
tp6747
Rp6748
(I3
S'|'
p6749
NNNI4
I1
I0
tp6750
bS'DEGC'
p6751
tp6752
Rp6753
sS'AI2AX1Y'
p6754
g2
(g3
(S'S5'
p6755
I0
I1
tp6756
Rp6757
(I3
S'|'
p6758
NNNI5
I1
I0
tp6759
bS'DEGPS'
p6760
tp6761
Rp6762
sS'AI2AX1X'
p6763
g2
(g3
(S'S5'
p6764
I0
I1
tp6765
Rp6766
(I3
S'|'
p6767
NNNI5
I1
I0
tp6768
bS'DEGPS'
p6769
tp6770
Rp6771
sS'AAOTASMT'
p6772
g2
(g3
(S'S4'
p6773
I0
I1
tp6774
Rp6775
(I3
S'|'
p6776
NNNI4
I1
I0
tp6777
bS'DEGF'
p6778
tp6779
Rp6780
sS'CSITA5V'
p6781
g2
(g3
(S'S1'
p6782
I0
I1
tp6783
Rp6784
(I3
S'|'
p6785
NNNI1
I1
I0
tp6786
bg45
tp6787
Rp6788
sS'AORTERR1'
p6789
g2
(g3
(S'S5'
p6790
I0
I1
tp6791
Rp6792
(I3
S'|'
p6793
NNNI5
I1
I0
tp6794
bS'RADPS'
p6795
tp6796
Rp6797
sS'TCYLAFT3'
p6798
g2
(g3
(S'S4'
p6799
I0
I1
tp6800
Rp6801
(I3
S'|'
p6802
NNNI4
I1
I0
tp6803
bS'DEGF'
p6804
tp6805
Rp6806
sS'TCYLAFT2'
p6807
g2
(g3
(S'S4'
p6808
I0
I1
tp6809
Rp6810
(I3
S'|'
p6811
NNNI4
I1
I0
tp6812
bS'DEGF'
p6813
tp6814
Rp6815
sS'OOBTHR06'
p6816
g2
(g3
(S'S4'
p6817
I0
I1
tp6818
Rp6819
(I3
S'|'
p6820
NNNI4
I1
I0
tp6821
bS'DEGF'
p6822
tp6823
Rp6824
sS'4LLL1AT'
p6825
g2
(g3
(S'S4'
p6826
I0
I1
tp6827
Rp6828
(I3
S'|'
p6829
NNNI4
I1
I0
tp6830
bS'DEGF'
p6831
tp6832
Rp6833
sS'OOBTHR04'
p6834
g2
(g3
(S'S4'
p6835
I0
I1
tp6836
Rp6837
(I3
S'|'
p6838
NNNI4
I1
I0
tp6839
bS'DEGF'
p6840
tp6841
Rp6842
sS'4HPOSBRO'
p6843
g2
(g3
(S'S3'
p6844
I0
I1
tp6845
Rp6846
(I3
S'|'
p6847
NNNI3
I1
I0
tp6848
bS'DEG'
p6849
tp6850
Rp6851
sS'EOESAT2C'
p6852
g2
(g3
(S'S4'
p6853
I0
I1
tp6854
Rp6855
(I3
S'|'
p6856
NNNI4
I1
I0
tp6857
bS'DEGF'
p6858
tp6859
Rp6860
sS'AORTERR3'
p6861
g2
(g3
(S'S5'
p6862
I0
I1
tp6863
Rp6864
(I3
S'|'
p6865
NNNI5
I1
I0
tp6866
bS'RADPS'
p6867
tp6868
Rp6869
sS'PR3TV01T'
p6870
g2
(g3
(S'S4'
p6871
I0
I1
tp6872
Rp6873
(I3
S'|'
p6874
NNNI4
I1
I0
tp6875
bS'DEGF'
p6876
tp6877
Rp6878
sS'TBOLTCUT'
p6879
g2
(g3
(S'S4'
p6880
I0
I1
tp6881
Rp6882
(I3
S'|'
p6883
NNNI4
I1
I0
tp6884
bS'DEGF'
p6885
tp6886
Rp6887
sS'AOACYAN4'
p6888
g2
(g3
(S'S4'
p6889
I0
I1
tp6890
Rp6891
(I3
S'|'
p6892
NNNI4
I1
I0
tp6893
bS'ASEC'
p6894
tp6895
Rp6896
sS'AOACYAN5'
p6897
g2
(g3
(S'S4'
p6898
I0
I1
tp6899
Rp6900
(I3
S'|'
p6901
NNNI4
I1
I0
tp6902
bS'ASEC'
p6903
tp6904
Rp6905
sS'AOACYAN6'
p6906
g2
(g3
(S'S4'
p6907
I0
I1
tp6908
Rp6909
(I3
S'|'
p6910
NNNI4
I1
I0
tp6911
bS'ASEC'
p6912
tp6913
Rp6914
sS'AFLCAAH'
p6915
g2
(g3
(S'S1'
p6916
I0
I1
tp6917
Rp6918
(I3
S'|'
p6919
NNNI1
I1
I0
tp6920
bg45
tp6921
Rp6922
sS'AFSSPC2V'
p6923
g2
(g3
(S'S1'
p6924
I0
I1
tp6925
Rp6926
(I3
S'|'
p6927
NNNI1
I1
I0
tp6928
bg45
tp6929
Rp6930
sS'1MAHCBT'
p6931
g2
(g3
(S'S4'
p6932
I0
I1
tp6933
Rp6934
(I3
S'|'
p6935
NNNI4
I1
I0
tp6936
bS'DEGC'
p6937
tp6938
Rp6939
sS'AFLC11AI'
p6940
g2
(g3
(S'S4'
p6941
I0
I1
tp6942
Rp6943
(I3
S'|'
p6944
NNNI4
I1
I0
tp6945
bS'MAMP'
p6946
tp6947
Rp6948
sS'AOACYAN3'
p6949
g2
(g3
(S'S4'
p6950
I0
I1
tp6951
Rp6952
(I3
S'|'
p6953
NNNI4
I1
I0
tp6954
bS'ASEC'
p6955
tp6956
Rp6957
sS'TFSSBKT1'
p6958
g2
(g3
(S'S4'
p6959
I0
I1
tp6960
Rp6961
(I3
S'|'
p6962
NNNI4
I1
I0
tp6963
bS'DEGF'
p6964
tp6965
Rp6966
sS'PLAED4CT'
p6967
g2
(g3
(S'S4'
p6968
I0
I1
tp6969
Rp6970
(I3
S'|'
p6971
NNNI4
I1
I0
tp6972
bS'DEGF'
p6973
tp6974
Rp6975
sS'3SFLXAST'
p6976
g2
(g3
(S'S4'
p6977
I0
I1
tp6978
Rp6979
(I3
S'|'
p6980
NNNI4
I1
I0
tp6981
bS'DEGC'
p6982
tp6983
Rp6984
sS'6RWNLTQ1'
p6985
g2
(g3
(S'S4'
p6986
I0
I1
tp6987
Rp6988
(I3
S'|'
p6989
NNNI4
I1
I0
tp6990
bS'FTLB'
p6991
tp6992
Rp6993
sS'6RWNLTQ2'
p6994
g2
(g3
(S'S4'
p6995
I0
I1
tp6996
Rp6997
(I3
S'|'
p6998
NNNI4
I1
I0
tp6999
bS'FTLB'
p7000
tp7001
Rp7002
sS'6RWNLTQ3'
p7003
g2
(g3
(S'S4'
p7004
I0
I1
tp7005
Rp7006
(I3
S'|'
p7007
NNNI4
I1
I0
tp7008
bS'FTLB'
p7009
tp7010
Rp7011
sS'6RWNLTQ4'
p7012
g2
(g3
(S'S4'
p7013
I0
I1
tp7014
Rp7015
(I3
S'|'
p7016
NNNI4
I1
I0
tp7017
bS'FTLB'
p7018
tp7019
Rp7020
sS'4RT563T'
p7021
g2
(g3
(S'S4'
p7022
I0
I1
tp7023
Rp7024
(I3
S'|'
p7025
NNNI4
I1
I0
tp7026
bS'DEGF'
p7027
tp7028
Rp7029
sS'6RWNLTQ6'
p7030
g2
(g3
(S'S4'
p7031
I0
I1
tp7032
Rp7033
(I3
S'|'
p7034
NNNI4
I1
I0
tp7035
bS'FTLB'
p7036
tp7037
Rp7038
sS'CSITB15V'
p7039
g2
(g3
(S'S1'
p7040
I0
I1
tp7041
Rp7042
(I3
S'|'
p7043
NNNI1
I1
I0
tp7044
bg45
tp7045
Rp7046
sS'EB2CI'
p7047
g2
(g3
(S'S3'
p7048
I0
I1
tp7049
Rp7050
(I3
S'|'
p7051
NNNI3
I1
I0
tp7052
bS'AMP'
p7053
tp7054
Rp7055
sS'AORESZ2_1'
p7056
g2
(g3
(S'S3'
p7057
I0
I1
tp7058
Rp7059
(I3
S'|'
p7060
NNNI3
I1
I0
tp7061
bS'RAD'
p7062
tp7063
Rp7064
sS'1DAHBVO'
p7065
g2
(g3
(S'S1'
p7066
I0
I1
tp7067
Rp7068
(I3
S'|'
p7069
NNNI1
I1
I0
tp7070
bg45
tp7071
Rp7072
sS'PLAED1ET'
p7073
g2
(g3
(S'S4'
p7074
I0
I1
tp7075
Rp7076
(I3
S'|'
p7077
NNNI4
I1
I0
tp7078
bS'DEGF'
p7079
tp7080
Rp7081
sS'PR1TV01T'
p7082
g2
(g3
(S'S4'
p7083
I0
I1
tp7084
Rp7085
(I3
S'|'
p7086
NNNI4
I1
I0
tp7087
bS'DEGF'
p7088
tp7089
Rp7090
sS'CSSR2CBV'
p7091
g2
(g3
(S'S1'
p7092
I0
I1
tp7093
Rp7094
(I3
S'|'
p7095
NNNI1
I1
I0
tp7096
bg45
tp7097
Rp7098
sS'4RT707T'
p7099
g2
(g3
(S'S4'
p7100
I0
I1
tp7101
Rp7102
(I3
S'|'
p7103
NNNI4
I1
I0
tp7104
bS'DEGF'
p7105
tp7106
Rp7107
sS'PLINE05T'
p7108
g2
(g3
(S'S4'
p7109
I0
I1
tp7110
Rp7111
(I3
S'|'
p7112
NNNI4
I1
I0
tp7113
bS'DEGF'
p7114
tp7115
Rp7116
sS'PLAED3AT'
p7117
g2
(g3
(S'S4'
p7118
I0
I1
tp7119
Rp7120
(I3
S'|'
p7121
NNNI4
I1
I0
tp7122
bS'DEGF'
p7123
tp7124
Rp7125
sS'TAPE2PST'
p7126
g2
(g3
(S'S4'
p7127
I0
I1
tp7128
Rp7129
(I3
S'|'
p7130
NNNI4
I1
I0
tp7131
bS'DEGF'
p7132
tp7133
Rp7134
sS'4PRT4BT'
p7135
g2
(g3
(S'S4'
p7136
I0
I1
tp7137
Rp7138
(I3
S'|'
p7139
NNNI4
I1
I0
tp7140
bS'DEGF'
p7141
tp7142
Rp7143
sS'1DAHHAVO'
p7144
g2
(g3
(S'S1'
p7145
I0
I1
tp7146
Rp7147
(I3
S'|'
p7148
NNNI1
I1
I0
tp7149
bg45
tp7150
Rp7151
sS'ASPEFSW1B'
p7152
g2
(g3
(S'S3'
p7153
I0
I1
tp7154
Rp7155
(I3
S'|'
p7156
NNNI3
I1
I0
tp7157
bS'DEG'
p7158
tp7159
Rp7160
sS'CUSOB28V'
p7161
g2
(g3
(S'S1'
p7162
I0
I1
tp7163
Rp7164
(I3
S'|'
p7165
NNNI1
I1
I0
tp7166
bg45
tp7167
Rp7168
sS'TMP_FEP1_ACTEL'
p7169
g299
sS'4RT555T'
p7170
g2
(g3
(S'S4'
p7171
I0
I1
tp7172
Rp7173
(I3
S'|'
p7174
NNNI4
I1
I0
tp7175
bS'DEGF'
p7176
tp7177
Rp7178
sS'AORESY7'
p7179
g2
(g3
(S'S3'
p7180
I0
I1
tp7181
Rp7182
(I3
S'|'
p7183
NNNI3
I1
I0
tp7184
bS'RAD'
p7185
tp7186
Rp7187
sS'AOSPBCS3B'
p7188
g2
(g3
(S'S4'
p7189
I0
I1
tp7190
Rp7191
(I3
S'|'
p7192
NNNI4
I1
I0
tp7193
bS'MAMP'
p7194
tp7195
Rp7196
sS'PXTANKIP'
p7197
g2
(g3
(S'S4'
p7198
I0
I1
tp7199
Rp7200
(I3
S'|'
p7201
NNNI4
I1
I0
tp7202
bS'PSIA'
p7203
tp7204
Rp7205
sS'3TSCPOS'
p7206
S'TSCSTEP'
p7207
sS'AORESY4'
p7208
g2
(g3
(S'S3'
p7209
I0
I1
tp7210
Rp7211
(I3
S'|'
p7212
NNNI3
I1
I0
tp7213
bS'RAD'
p7214
tp7215
Rp7216
sS'ARWA5BT'
p7217
g2
(g3
(S'S4'
p7218
I0
I1
tp7219
Rp7220
(I3
S'|'
p7221
NNNI4
I1
I0
tp7222
bS'DEGF'
p7223
tp7224
Rp7225
sS'CSITB5V'
p7226
g2
(g3
(S'S1'
p7227
I0
I1
tp7228
Rp7229
(I3
S'|'
p7230
NNNI1
I1
I0
tp7231
bg45
tp7232
Rp7233
sS'2CHTRPZT'
p7234
g2
(g3
(S'S4'
p7235
I0
I1
tp7236
Rp7237
(I3
S'|'
p7238
NNNI4
I1
I0
tp7239
bS'DEGC'
p7240
tp7241
Rp7242
sS'4RT579T'
p7243
g2
(g3
(S'S4'
p7244
I0
I1
tp7245
Rp7246
(I3
S'|'
p7247
NNNI4
I1
I0
tp7248
bS'DEGF'
p7249
tp7250
Rp7251
sS'TCM_USO'
p7252
g2
(g3
(S'S4'
p7253
I0
I1
tp7254
Rp7255
(I3
S'|'
p7256
NNNI4
I1
I0
tp7257
bS'DEGF'
p7258
tp7259
Rp7260
sS'PLINE13T'
p7261
g2
(g3
(S'S4'
p7262
I0
I1
tp7263
Rp7264
(I3
S'|'
p7265
NNNI4
I1
I0
tp7266
bS'DEGF'
p7267
tp7268
Rp7269
sS'AOATTER1'
p7270
g2
(g3
(S'S3'
p7271
I0
I1
tp7272
Rp7273
(I3
S'|'
p7274
NNNI3
I1
I0
tp7275
bS'RAD'
p7276
tp7277
Rp7278
sS'AOATTER2'
p7279
g2
(g3
(S'S3'
p7280
I0
I1
tp7281
Rp7282
(I3
S'|'
p7283
NNNI3
I1
I0
tp7284
bS'RAD'
p7285
tp7286
Rp7287
sS'6RWNLTQ5'
p7288
g2
(g3
(S'S4'
p7289
I0
I1
tp7290
Rp7291
(I3
S'|'
p7292
NNNI4
I1
I0
tp7293
bS'FTLB'
p7294
tp7295
Rp7296
sS'TMZLGABM'
p7297
g2
(g3
(S'S4'
p7298
I0
I1
tp7299
Rp7300
(I3
S'|'
p7301
NNNI4
I1
I0
tp7302
bS'DEGF'
p7303
tp7304
Rp7305
sS'AOCSSI2'
p7306
g2
(g3
(S'S4'
p7307
I0
I1
tp7308
Rp7309
(I3
S'|'
p7310
NNNI4
I1
I0
tp7311
bS'MAMP'
p7312
tp7313
Rp7314
sS'2P24VAVL'
p7315
g2
(g3
(S'S3'
p7316
I0
I1
tp7317
Rp7318
(I3
S'|'
p7319
NNNI3
I1
I0
tp7320
bS'VDC'
p7321
tp7322
Rp7323
sS'AWD5TQI'
p7324
g2
(g3
(S'S3'
p7325
I0
I1
tp7326
Rp7327
(I3
S'|'
p7328
NNNI3
I1
I0
tp7329
bS'AMP'
p7330
tp7331
Rp7332
sS'AORWBTQ5'
p7333
g2
(g3
(S'S4'
p7334
I0
I1
tp7335
Rp7336
(I3
S'|'
p7337
NNNI4
I1
I0
tp7338
bS'FTLB'
p7339
tp7340
Rp7341
sS'OHRTHR41'
p7342
g2
(g3
(S'S4'
p7343
I0
I1
tp7344
Rp7345
(I3
S'|'
p7346
NNNI4
I1
I0
tp7347
bS'DEGF'
p7348
tp7349
Rp7350
sS'ECNV1V'
p7351
g2
(g3
(S'S1'
p7352
I0
I1
tp7353
Rp7354
(I3
S'|'
p7355
NNNI1
I1
I0
tp7356
bg45
tp7357
Rp7358
sS'EEPA5V'
p7359
g2
(g3
(S'S1'
p7360
I0
I1
tp7361
Rp7362
(I3
S'|'
p7363
NNNI1
I1
I0
tp7364
bg45
tp7365
Rp7366
sS'4RT585T'
p7367
g2
(g3
(S'S4'
p7368
I0
I1
tp7369
Rp7370
(I3
S'|'
p7371
NNNI4
I1
I0
tp7372
bS'DEGF'
p7373
tp7374
Rp7375
sS'PLAED2BT'
p7376
g2
(g3
(S'S4'
p7377
I0
I1
tp7378
Rp7379
(I3
S'|'
p7380
NNNI4
I1
I0
tp7381
bS'DEGF'
p7382
tp7383
Rp7384
sS'AAOTH2MT'
p7385
g2
(g3
(S'S4'
p7386
I0
I1
tp7387
Rp7388
(I3
S'|'
p7389
NNNI4
I1
I0
tp7390
bS'DEGF'
p7391
tp7392
Rp7393
sS'OHRTHR02'
p7394
g2
(g3
(S'S4'
p7395
I0
I1
tp7396
Rp7397
(I3
S'|'
p7398
NNNI4
I1
I0
tp7399
bS'DEGF'
p7400
tp7401
Rp7402
sS'4HLL1BT'
p7403
g2
(g3
(S'S4'
p7404
I0
I1
tp7405
Rp7406
(I3
S'|'
p7407
NNNI4
I1
I0
tp7408
bS'DEGF'
p7409
tp7410
Rp7411
sS'AORESY1_1'
p7412
g2
(g3
(S'S3'
p7413
I0
I1
tp7414
Rp7415
(I3
S'|'
p7416
NNNI3
I1
I0
tp7417
bS'RAD'
p7418
tp7419
Rp7420
sS'OHRTHR07'
p7421
g2
(g3
(S'S4'
p7422
I0
I1
tp7423
Rp7424
(I3
S'|'
p7425
NNNI4
I1
I0
tp7426
bS'DEGF'
p7427
tp7428
Rp7429
sS'OHRTHR06'
p7430
g2
(g3
(S'S4'
p7431
I0
I1
tp7432
Rp7433
(I3
S'|'
p7434
NNNI4
I1
I0
tp7435
bS'DEGF'
p7436
tp7437
Rp7438
sS'OHRTHR09'
p7439
g2
(g3
(S'S4'
p7440
I0
I1
tp7441
Rp7442
(I3
S'|'
p7443
NNNI4
I1
I0
tp7444
bS'DEGF'
p7445
tp7446
Rp7447
sS'1WRBT'
p7448
g2
(g3
(S'S4'
p7449
I0
I1
tp7450
Rp7451
(I3
S'|'
p7452
NNNI4
I1
I0
tp7453
bS'DEGC'
p7454
tp7455
Rp7456
sS'AIRU1VFT'
p7457
g2
(g3
(S'S4'
p7458
I0
I1
tp7459
Rp7460
(I3
S'|'
p7461
NNNI4
I1
I0
tp7462
bS'DEGF'
p7463
tp7464
Rp7465
sS'AORESZ6_6'
p7466
g2
(g3
(S'S3'
p7467
I0
I1
tp7468
Rp7469
(I3
S'|'
p7470
NNNI3
I1
I0
tp7471
bS'RAD'
p7472
tp7473
Rp7474
sS'AORESZ6_7'
p7475
g2
(g3
(S'S3'
p7476
I0
I1
tp7477
Rp7478
(I3
S'|'
p7479
NNNI3
I1
I0
tp7480
bS'RAD'
p7481
tp7482
Rp7483
sS'AORESZ6_4'
p7484
g2
(g3
(S'S3'
p7485
I0
I1
tp7486
Rp7487
(I3
S'|'
p7488
NNNI3
I1
I0
tp7489
bS'RAD'
p7490
tp7491
Rp7492
sS'AOADBCH1A_NBG'
p7493
g2
(g3
(S'S3'
p7494
I0
I1
tp7495
Rp7496
(I3
S'|'
p7497
NNNI3
I1
I0
tp7498
bS'DEG'
p7499
tp7500
Rp7501
sS'AORESZ6_2'
p7502
g2
(g3
(S'S3'
p7503
I0
I1
tp7504
Rp7505
(I3
S'|'
p7506
NNNI3
I1
I0
tp7507
bS'RAD'
p7508
tp7509
Rp7510
sS'AORESZ6_3'
p7511
g2
(g3
(S'S3'
p7512
I0
I1
tp7513
Rp7514
(I3
S'|'
p7515
NNNI3
I1
I0
tp7516
bS'RAD'
p7517
tp7518
Rp7519
sS'AOSCVEL2'
p7520
g2
(g3
(S'S4'
p7521
I0
I1
tp7522
Rp7523
(I3
S'|'
p7524
NNNI4
I1
I0
tp7525
bS'KMPS'
p7526
tp7527
Rp7528
sS'3SFLXBST'
p7529
g2
(g3
(S'S4'
p7530
I0
I1
tp7531
Rp7532
(I3
S'|'
p7533
NNNI4
I1
I0
tp7534
bS'DEGC'
p7535
tp7536
Rp7537
sS'4RT570T'
p7538
g2
(g3
(S'S4'
p7539
I0
I1
tp7540
Rp7541
(I3
S'|'
p7542
NNNI4
I1
I0
tp7543
bS'DEGF'
p7544
tp7545
Rp7546
sS'3FABRAAT'
p7547
g2
(g3
(S'S4'
p7548
I0
I1
tp7549
Rp7550
(I3
S'|'
p7551
NNNI4
I1
I0
tp7552
bS'DEGC'
p7553
tp7554
Rp7555
sS'TASPPCM'
p7556
g2
(g3
(S'S4'
p7557
I0
I1
tp7558
Rp7559
(I3
S'|'
p7560
NNNI4
I1
I0
tp7561
bS'DEGF'
p7562
tp7563
Rp7564
sS'ELBI'
p7565
g2
(g3
(S'S3'
p7566
I0
I1
tp7567
Rp7568
(I3
S'|'
p7569
NNNI3
I1
I0
tp7570
bS'AMP'
p7571
tp7572
Rp7573
sS'1CBBT'
p7574
g2
(g3
(S'S4'
p7575
I0
I1
tp7576
Rp7577
(I3
S'|'
p7578
NNNI4
I1
I0
tp7579
bS'DEGC'
p7580
tp7581
Rp7582
sS'AORESZ6_8'
p7583
g2
(g3
(S'S3'
p7584
I0
I1
tp7585
Rp7586
(I3
S'|'
p7587
NNNI3
I1
I0
tp7588
bS'RAD'
p7589
tp7590
Rp7591
sS'TMP_FEP0_ACTEL'
p7592
g299
sS'AOSARES2'
p7593
g2
(g3
(S'S3'
p7594
I0
I1
tp7595
Rp7596
(I3
S'|'
p7597
NNNI3
I1
I0
tp7598
bS'DEG'
p7599
tp7600
Rp7601
sS'AORESY5_1'
p7602
g2
(g3
(S'S3'
p7603
I0
I1
tp7604
Rp7605
(I3
S'|'
p7606
NNNI3
I1
I0
tp7607
bS'RAD'
p7608
tp7609
Rp7610
sS'AOSARES1'
p7611
g2
(g3
(S'S3'
p7612
I0
I1
tp7613
Rp7614
(I3
S'|'
p7615
NNNI3
I1
I0
tp7616
bS'DEG'
p7617
tp7618
Rp7619
sS'4RT591T'
p7620
g2
(g3
(S'S4'
p7621
I0
I1
tp7622
Rp7623
(I3
S'|'
p7624
NNNI4
I1
I0
tp7625
bS'DEGF'
p7626
tp7627
Rp7628
sS'3LDRTPOS'
p7629
g7207
sS'AIRU1G1I'
p7630
g2
(g3
(S'S4'
p7631
I0
I1
tp7632
Rp7633
(I3
S'|'
p7634
NNNI4
I1
I0
tp7635
bS'MAMP'
p7636
tp7637
Rp7638
sS'4PRTAV'
p7639
g2
(g3
(S'S3'
p7640
I0
I1
tp7641
Rp7642
(I3
S'|'
p7643
NNNI3
I1
I0
tp7644
bS'VDC'
p7645
tp7646
Rp7647
sS'TMZP_MY'
p7648
g2
(g3
(S'S4'
p7649
I0
I1
tp7650
Rp7651
(I3
S'|'
p7652
NNNI4
I1
I0
tp7653
bS'DEGF'
p7654
tp7655
Rp7656
sS'AOCMDRT1'
p7657
g2
(g3
(S'S5'
p7658
I0
I1
tp7659
Rp7660
(I3
S'|'
p7661
NNNI5
I1
I0
tp7662
bS'RADPS'
p7663
tp7664
Rp7665
sS'CPCA15V'
p7666
g2
(g3
(S'S1'
p7667
I0
I1
tp7668
Rp7669
(I3
S'|'
p7670
NNNI1
I1
I0
tp7671
bg45
tp7672
Rp7673
sS'TMYHNG'
p7674
g2
(g3
(S'S4'
p7675
I0
I1
tp7676
Rp7677
(I3
S'|'
p7678
NNNI4
I1
I0
tp7679
bS'DEGF'
p7680
tp7681
Rp7682
sS'PLAEV3BT'
p7683
g2
(g3
(S'S4'
p7684
I0
I1
tp7685
Rp7686
(I3
S'|'
p7687
NNNI4
I1
I0
tp7688
bS'DEGF'
p7689
tp7690
Rp7691
sS'1DEICBCU'
p7692
g2
(g3
(S'S3'
p7693
I0
I1
tp7694
Rp7695
(I3
S'|'
p7696
NNNI3
I1
I0
tp7697
bS'AMP'
p7698
tp7699
Rp7700
sS'PLINE12T'
p7701
g2
(g3
(S'S4'
p7702
I0
I1
tp7703
Rp7704
(I3
S'|'
p7705
NNNI4
I1
I0
tp7706
bS'DEGF'
p7707
tp7708
Rp7709
sS'AIRU2VFT'
p7710
g2
(g3
(S'S4'
p7711
I0
I1
tp7712
Rp7713
(I3
S'|'
p7714
NNNI4
I1
I0
tp7715
bS'DEGF'
p7716
tp7717
Rp7718
sS'EOESAT1C'
p7719
g2
(g3
(S'S4'
p7720
I0
I1
tp7721
Rp7722
(I3
S'|'
p7723
NNNI4
I1
I0
tp7724
bS'DEGF'
p7725
tp7726
Rp7727
sS'C28VMONB'
p7728
g2
(g3
(S'S1'
p7729
I0
I1
tp7730
Rp7731
(I3
S'|'
p7732
NNNI1
I1
I0
tp7733
bg45
tp7734
Rp7735
sS'AOADBCH2A_NBG'
p7736
g2
(g3
(S'S3'
p7737
I0
I1
tp7738
Rp7739
(I3
S'|'
p7740
NNNI3
I1
I0
tp7741
bS'DEG'
p7742
tp7743
Rp7744
sS'AOADACH2A_PCAD'
p7745
g2
(g3
(S'S3'
p7746
I0
I1
tp7747
Rp7748
(I3
S'|'
p7749
NNNI3
I1
I0
tp7750
bS'DEG'
p7751
tp7752
Rp7753
sS'3TSPZDET'
p7754
g2
(g3
(S'S4'
p7755
I0
I1
tp7756
Rp7757
(I3
S'|'
p7758
NNNI4
I1
I0
tp7759
bS'DEGC'
p7760
tp7761
Rp7762
sS'AORWINT5'
p7763
g2
(g3
(S'S4'
p7764
I0
I1
tp7765
Rp7766
(I3
S'|'
p7767
NNNI4
I1
I0
tp7768
bS'MSEC'
p7769
tp7770
Rp7771
sS'TPYSADA'
p7772
g2
(g3
(S'S4'
p7773
I0
I1
tp7774
Rp7775
(I3
S'|'
p7776
NNNI4
I1
I0
tp7777
bS'DEGF'
p7778
tp7779
Rp7780
sS'EORTDMN15D'
p7781
g2
(g3
(S'S4'
p7782
I0
I1
tp7783
Rp7784
(I3
S'|'
p7785
NNNI4
I1
I0
tp7786
bS'DEGF'
p7787
tp7788
Rp7789
sS'PLAED4DT'
p7790
g2
(g3
(S'S4'
p7791
I0
I1
tp7792
Rp7793
(I3
S'|'
p7794
NNNI4
I1
I0
tp7795
bS'DEGF'
p7796
tp7797
Rp7798
sS'PHETANKP'
p7799
g2
(g3
(S'S4'
p7800
I0
I1
tp7801
Rp7802
(I3
S'|'
p7803
NNNI4
I1
I0
tp7804
bS'PSIA'
p7805
tp7806
Rp7807
sS'PLINE08T'
p7808
g2
(g3
(S'S4'
p7809
I0
I1
tp7810
Rp7811
(I3
S'|'
p7812
NNNI4
I1
I0
tp7813
bS'DEGF'
p7814
tp7815
Rp7816
sS'TPC_FSSE'
p7817
g2
(g3
(S'S4'
p7818
I0
I1
tp7819
Rp7820
(I3
S'|'
p7821
NNNI4
I1
I0
tp7822
bS'DEGF'
p7823
tp7824
Rp7825
sS'AFLC12BI'
p7826
g2
(g3
(S'S4'
p7827
I0
I1
tp7828
Rp7829
(I3
S'|'
p7830
NNNI4
I1
I0
tp7831
bS'MAMP'
p7832
tp7833
Rp7834
sS'CIUA5V'
p7835
g2
(g3
(S'S1'
p7836
I0
I1
tp7837
Rp7838
(I3
S'|'
p7839
NNNI1
I1
I0
tp7840
bg45
tp7841
Rp7842
sS'AFLC14AI'
p7843
g2
(g3
(S'S4'
p7844
I0
I1
tp7845
Rp7846
(I3
S'|'
p7847
NNNI4
I1
I0
tp7848
bS'MAMP'
p7849
tp7850
Rp7851
sS'TSCIUSF1'
p7852
g2
(g3
(S'S4'
p7853
I0
I1
tp7854
Rp7855
(I3
S'|'
p7856
NNNI4
I1
I0
tp7857
bS'DEGF'
p7858
tp7859
Rp7860
sS'3FAPSAT'
p7861
g2
(g3
(S'S4'
p7862
I0
I1
tp7863
Rp7864
(I3
S'|'
p7865
NNNI4
I1
I0
tp7866
bS'DEGC'
p7867
tp7868
Rp7869
sS'AOMANANG'
p7870
g2
(g3
(S'S3'
p7871
I0
I1
tp7872
Rp7873
(I3
S'|'
p7874
NNNI3
I1
I0
tp7875
bS'RAD'
p7876
tp7877
Rp7878
sS'3TTRALCT'
p7879
g2
(g3
(S'S4'
p7880
I0
I1
tp7881
Rp7882
(I3
S'|'
p7883
NNNI4
I1
I0
tp7884
bS'DEGC'
p7885
tp7886
Rp7887
sS'2P15VBVL'
p7888
g2
(g3
(S'S3'
p7889
I0
I1
tp7890
Rp7891
(I3
S'|'
p7892
NNNI3
I1
I0
tp7893
bS'VDC'
p7894
tp7895
Rp7896
sS'AORESZ4'
p7897
g2
(g3
(S'S3'
p7898
I0
I1
tp7899
Rp7900
(I3
S'|'
p7901
NNNI3
I1
I0
tp7902
bS'RAD'
p7903
tp7904
Rp7905
sS'AORESZ3'
p7906
g2
(g3
(S'S3'
p7907
I0
I1
tp7908
Rp7909
(I3
S'|'
p7910
NNNI3
I1
I0
tp7911
bS'RAD'
p7912
tp7913
Rp7914
sS'AORESZ0'
p7915
g2
(g3
(S'S3'
p7916
I0
I1
tp7917
Rp7918
(I3
S'|'
p7919
NNNI3
I1
I0
tp7920
bS'RAD'
p7921
tp7922
Rp7923
sS'AORWNTQ4'
p7924
g2
(g3
(S'S4'
p7925
I0
I1
tp7926
Rp7927
(I3
S'|'
p7928
NNNI4
I1
I0
tp7929
bS'FTLB'
p7930
tp7931
Rp7932
sS'AORWNTQ5'
p7933
g2
(g3
(S'S4'
p7934
I0
I1
tp7935
Rp7936
(I3
S'|'
p7937
NNNI4
I1
I0
tp7938
bS'FTLB'
p7939
tp7940
Rp7941
sS'AORWNTQ6'
p7942
g2
(g3
(S'S4'
p7943
I0
I1
tp7944
Rp7945
(I3
S'|'
p7946
NNNI4
I1
I0
tp7947
bS'FTLB'
p7948
tp7949
Rp7950
sS'TMP_FEP1_MONG'
p7951
g299
sS'AORWMC6_1'
p7952
g2
(g3
(S'S7'
p7953
I0
I1
tp7954
Rp7955
(I3
S'|'
p7956
NNNI7
I1
I0
tp7957
bS'FTLBSEC'
p7958
tp7959
Rp7960
sS'AORWNTQ1'
p7961
g2
(g3
(S'S4'
p7962
I0
I1
tp7963
Rp7964
(I3
S'|'
p7965
NNNI4
I1
I0
tp7966
bS'FTLB'
p7967
tp7968
Rp7969
sS'AORWNTQ2'
p7970
g2
(g3
(S'S4'
p7971
I0
I1
tp7972
Rp7973
(I3
S'|'
p7974
NNNI4
I1
I0
tp7975
bS'FTLB'
p7976
tp7977
Rp7978
sS'AORWNTQ3'
p7979
g2
(g3
(S'S4'
p7980
I0
I1
tp7981
Rp7982
(I3
S'|'
p7983
NNNI4
I1
I0
tp7984
bS'FTLB'
p7985
tp7986
Rp7987
sS'AOSPBCS4B'
p7988
g2
(g3
(S'S4'
p7989
I0
I1
tp7990
Rp7991
(I3
S'|'
p7992
NNNI4
I1
I0
tp7993
bS'MAMP'
p7994
tp7995
Rp7996
sS'4RT567T'
p7997
g2
(g3
(S'S4'
p7998
I0
I1
tp7999
Rp8000
(I3
S'|'
p8001
NNNI4
I1
I0
tp8002
bS'DEGF'
p8003
tp8004
Rp8005
sS'4PRT1BT'
p8006
g2
(g3
(S'S4'
p8007
I0
I1
tp8008
Rp8009
(I3
S'|'
p8010
NNNI4
I1
I0
tp8011
bS'DEGF'
p8012
tp8013
Rp8014
sS'6RATE2'
p8015
g2
(g3
(S'S5'
p8016
I0
I1
tp8017
Rp8018
(I3
S'|'
p8019
NNNI5
I1
I0
tp8020
bS'RADPS'
p8021
tp8022
Rp8023
sS'6RATE3'
p8024
g2
(g3
(S'S5'
p8025
I0
I1
tp8026
Rp8027
(I3
S'|'
p8028
NNNI5
I1
I0
tp8029
bS'RADPS'
p8030
tp8031
Rp8032
sS'6RATE1'
p8033
g2
(g3
(S'S5'
p8034
I0
I1
tp8035
Rp8036
(I3
S'|'
p8037
NNNI5
I1
I0
tp8038
bS'RADPS'
p8039
tp8040
Rp8041
sS'6SAEST1'
p8042
g2
(g3
(S'S3'
p8043
I0
I1
tp8044
Rp8045
(I3
S'|'
p8046
NNNI3
I1
I0
tp8047
bS'RAD'
p8048
tp8049
Rp8050
sS'AORWMC1'
p8051
g2
(g3
(S'S7'
p8052
I0
I1
tp8053
Rp8054
(I3
S'|'
p8055
NNNI7
I1
I0
tp8056
bS'FTLBSEC'
p8057
tp8058
Rp8059
sS'6SAEST2'
p8060
g2
(g3
(S'S3'
p8061
I0
I1
tp8062
Rp8063
(I3
S'|'
p8064
NNNI3
I1
I0
tp8065
bS'RAD'
p8066
tp8067
Rp8068
sS'AORWMC4'
p8069
g2
(g3
(S'S7'
p8070
I0
I1
tp8071
Rp8072
(I3
S'|'
p8073
NNNI7
I1
I0
tp8074
bS'FTLBSEC'
p8075
tp8076
Rp8077
sS'AORWMC5'
p8078
g2
(g3
(S'S7'
p8079
I0
I1
tp8080
Rp8081
(I3
S'|'
p8082
NNNI7
I1
I0
tp8083
bS'FTLBSEC'
p8084
tp8085
Rp8086
sS'6ALPANG'
p8087
g2
(g3
(S'S3'
p8088
I0
I1
tp8089
Rp8090
(I3
S'|'
p8091
NNNI3
I1
I0
tp8092
bS'DEG'
p8093
tp8094
Rp8095
sS'TB1T2'
p8096
g2
(g3
(S'S4'
p8097
I0
I1
tp8098
Rp8099
(I3
S'|'
p8100
NNNI4
I1
I0
tp8101
bS'DEGF'
p8102
tp8103
Rp8104
sS'PM1THV2T'
p8105
g2
(g3
(S'S4'
p8106
I0
I1
tp8107
Rp8108
(I3
S'|'
p8109
NNNI4
I1
I0
tp8110
bS'DEGF'
p8111
tp8112
Rp8113
sS'EB3DI'
p8114
g2
(g3
(S'S3'
p8115
I0
I1
tp8116
Rp8117
(I3
S'|'
p8118
NNNI3
I1
I0
tp8119
bS'AMP'
p8120
tp8121
Rp8122
sS'AOSCPOS1'
p8123
g2
(g3
(S'S2'
p8124
I0
I1
tp8125
Rp8126
(I3
S'|'
p8127
NNNI2
I1
I0
tp8128
bS'KM'
p8129
tp8130
Rp8131
sS'AOSCPOS2'
p8132
g2
(g3
(S'S2'
p8133
I0
I1
tp8134
Rp8135
(I3
S'|'
p8136
NNNI2
I1
I0
tp8137
bS'KM'
p8138
tp8139
Rp8140
sS'4RT569T'
p8141
g2
(g3
(S'S4'
p8142
I0
I1
tp8143
Rp8144
(I3
S'|'
p8145
NNNI4
I1
I0
tp8146
bS'DEGF'
p8147
tp8148
Rp8149
sS'4RT588T'
p8150
g2
(g3
(S'S4'
p8151
I0
I1
tp8152
Rp8153
(I3
S'|'
p8154
NNNI4
I1
I0
tp8155
bS'DEGF'
p8156
tp8157
Rp8158
sS'PCM01T'
p8159
g2
(g3
(S'S4'
p8160
I0
I1
tp8161
Rp8162
(I3
S'|'
p8163
NNNI4
I1
I0
tp8164
bS'DEGF'
p8165
tp8166
Rp8167
sS'4RT596T'
p8168
g2
(g3
(S'S4'
p8169
I0
I1
tp8170
Rp8171
(I3
S'|'
p8172
NNNI4
I1
I0
tp8173
bS'DEGF'
p8174
tp8175
Rp8176
sS'6SINTER3'
p8177
g2
(g3
(S'S3'
p8178
I0
I1
tp8179
Rp8180
(I3
S'|'
p8181
NNNI3
I1
I0
tp8182
bS'RAD'
p8183
tp8184
Rp8185
sS'AI1AX1Y'
p8186
g2
(g3
(S'S5'
p8187
I0
I1
tp8188
Rp8189
(I3
S'|'
p8190
NNNI5
I1
I0
tp8191
bS'DEGPS'
p8192
tp8193
Rp8194
sS'6SINTER1'
p8195
g2
(g3
(S'S3'
p8196
I0
I1
tp8197
Rp8198
(I3
S'|'
p8199
NNNI3
I1
I0
tp8200
bS'RAD'
p8201
tp8202
Rp8203
sS'OOBTHR52'
p8204
g2
(g3
(S'S4'
p8205
I0
I1
tp8206
Rp8207
(I3
S'|'
p8208
NNNI4
I1
I0
tp8209
bS'DEGF'
p8210
tp8211
Rp8212
sS'OOBTHR55'
p8213
g2
(g3
(S'S4'
p8214
I0
I1
tp8215
Rp8216
(I3
S'|'
p8217
NNNI4
I1
I0
tp8218
bS'DEGF'
p8219
tp8220
Rp8221
sS'EORTDMN13D'
p8222
g2
(g3
(S'S4'
p8223
I0
I1
tp8224
Rp8225
(I3
S'|'
p8226
NNNI4
I1
I0
tp8227
bS'DEGF'
p8228
tp8229
Rp8230
sS'OOBTHR57'
p8231
g2
(g3
(S'S4'
p8232
I0
I1
tp8233
Rp8234
(I3
S'|'
p8235
NNNI4
I1
I0
tp8236
bS'DEGF'
p8237
tp8238
Rp8239
sS'OOBTHR56'
p8240
g2
(g3
(S'S4'
p8241
I0
I1
tp8242
Rp8243
(I3
S'|'
p8244
NNNI4
I1
I0
tp8245
bS'DEGF'
p8246
tp8247
Rp8248
sS'OOBTHR59'
p8249
g2
(g3
(S'S4'
p8250
I0
I1
tp8251
Rp8252
(I3
S'|'
p8253
NNNI4
I1
I0
tp8254
bS'DEGF'
p8255
tp8256
Rp8257
sS'OOBTHR58'
p8258
g2
(g3
(S'S4'
p8259
I0
I1
tp8260
Rp8261
(I3
S'|'
p8262
NNNI4
I1
I0
tp8263
bS'DEGF'
p8264
tp8265
Rp8266
sS'PLINE14T'
p8267
g2
(g3
(S'S4'
p8268
I0
I1
tp8269
Rp8270
(I3
S'|'
p8271
NNNI4
I1
I0
tp8272
bS'DEGF'
p8273
tp8274
Rp8275
sS'1SSMYT'
p8276
g2
(g3
(S'S4'
p8277
I0
I1
tp8278
Rp8279
(I3
S'|'
p8280
NNNI4
I1
I0
tp8281
bS'DEGC'
p8282
tp8283
Rp8284
sS'CTXBV'
p8285
g2
(g3
(S'S1'
p8286
I0
I1
tp8287
Rp8288
(I3
S'|'
p8289
NNNI1
I1
I0
tp8290
bg45
tp8291
Rp8292
sS'4PRT2BT'
p8293
g2
(g3
(S'S4'
p8294
I0
I1
tp8295
Rp8296
(I3
S'|'
p8297
NNNI4
I1
I0
tp8298
bS'DEGF'
p8299
tp8300
Rp8301
sS'ARWA6BT'
p8302
g2
(g3
(S'S4'
p8303
I0
I1
tp8304
Rp8305
(I3
S'|'
p8306
NNNI4
I1
I0
tp8307
bS'DEGF'
p8308
tp8309
Rp8310
sS'4RT575T'
p8311
g2
(g3
(S'S4'
p8312
I0
I1
tp8313
Rp8314
(I3
S'|'
p8315
NNNI4
I1
I0
tp8316
bS'DEGF'
p8317
tp8318
Rp8319
sS'CPA1BPT'
p8320
g2
(g3
(S'S4'
p8321
I0
I1
tp8322
Rp8323
(I3
S'|'
p8324
NNNI4
I1
I0
tp8325
bS'DEGF'
p8326
tp8327
Rp8328
sS'PM4THV2T'
p8329
g2
(g3
(S'S4'
p8330
I0
I1
tp8331
Rp8332
(I3
S'|'
p8333
NNNI4
I1
I0
tp8334
bS'DEGF'
p8335
tp8336
Rp8337
sS'TPC_PAN'
p8338
g2
(g3
(S'S4'
p8339
I0
I1
tp8340
Rp8341
(I3
S'|'
p8342
NNNI4
I1
I0
tp8343
bS'DEGF'
p8344
tp8345
Rp8346
sS'2PMT1T'
p8347
g2
(g3
(S'S4'
p8348
I0
I1
tp8349
Rp8350
(I3
S'|'
p8351
NNNI4
I1
I0
tp8352
bS'DEGC'
p8353
tp8354
Rp8355
sS'CIUA15V'
p8356
g2
(g3
(S'S1'
p8357
I0
I1
tp8358
Rp8359
(I3
S'|'
p8360
NNNI1
I1
I0
tp8361
bg45
tp8362
Rp8363
sS'1DPAMZT'
p8364
g2
(g3
(S'S4'
p8365
I0
I1
tp8366
Rp8367
(I3
S'|'
p8368
NNNI4
I1
I0
tp8369
bS'DEGC'
p8370
tp8371
Rp8372
sS'EIACVBV'
p8373
g2
(g3
(S'S1'
p8374
I0
I1
tp8375
Rp8376
(I3
S'|'
p8377
NNNI1
I1
I0
tp8378
bg45
tp8379
Rp8380
sS'4PRTBV'
p8381
g2
(g3
(S'S3'
p8382
I0
I1
tp8383
Rp8384
(I3
S'|'
p8385
NNNI3
I1
I0
tp8386
bS'VDC'
p8387
tp8388
Rp8389
sS'4RT703T'
p8390
g2
(g3
(S'S4'
p8391
I0
I1
tp8392
Rp8393
(I3
S'|'
p8394
NNNI4
I1
I0
tp8395
bS'DEGF'
p8396
tp8397
Rp8398
sS'1DAHHBVO'
p8399
g2
(g3
(S'S1'
p8400
I0
I1
tp8401
Rp8402
(I3
S'|'
p8403
NNNI1
I1
I0
tp8404
bg45
tp8405
Rp8406
sS'1DEP1AVO'
p8407
g2
(g3
(S'S1'
p8408
I0
I1
tp8409
Rp8410
(I3
S'|'
p8411
NNNI1
I1
I0
tp8412
bg45
tp8413
Rp8414
sS'1VAHOBT'
p8415
g2
(g3
(S'S4'
p8416
I0
I1
tp8417
Rp8418
(I3
S'|'
p8419
NNNI4
I1
I0
tp8420
bS'DEGC'
p8421
tp8422
Rp8423
sS'1MAHOBT'
p8424
g2
(g3
(S'S4'
p8425
I0
I1
tp8426
Rp8427
(I3
S'|'
p8428
NNNI4
I1
I0
tp8429
bS'DEGC'
p8430
tp8431
Rp8432
sS'CXPNAIT'
p8433
g2
(g3
(S'S4'
p8434
I0
I1
tp8435
Rp8436
(I3
S'|'
p8437
NNNI4
I1
I0
tp8438
bS'DEGF'
p8439
tp8440
Rp8441
sS'4ALL1AT'
p8442
g2
(g3
(S'S4'
p8443
I0
I1
tp8444
Rp8445
(I3
S'|'
p8446
NNNI4
I1
I0
tp8447
bS'DEGF'
p8448
tp8449
Rp8450
sS'CRXBLS'
p8451
g2
(g3
(S'S3'
p8452
I0
I1
tp8453
Rp8454
(I3
S'|'
p8455
NNNI3
I1
I0
tp8456
bS'KHZ'
p8457
tp8458
Rp8459
sS'PMTANK1T'
p8460
g2
(g3
(S'S4'
p8461
I0
I1
tp8462
Rp8463
(I3
S'|'
p8464
NNNI4
I1
I0
tp8465
bS'DEGF'
p8466
tp8467
Rp8468
sS'OHRTHR49'
p8469
g2
(g3
(S'S4'
p8470
I0
I1
tp8471
Rp8472
(I3
S'|'
p8473
NNNI4
I1
I0
tp8474
bS'DEGF'
p8475
tp8476
Rp8477
sS'EOEB3DIC'
p8478
g2
(g3
(S'S3'
p8479
I0
I1
tp8480
Rp8481
(I3
S'|'
p8482
NNNI3
I1
I0
tp8483
bS'AMP'
p8484
tp8485
Rp8486
sS'OHRTHR45'
p8487
g2
(g3
(S'S4'
p8488
I0
I1
tp8489
Rp8490
(I3
S'|'
p8491
NNNI4
I1
I0
tp8492
bS'DEGF'
p8493
tp8494
Rp8495
sS'OHRTHR44'
p8496
g2
(g3
(S'S4'
p8497
I0
I1
tp8498
Rp8499
(I3
S'|'
p8500
NNNI4
I1
I0
tp8501
bS'DEGF'
p8502
tp8503
Rp8504
sS'OHRTHR47'
p8505
g2
(g3
(S'S4'
p8506
I0
I1
tp8507
Rp8508
(I3
S'|'
p8509
NNNI4
I1
I0
tp8510
bS'DEGF'
p8511
tp8512
Rp8513
sS'OHRTHR46'
p8514
g2
(g3
(S'S4'
p8515
I0
I1
tp8516
Rp8517
(I3
S'|'
p8518
NNNI4
I1
I0
tp8519
bS'DEGF'
p8520
tp8521
Rp8522
sS'AOADACH1A_NBG'
p8523
g2
(g3
(S'S3'
p8524
I0
I1
tp8525
Rp8526
(I3
S'|'
p8527
NNNI3
I1
I0
tp8528
bS'DEG'
p8529
tp8530
Rp8531
sS'OHRTHR40'
p8532
g2
(g3
(S'S4'
p8533
I0
I1
tp8534
Rp8535
(I3
S'|'
p8536
NNNI4
I1
I0
tp8537
bS'DEGF'
p8538
tp8539
Rp8540
sS'OHRTHR43'
p8541
g2
(g3
(S'S4'
p8542
I0
I1
tp8543
Rp8544
(I3
S'|'
p8545
NNNI4
I1
I0
tp8546
bS'DEGF'
p8547
tp8548
Rp8549
sS'OHRTHR42'
p8550
g2
(g3
(S'S4'
p8551
I0
I1
tp8552
Rp8553
(I3
S'|'
p8554
NNNI4
I1
I0
tp8555
bS'DEGF'
p8556
tp8557
Rp8558
sS'AWD2TQI'
p8559
g2
(g3
(S'S3'
p8560
I0
I1
tp8561
Rp8562
(I3
S'|'
p8563
NNNI3
I1
I0
tp8564
bS'AMP'
p8565
tp8566
Rp8567
sS'4LPOSARO'
p8568
g2
(g3
(S'S3'
p8569
I0
I1
tp8570
Rp8571
(I3
S'|'
p8572
NNNI3
I1
I0
tp8573
bS'DEG'
p8574
tp8575
Rp8576
sS'PCM03T'
p8577
g2
(g3
(S'S4'
p8578
I0
I1
tp8579
Rp8580
(I3
S'|'
p8581
NNNI4
I1
I0
tp8582
bS'DEGF'
p8583
tp8584
Rp8585
sS'EOEB1DIC'
p8586
g2
(g3
(S'S3'
p8587
I0
I1
tp8588
Rp8589
(I3
S'|'
p8590
NNNI3
I1
I0
tp8591
bS'AMP'
p8592
tp8593
Rp8594
sS'TMP_FEP0_MONG'
p8595
g299
sS'62RCSTMR'
p8596
g2
(g3
(S'S3'
p8597
I0
I1
tp8598
Rp8599
(I3
S'|'
p8600
NNNI3
I1
I0
tp8601
bS'MIN'
p8602
tp8603
Rp8604
sS'TASPPCU'
p8605
g2
(g3
(S'S4'
p8606
I0
I1
tp8607
Rp8608
(I3
S'|'
p8609
NNNI4
I1
I0
tp8610
bS'DEGF'
p8611
tp8612
Rp8613
sS'PCM04T'
p8614
g2
(g3
(S'S4'
p8615
I0
I1
tp8616
Rp8617
(I3
S'|'
p8618
NNNI4
I1
I0
tp8619
bS'DEGF'
p8620
tp8621
Rp8622
sS'64RCSTMR'
p8623
g2
(g3
(S'S3'
p8624
I0
I1
tp8625
Rp8626
(I3
S'|'
p8627
NNNI3
I1
I0
tp8628
bS'MIN'
p8629
tp8630
Rp8631
sS'4RT708T'
p8632
g2
(g3
(S'S4'
p8633
I0
I1
tp8634
Rp8635
(I3
S'|'
p8636
NNNI4
I1
I0
tp8637
bS'DEGF'
p8638
tp8639
Rp8640
sS'OOBAGRD6'
p8641
g2
(g3
(S'S4'
p8642
I0
I1
tp8643
Rp8644
(I3
S'|'
p8645
NNNI4
I1
I0
tp8646
bS'DEGF'
p8647
tp8648
Rp8649
sS'TB1T3'
p8650
g2
(g3
(S'S4'
p8651
I0
I1
tp8652
Rp8653
(I3
S'|'
p8654
NNNI4
I1
I0
tp8655
bS'DEGF'
p8656
tp8657
Rp8658
sS'TEP_EIA'
p8659
g2
(g3
(S'S4'
p8660
I0
I1
tp8661
Rp8662
(I3
S'|'
p8663
NNNI4
I1
I0
tp8664
bS'DEGF'
p8665
tp8666
Rp8667
sS'AOBETANG'
p8668
g2
(g3
(S'S3'
p8669
I0
I1
tp8670
Rp8671
(I3
S'|'
p8672
NNNI3
I1
I0
tp8673
bS'DEG'
p8674
tp8675
Rp8676
sS'OOBAGRD3'
p8677
g2
(g3
(S'S4'
p8678
I0
I1
tp8679
Rp8680
(I3
S'|'
p8681
NNNI4
I1
I0
tp8682
bS'DEGF'
p8683
tp8684
Rp8685
sS'PLAED1FT'
p8686
g2
(g3
(S'S4'
p8687
I0
I1
tp8688
Rp8689
(I3
S'|'
p8690
NNNI4
I1
I0
tp8691
bS'DEGF'
p8692
tp8693
Rp8694
sS'EB3CI'
p8695
g2
(g3
(S'S3'
p8696
I0
I1
tp8697
Rp8698
(I3
S'|'
p8699
NNNI3
I1
I0
tp8700
bS'AMP'
p8701
tp8702
Rp8703
sS'AORESZ1_1'
p8704
g2
(g3
(S'S3'
p8705
I0
I1
tp8706
Rp8707
(I3
S'|'
p8708
NNNI3
I1
I0
tp8709
bS'RAD'
p8710
tp8711
Rp8712
sS'TATECDPT'
p8713
g2
(g3
(S'S4'
p8714
I0
I1
tp8715
Rp8716
(I3
S'|'
p8717
NNNI4
I1
I0
tp8718
bS'DEGF'
p8719
tp8720
Rp8721
sS'4RT581T'
p8722
g2
(g3
(S'S4'
p8723
I0
I1
tp8724
Rp8725
(I3
S'|'
p8726
NNNI4
I1
I0
tp8727
bS'DEGF'
p8728
tp8729
Rp8730
sS'1HOPRBPR'
p8731
g2
(g3
(S'S4'
p8732
I0
I1
tp8733
Rp8734
(I3
S'|'
p8735
NNNI4
I1
I0
tp8736
bS'TORR'
p8737
tp8738
Rp8739
sS'1CRBT'
p8740
g2
(g3
(S'S4'
p8741
I0
I1
tp8742
Rp8743
(I3
S'|'
p8744
NNNI4
I1
I0
tp8745
bS'DEGC'
p8746
tp8747
Rp8748
sS'OHRTHR26'
p8749
g2
(g3
(S'S4'
p8750
I0
I1
tp8751
Rp8752
(I3
S'|'
p8753
NNNI4
I1
I0
tp8754
bS'DEGF'
p8755
tp8756
Rp8757
sS'AWD6TQI'
p8758
g2
(g3
(S'S3'
p8759
I0
I1
tp8760
Rp8761
(I3
S'|'
p8762
NNNI3
I1
I0
tp8763
bS'AMP'
p8764
tp8765
Rp8766
s.