(dp1
S'AORWPI4B'
p2
S'ms'
p3
sS'1DEAMZT'
p4
S'K'
sS'4RT709T'
p5
S'K'
sS'PLINE16T'
p6
S'K'
sS'EORTDMN18D'
p7
S'K'
sS'AOSUNER2'
p8
S'rad'
p9
sS'TFSPPCM'
p10
S'K'
sS'EB1CI'
p11
S'A'
sS'OHRTHR38'
p12
S'K'
sS'OHRTHR39'
p13
S'K'
sS'TFSPPCP'
p14
S'K'
sS'ASPEFSW3B'
p15
S'deg'
p16
sS'CUSOAOVN'
p17
S'W'
sS'OHRTHR30'
p18
S'K'
sS'OHRTHR31'
p19
S'K'
sS'OHRTHR33'
p20
S'K'
sS'1DPP0BVO'
p21
S'V'
sS'OHRTHR35'
p22
S'K'
sS'POM1THV2T'
p23
S'K'
sS'OHRTHR37'
p24
S'K'
sS'EORTDMN11D'
p25
S'K'
sS'AFLC11BI'
p26
S'mA'
p27
sS'AORWMC3_1'
p28
S'J*s'
p29
sS'POINT_MOONLIMBANG'
p30
S'deg'
p31
sS'TEPHIN'
p32
S'K'
sS'3TTHRC1T'
p33
S'K'
sS'PXDM01T'
p34
S'K'
sS'4RT562T'
p35
S'K'
sS'AFLCA2BI'
p36
S'mA'
p37
sS'4RT710T'
p38
S'K'
sS'ASPEB5CV'
p39
S'V'
sS'TPC_PAN'
p40
S'K'
sS'AOZABR'
p41
S'rad'
p42
sS'AORESZ5_1'
p43
S'rad'
p44
sS'TB2T3'
p45
S'K'
sS'TB2T2'
p46
S'K'
sS'PLINE06T'
p47
S'K'
sS'AOADBCH1A_PCAD'
p48
S'deg'
p49
sS'AORWPI3B'
p50
S'ms'
p51
sS'POR2TV02T'
p52
S'K'
sS'1DAHAVO'
p53
S'V'
sS'PXTANK2T'
p54
S'K'
sS'3TSMYDPT'
p55
S'K'
sS'PR1TV02T'
p56
S'K'
sS'3TTACS1T'
p57
S'K'
sS'AORESY2_1'
p58
S'rad'
p59
sS'PHOFP1T'
p60
S'K'
sS'PR4TV01T'
p61
S'K'
sS'AORTERR2'
p62
S'rad/s'
p63
sS'CUSOA28V'
p64
S'V'
sS'PLAED2AT'
p65
S'K'
sS'AVACMON'
p66
S'K'
sS'OOBTHR33'
p67
S'K'
sS'SUN_EARTHLIMBANG'
p68
S'deg'
p69
sS'ES1P5CV'
p70
S'V'
sS'OOBTHR19'
p71
S'K'
sS'OOBTHR18'
p72
S'K'
sS'PFTANKIP'
p73
S'kPa'
p74
sS'POR1TV01T'
p75
S'K'
sS'OOBTHR14'
p76
S'K'
sS'OOBTHR17'
p77
S'K'
sS'OOBTHR11'
p78
S'K'
sS'OOBTHR10'
p79
S'K'
sS'ECNV2V'
p80
S'V'
sS'OOBTHR12'
p81
S'K'
sS'AGWS1V'
p82
S'V'
sS'4HLL2BT'
p83
S'K'
sS'EOEB1CIC'
p84
S'A'
sS'TB3T1'
p85
S'K'
sS'4HLL1AT'
p86
S'K'
sS'AACCCDRT'
p87
S'K'
sS'ESAMYI'
p88
S'A'
sS'4RT581T'
p89
S'K'
sS'TMYSADA'
p90
S'K'
sS'1HOPRAPR'
p91
S'kPa'
p92
sS'OHRTHR34'
p93
S'K'
sS'AFLCA5AI'
p94
S'mA'
p95
sS'3TSMXSPT'
p96
S'K'
sS'PMFP01T'
p97
S'K'
sS'CVEER'
p98
S'V'
sS'CVEEP'
p99
S'V'
sS'PLINE15T'
p100
S'K'
sS'OHRTHR36'
p101
S'K'
sS'PLAED3IT'
p102
S'K'
sS'4RT592T'
p103
S'K'
sS'PLAED4AT'
p104
S'K'
sS'AIRU1BT'
p105
S'K'
sS'PR2TV01T'
p106
S'K'
sS'TCM_SSR1'
p107
S'K'
sS'PFTANK2T'
p108
S'K'
sS'POLINE04T'
p109
S'K'
sS'5EPHINT'
p110
S'K'
sS'4VRMOBV'
p111
S'V'
sS'PLAEV3AT'
p112
S'K'
sS'AFLCA1AI'
p113
S'mA'
p114
sS'2DCENTRT'
p115
S'K'
sS'OOBTHR60'
p116
S'K'
sS'OOBTHR61'
p117
S'K'
sS'OOBTHR62'
p118
S'K'
sS'OOBTHR63'
p119
S'K'
sS'PLINE11T'
p120
S'K'
sS'EPA15V'
p121
S'V'
sS'AOALPANG'
p122
S'deg'
p123
sS'TRSPMTPC'
p124
S'K'
sS'AOSPACS2B'
p125
S'mA'
p126
sS'4RT584T'
p127
S'K'
sS'AODVTIME'
p128
S's'
sS'AODITHR3'
p129
S'rad'
p130
sS'AAOTH2MT'
p131
S'K'
sS'AODITHR1'
p132
S'rad'
p133
sS'PLAED1BT'
p134
S'K'
sS'3TTRALAT'
p135
S'K'
sS'AFLC12AI'
p136
S'mA'
p137
sS'AOSACMD2'
p138
S'rad'
p139
sS'POLINE16T'
p140
S'K'
sS'POINT_MOONCENTANG'
p141
S'deg'
p142
sS'AORESY1_1'
p143
S'rad'
p144
sS'EPB15V'
p145
S'V'
sS'2UVLSPXT'
p146
S'K'
sS'3FARALAT'
p147
S'K'
sS'4HLL2AT'
p148
S'K'
sS'TCM_PA2'
p149
S'K'
sS'ACPA5CV'
p150
S'V'
sS'4PRT5AT'
p151
S'K'
sS'3FAPYZAT'
p152
S'K'
sS'OHRTHR08'
p153
S'K'
sS'TFUTSUPN'
p154
S'K'
sS'PLAED3GT'
p155
S'K'
sS'AORATE1'
p156
S'rad/s'
p157
sS'AORATE3'
p158
S'rad/s'
p159
sS'AORATE2'
p160
S'rad/s'
p161
sS'EORTDMN12D'
p162
S'K'
sS'4RT598T'
p163
S'K'
sS'EOECNV3C'
p164
S'V'
sS'3TTACS2T'
p165
S'K'
sS'TCM_CTU'
p166
S'K'
sS'ESAPYI'
p167
S'A'
sS'4HFSPBT'
p168
S'K'
sS'EEPB5V'
p169
S'V'
sS'4MP28BV'
p170
S'V'
sS'PFDM101T'
p171
S'K'
sS'PLAED3DT'
p172
S'K'
sS'4LFSPAT'
p173
S'K'
sS'EORTDMN23D'
p174
S'K'
sS'AWD3CV5V'
p175
S'V'
sS'PLINE02T'
p176
S'K'
sS'4ALL1AT'
p177
S'K'
sS'TPCM_RW5'
p178
S'K'
sS'2CEAHVPT'
p179
S'K'
sS'PLAEV2AT'
p180
S'K'
sS'AORESZ6_5'
p181
S'rad'
p182
sS'AWD3TQI'
p183
S'A'
sS'TRSPRWCM'
p184
S'K'
sS'AOSUNER3'
p185
S'rad'
p186
sS'CTXAV'
p187
S'V'
sS'AAOTAPMT'
p188
S'K'
sS'PLAED2DT'
p189
S'K'
sS'TMZP_PY'
p190
S'K'
sS'POR2TV01T'
p191
S'K'
sS'4PRT1AT'
p192
S'K'
sS'PFTANK1T'
p193
S'K'
sS'1DPAMYT'
p194
S'K'
sS'1DACTBT'
p195
S'K'
sS'4RT556T'
p196
S'K'
sS'AFLCA4BI'
p197
S'mA'
p198
sS'PM4THV1T'
p199
S'K'
sS'CSITA15V'
p200
S'V'
sS'AFLC13AI'
p201
S'mA'
p202
sS'AORWBTQ1'
p203
S'J'
sS'AORWBTQ2'
p204
S'J'
sS'AORWBTQ3'
p205
S'J'
sS'AORWBTQ4'
p206
S'J'
sS'AORWBTQ5'
p207
S'J'
sS'AORWBTQ6'
p208
S'J'
sS'AWD6CV5V'
p209
S'V'
sS'3FABRCAT'
p210
S'K'
sS'AWD4CV5V'
p211
S'V'
sS'4RT576T'
p212
S'K'
sS'AWD1TQI'
p213
S'A'
sS'AHKNATPR'
p214
S'V'
sS'TCYZ_RW6'
p215
S'K'
sS'PR2TV02T'
p216
S'K'
sS'2P05VAVL'
p217
S'V'
sS'1VAHCBT'
p218
S'K'
sS'PM2THV1T'
p219
S'K'
sS'PLINE09T'
p220
S'K'
sS'1DPP0AVO'
p221
S'V'
sS'5EIOT'
p222
S'K'
sS'CPCB5V'
p223
S'V'
sS'PLAED1IT'
p224
S'K'
sS'CPCA5V'
p225
S'V'
sS'CXPNAIT'
p226
S'K'
sS'TEIO'
p227
S'K'
sS'AORWMC2_1'
p228
S'J*s'
p229
sS'POINT_SUNLIMBANG'
p230
S'deg'
p231
sS'AOSARES1'
p232
S'deg'
p233
sS'AACBPRT'
p234
S'K'
sS'PLAED1AT'
p235
S'K'
sS'TPCM_RW4'
p236
S'K'
sS'4RT580T'
p237
S'K'
sS'4VRMHBV'
p238
S'V'
sS'PHETANKT'
p239
S'K'
sS'TAPE1PST'
p240
S'K'
sS'AOCSSI2'
p241
S'mA'
p242
sS'AOSRERR3'
p243
S'rad/s'
p244
sS'OOBTHR24'
p245
S'K'
sS'OOBTHR25'
p246
S'K'
sS'OOBTHR26'
p247
S'K'
sS'OOBTHR27'
p248
S'K'
sS'OOBTHR20'
p249
S'K'
sS'OOBTHR21'
p250
S'K'
sS'OOBTHR22'
p251
S'K'
sS'OOBTHR23'
p252
S'K'
sS'PR1TV01T'
p253
S'K'
sS'AVD2CV5V'
p254
S'V'
sS'OOBTHR28'
p255
S'K'
sS'OOBTHR29'
p256
S'K'
sS'AIOBP5CV'
p257
S'V'
sS'EORTDMN16D'
p258
S'K'
sS'2FHTRMZT'
p259
S'K'
sS'AOSAANG1'
p260
S'rad'
p261
sS'AOSAANG2'
p262
S'rad'
p263
sS'4RT577T'
p264
S'K'
sS'TCYLCMM'
p265
S'K'
sS'4RT561T'
p266
S'K'
sS'EOEBCC_LOW'
p267
S'A'
sS'OHRTHR57'
p268
S'K'
sS'AOMANTIM'
p269
S's'
sS'CTUB5V'
p270
S'V'
sS'AWD4TQI'
p271
S'A'
sS'4LLL2AT'
p272
S'K'
sS'AWD5CV5V'
p273
S'V'
sS'CRXBV'
p274
S'V'
sS'4ALL1BT'
p275
S'K'
sS'CPCB15V'
p276
S'V'
sS'4RT711T'
p277
S'K'
sS'AAOTALT'
p278
S'K'
sS'AGWS2V'
p279
S'V'
sS'EORTDMN26D'
p280
S'K'
sS'EB1V'
p281
S'V'
sS'AOIRERL1'
p282
S'rad'
p283
sS'AOIRERL2'
p284
S'rad'
p285
sS'AOIRERL3'
p286
S'rad'
p287
sS'PLINE07T'
p288
S'K'
sS'PLAEV2BT'
p289
S'K'
sS'AOSCVEL1'
p290
S'km/s'
p291
sS'AOSCVEL3'
p292
S'km/s'
p293
sS'AOSCVEL2'
p294
S'km/s'
p295
sS'1DE28AVO'
p296
S'V'
sS'EOEB3DIC'
p297
S'A'
sS'AFLC13BI'
p298
S'mA'
p299
sS'PR4TV02T'
p300
S'K'
sS'4RT563T'
p301
S'K'
sS'AOGBIAS1'
p302
S'rad/s'
p303
sS'AOGBIAS2'
p304
S'rad/s'
p305
sS'AOGBIAS3'
p306
S'rad/s'
p307
sS'1DEN1AVO'
p308
S'V'
sS'1DEN0AVO'
p309
S'V'
sS'4LPOSBRO'
p310
S'deg'
p311
sS'1DPICBCU'
p312
S'A'
sS'1DP28AVO'
p313
S'V'
sS'PLINE03T'
p314
S'K'
sS'4CSDHAV'
p315
S'V'
sS'4RT587T'
p316
S'K'
sS'AI1AX2Y'
p317
S'deg/s'
p318
sS'AI1AX2X'
p319
S'deg/s'
p320
sS'AOSYMOM2'
p321
S'J*s'
p322
sS'AORWCMD5'
p323
S'J'
sS'POR1TV02T'
p324
S'K'
sS'OHRTHR29'
p325
S'K'
sS'AORWCMD6'
p326
S'J'
sS'AORWCMD1'
p327
S'J'
sS'AORWCMD3'
p328
S'J'
sS'AORWCMD2'
p329
S'J'
sS'OHRTHR23'
p330
S'K'
sS'OHRTHR22'
p331
S'K'
sS'OHRTHR21'
p332
S'K'
sS'OHRTHR20'
p333
S'K'
sS'OHRTHR27'
p334
S'K'
sS'OHRTHR26'
p335
S'K'
sS'OHRTHR25'
p336
S'K'
sS'OHRTHR24'
p337
S'K'
sS'4IN15BV'
p338
S'V'
sS'4RT594T'
p339
S'K'
sS'TCNR_BRM'
p340
S'K'
sS'TCM_IFU'
p341
S'K'
sS'TCYLFMZP'
p342
S'K'
sS'4RT569T'
p343
S'K'
sS'TCYLFMZM'
p344
S'K'
sS'4RT597T'
p345
S'K'
sS'TEP_RCTU'
p346
S'K'
sS'4RT702T'
p347
S'K'
sS'ASPEFSW1B'
p348
S'deg'
p349
sS'1VAHOAT'
p350
S'K'
sS'AACH1T'
p351
S'K'
sS'4PRT2AT'
p352
S'K'
sS'POLINE07T'
p353
S'K'
sS'TPC_ESE'
p354
S'K'
sS'AFLCA9AI'
p355
S'mA'
p356
sS'CTSB5V'
p357
S'V'
sS'AFLCA1BI'
p358
S'mA'
p359
sS'AOADACH1A_PCAD'
p360
S'deg'
p361
sS'4VRMHAV'
p362
S'V'
sS'4MP5AV'
p363
S'V'
sS'PLINE10T'
p364
S'K'
sS'TPC_RCTU'
p365
S'K'
sS'TCM_PA1'
p366
S'K'
sS'AOBETANG'
p367
S'deg'
p368
sS'2FRADPYT'
p369
S'K'
sS'1DE28BVO'
p370
S'V'
sS'C28VMONB'
p371
S'V'
sS'4RT595T'
p372
S'K'
sS'PLAED4FT'
p373
S'K'
sS'AOADBCH2A_NBG'
p374
S'deg'
p375
sS'4LLL2BT'
p376
S'K'
sS'1DEP1BVO'
p377
S'V'
sS'AOSPACS3B'
p378
S'mA'
p379
sS'PLAEV4BT'
p380
S'K'
sS'ES2P5CV'
p381
S'V'
sS'AORWPI5B'
p382
S'ms'
p383
sS'4PRT4AT'
p384
S'K'
sS'CUSOBOVN'
p385
S'W'
sS'TFSPCMM'
p386
S'K'
sS'EORTDMN19D'
p387
S'K'
sS'4HFSPAT'
p388
S'K'
sS'4MP5BV'
p389
S'V'
sS'AOINTTIM'
p390
S's'
sS'TFSPCMP'
p391
S'K'
sS'POM1THV1T'
p392
S'K'
sS'AOCMDRT1'
p393
S'rad/s'
p394
sS'AOACZAN5'
p395
S'arcsec'
p396
sS'AOACZAN4'
p397
S'arcsec'
p398
sS'AOACZAN7'
p399
S'arcsec'
p400
sS'AOACZAN6'
p401
S'arcsec'
p402
sS'AOACZAN1'
p403
S'arcsec'
p404
sS'AOACZAN0'
p405
S'arcsec'
p406
sS'AOACZAN3'
p407
S'arcsec'
p408
sS'AOACZAN2'
p409
S'arcsec'
p410
sS'3TTHRC2T'
p411
S'K'
sS'TCYLAFT4'
p412
S'K'
sS'CRXALS'
p413
S'kHz'
p414
sS'AOYABR'
p415
S'rad'
p416
sS'AOSRERR1'
p417
S'rad/s'
p418
sS'AOSRERR2'
p419
S'rad/s'
p420
sS'TIME'
p421
S's'
sS'PLAED2GT'
p422
S'K'
sS'POINT_SUNCENTANG'
p423
S'deg'
p424
sS'CXO5VOBB'
p425
S'V'
sS'AOSAEST1'
p426
S'rad'
p427
sS'1DAHACU'
p428
S'A'
sS'CXO5VOBA'
p429
S'V'
sS'EORTDMN22D'
p430
S'K'
sS'PM3THV1T'
p431
S'K'
sS'1DEP2BVO'
p432
S'V'
sS'AOETIMEX'
p433
S's'
sS'2CONDMXT'
p434
S'K'
sS'AORWINT5'
p435
S'ms'
p436
sS'1DEN0BVO'
p437
S'V'
sS'4IP15BV'
p438
S'V'
sS'4ALL2BT'
p439
S'K'
sS'4RT557T'
p440
S'K'
sS'CIUB5V'
p441
S'V'
sS'4ALL2AT'
p442
S'K'
sS'EOESAC1C'
p443
S'A'
sS'CTUA15V'
p444
S'V'
sS'AOADACH2A_NBG'
p445
S'deg'
p446
sS'AFLC10BI'
p447
S'mA'
p448
sS'PLAED2ET'
p449
S'K'
sS'CSSR1CAV'
p450
S'V'
sS'EOEB2DIC'
p451
S'A'
sS'3TTBRGBT'
p452
S'K'
sS'EOEBCC'
p453
S'A'
sS'AORWINT2'
p454
S'ms'
p455
sS'AORWINT3'
p456
S'ms'
p457
sS'AORWINT4'
p458
S'ms'
p459
sS'1DACTAT'
p460
S'deg'
p461
sS'AORWINT6'
p462
S'ms'
p463
sS'AFLCA4AI'
p464
S'mA'
p465
sS'OOBTHR15'
p466
S'K'
sS'4SP51V'
p467
S'V'
sS'EORTDMN25D'
p468
S'K'
sS'PLAED2CT'
p469
S'K'
sS'EOEB1VC'
p470
S'V'
sS'C10VREFB'
p471
S'V'
sS'C10VREFA'
p472
S'V'
sS'EOEB2VC'
p473
S'V'
sS'4PRT3BT'
p474
S'K'
sS'AWD1CV5V'
p475
S'V'
sS'PMTANK3T'
p476
S'K'
sS'AFLCA8BI'
p477
S'mA'
p478
sS'PLAED1DT'
p479
S'K'
sS'ARWA3BT'
p480
S'K'
sS'AOACINTT'
p481
S'ms'
p482
sS'POLAEV1AT'
p483
S'K'
sS'OHRTHR63'
p484
S'K'
sS'OOBTHR13'
p485
S'K'
sS'OHRTHR61'
p486
S'K'
sS'EOEB3CIC'
p487
S'A'
sS'AOSYMOM3'
p488
S'J*s'
p489
sS'EOESAC2C'
p490
S'A'
sS'AOSYMOM1'
p491
S'J*s'
p492
sS'4RT701T'
p493
S'K'
sS'AFLCA2AI'
p494
S'mA'
p495
sS'1OAHBT'
p496
S'K'
sS'TCYLAFT1'
p497
S'K'
sS'1DAHBCU'
p498
S'A'
sS'PMTANKP'
p499
S'kPa'
p500
sS'AFLCA5BI'
p501
S'mA'
p502
sS'ECNV3V'
p503
S'V'
sS'POINT_RAMVECTORANG'
p504
S'deg'
p505
sS'4RT583T'
p506
S'K'
sS'AIOAP5CV'
p507
S'V'
sS'TFSPRWC'
p508
S'K'
sS'4RT593T'
p509
S'K'
sS'TATECDRT'
p510
S'K'
sS'4RT559T'
p511
S'K'
sS'TSCTSF1'
p512
S'K'
sS'TSCTSF2'
p513
S'K'
sS'TSCTSF3'
p514
S'K'
sS'TSCTSF4'
p515
S'K'
sS'TSCTSF5'
p516
S'K'
sS'4PRT5BT'
p517
S'K'
sS'AFLCA6BI'
p518
S'mA'
p519
sS'TCM_RFAS'
p520
S'K'
sS'PLAED4ET'
p521
S'K'
sS'PLINE14T'
p522
S'K'
sS'TESH1'
p523
S'K'
sS'1DEICACU'
p524
S'A'
sS'CXPNBIT'
p525
S'K'
sS'1MAHCAT'
p526
S'K'
sS'PR3TV02T'
p527
S'K'
sS'3TSPZSPT'
p528
S'K'
sS'1DEP3BVO'
p529
S'V'
sS'AOAVGDTQ'
p530
S'J'
sS'EORTDMN17D'
p531
S'K'
sS'PLAED4BT'
p532
S'K'
sS'ADE1P5CV'
p533
S'V'
sS'TFSPPCU'
p534
S'K'
sS'4RT560T'
p535
S'K'
sS'AOMANANG'
p536
S'rad'
p537
sS'POLINE03T'
p538
S'K'
sS'OHRTHR11'
p539
S'K'
sS'AFLCA7AI'
p540
S'mA'
p541
sS'EB2DI'
p542
S'A'
sS'TFSSBKT2'
p543
S'K'
sS'TRSPRWBB'
p544
S'K'
sS'TRSPRWBC'
p545
S'K'
sS'AOSACMD1'
p546
S'rad'
p547
sS'AORWNTQ3'
p548
S'J'
sS'AFLCA3BI'
p549
S'mA'
p550
sS'AORWPI1B'
p551
S'ms'
p552
sS'EB1DI'
p553
S'A'
sS'PLAED3FT'
p554
S'K'
sS'AFLCA3AI'
p555
S'mA'
p556
sS'AFSSPC1V'
p557
S'V'
sS'TSCIUSF2'
p558
S'K'
sS'TSCIUSF5'
p559
S'K'
sS'AVD1CV5V'
p560
S'V'
sS'TSCIUSF8'
p561
S'K'
sS'AACH2T'
p562
S'K'
sS'ADE2P5CV'
p563
S'V'
sS'TASPPCP'
p564
S'K'
sS'3TTACS3T'
p565
S'K'
sS'CTSA15V'
p566
S'V'
sS'PFDM102T'
p567
S'K'
sS'PFDM202T'
p568
S'K'
sS'OHRTHR62'
p569
S'K'
sS'4RT586T'
p570
S'K'
sS'TEP_PSU1'
p571
S'K'
sS'OHRTHR60'
p572
S'K'
sS'OOBTHR37'
p573
S'K'
sS'OOBTHR36'
p574
S'K'
sS'OOBTHR35'
p575
S'K'
sS'OOBTHR34'
p576
S'K'
sS'CUSOBIT'
p577
S'K'
sS'TAPEA1T'
p578
S'K'
sS'OOBTHR31'
p579
S'K'
sS'OOBTHR30'
p580
S'K'
sS'OOBTHR39'
p581
S'K'
sS'OOBTHR38'
p582
S'K'
sS'2P24VBVL'
p583
S'V'
sS'AIRU2G2T'
p584
S'K'
sS'POINT_EARTHCENTANG'
p585
S'deg'
p586
sS'3FABRAAT'
p587
S'K'
sS'1DEP3AVO'
p588
S'V'
sS'AIRU1G2T'
p589
S'K'
sS'TPC_CEA'
p590
S'K'
sS'AIRU1G2I'
p591
S'mA'
p592
sS'PM2THV2T'
p593
S'K'
sS'TSAMYT'
p594
S'K'
sS'AVACMONV'
p595
S'V'
sS'4RT590T'
p596
S'K'
sS'TEP_PSU2'
p597
S'K'
sS'TPZLGABM'
p598
S'K'
sS'1OAHAT'
p599
S'K'
sS'2P05VBVL'
p600
S'V'
sS'ASPEFSW4B'
p601
S'deg'
p602
sS'ARWA4BT'
p603
S'K'
sS'PLAEV4AT'
p604
S'K'
sS'4CSDHBV'
p605
S'V'
sS'AOMANRT'
p606
S'rad/s'
p607
sS'AOCSSI1'
p608
S'mA'
p609
sS'AOCSSI3'
p610
S'mA'
p611
sS'AIRU2G1T'
p612
S'K'
sS'AOCSSI4'
p613
S'mA'
p614
sS'AIRU2G1I'
p615
S'mA'
p616
sS'CTUB15V'
p617
S'V'
sS'1VAHCAT'
p618
S'K'
sS'TB3T2'
p619
S'K'
sS'TB3T3'
p620
S'K'
sS'PLAED3CT'
p621
S'K'
sS'1PIN1AT'
p622
S'K'
sS'1DP28BVO'
p623
S'V'
sS'AOFFTQ1'
p624
S'J'
sS'PLAEV1BT'
p625
S'K'
sS'AOFFTQ2'
p626
S'J'
sS'PFDM201T'
p627
S'K'
sS'TPCP_RW3'
p628
S'K'
sS'AOFFTQ3'
p629
S'J'
sS'AI2AX1Y'
p630
S'deg/s'
p631
sS'1PDEABT'
p632
S'K'
sS'TPCP_RW2'
p633
S'K'
sS'PLAED2HT'
p634
S'K'
sS'AOADBCH2A_PCAD'
p635
S'deg'
p636
sS'4RT704T'
p637
S'K'
sS'AORWPI6B'
p638
S'ms'
p639
sS'TCM_PAN'
p640
S'K'
sS'TCM_SSR2'
p641
S'K'
sS'SUN_EARTHCENTANG'
p642
S'deg'
p643
sS'EOECNV1C'
p644
S'V'
sS'AFLCABH'
p645
S'V'
sS'3FLCABPT'
p646
S'K'
sS'OHRTHR18'
p647
S'K'
sS'OHRTHR19'
p648
S'K'
sS'OHRTHR17'
p649
S'K'
sS'OHRTHR14'
p650
S'K'
sS'OHRTHR15'
p651
S'K'
sS'OHRTHR12'
p652
S'K'
sS'OHRTHR13'
p653
S'K'
sS'OHRTHR10'
p654
S'K'
sS'POLAEV1BT'
p655
S'K'
sS'4PRTBV'
p656
S'V'
sS'CIUB15V'
p657
S'V'
sS'3TTHRC3T'
p658
S'K'
sS'PLAED3HT'
p659
S'K'
sS'AIRU2BT'
p660
S'K'
sS'AORWSPD1'
p661
S'rad/s'
p662
sS'AORWSPD2'
p663
S'rad/s'
p664
sS'AORWSPD3'
p665
S'rad/s'
p666
sS'AORWSPD4'
p667
S'rad/s'
p668
sS'AORWSPD5'
p669
S'rad/s'
p670
sS'AORWSPD6'
p671
S'rad/s'
p672
sS'PM1THV1T'
p673
S'K'
sS'AOCMDRT2'
p674
S'rad/s'
p675
sS'AOCMDRT3'
p676
S'rad/s'
p677
sS'AI2AX2X'
p678
S'deg/s'
p679
sS'EORTDMN13D'
p680
S'K'
sS'4RT564T'
p681
S'K'
sS'EORTDMN21D'
p682
S'K'
sS'PMTANK1T'
p683
S'K'
sS'4SP52V'
p684
S'V'
sS'1DEN1BVO'
p685
S'V'
sS'PM3THV2T'
p686
S'K'
sS'EORTDMN29D'
p687
S'K'
sS'PLINE04T'
p688
S'K'
sS'PLAED3BT'
p689
S'K'
sS'AI2AX2Y'
p690
S'deg/s'
p691
sS'TB2T1'
p692
S'K'
sS'PXTANKOP'
p693
S'kPa'
p694
sS'4OAVHRMT'
p695
S'K'
sS'EORTDMN28D'
p696
S'K'
sS'PFFP01T'
p697
S'K'
sS'2N15VAVL'
p698
S'V'
sS'2N15VBVL'
p699
S'V'
sS'4LFSPBT'
p700
S'K'
sS'AOSPBCS2B'
p701
S'mA'
p702
sS'1DEP0AVO'
p703
S'V'
sS'4CSDOAV'
p704
S'V'
sS'TEP_BPAN'
p705
S'K'
sS'1WRAT'
p706
S'K'
sS'PLAED1GT'
p707
S'K'
sS'TASPRWC'
p708
S'K'
sS'AORESY6_1'
p709
S'rad'
p710
sS'PLINE01T'
p711
S'K'
sS'AFLCA8AI'
p712
S'mA'
p713
sS'AACBPPT'
p714
S'K'
sS'4HPOSBRO'
p715
S'deg'
p716
sS'AORTERR3'
p717
S'rad/s'
p718
sS'1PDEAAT'
p719
S'K'
sS'PCM02T'
p720
S'K'
sS'3FAMYZAT'
p721
S'K'
sS'AACCCDPT'
p722
S'K'
sS'4OAVOBAT'
p723
S'K'
sS'PLAEV1AT'
p724
S'K'
sS'TPC_WDA'
p725
S'K'
sS'TSCTSF6'
p726
S'K'
sS'AOSPBCS3B'
p727
S'mA'
p728
sS'TCM_TX2'
p729
S'K'
sS'TCM_TX1'
p730
S'K'
sS'CTUA5V'
p731
S'V'
sS'4LLL1BT'
p732
S'K'
sS'TMZP_CNT'
p733
S'K'
sS'4RT582T'
p734
S'K'
sS'AHKNATRD'
p735
S'V'
sS'EOEB3VC'
p736
S'V'
sS'AFLCA6AI'
p737
S'mA'
p738
sS'4CSDOBV'
p739
S'V'
sS'AFLCA9BI'
p740
S'mA'
p741
sS'1DEP2AVO'
p742
S'V'
sS'3RCTUBPT'
p743
S'K'
sS'OOBTHR49'
p744
S'K'
sS'OOBTHR46'
p745
S'K'
sS'OOBTHR47'
p746
S'K'
sS'OOBTHR44'
p747
S'K'
sS'OOBTHR45'
p748
S'K'
sS'OOBTHR42'
p749
S'K'
sS'OOBTHR43'
p750
S'K'
sS'OOBTHR40'
p751
S'K'
sS'OOBTHR41'
p752
S'K'
sS'AI1AX1X'
p753
S'deg/s'
p754
sS'PLAED2IT'
p755
S'K'
sS'AI1AX1Y'
p756
S'deg/s'
p757
sS'4HLL1BT'
p758
S'K'
sS'AWD2CV5V'
p759
S'V'
sS'EORTDMN14D'
p760
S'K'
sS'ARWA1BT'
p761
S'K'
sS'AFLCA7BI'
p762
S'mA'
p763
sS'AORWNTQ1'
p764
S'J'
sS'PLAED4GT'
p765
S'K'
sS'AFLC14BI'
p766
S'mA'
p767
sS'POLINE06T'
p768
S'K'
sS'AOSPACS4B'
p769
S'mA'
p770
sS'OHRTHR58'
p771
S'K'
sS'OHRTHR59'
p772
S'K'
sS'OHRTHR52'
p773
S'K'
sS'OHRTHR53'
p774
S'K'
sS'OHRTHR50'
p775
S'K'
sS'OHRTHR51'
p776
S'K'
sS'OHRTHR56'
p777
S'K'
sS'2P15VAVL'
p778
S'V'
sS'OHRTHR54'
p779
S'K'
sS'OHRTHR55'
p780
S'K'
sS'AORWPI2B'
p781
S'ms'
p782
sS'TCYZ_RW1'
p783
S'K'
sS'AI2AX1X'
p784
S'deg/s'
p785
sS'3TSMXCET'
p786
S'K'
sS'AODITHR2'
p787
S'rad'
p788
sS'ARWA2BT'
p789
S'K'
sS'PLAED3ET'
p790
S'K'
sS'TSAPYT'
p791
S'K'
sS'CPA1V'
p792
S'V'
sS'ASPEA5CV'
p793
S'V'
sS'4IP15AV'
p794
S'V'
sS'PXTANK1T'
p795
S'K'
sS'4RT568T'
p796
S'K'
sS'ACPB5CV'
p797
S'V'
sS'OOBTHR02'
p798
S'K'
sS'1DPICACU'
p799
S'A'
sS'TCYLPCM'
p800
S'K'
sS'TOXTSUPN'
p801
S'K'
sS'AOSPBCS1B'
p802
S'mA'
p803
sS'4RT589T'
p804
S'K'
sS'ASPEFSW2B'
p805
S'deg'
p806
sS'TCYLRWC'
p807
S'K'
sS'AORWMOM2'
p808
S'J*s'
p809
sS'TCYLAFT5'
p810
S'K'
sS'AORWMOM1'
p811
S'J*s'
p812
sS'4RT700T'
p813
S'K'
sS'4LLL1AT'
p814
S'K'
sS'1CBAT'
p815
S'K'
sS'CPA2BPT'
p816
S'K'
sS'PLAED4IT'
p817
S'K'
sS'EB3DI'
p818
S'A'
sS'PLAED2FT'
p819
S'K'
sS'TCYLAFT6'
p820
S'K'
sS'TAPEA2T'
p821
S'K'
sS'AFLC10AI'
p822
S'mA'
p823
sS'AORWCMD4'
p824
S'J'
sS'2PMT2T'
p825
S'K'
sS'EIACVAV'
p826
S'V'
sS'EB3V'
p827
S'V'
sS'PLAED1HT'
p828
S'K'
sS'1MAHOAT'
p829
S'K'
sS'EORTDMN24D'
p830
S'K'
sS'3TTVALVT'
p831
S'K'
sS'PXDM02T'
p832
S'K'
sS'AOCMDAC1'
p833
S'rad/s**2'
p834
sS'CUSOAIT'
p835
S'K'
sS'4HPOSARO'
p836
S'deg'
p837
sS'OHRMGRD6'
p838
S'deltaK'
p839
sS'POLINE05T'
p840
S'K'
sS'OHRMGRD3'
p841
g839
sS'EOEB3V'
p842
S'V'
sS'4IN15AV'
p843
S'V'
sS'CIUA15V'
p844
S'V'
sS'AOTQCMD1'
p845
S'J'
sS'AOTQCMD3'
p846
S'J'
sS'AOTQCMD2'
p847
S'J'
sS'TRSPOTEP'
p848
S'K'
sS'AIRU2G2I'
p849
S'mA'
p850
sS'AOCMDAC2'
p851
S'rad/s**2'
p852
sS'TRSPOTEX'
p853
S'K'
sS'AORTERR1'
p854
S'rad/s'
p855
sS'4PRT3AT'
p856
S'K'
sS'AOSPACS1B'
p857
S'mA'
p858
sS'EOEBC'
p859
S'A'
sS'TB1T1'
p860
S'K'
sS'AFLCAAH'
p861
S'V'
sS'1CRAT'
p862
S'K'
sS'AFSSPC2V'
p863
S'V'
sS'PMTANK2T'
p864
S'K'
sS'4RT558T'
p865
S'K'
sS'AOACYAN1'
p866
S'arcsec'
p867
sS'1SSPYT'
p868
S'K'
sS'AFLC11AI'
p869
S'mA'
p870
sS'PLAED1CT'
p871
S'K'
sS'AOCMDAC3'
p872
S'rad/s**2'
p873
sS'POM2THV2T'
p874
S'K'
sS'PLAED4HT'
p875
S'K'
sS'2DTSTATT'
p876
S'K'
sS'OOBTHR08'
p877
S'K'
sS'OOBTHR09'
p878
S'K'
sS'AAOTASMT'
p879
S'K'
sS'CSITA5V'
p880
S'V'
sS'OOBTHR03'
p881
S'K'
sS'TCYLAFT3'
p882
S'K'
sS'TCYLAFT2'
p883
S'K'
sS'OOBTHR06'
p884
S'K'
sS'OOBTHR07'
p885
S'K'
sS'OOBTHR04'
p886
S'K'
sS'OOBTHR05'
p887
S'K'
sS'EOESAT2C'
p888
S'K'
sS'PR3TV01T'
p889
S'K'
sS'TBOLTCUT'
p890
S'K'
sS'AOACYAN4'
p891
S'arcsec'
p892
sS'AOACYAN5'
p893
S'arcsec'
p894
sS'AOACYAN6'
p895
S'arcsec'
p896
sS'AOACYAN7'
p897
S'arcsec'
p898
sS'AOACYAN0'
p899
S'arcsec'
p900
sS'1MAHCBT'
p901
S'K'
sS'AOACYAN2'
p902
S'arcsec'
p903
sS'AOACYAN3'
p904
S'arcsec'
p905
sS'TFSSBKT1'
p906
S'K'
sS'PLAED4CT'
p907
S'K'
sS'CUSOB28V'
p908
S'V'
sS'AORESY7'
p909
S'rad'
p910
sS'AORESY4'
p911
S'rad'
p912
sS'CSITB5V'
p913
S'V'
sS'AORESY3'
p914
S'rad'
p915
sS'AORESY0'
p916
S'rad'
p917
sS'CSITB15V'
p918
S'V'
sS'EB2CI'
p919
S'A'
sS'TEP_PPAN'
p920
S'K'
sS'AORESZ2_1'
p921
S'rad'
p922
sS'1DAHBVO'
p923
S'V'
sS'4RT565T'
p924
S'K'
sS'POLAEV2BT'
p925
S'K'
sS'PLAED1ET'
p926
S'K'
sS'POLAEV4AT'
p927
S'K'
sS'CSSR2CBV'
p928
S'V'
sS'4RT707T'
p929
S'K'
sS'PLINE05T'
p930
S'K'
sS'PLAED3AT'
p931
S'K'
sS'TAPE2PST'
p932
S'K'
sS'4IP5BV'
p933
S'V'
sS'4PRT4BT'
p934
S'K'
sS'1DAHHAVO'
p935
S'V'
sS'3TSPYFET'
p936
S'K'
sS'POLINE02T'
p937
S'K'
sS'4RT555T'
p938
S'K'
sS'TPC_DEA'
p939
S'K'
sS'PXTANKIP'
p940
S'kPa'
p941
sS'AORWINT1'
p942
S'ms'
p943
sS'ARWA5BT'
p944
S'K'
sS'ELBI_LOW'
p945
S'A'
sS'2CHTRPZT'
p946
S'K'
sS'4RT579T'
p947
S'K'
sS'TCM_USO'
p948
S'K'
sS'PLINE13T'
p949
S'K'
sS'AOATTER1'
p950
S'rad'
p951
sS'AOATTER2'
p952
S'rad'
p953
sS'AOATTER3'
p954
S'rad'
p955
sS'TMZLGABM'
p956
S'K'
sS'2P24VAVL'
p957
S'V'
sS'AWD5TQI'
p958
S'A'
sS'AOADACH1A_NBG'
p959
S'deg'
p960
sS'ECNV1V'
p961
S'V'
sS'EEPA5V'
p962
S'V'
sS'4RT585T'
p963
S'K'
sS'PLAED2BT'
p964
S'K'
sS'OHRTHR03'
p965
S'K'
sS'OHRTHR02'
p966
S'K'
sS'OHRTHR05'
p967
S'K'
sS'OHRTHR04'
p968
S'K'
sS'OHRTHR07'
p969
S'K'
sS'OHRTHR06'
p970
S'K'
sS'OHRTHR09'
p971
S'K'
sS'1WRBT'
p972
S'K'
sS'AIRU1VFT'
p973
S'K'
sS'AORESZ6_6'
p974
S'rad'
p975
sS'AORESZ6_7'
p976
S'rad'
p977
sS'AORESZ6_4'
p978
S'rad'
p979
sS'AOADBCH1A_NBG'
p980
S'deg'
p981
sS'AORESZ6_2'
p982
S'rad'
p983
sS'AORESZ6_3'
p984
S'rad'
p985
sS'CTSA5V'
p986
S'V'
sS'AORESZ6_1'
p987
S'rad'
p988
sS'4RT570T'
p989
S'K'
sS'AIRU1G1T'
p990
S'K'
sS'4RT705T'
p991
S'K'
sS'ELBI'
p992
S'A'
sS'1CBBT'
p993
S'K'
sS'AORESZ6_8'
p994
S'rad'
p995
sS'3BTU_BPT'
p996
S'K'
sS'AOSARES2'
p997
S'deg'
p998
sS'AORESY5_1'
p999
S'rad'
p1000
sS'ELBV'
p1001
S'V'
sS'4RT591T'
p1002
S'K'
sS'TEP_PCU'
p1003
S'K'
sS'1DEP0BVO'
p1004
S'V'
sS'4PRTAV'
p1005
S'V'
sS'TMZP_MY'
p1006
S'K'
sS'CTSB15V'
p1007
S'V'
sS'CPCA15V'
p1008
S'V'
sS'TMYHNG'
p1009
S'K'
sS'SIM_Y'
p1010
S'mm'
p1011
sS'PLAEV3BT'
p1012
S'K'
sS'SIM_Z'
p1013
S'mm'
p1014
sS'1DEICBCU'
p1015
S'A'
sS'PLINE12T'
p1016
S'K'
sS'AIRU2VFT'
p1017
S'K'
sS'EOESAT1C'
p1018
S'K'
sS'CRXAV'
p1019
S'V'
sS'C28VMONA'
p1020
S'V'
sS'AOADACH2A_PCAD'
p1021
S'deg'
p1022
sS'3TSPZDET'
p1023
S'K'
sS'TPYSADA'
p1024
S'K'
sS'EORTDMN15D'
p1025
S'K'
sS'AIRU1G1I'
p1026
S'mA'
p1027
sS'PLAED4DT'
p1028
S'K'
sS'PHETANKP'
p1029
S'kPa'
p1030
sS'PLINE08T'
p1031
S'K'
sS'POLINE01T'
p1032
S'K'
sS'TPC_FSSE'
p1033
S'K'
sS'AFLC12BI'
p1034
S'mA'
p1035
sS'CIUA5V'
p1036
S'V'
sS'AFLC14AI'
p1037
S'mA'
p1038
sS'TSCIUSF1'
p1039
S'K'
sS'PFTANKOP'
p1040
S'kPa'
p1041
sS'AORESZ7'
p1042
S'rad'
p1043
sS'3TTRALCT'
p1044
S'K'
sS'2P15VBVL'
p1045
S'V'
sS'AORESZ4'
p1046
S'rad'
p1047
sS'AORESZ3'
p1048
S'rad'
p1049
sS'PCM04T'
p1050
S'K'
sS'AORESZ0'
p1051
S'rad'
p1052
sS'AORWNTQ4'
p1053
S'J'
sS'AORWNTQ5'
p1054
S'J'
sS'AORWNTQ6'
p1055
S'J'
sS'AORWMC6_1'
p1056
S'J*s'
p1057
sS'EOECNV2C'
p1058
S'V'
sS'AORWNTQ2'
p1059
S'J'
sS'CPA2V'
p1060
S'V'
sS'DIST_SATEARTH'
p1061
S'm'
sS'AOSPBCS4B'
p1062
S'mA'
p1063
sS'4RT567T'
p1064
S'K'
sS'4PRT1BT'
p1065
S'K'
sS'TRSPOTPC'
p1066
S'K'
sS'TCM_OBC'
p1067
S'K'
sS'AORWMC1'
p1068
S'J*s'
p1069
sS'4RT578T'
p1070
S'K'
sS'AORWMC4'
p1071
S'J*s'
p1072
sS'AORWMC5'
p1073
S'J*s'
p1074
sS'TCYLPCP'
p1075
S'K'
sS'PM1THV2T'
p1076
S'K'
sS'TB1T2'
p1077
S'K'
sS'AOSCPOS1'
p1078
S'km'
p1079
sS'AOSCPOS2'
p1080
S'km'
p1081
sS'AOSCPOS3'
p1082
S'km'
p1083
sS'4RT588T'
p1084
S'K'
sS'PCM01T'
p1085
S'K'
sS'4RT596T'
p1086
S'K'
sS'OOBTHR51'
p1087
S'K'
sS'OOBTHR50'
p1088
S'K'
sS'OOBTHR53'
p1089
S'K'
sS'OOBTHR52'
p1090
S'K'
sS'OOBTHR55'
p1091
S'K'
sS'OOBTHR54'
p1092
S'K'
sS'OOBTHR57'
p1093
S'K'
sS'OOBTHR56'
p1094
S'K'
sS'OOBTHR59'
p1095
S'K'
sS'OOBTHR58'
p1096
S'K'
sS'SIM_X'
p1097
S'mm'
p1098
sS'1SSMYT'
p1099
S'K'
sS'CTXBV'
p1100
S'V'
sS'4PRT2BT'
p1101
S'K'
sS'ARWA6BT'
p1102
S'K'
sS'4RT575T'
p1103
S'K'
sS'CPA1BPT'
p1104
S'K'
sS'PM4THV2T'
p1105
S'K'
sS'4IP5AV'
p1106
S'V'
sS'4VRMOAV'
p1107
S'V'
sS'2PMT1T'
p1108
S'K'
sS'EB2V'
p1109
S'V'
sS'1DPAMZT'
p1110
S'K'
sS'EIACVBV'
p1111
S'V'
sS'EORTDMN27D'
p1112
S'K'
sS'4RT703T'
p1113
S'K'
sS'1DAHHBVO'
p1114
S'V'
sS'1DEP1AVO'
p1115
S'V'
sS'1VAHOBT'
p1116
S'K'
sS'1MAHOBT'
p1117
S'K'
sS'4RT706T'
p1118
S'K'
sS'CRXBLS'
p1119
S'kHz'
p1120
sS'AOSAEST2'
p1121
S'rad'
p1122
sS'OHRTHR49'
p1123
S'K'
sS'POLINE12T'
p1124
S'K'
sS'TASPPCM'
p1125
S'K'
sS'OHRTHR45'
p1126
S'K'
sS'OHRTHR44'
p1127
S'K'
sS'OHRTHR47'
p1128
S'K'
sS'OHRTHR46'
p1129
S'K'
sS'OHRTHR41'
p1130
S'K'
sS'OHRTHR40'
p1131
S'K'
sS'OHRTHR43'
p1132
S'K'
sS'OHRTHR42'
p1133
S'K'
sS'AWD2TQI'
p1134
S'A'
sS'4LPOSARO'
p1135
S'deg'
p1136
sS'PCM03T'
p1137
S'K'
sS'EOEB1DIC'
p1138
S'A'
sS'POINT_EARTHLIMBANG'
p1139
S'deg'
p1140
sS'TASPPCU'
p1141
S'K'
sS'POM2THV1T'
p1142
S'K'
sS'4RT708T'
p1143
S'K'
sS'OOBAGRD6'
p1144
g839
sS'TB1T3'
p1145
S'K'
sS'TEP_EIA'
p1146
S'K'
sS'TESH2'
p1147
S'K'
sS'OOBAGRD3'
p1148
g839
sS'PLAED1FT'
p1149
S'K'
sS'EB3CI'
p1150
S'A'
sS'AORESZ1_1'
p1151
S'rad'
p1152
sS'TATECDPT'
p1153
S'K'
sS'AOSUNER1'
p1154
S'rad'
p1155
sS'4MP28AV'
p1156
S'V'
sS'1HOPRBPR'
p1157
S'kPa'
p1158
sS'1CRBT'
p1159
S'K'
sS'AWD6TQI'
p1160
S'A'
s.