(dp0
S'AORWPI4B'
p1
cnumpy.core.multiarray
scalar
p2
(cnumpy
dtype
p3
(S'S4'
p4
I0
I1
tp5
Rp6
(I3
S'|'
p7
NNNI4
I1
I0
tp8
bS'MSEC'
p9
tp10
Rp11
sS'1DEAMZT'
p12
g2
(g3
(S'S4'
p13
I0
I1
tp14
Rp15
(I3
S'|'
p16
NNNI4
I1
I0
tp17
bS'DEGC'
p18
tp19
Rp20
sS'OOBTHR15_WIDE'
p21
g2
(g3
(S'S4'
p22
I0
I1
tp23
Rp24
(I3
S'|'
p25
NNNI4
I1
I0
tp26
bS'DEGF'
p27
tp28
Rp29
sS'OHRTHR07_WIDE'
p30
g2
(g3
(S'S4'
p31
I0
I1
tp32
Rp33
(I3
S'|'
p34
NNNI4
I1
I0
tp35
bS'DEGF'
p36
tp37
Rp38
sS'PLINE16T'
p39
g2
(g3
(S'S4'
p40
I0
I1
tp41
Rp42
(I3
S'|'
p43
NNNI4
I1
I0
tp44
bS'DEGF'
p45
tp46
Rp47
sS'EORTDMN18D'
p48
g2
(g3
(S'S4'
p49
I0
I1
tp50
Rp51
(I3
S'|'
p52
NNNI4
I1
I0
tp53
bS'DEGF'
p54
tp55
Rp56
sS'CTXAV'
p57
g2
(g3
(S'S1'
p58
I0
I1
tp59
Rp60
(I3
S'|'
p61
NNNI1
I1
I0
tp62
bS'V'
p63
tp64
Rp65
sS'TFSPPCM'
p66
g2
(g3
(S'S4'
p67
I0
I1
tp68
Rp69
(I3
S'|'
p70
NNNI4
I1
I0
tp71
bS'DEGF'
p72
tp73
Rp74
sS'EB1CI'
p75
g2
(g3
(S'S3'
p76
I0
I1
tp77
Rp78
(I3
S'|'
p79
NNNI3
I1
I0
tp80
bS'AMP'
p81
tp82
Rp83
sS'OHRTHR38'
p84
g2
(g3
(S'S4'
p85
I0
I1
tp86
Rp87
(I3
S'|'
p88
NNNI4
I1
I0
tp89
bS'DEGF'
p90
tp91
Rp92
sS'OHRTHR39'
p93
g2
(g3
(S'S4'
p94
I0
I1
tp95
Rp96
(I3
S'|'
p97
NNNI4
I1
I0
tp98
bS'DEGF'
p99
tp100
Rp101
sS'TFSPPCP'
p102
g2
(g3
(S'S4'
p103
I0
I1
tp104
Rp105
(I3
S'|'
p106
NNNI4
I1
I0
tp107
bS'DEGF'
p108
tp109
Rp110
sS'ASPEFSW3B'
p111
g2
(g3
(S'S3'
p112
I0
I1
tp113
Rp114
(I3
S'|'
p115
NNNI3
I1
I0
tp116
bS'DEG'
p117
tp118
Rp119
sS'CUSOAOVN'
p120
g2
(g3
(S'S1'
p121
I0
I1
tp122
Rp123
(I3
S'|'
p124
NNNI1
I1
I0
tp125
bS'W'
p126
tp127
Rp128
sS'OHRTHR58_WIDE'
p129
g2
(g3
(S'S4'
p130
I0
I1
tp131
Rp132
(I3
S'|'
p133
NNNI4
I1
I0
tp134
bS'DEGF'
p135
tp136
Rp137
sS'OHRTHR30'
p138
g2
(g3
(S'S4'
p139
I0
I1
tp140
Rp141
(I3
S'|'
p142
NNNI4
I1
I0
tp143
bS'DEGF'
p144
tp145
Rp146
sS'OHRTHR31'
p147
g2
(g3
(S'S4'
p148
I0
I1
tp149
Rp150
(I3
S'|'
p151
NNNI4
I1
I0
tp152
bS'DEGF'
p153
tp154
Rp155
sS'OHRTHR33'
p156
g2
(g3
(S'S4'
p157
I0
I1
tp158
Rp159
(I3
S'|'
p160
NNNI4
I1
I0
tp161
bS'DEGF'
p162
tp163
Rp164
sS'1DPP0BVO'
p165
g2
(g3
(S'S1'
p166
I0
I1
tp167
Rp168
(I3
S'|'
p169
NNNI1
I1
I0
tp170
bg63
tp171
Rp172
sS'OHRTHR35'
p173
g2
(g3
(S'S4'
p174
I0
I1
tp175
Rp176
(I3
S'|'
p177
NNNI4
I1
I0
tp178
bS'DEGF'
p179
tp180
Rp181
sS'OHRTHR36'
p182
g2
(g3
(S'S4'
p183
I0
I1
tp184
Rp185
(I3
S'|'
p186
NNNI4
I1
I0
tp187
bS'DEGF'
p188
tp189
Rp190
sS'OHRTHR37'
p191
g2
(g3
(S'S4'
p192
I0
I1
tp193
Rp194
(I3
S'|'
p195
NNNI4
I1
I0
tp196
bS'DEGF'
p197
tp198
Rp199
sS'EORTDMN11D'
p200
g2
(g3
(S'S4'
p201
I0
I1
tp202
Rp203
(I3
S'|'
p204
NNNI4
I1
I0
tp205
bS'DEGF'
p206
tp207
Rp208
sS'AFLC11BI'
p209
g2
(g3
(S'S4'
p210
I0
I1
tp211
Rp212
(I3
S'|'
p213
NNNI4
I1
I0
tp214
bS'MAMP'
p215
tp216
Rp217
sS'AORWMC3_1'
p218
g2
(g3
(S'S7'
p219
I0
I1
tp220
Rp221
(I3
S'|'
p222
NNNI7
I1
I0
tp223
bS'FTLBSEC'
p224
tp225
Rp226
sS'PLAED2FT'
p227
g2
(g3
(S'S4'
p228
I0
I1
tp229
Rp230
(I3
S'|'
p231
NNNI4
I1
I0
tp232
bS'DEGF'
p233
tp234
Rp235
sS'TEPHIN'
p236
g2
(g3
(S'S4'
p237
I0
I1
tp238
Rp239
(I3
S'|'
p240
NNNI4
I1
I0
tp241
bS'DEGF'
p242
tp243
Rp244
sS'3TTHRC1T'
p245
g2
(g3
(S'S4'
p246
I0
I1
tp247
Rp248
(I3
S'|'
p249
NNNI4
I1
I0
tp250
bS'DEGC'
p251
tp252
Rp253
sS'1PDEAAT'
p254
g2
(g3
(S'S4'
p255
I0
I1
tp256
Rp257
(I3
S'|'
p258
NNNI4
I1
I0
tp259
bS'DEGC'
p260
tp261
Rp262
sS'ELBI_LOW'
p263
g2
(g3
(S'S3'
p264
I0
I1
tp265
Rp266
(I3
S'|'
p267
NNNI3
I1
I0
tp268
bS'AMP'
p269
tp270
Rp271
sS'OHRTHR08_WIDE'
p272
g2
(g3
(S'S4'
p273
I0
I1
tp274
Rp275
(I3
S'|'
p276
NNNI4
I1
I0
tp277
bS'DEGF'
p278
tp279
Rp280
sS'OOBTHR26_WIDE'
p281
g2
(g3
(S'S4'
p282
I0
I1
tp283
Rp284
(I3
S'|'
p285
NNNI4
I1
I0
tp286
bS'DEGF'
p287
tp288
Rp289
sS'OHRTHR22_WIDE'
p290
g2
(g3
(S'S4'
p291
I0
I1
tp292
Rp293
(I3
S'|'
p294
NNNI4
I1
I0
tp295
bS'DEGF'
p296
tp297
Rp298
sS'4RT562T'
p299
g2
(g3
(S'S4'
p300
I0
I1
tp301
Rp302
(I3
S'|'
p303
NNNI4
I1
I0
tp304
bS'DEGF'
p305
tp306
Rp307
sS'4PRT1AT'
p308
g2
(g3
(S'S4'
p309
I0
I1
tp310
Rp311
(I3
S'|'
p312
NNNI4
I1
I0
tp313
bS'DEGF'
p314
tp315
Rp316
sS'AORWMOM1'
p317
g2
(g3
(S'S7'
p318
I0
I1
tp319
Rp320
(I3
S'|'
p321
NNNI7
I1
I0
tp322
bS'FTLBSEC'
p323
tp324
Rp325
sS'TMZP_PY'
p326
g2
(g3
(S'S4'
p327
I0
I1
tp328
Rp329
(I3
S'|'
p330
NNNI4
I1
I0
tp331
bS'DEGF'
p332
tp333
Rp334
sS'4RT710T'
p335
g2
(g3
(S'S4'
p336
I0
I1
tp337
Rp338
(I3
S'|'
p339
NNNI4
I1
I0
tp340
bS'DEGF'
p341
tp342
Rp343
sS'ASPEB5CV'
p344
g2
(g3
(S'S1'
p345
I0
I1
tp346
Rp347
(I3
S'|'
p348
NNNI1
I1
I0
tp349
bg63
tp350
Rp351
sS'TMP_FEP0_RAM'
p352
S'DEGC'
p353
sS'AOZABR'
p354
g2
(g3
(S'S3'
p355
I0
I1
tp356
Rp357
(I3
S'|'
p358
NNNI3
I1
I0
tp359
bS'RAD'
p360
tp361
Rp362
sS'AORESZ5_1'
p363
g2
(g3
(S'S3'
p364
I0
I1
tp365
Rp366
(I3
S'|'
p367
NNNI3
I1
I0
tp368
bS'RAD'
p369
tp370
Rp371
sS'TB2T3'
p372
g2
(g3
(S'S4'
p373
I0
I1
tp374
Rp375
(I3
S'|'
p376
NNNI4
I1
I0
tp377
bS'DEGF'
p378
tp379
Rp380
sS'TB2T2'
p381
g2
(g3
(S'S4'
p382
I0
I1
tp383
Rp384
(I3
S'|'
p385
NNNI4
I1
I0
tp386
bS'DEGF'
p387
tp388
Rp389
sS'PLINE06T'
p390
g2
(g3
(S'S4'
p391
I0
I1
tp392
Rp393
(I3
S'|'
p394
NNNI4
I1
I0
tp395
bS'DEGF'
p396
tp397
Rp398
sS'AOADBCH1A_PCAD'
p399
g2
(g3
(S'S3'
p400
I0
I1
tp401
Rp402
(I3
S'|'
p403
NNNI3
I1
I0
tp404
bS'DEG'
p405
tp406
Rp407
sS'AORWPI3B'
p408
g2
(g3
(S'S4'
p409
I0
I1
tp410
Rp411
(I3
S'|'
p412
NNNI4
I1
I0
tp413
bS'MSEC'
p414
tp415
Rp416
sS'POR2TV02T'
p417
g2
(g3
(S'S4'
p418
I0
I1
tp419
Rp420
(I3
S'|'
p421
NNNI4
I1
I0
tp422
bS'DEGF'
p423
tp424
Rp425
sS'1DAHAVO'
p426
g2
(g3
(S'S1'
p427
I0
I1
tp428
Rp429
(I3
S'|'
p430
NNNI1
I1
I0
tp431
bg63
tp432
Rp433
sS'OOBTHR36_WIDE'
p434
g2
(g3
(S'S4'
p435
I0
I1
tp436
Rp437
(I3
S'|'
p438
NNNI4
I1
I0
tp439
bS'DEGF'
p440
tp441
Rp442
sS'OHRTHR54_WIDE'
p443
g2
(g3
(S'S4'
p444
I0
I1
tp445
Rp446
(I3
S'|'
p447
NNNI4
I1
I0
tp448
bS'DEGF'
p449
tp450
Rp451
sS'PXTANK2T'
p452
g2
(g3
(S'S4'
p453
I0
I1
tp454
Rp455
(I3
S'|'
p456
NNNI4
I1
I0
tp457
bS'DEGF'
p458
tp459
Rp460
sS'OOBTHR24_WIDE'
p461
g2
(g3
(S'S4'
p462
I0
I1
tp463
Rp464
(I3
S'|'
p465
NNNI4
I1
I0
tp466
bS'DEGF'
p467
tp468
Rp469
sS'TPCP_RW3'
p470
g2
(g3
(S'S4'
p471
I0
I1
tp472
Rp473
(I3
S'|'
p474
NNNI4
I1
I0
tp475
bS'DEGF'
p476
tp477
Rp478
sS'3TSMYDPT'
p479
g2
(g3
(S'S4'
p480
I0
I1
tp481
Rp482
(I3
S'|'
p483
NNNI4
I1
I0
tp484
bS'DEGC'
p485
tp486
Rp487
sS'PR1TV02T'
p488
g2
(g3
(S'S4'
p489
I0
I1
tp490
Rp491
(I3
S'|'
p492
NNNI4
I1
I0
tp493
bS'DEGF'
p494
tp495
Rp496
sS'3TTACS1T'
p497
g2
(g3
(S'S4'
p498
I0
I1
tp499
Rp500
(I3
S'|'
p501
NNNI4
I1
I0
tp502
bS'DEGC'
p503
tp504
Rp505
sS'AORESY2_1'
p506
g2
(g3
(S'S3'
p507
I0
I1
tp508
Rp509
(I3
S'|'
p510
NNNI3
I1
I0
tp511
bS'RAD'
p512
tp513
Rp514
sS'PHOFP1T'
p515
g2
(g3
(S'S4'
p516
I0
I1
tp517
Rp518
(I3
S'|'
p519
NNNI4
I1
I0
tp520
bS'DEGF'
p521
tp522
Rp523
sS'OHRTHR10_WIDE'
p524
g2
(g3
(S'S4'
p525
I0
I1
tp526
Rp527
(I3
S'|'
p528
NNNI4
I1
I0
tp529
bS'DEGF'
p530
tp531
Rp532
sS'4MP5AV'
p533
g2
(g3
(S'S3'
p534
I0
I1
tp535
Rp536
(I3
S'|'
p537
NNNI3
I1
I0
tp538
bS'VDC'
p539
tp540
Rp541
sS'AORTERR2'
p542
g2
(g3
(S'S5'
p543
I0
I1
tp544
Rp545
(I3
S'|'
p546
NNNI5
I1
I0
tp547
bS'RADPS'
p548
tp549
Rp550
sS'CUSOA28V'
p551
g2
(g3
(S'S1'
p552
I0
I1
tp553
Rp554
(I3
S'|'
p555
NNNI1
I1
I0
tp556
bg63
tp557
Rp558
sS'C10VREFB'
p559
g2
(g3
(S'S3'
p560
I0
I1
tp561
Rp562
(I3
S'|'
p563
NNNI3
I1
I0
tp564
bS'VDC'
p565
tp566
Rp567
sS'OOBTHR34'
p568
g2
(g3
(S'S4'
p569
I0
I1
tp570
Rp571
(I3
S'|'
p572
NNNI4
I1
I0
tp573
bS'DEGF'
p574
tp575
Rp576
sS'OHRTHR31_WIDE'
p577
g2
(g3
(S'S4'
p578
I0
I1
tp579
Rp580
(I3
S'|'
p581
NNNI4
I1
I0
tp582
bS'DEGF'
p583
tp584
Rp585
sS'AVACMON'
p586
g2
(g3
(S'S4'
p587
I0
I1
tp588
Rp589
(I3
S'|'
p590
NNNI4
I1
I0
tp591
bS'DEGC'
p592
tp593
Rp594
sS'EOECNV2C'
p595
g2
(g3
(S'S1'
p596
I0
I1
tp597
Rp598
(I3
S'|'
p599
NNNI1
I1
I0
tp600
bg63
tp601
Rp602
sS'2TLEV2RT'
p603
g2
(g3
(S'S2'
p604
I0
I1
tp605
Rp606
(I3
S'|'
p607
NNNI2
I1
I0
tp608
bS'HZ'
p609
tp610
Rp611
sS'OOBTHR33'
p612
g2
(g3
(S'S4'
p613
I0
I1
tp614
Rp615
(I3
S'|'
p616
NNNI4
I1
I0
tp617
bS'DEGF'
p618
tp619
Rp620
sS'AOATTER3'
p621
g2
(g3
(S'S3'
p622
I0
I1
tp623
Rp624
(I3
S'|'
p625
NNNI3
I1
I0
tp626
bS'RAD'
p627
tp628
Rp629
sS'TAPEA1T'
p630
g2
(g3
(S'S4'
p631
I0
I1
tp632
Rp633
(I3
S'|'
p634
NNNI4
I1
I0
tp635
bS'DEGF'
p636
tp637
Rp638
sS'ES1P5CV'
p639
g2
(g3
(S'S1'
p640
I0
I1
tp641
Rp642
(I3
S'|'
p643
NNNI1
I1
I0
tp644
bg63
tp645
Rp646
sS'EOESAC1C'
p647
g2
(g3
(S'S3'
p648
I0
I1
tp649
Rp650
(I3
S'|'
p651
NNNI3
I1
I0
tp652
bS'AMP'
p653
tp654
Rp655
sS'OOBTHR18'
p656
g2
(g3
(S'S4'
p657
I0
I1
tp658
Rp659
(I3
S'|'
p660
NNNI4
I1
I0
tp661
bS'DEGF'
p662
tp663
Rp664
sS'PFTANKIP'
p665
g2
(g3
(S'S4'
p666
I0
I1
tp667
Rp668
(I3
S'|'
p669
NNNI4
I1
I0
tp670
bS'PSIA'
p671
tp672
Rp673
sS'CVEEP'
p674
g2
(g3
(S'S1'
p675
I0
I1
tp676
Rp677
(I3
S'|'
p678
NNNI1
I1
I0
tp679
bg63
tp680
Rp681
sS'OOBTHR14'
p682
g2
(g3
(S'S4'
p683
I0
I1
tp684
Rp685
(I3
S'|'
p686
NNNI4
I1
I0
tp687
bS'DEGF'
p688
tp689
Rp690
sS'OOBTHR17'
p691
g2
(g3
(S'S4'
p692
I0
I1
tp693
Rp694
(I3
S'|'
p695
NNNI4
I1
I0
tp696
bS'DEGF'
p697
tp698
Rp699
sS'OOBTHR30'
p700
g2
(g3
(S'S4'
p701
I0
I1
tp702
Rp703
(I3
S'|'
p704
NNNI4
I1
I0
tp705
bS'DEGF'
p706
tp707
Rp708
sS'OOBTHR11'
p709
g2
(g3
(S'S4'
p710
I0
I1
tp711
Rp712
(I3
S'|'
p713
NNNI4
I1
I0
tp714
bS'DEGF'
p715
tp716
Rp717
sS'OOBTHR10'
p718
g2
(g3
(S'S4'
p719
I0
I1
tp720
Rp721
(I3
S'|'
p722
NNNI4
I1
I0
tp723
bS'DEGF'
p724
tp725
Rp726
sS'ECNV2V'
p727
g2
(g3
(S'S1'
p728
I0
I1
tp729
Rp730
(I3
S'|'
p731
NNNI1
I1
I0
tp732
bg63
tp733
Rp734
sS'OOBTHR12'
p735
g2
(g3
(S'S4'
p736
I0
I1
tp737
Rp738
(I3
S'|'
p739
NNNI4
I1
I0
tp740
bS'DEGF'
p741
tp742
Rp743
sS'EOEB3CIC'
p744
g2
(g3
(S'S3'
p745
I0
I1
tp746
Rp747
(I3
S'|'
p748
NNNI3
I1
I0
tp749
bS'AMP'
p750
tp751
Rp752
sS'CUSOBOVN'
p753
g2
(g3
(S'S1'
p754
I0
I1
tp755
Rp756
(I3
S'|'
p757
NNNI1
I1
I0
tp758
bg126
tp759
Rp760
sS'EOEB1CIC'
p761
g2
(g3
(S'S3'
p762
I0
I1
tp763
Rp764
(I3
S'|'
p765
NNNI3
I1
I0
tp766
bS'AMP'
p767
tp768
Rp769
sS'TB3T1'
p770
g2
(g3
(S'S4'
p771
I0
I1
tp772
Rp773
(I3
S'|'
p774
NNNI4
I1
I0
tp775
bS'DEGF'
p776
tp777
Rp778
sS'OOBTHR10_WIDE'
p779
g2
(g3
(S'S4'
p780
I0
I1
tp781
Rp782
(I3
S'|'
p783
NNNI4
I1
I0
tp784
bS'DEGF'
p785
tp786
Rp787
sS'4HLL1AT'
p788
g2
(g3
(S'S4'
p789
I0
I1
tp790
Rp791
(I3
S'|'
p792
NNNI4
I1
I0
tp793
bS'DEGF'
p794
tp795
Rp796
sS'AOSCPOS3'
p797
g2
(g3
(S'S2'
p798
I0
I1
tp799
Rp800
(I3
S'|'
p801
NNNI2
I1
I0
tp802
bS'KM'
p803
tp804
Rp805
sS'AACCCDRT'
p806
g2
(g3
(S'S4'
p807
I0
I1
tp808
Rp809
(I3
S'|'
p810
NNNI4
I1
I0
tp811
bS'DEGF'
p812
tp813
Rp814
sS'ESAMYI'
p815
g2
(g3
(S'S3'
p816
I0
I1
tp817
Rp818
(I3
S'|'
p819
NNNI3
I1
I0
tp820
bS'AMP'
p821
tp822
Rp823
sS'TMYSADA'
p824
g2
(g3
(S'S4'
p825
I0
I1
tp826
Rp827
(I3
S'|'
p828
NNNI4
I1
I0
tp829
bS'DEGF'
p830
tp831
Rp832
sS'OHRTHR43_WIDE'
p833
g2
(g3
(S'S4'
p834
I0
I1
tp835
Rp836
(I3
S'|'
p837
NNNI4
I1
I0
tp838
bS'DEGF'
p839
tp840
Rp841
sS'AACH2T'
p842
g2
(g3
(S'S4'
p843
I0
I1
tp844
Rp845
(I3
S'|'
p846
NNNI4
I1
I0
tp847
bS'DEGF'
p848
tp849
Rp850
sS'OHRTHR34'
p851
g2
(g3
(S'S4'
p852
I0
I1
tp853
Rp854
(I3
S'|'
p855
NNNI4
I1
I0
tp856
bS'DEGF'
p857
tp858
Rp859
sS'AFLCA5AI'
p860
g2
(g3
(S'S4'
p861
I0
I1
tp862
Rp863
(I3
S'|'
p864
NNNI4
I1
I0
tp865
bS'MAMP'
p866
tp867
Rp868
sS'3TSMXSPT'
p869
g2
(g3
(S'S4'
p870
I0
I1
tp871
Rp872
(I3
S'|'
p873
NNNI4
I1
I0
tp874
bS'DEGC'
p875
tp876
Rp877
sS'AORESY3'
p878
g2
(g3
(S'S3'
p879
I0
I1
tp880
Rp881
(I3
S'|'
p882
NNNI3
I1
I0
tp883
bS'RAD'
p884
tp885
Rp886
sS'CVEER'
p887
g2
(g3
(S'S1'
p888
I0
I1
tp889
Rp890
(I3
S'|'
p891
NNNI1
I1
I0
tp892
bg63
tp893
Rp894
sS'4RT584T'
p895
g2
(g3
(S'S4'
p896
I0
I1
tp897
Rp898
(I3
S'|'
p899
NNNI4
I1
I0
tp900
bS'DEGF'
p901
tp902
Rp903
sS'OOBTHR13'
p904
g2
(g3
(S'S4'
p905
I0
I1
tp906
Rp907
(I3
S'|'
p908
NNNI4
I1
I0
tp909
bS'DEGF'
p910
tp911
Rp912
sS'2P05VBVL'
p913
g2
(g3
(S'S3'
p914
I0
I1
tp915
Rp916
(I3
S'|'
p917
NNNI3
I1
I0
tp918
bS'VDC'
p919
tp920
Rp921
sS'PLAED3IT'
p922
g2
(g3
(S'S4'
p923
I0
I1
tp924
Rp925
(I3
S'|'
p926
NNNI4
I1
I0
tp927
bS'DEGF'
p928
tp929
Rp930
sS'EORTDMN22D'
p931
g2
(g3
(S'S4'
p932
I0
I1
tp933
Rp934
(I3
S'|'
p935
NNNI4
I1
I0
tp936
bS'DEGF'
p937
tp938
Rp939
sS'4RT592T'
p940
g2
(g3
(S'S4'
p941
I0
I1
tp942
Rp943
(I3
S'|'
p944
NNNI4
I1
I0
tp945
bS'DEGF'
p946
tp947
Rp948
sS'61RCSTMR'
p949
g2
(g3
(S'S3'
p950
I0
I1
tp951
Rp952
(I3
S'|'
p953
NNNI3
I1
I0
tp954
bS'MIN'
p955
tp956
Rp957
sS'AIRU1BT'
p958
g2
(g3
(S'S4'
p959
I0
I1
tp960
Rp961
(I3
S'|'
p962
NNNI4
I1
I0
tp963
bS'DEGF'
p964
tp965
Rp966
sS'PR2TV01T'
p967
g2
(g3
(S'S4'
p968
I0
I1
tp969
Rp970
(I3
S'|'
p971
NNNI4
I1
I0
tp972
bS'DEGF'
p973
tp974
Rp975
sS'TCM_SSR1'
p976
g2
(g3
(S'S4'
p977
I0
I1
tp978
Rp979
(I3
S'|'
p980
NNNI4
I1
I0
tp981
bS'DEGF'
p982
tp983
Rp984
sS'OHRTHR52_WIDE'
p985
g2
(g3
(S'S4'
p986
I0
I1
tp987
Rp988
(I3
S'|'
p989
NNNI4
I1
I0
tp990
bS'DEGF'
p991
tp992
Rp993
sS'6DRFTQC2'
p994
g2
(g3
(S'S4'
p995
I0
I1
tp996
Rp997
(I3
S'|'
p998
NNNI4
I1
I0
tp999
bS'FTLB'
p1000
tp1001
Rp1002
sS'6DRFTQC3'
p1003
g2
(g3
(S'S4'
p1004
I0
I1
tp1005
Rp1006
(I3
S'|'
p1007
NNNI4
I1
I0
tp1008
bS'FTLB'
p1009
tp1010
Rp1011
sS'POLINE04T'
p1012
g2
(g3
(S'S4'
p1013
I0
I1
tp1014
Rp1015
(I3
S'|'
p1016
NNNI4
I1
I0
tp1017
bS'DEGF'
p1018
tp1019
Rp1020
sS'6DRFTQC1'
p1021
g2
(g3
(S'S4'
p1022
I0
I1
tp1023
Rp1024
(I3
S'|'
p1025
NNNI4
I1
I0
tp1026
bS'FTLB'
p1027
tp1028
Rp1029
sS'OOBTHR29_WIDE'
p1030
g2
(g3
(S'S4'
p1031
I0
I1
tp1032
Rp1033
(I3
S'|'
p1034
NNNI4
I1
I0
tp1035
bS'DEGF'
p1036
tp1037
Rp1038
sS'OOBTHR53_WIDE'
p1039
g2
(g3
(S'S4'
p1040
I0
I1
tp1041
Rp1042
(I3
S'|'
p1043
NNNI4
I1
I0
tp1044
bS'DEGF'
p1045
tp1046
Rp1047
sS'5EPHINT'
p1048
g2
(g3
(S'S4'
p1049
I0
I1
tp1050
Rp1051
(I3
S'|'
p1052
NNNI4
I1
I0
tp1053
bS'DEGC'
p1054
tp1055
Rp1056
sS'4VRMOBV'
p1057
g2
(g3
(S'S3'
p1058
I0
I1
tp1059
Rp1060
(I3
S'|'
p1061
NNNI3
I1
I0
tp1062
bS'VDC'
p1063
tp1064
Rp1065
sS'PLAEV3AT'
p1066
g2
(g3
(S'S4'
p1067
I0
I1
tp1068
Rp1069
(I3
S'|'
p1070
NNNI4
I1
I0
tp1071
bS'DEGF'
p1072
tp1073
Rp1074
sS'AORESY0'
p1075
g2
(g3
(S'S3'
p1076
I0
I1
tp1077
Rp1078
(I3
S'|'
p1079
NNNI3
I1
I0
tp1080
bS'RAD'
p1081
tp1082
Rp1083
sS'AFLCA1AI'
p1084
g2
(g3
(S'S4'
p1085
I0
I1
tp1086
Rp1087
(I3
S'|'
p1088
NNNI4
I1
I0
tp1089
bS'MAMP'
p1090
tp1091
Rp1092
sS'OHRTHR36_WIDE'
p1093
g2
(g3
(S'S4'
p1094
I0
I1
tp1095
Rp1096
(I3
S'|'
p1097
NNNI4
I1
I0
tp1098
bS'DEGF'
p1099
tp1100
Rp1101
sS'2DCENTRT'
p1102
g2
(g3
(S'S4'
p1103
I0
I1
tp1104
Rp1105
(I3
S'|'
p1106
NNNI4
I1
I0
tp1107
bS'DEGC'
p1108
tp1109
Rp1110
sS'OOBTHR60'
p1111
g2
(g3
(S'S4'
p1112
I0
I1
tp1113
Rp1114
(I3
S'|'
p1115
NNNI4
I1
I0
tp1116
bS'DEGF'
p1117
tp1118
Rp1119
sS'OOBTHR61'
p1120
g2
(g3
(S'S4'
p1121
I0
I1
tp1122
Rp1123
(I3
S'|'
p1124
NNNI4
I1
I0
tp1125
bS'DEGF'
p1126
tp1127
Rp1128
sS'OOBTHR62'
p1129
g2
(g3
(S'S4'
p1130
I0
I1
tp1131
Rp1132
(I3
S'|'
p1133
NNNI4
I1
I0
tp1134
bS'DEGF'
p1135
tp1136
Rp1137
sS'OOBTHR63'
p1138
g2
(g3
(S'S4'
p1139
I0
I1
tp1140
Rp1141
(I3
S'|'
p1142
NNNI4
I1
I0
tp1143
bS'DEGF'
p1144
tp1145
Rp1146
sS'PLINE11T'
p1147
g2
(g3
(S'S4'
p1148
I0
I1
tp1149
Rp1150
(I3
S'|'
p1151
NNNI4
I1
I0
tp1152
bS'DEGF'
p1153
tp1154
Rp1155
sS'EPA15V'
p1156
g2
(g3
(S'S1'
p1157
I0
I1
tp1158
Rp1159
(I3
S'|'
p1160
NNNI1
I1
I0
tp1161
bg63
tp1162
Rp1163
sS'AOALPANG'
p1164
g2
(g3
(S'S3'
p1165
I0
I1
tp1166
Rp1167
(I3
S'|'
p1168
NNNI3
I1
I0
tp1169
bS'DEG'
p1170
tp1171
Rp1172
sS'TRSPMTPC'
p1173
g2
(g3
(S'S4'
p1174
I0
I1
tp1175
Rp1176
(I3
S'|'
p1177
NNNI4
I1
I0
tp1178
bS'DEGF'
p1179
tp1180
Rp1181
sS'AOSPACS2B'
p1182
g2
(g3
(S'S4'
p1183
I0
I1
tp1184
Rp1185
(I3
S'|'
p1186
NNNI4
I1
I0
tp1187
bS'MAMP'
p1188
tp1189
Rp1190
sS'AODVTIME'
p1191
g2
(g3
(S'S3'
p1192
I0
I1
tp1193
Rp1194
(I3
S'|'
p1195
NNNI3
I1
I0
tp1196
bS'SEC'
p1197
tp1198
Rp1199
sS'3FASEAAT'
p1200
g2
(g3
(S'S4'
p1201
I0
I1
tp1202
Rp1203
(I3
S'|'
p1204
NNNI4
I1
I0
tp1205
bS'DEGC'
p1206
tp1207
Rp1208
sS'AODITHR3'
p1209
g2
(g3
(S'S3'
p1210
I0
I1
tp1211
Rp1212
(I3
S'|'
p1213
NNNI3
I1
I0
tp1214
bS'RAD'
p1215
tp1216
Rp1217
sS'AODITHR2'
p1218
g2
(g3
(S'S3'
p1219
I0
I1
tp1220
Rp1221
(I3
S'|'
p1222
NNNI3
I1
I0
tp1223
bS'RAD'
p1224
tp1225
Rp1226
sS'AODITHR1'
p1227
g2
(g3
(S'S3'
p1228
I0
I1
tp1229
Rp1230
(I3
S'|'
p1231
NNNI3
I1
I0
tp1232
bS'RAD'
p1233
tp1234
Rp1235
sS'OHRTHR62_WIDE'
p1236
g2
(g3
(S'S4'
p1237
I0
I1
tp1238
Rp1239
(I3
S'|'
p1240
NNNI4
I1
I0
tp1241
bS'DEGF'
p1242
tp1243
Rp1244
sS'PLAED1BT'
p1245
g2
(g3
(S'S4'
p1246
I0
I1
tp1247
Rp1248
(I3
S'|'
p1249
NNNI4
I1
I0
tp1250
bS'DEGF'
p1251
tp1252
Rp1253
sS'TCYLPCM'
p1254
g2
(g3
(S'S4'
p1255
I0
I1
tp1256
Rp1257
(I3
S'|'
p1258
NNNI4
I1
I0
tp1259
bS'DEGF'
p1260
tp1261
Rp1262
sS'OOBTHR17_WIDE'
p1263
g2
(g3
(S'S4'
p1264
I0
I1
tp1265
Rp1266
(I3
S'|'
p1267
NNNI4
I1
I0
tp1268
bS'DEGF'
p1269
tp1270
Rp1271
sS'AFLC12AI'
p1272
g2
(g3
(S'S4'
p1273
I0
I1
tp1274
Rp1275
(I3
S'|'
p1276
NNNI4
I1
I0
tp1277
bS'MAMP'
p1278
tp1279
Rp1280
sS'AOSACMD2'
p1281
g2
(g3
(S'S3'
p1282
I0
I1
tp1283
Rp1284
(I3
S'|'
p1285
NNNI3
I1
I0
tp1286
bS'RAD'
p1287
tp1288
Rp1289
sS'AOADACH1A_PCAD'
p1290
g2
(g3
(S'S3'
p1291
I0
I1
tp1292
Rp1293
(I3
S'|'
p1294
NNNI3
I1
I0
tp1295
bS'DEG'
p1296
tp1297
Rp1298
sS'OOBTHR31'
p1299
g2
(g3
(S'S4'
p1300
I0
I1
tp1301
Rp1302
(I3
S'|'
p1303
NNNI4
I1
I0
tp1304
bS'DEGF'
p1305
tp1306
Rp1307
sS'OHRTHR04'
p1308
g2
(g3
(S'S4'
p1309
I0
I1
tp1310
Rp1311
(I3
S'|'
p1312
NNNI4
I1
I0
tp1313
bS'DEGF'
p1314
tp1315
Rp1316
sS'OOBTHR46'
p1317
g2
(g3
(S'S4'
p1318
I0
I1
tp1319
Rp1320
(I3
S'|'
p1321
NNNI4
I1
I0
tp1322
bS'DEGF'
p1323
tp1324
Rp1325
sS'EPB15V'
p1326
g2
(g3
(S'S1'
p1327
I0
I1
tp1328
Rp1329
(I3
S'|'
p1330
NNNI1
I1
I0
tp1331
bg63
tp1332
Rp1333
sS'2UVLSPXT'
p1334
g2
(g3
(S'S4'
p1335
I0
I1
tp1336
Rp1337
(I3
S'|'
p1338
NNNI4
I1
I0
tp1339
bS'DEGC'
p1340
tp1341
Rp1342
sS'TFSSBKT2'
p1343
g2
(g3
(S'S4'
p1344
I0
I1
tp1345
Rp1346
(I3
S'|'
p1347
NNNI4
I1
I0
tp1348
bS'DEGF'
p1349
tp1350
Rp1351
sS'3FARALAT'
p1352
g2
(g3
(S'S4'
p1353
I0
I1
tp1354
Rp1355
(I3
S'|'
p1356
NNNI4
I1
I0
tp1357
bS'DEGC'
p1358
tp1359
Rp1360
sS'TMP_FEP0_FB'
p1361
g353
sS'4HLL2AT'
p1362
g2
(g3
(S'S4'
p1363
I0
I1
tp1364
Rp1365
(I3
S'|'
p1366
NNNI4
I1
I0
tp1367
bS'DEGF'
p1368
tp1369
Rp1370
sS'TCM_PA2'
p1371
g2
(g3
(S'S4'
p1372
I0
I1
tp1373
Rp1374
(I3
S'|'
p1375
NNNI4
I1
I0
tp1376
bS'DEGF'
p1377
tp1378
Rp1379
sS'OHRTHR58'
p1380
g2
(g3
(S'S4'
p1381
I0
I1
tp1382
Rp1383
(I3
S'|'
p1384
NNNI4
I1
I0
tp1385
bS'DEGF'
p1386
tp1387
Rp1388
sS'TMP_FEP1_RAM'
p1389
g353
sS'3FAPYZAT'
p1390
g2
(g3
(S'S4'
p1391
I0
I1
tp1392
Rp1393
(I3
S'|'
p1394
NNNI4
I1
I0
tp1395
bS'DEGC'
p1396
tp1397
Rp1398
sS'OHRTHR08'
p1399
g2
(g3
(S'S4'
p1400
I0
I1
tp1401
Rp1402
(I3
S'|'
p1403
NNNI4
I1
I0
tp1404
bS'DEGF'
p1405
tp1406
Rp1407
sS'AOSCVEL3'
p1408
g2
(g3
(S'S4'
p1409
I0
I1
tp1410
Rp1411
(I3
S'|'
p1412
NNNI4
I1
I0
tp1413
bS'KMPS'
p1414
tp1415
Rp1416
sS'PLAED3GT'
p1417
g2
(g3
(S'S4'
p1418
I0
I1
tp1419
Rp1420
(I3
S'|'
p1421
NNNI4
I1
I0
tp1422
bS'DEGF'
p1423
tp1424
Rp1425
sS'OHRTHR21_WIDE'
p1426
g2
(g3
(S'S4'
p1427
I0
I1
tp1428
Rp1429
(I3
S'|'
p1430
NNNI4
I1
I0
tp1431
bS'DEGF'
p1432
tp1433
Rp1434
sS'AORATE1'
p1435
g2
(g3
(S'S5'
p1436
I0
I1
tp1437
Rp1438
(I3
S'|'
p1439
NNNI5
I1
I0
tp1440
bS'RADPS'
p1441
tp1442
Rp1443
sS'AORATE3'
p1444
g2
(g3
(S'S5'
p1445
I0
I1
tp1446
Rp1447
(I3
S'|'
p1448
NNNI5
I1
I0
tp1449
bS'RADPS'
p1450
tp1451
Rp1452
sS'AORATE2'
p1453
g2
(g3
(S'S5'
p1454
I0
I1
tp1455
Rp1456
(I3
S'|'
p1457
NNNI5
I1
I0
tp1458
bS'RADPS'
p1459
tp1460
Rp1461
sS'CRXAV'
p1462
g2
(g3
(S'S1'
p1463
I0
I1
tp1464
Rp1465
(I3
S'|'
p1466
NNNI1
I1
I0
tp1467
bg63
tp1468
Rp1469
sS'EORTDMN12D'
p1470
g2
(g3
(S'S4'
p1471
I0
I1
tp1472
Rp1473
(I3
S'|'
p1474
NNNI4
I1
I0
tp1475
bS'DEGF'
p1476
tp1477
Rp1478
sS'EOECNV3C'
p1479
g2
(g3
(S'S1'
p1480
I0
I1
tp1481
Rp1482
(I3
S'|'
p1483
NNNI1
I1
I0
tp1484
bg63
tp1485
Rp1486
sS'3TTACS2T'
p1487
g2
(g3
(S'S4'
p1488
I0
I1
tp1489
Rp1490
(I3
S'|'
p1491
NNNI4
I1
I0
tp1492
bS'DEGC'
p1493
tp1494
Rp1495
sS'TCM_CTU'
p1496
g2
(g3
(S'S4'
p1497
I0
I1
tp1498
Rp1499
(I3
S'|'
p1500
NNNI4
I1
I0
tp1501
bS'DEGF'
p1502
tp1503
Rp1504
sS'ESAPYI'
p1505
g2
(g3
(S'S3'
p1506
I0
I1
tp1507
Rp1508
(I3
S'|'
p1509
NNNI3
I1
I0
tp1510
bS'AMP'
p1511
tp1512
Rp1513
sS'4HFSPBT'
p1514
g2
(g3
(S'S4'
p1515
I0
I1
tp1516
Rp1517
(I3
S'|'
p1518
NNNI4
I1
I0
tp1519
bS'DEGF'
p1520
tp1521
Rp1522
sS'EEPB5V'
p1523
g2
(g3
(S'S1'
p1524
I0
I1
tp1525
Rp1526
(I3
S'|'
p1527
NNNI1
I1
I0
tp1528
bg63
tp1529
Rp1530
sS'3FAFLAAT'
p1531
g2
(g3
(S'S4'
p1532
I0
I1
tp1533
Rp1534
(I3
S'|'
p1535
NNNI4
I1
I0
tp1536
bS'DEGC'
p1537
tp1538
Rp1539
sS'TSAMYT'
p1540
g2
(g3
(S'S4'
p1541
I0
I1
tp1542
Rp1543
(I3
S'|'
p1544
NNNI4
I1
I0
tp1545
bS'DEGF'
p1546
tp1547
Rp1548
sS'4MP28BV'
p1549
g2
(g3
(S'S3'
p1550
I0
I1
tp1551
Rp1552
(I3
S'|'
p1553
NNNI3
I1
I0
tp1554
bS'VDC'
p1555
tp1556
Rp1557
sS'PFDM101T'
p1558
g2
(g3
(S'S4'
p1559
I0
I1
tp1560
Rp1561
(I3
S'|'
p1562
NNNI4
I1
I0
tp1563
bS'DEGF'
p1564
tp1565
Rp1566
sS'PLAED3DT'
p1567
g2
(g3
(S'S4'
p1568
I0
I1
tp1569
Rp1570
(I3
S'|'
p1571
NNNI4
I1
I0
tp1572
bS'DEGF'
p1573
tp1574
Rp1575
sS'OHRTHR51'
p1576
g2
(g3
(S'S4'
p1577
I0
I1
tp1578
Rp1579
(I3
S'|'
p1580
NNNI4
I1
I0
tp1581
bS'DEGF'
p1582
tp1583
Rp1584
sS'EORTDMN23D'
p1585
g2
(g3
(S'S4'
p1586
I0
I1
tp1587
Rp1588
(I3
S'|'
p1589
NNNI4
I1
I0
tp1590
bS'DEGF'
p1591
tp1592
Rp1593
sS'AWD3CV5V'
p1594
g2
(g3
(S'S1'
p1595
I0
I1
tp1596
Rp1597
(I3
S'|'
p1598
NNNI1
I1
I0
tp1599
bg63
tp1600
Rp1601
sS'PLINE02T'
p1602
g2
(g3
(S'S4'
p1603
I0
I1
tp1604
Rp1605
(I3
S'|'
p1606
NNNI4
I1
I0
tp1607
bS'DEGF'
p1608
tp1609
Rp1610
sS'4RT706T'
p1611
g2
(g3
(S'S4'
p1612
I0
I1
tp1613
Rp1614
(I3
S'|'
p1615
NNNI4
I1
I0
tp1616
bS'DEGF'
p1617
tp1618
Rp1619
sS'TPCM_RW5'
p1620
g2
(g3
(S'S4'
p1621
I0
I1
tp1622
Rp1623
(I3
S'|'
p1624
NNNI4
I1
I0
tp1625
bS'DEGF'
p1626
tp1627
Rp1628
sS'2CEAHVPT'
p1629
g2
(g3
(S'S4'
p1630
I0
I1
tp1631
Rp1632
(I3
S'|'
p1633
NNNI4
I1
I0
tp1634
bS'DEGC'
p1635
tp1636
Rp1637
sS'PLAEV2AT'
p1638
g2
(g3
(S'S4'
p1639
I0
I1
tp1640
Rp1641
(I3
S'|'
p1642
NNNI4
I1
I0
tp1643
bS'DEGF'
p1644
tp1645
Rp1646
sS'EOEB2DIC'
p1647
g2
(g3
(S'S3'
p1648
I0
I1
tp1649
Rp1650
(I3
S'|'
p1651
NNNI3
I1
I0
tp1652
bS'AMP'
p1653
tp1654
Rp1655
sS'AOADBCH1A_NBG'
p1656
g2
(g3
(S'S3'
p1657
I0
I1
tp1658
Rp1659
(I3
S'|'
p1660
NNNI3
I1
I0
tp1661
bS'DEG'
p1662
tp1663
Rp1664
sS'AOSUNER1'
p1665
g2
(g3
(S'S3'
p1666
I0
I1
tp1667
Rp1668
(I3
S'|'
p1669
NNNI3
I1
I0
tp1670
bS'RAD'
p1671
tp1672
Rp1673
sS'TRSPRWCM'
p1674
g2
(g3
(S'S4'
p1675
I0
I1
tp1676
Rp1677
(I3
S'|'
p1678
NNNI4
I1
I0
tp1679
bS'DEGF'
p1680
tp1681
Rp1682
sS'AOSUNER3'
p1683
g2
(g3
(S'S3'
p1684
I0
I1
tp1685
Rp1686
(I3
S'|'
p1687
NNNI3
I1
I0
tp1688
bS'RAD'
p1689
tp1690
Rp1691
sS'AOSUNER2'
p1692
g2
(g3
(S'S3'
p1693
I0
I1
tp1694
Rp1695
(I3
S'|'
p1696
NNNI3
I1
I0
tp1697
bS'RAD'
p1698
tp1699
Rp1700
sS'OHRTHR55'
p1701
g2
(g3
(S'S4'
p1702
I0
I1
tp1703
Rp1704
(I3
S'|'
p1705
NNNI4
I1
I0
tp1706
bS'DEGF'
p1707
tp1708
Rp1709
sS'PLAED2DT'
p1710
g2
(g3
(S'S4'
p1711
I0
I1
tp1712
Rp1713
(I3
S'|'
p1714
NNNI4
I1
I0
tp1715
bS'DEGF'
p1716
tp1717
Rp1718
sS'AORESY6_1'
p1719
g2
(g3
(S'S3'
p1720
I0
I1
tp1721
Rp1722
(I3
S'|'
p1723
NNNI3
I1
I0
tp1724
bS'RAD'
p1725
tp1726
Rp1727
sS'TESH2'
p1728
g2
(g3
(S'S4'
p1729
I0
I1
tp1730
Rp1731
(I3
S'|'
p1732
NNNI4
I1
I0
tp1733
bS'DEGF'
p1734
tp1735
Rp1736
sS'CTSA5V'
p1737
g2
(g3
(S'S1'
p1738
I0
I1
tp1739
Rp1740
(I3
S'|'
p1741
NNNI1
I1
I0
tp1742
bg63
tp1743
Rp1744
sS'OOBTHR39_WIDE'
p1745
g2
(g3
(S'S4'
p1746
I0
I1
tp1747
Rp1748
(I3
S'|'
p1749
NNNI4
I1
I0
tp1750
bS'DEGF'
p1751
tp1752
Rp1753
sS'1DPAMYT'
p1754
g2
(g3
(S'S4'
p1755
I0
I1
tp1756
Rp1757
(I3
S'|'
p1758
NNNI4
I1
I0
tp1759
bS'DEGC'
p1760
tp1761
Rp1762
sS'1DACTBT'
p1763
g2
(g3
(S'S4'
p1764
I0
I1
tp1765
Rp1766
(I3
S'|'
p1767
NNNI4
I1
I0
tp1768
bS'DEGC'
p1769
tp1770
Rp1771
sS'4RT556T'
p1772
g2
(g3
(S'S4'
p1773
I0
I1
tp1774
Rp1775
(I3
S'|'
p1776
NNNI4
I1
I0
tp1777
bS'DEGF'
p1778
tp1779
Rp1780
sS'AFLCA4BI'
p1781
g2
(g3
(S'S4'
p1782
I0
I1
tp1783
Rp1784
(I3
S'|'
p1785
NNNI4
I1
I0
tp1786
bS'MAMP'
p1787
tp1788
Rp1789
sS'AORESZ6_1'
p1790
g2
(g3
(S'S3'
p1791
I0
I1
tp1792
Rp1793
(I3
S'|'
p1794
NNNI3
I1
I0
tp1795
bS'RAD'
p1796
tp1797
Rp1798
sS'PM4THV1T'
p1799
g2
(g3
(S'S4'
p1800
I0
I1
tp1801
Rp1802
(I3
S'|'
p1803
NNNI4
I1
I0
tp1804
bS'DEGF'
p1805
tp1806
Rp1807
sS'CSITA15V'
p1808
g2
(g3
(S'S1'
p1809
I0
I1
tp1810
Rp1811
(I3
S'|'
p1812
NNNI1
I1
I0
tp1813
bg63
tp1814
Rp1815
sS'TPZLGABM'
p1816
g2
(g3
(S'S4'
p1817
I0
I1
tp1818
Rp1819
(I3
S'|'
p1820
NNNI4
I1
I0
tp1821
bS'DEGF'
p1822
tp1823
Rp1824
sS'AFLC13AI'
p1825
g2
(g3
(S'S4'
p1826
I0
I1
tp1827
Rp1828
(I3
S'|'
p1829
NNNI4
I1
I0
tp1830
bS'MAMP'
p1831
tp1832
Rp1833
sS'AORWBTQ1'
p1834
g2
(g3
(S'S4'
p1835
I0
I1
tp1836
Rp1837
(I3
S'|'
p1838
NNNI4
I1
I0
tp1839
bS'FTLB'
p1840
tp1841
Rp1842
sS'AORWBTQ2'
p1843
g2
(g3
(S'S4'
p1844
I0
I1
tp1845
Rp1846
(I3
S'|'
p1847
NNNI4
I1
I0
tp1848
bS'FTLB'
p1849
tp1850
Rp1851
sS'AORWBTQ3'
p1852
g2
(g3
(S'S4'
p1853
I0
I1
tp1854
Rp1855
(I3
S'|'
p1856
NNNI4
I1
I0
tp1857
bS'FTLB'
p1858
tp1859
Rp1860
sS'AORWBTQ4'
p1861
g2
(g3
(S'S4'
p1862
I0
I1
tp1863
Rp1864
(I3
S'|'
p1865
NNNI4
I1
I0
tp1866
bS'FTLB'
p1867
tp1868
Rp1869
sS'AGWS1V'
p1870
g2
(g3
(S'S1'
p1871
I0
I1
tp1872
Rp1873
(I3
S'|'
p1874
NNNI1
I1
I0
tp1875
bg63
tp1876
Rp1877
sS'AORWBTQ6'
p1878
g2
(g3
(S'S4'
p1879
I0
I1
tp1880
Rp1881
(I3
S'|'
p1882
NNNI4
I1
I0
tp1883
bS'FTLB'
p1884
tp1885
Rp1886
sS'AWD6CV5V'
p1887
g2
(g3
(S'S1'
p1888
I0
I1
tp1889
Rp1890
(I3
S'|'
p1891
NNNI1
I1
I0
tp1892
bg63
tp1893
Rp1894
sS'3FABRCAT'
p1895
g2
(g3
(S'S4'
p1896
I0
I1
tp1897
Rp1898
(I3
S'|'
p1899
NNNI4
I1
I0
tp1900
bS'DEGC'
p1901
tp1902
Rp1903
sS'AWD4CV5V'
p1904
g2
(g3
(S'S1'
p1905
I0
I1
tp1906
Rp1907
(I3
S'|'
p1908
NNNI1
I1
I0
tp1909
bg63
tp1910
Rp1911
sS'4RT576T'
p1912
g2
(g3
(S'S4'
p1913
I0
I1
tp1914
Rp1915
(I3
S'|'
p1916
NNNI4
I1
I0
tp1917
bS'DEGF'
p1918
tp1919
Rp1920
sS'AIRU1G1T'
p1921
g2
(g3
(S'S4'
p1922
I0
I1
tp1923
Rp1924
(I3
S'|'
p1925
NNNI4
I1
I0
tp1926
bS'DEGF'
p1927
tp1928
Rp1929
sS'OOBTHR23_WIDE'
p1930
g2
(g3
(S'S4'
p1931
I0
I1
tp1932
Rp1933
(I3
S'|'
p1934
NNNI4
I1
I0
tp1935
bS'DEGF'
p1936
tp1937
Rp1938
sS'OOBTHR20_WIDE'
p1939
g2
(g3
(S'S4'
p1940
I0
I1
tp1941
Rp1942
(I3
S'|'
p1943
NNNI4
I1
I0
tp1944
bS'DEGF'
p1945
tp1946
Rp1947
sS'PR2TV02T'
p1948
g2
(g3
(S'S4'
p1949
I0
I1
tp1950
Rp1951
(I3
S'|'
p1952
NNNI4
I1
I0
tp1953
bS'DEGF'
p1954
tp1955
Rp1956
sS'PLAED4AT'
p1957
g2
(g3
(S'S4'
p1958
I0
I1
tp1959
Rp1960
(I3
S'|'
p1961
NNNI4
I1
I0
tp1962
bS'DEGF'
p1963
tp1964
Rp1965
sS'2P05VAVL'
p1966
g2
(g3
(S'S3'
p1967
I0
I1
tp1968
Rp1969
(I3
S'|'
p1970
NNNI3
I1
I0
tp1971
bS'VDC'
p1972
tp1973
Rp1974
sS'PLAEV4AT'
p1975
g2
(g3
(S'S4'
p1976
I0
I1
tp1977
Rp1978
(I3
S'|'
p1979
NNNI4
I1
I0
tp1980
bS'DEGF'
p1981
tp1982
Rp1983
sS'1VAHCBT'
p1984
g2
(g3
(S'S4'
p1985
I0
I1
tp1986
Rp1987
(I3
S'|'
p1988
NNNI4
I1
I0
tp1989
bS'DEGC'
p1990
tp1991
Rp1992
sS'PM2THV1T'
p1993
g2
(g3
(S'S4'
p1994
I0
I1
tp1995
Rp1996
(I3
S'|'
p1997
NNNI4
I1
I0
tp1998
bS'DEGF'
p1999
tp2000
Rp2001
sS'PLINE09T'
p2002
g2
(g3
(S'S4'
p2003
I0
I1
tp2004
Rp2005
(I3
S'|'
p2006
NNNI4
I1
I0
tp2007
bS'DEGF'
p2008
tp2009
Rp2010
sS'1DPP0AVO'
p2011
g2
(g3
(S'S1'
p2012
I0
I1
tp2013
Rp2014
(I3
S'|'
p2015
NNNI1
I1
I0
tp2016
bg63
tp2017
Rp2018
sS'5EIOT'
p2019
g2
(g3
(S'S4'
p2020
I0
I1
tp2021
Rp2022
(I3
S'|'
p2023
NNNI4
I1
I0
tp2024
bS'DEGC'
p2025
tp2026
Rp2027
sS'OHRTHR12_WIDE'
p2028
g2
(g3
(S'S4'
p2029
I0
I1
tp2030
Rp2031
(I3
S'|'
p2032
NNNI4
I1
I0
tp2033
bS'DEGF'
p2034
tp2035
Rp2036
sS'CPCB5V'
p2037
g2
(g3
(S'S1'
p2038
I0
I1
tp2039
Rp2040
(I3
S'|'
p2041
NNNI1
I1
I0
tp2042
bg63
tp2043
Rp2044
sS'PLAED1IT'
p2045
g2
(g3
(S'S4'
p2046
I0
I1
tp2047
Rp2048
(I3
S'|'
p2049
NNNI4
I1
I0
tp2050
bS'DEGF'
p2051
tp2052
Rp2053
sS'OOBTHR37_WIDE'
p2054
g2
(g3
(S'S4'
p2055
I0
I1
tp2056
Rp2057
(I3
S'|'
p2058
NNNI4
I1
I0
tp2059
bS'DEGF'
p2060
tp2061
Rp2062
sS'CPCA5V'
p2063
g2
(g3
(S'S1'
p2064
I0
I1
tp2065
Rp2066
(I3
S'|'
p2067
NNNI1
I1
I0
tp2068
bg63
tp2069
Rp2070
sS'AFLCA2BI'
p2071
g2
(g3
(S'S4'
p2072
I0
I1
tp2073
Rp2074
(I3
S'|'
p2075
NNNI4
I1
I0
tp2076
bS'MAMP'
p2077
tp2078
Rp2079
sS'TEIO'
p2080
g2
(g3
(S'S4'
p2081
I0
I1
tp2082
Rp2083
(I3
S'|'
p2084
NNNI4
I1
I0
tp2085
bS'DEGF'
p2086
tp2087
Rp2088
sS'OHRTHR18_WIDE'
p2089
g2
(g3
(S'S4'
p2090
I0
I1
tp2091
Rp2092
(I3
S'|'
p2093
NNNI4
I1
I0
tp2094
bS'DEGF'
p2095
tp2096
Rp2097
sS'AORWMC2_1'
p2098
g2
(g3
(S'S7'
p2099
I0
I1
tp2100
Rp2101
(I3
S'|'
p2102
NNNI7
I1
I0
tp2103
bS'FTLBSEC'
p2104
tp2105
Rp2106
sS'OHRTHR47_WIDE'
p2107
g2
(g3
(S'S4'
p2108
I0
I1
tp2109
Rp2110
(I3
S'|'
p2111
NNNI4
I1
I0
tp2112
bS'DEGF'
p2113
tp2114
Rp2115
sS'OOBTHR52_WIDE'
p2116
g2
(g3
(S'S4'
p2117
I0
I1
tp2118
Rp2119
(I3
S'|'
p2120
NNNI4
I1
I0
tp2121
bS'DEGF'
p2122
tp2123
Rp2124
sS'ELBV'
p2125
g2
(g3
(S'S1'
p2126
I0
I1
tp2127
Rp2128
(I3
S'|'
p2129
NNNI1
I1
I0
tp2130
bg63
tp2131
Rp2132
sS'AACBPRT'
p2133
g2
(g3
(S'S4'
p2134
I0
I1
tp2135
Rp2136
(I3
S'|'
p2137
NNNI4
I1
I0
tp2138
bS'DEGF'
p2139
tp2140
Rp2141
sS'PLAED1AT'
p2142
g2
(g3
(S'S4'
p2143
I0
I1
tp2144
Rp2145
(I3
S'|'
p2146
NNNI4
I1
I0
tp2147
bS'DEGF'
p2148
tp2149
Rp2150
sS'POM2THV2T'
p2151
g2
(g3
(S'S4'
p2152
I0
I1
tp2153
Rp2154
(I3
S'|'
p2155
NNNI4
I1
I0
tp2156
bS'DEGF'
p2157
tp2158
Rp2159
sS'PFTANK1T'
p2160
g2
(g3
(S'S4'
p2161
I0
I1
tp2162
Rp2163
(I3
S'|'
p2164
NNNI4
I1
I0
tp2165
bS'DEGF'
p2166
tp2167
Rp2168
sS'TPCM_RW4'
p2169
g2
(g3
(S'S4'
p2170
I0
I1
tp2171
Rp2172
(I3
S'|'
p2173
NNNI4
I1
I0
tp2174
bS'DEGF'
p2175
tp2176
Rp2177
sS'4RT580T'
p2178
g2
(g3
(S'S4'
p2179
I0
I1
tp2180
Rp2181
(I3
S'|'
p2182
NNNI4
I1
I0
tp2183
bS'DEGF'
p2184
tp2185
Rp2186
sS'TEP_PCU'
p2187
g2
(g3
(S'S4'
p2188
I0
I1
tp2189
Rp2190
(I3
S'|'
p2191
NNNI4
I1
I0
tp2192
bS'DEGF'
p2193
tp2194
Rp2195
sS'4VRMHBV'
p2196
g2
(g3
(S'S3'
p2197
I0
I1
tp2198
Rp2199
(I3
S'|'
p2200
NNNI3
I1
I0
tp2201
bS'VDC'
p2202
tp2203
Rp2204
sS'PHETANKT'
p2205
g2
(g3
(S'S4'
p2206
I0
I1
tp2207
Rp2208
(I3
S'|'
p2209
NNNI4
I1
I0
tp2210
bS'DEGF'
p2211
tp2212
Rp2213
sS'TAPE1PST'
p2214
g2
(g3
(S'S4'
p2215
I0
I1
tp2216
Rp2217
(I3
S'|'
p2218
NNNI4
I1
I0
tp2219
bS'DEGF'
p2220
tp2221
Rp2222
sS'4RT558T'
p2223
g2
(g3
(S'S4'
p2224
I0
I1
tp2225
Rp2226
(I3
S'|'
p2227
NNNI4
I1
I0
tp2228
bS'DEGF'
p2229
tp2230
Rp2231
sS'POM1THV2T'
p2232
g2
(g3
(S'S4'
p2233
I0
I1
tp2234
Rp2235
(I3
S'|'
p2236
NNNI4
I1
I0
tp2237
bS'DEGF'
p2238
tp2239
Rp2240
sS'OHRTHR45_WIDE'
p2241
g2
(g3
(S'S4'
p2242
I0
I1
tp2243
Rp2244
(I3
S'|'
p2245
NNNI4
I1
I0
tp2246
bS'DEGF'
p2247
tp2248
Rp2249
sS'1DEP0BVO'
p2250
g2
(g3
(S'S1'
p2251
I0
I1
tp2252
Rp2253
(I3
S'|'
p2254
NNNI1
I1
I0
tp2255
bg63
tp2256
Rp2257
sS'OOBTHR24'
p2258
g2
(g3
(S'S4'
p2259
I0
I1
tp2260
Rp2261
(I3
S'|'
p2262
NNNI4
I1
I0
tp2263
bS'DEGF'
p2264
tp2265
Rp2266
sS'6TQCMD1'
p2267
g2
(g3
(S'S4'
p2268
I0
I1
tp2269
Rp2270
(I3
S'|'
p2271
NNNI4
I1
I0
tp2272
bS'FTLB'
p2273
tp2274
Rp2275
sS'6TQCMD2'
p2276
g2
(g3
(S'S4'
p2277
I0
I1
tp2278
Rp2279
(I3
S'|'
p2280
NNNI4
I1
I0
tp2281
bS'FTLB'
p2282
tp2283
Rp2284
sS'6TQCMD3'
p2285
g2
(g3
(S'S4'
p2286
I0
I1
tp2287
Rp2288
(I3
S'|'
p2289
NNNI4
I1
I0
tp2290
bS'FTLB'
p2291
tp2292
Rp2293
sS'OOBTHR20'
p2294
g2
(g3
(S'S4'
p2295
I0
I1
tp2296
Rp2297
(I3
S'|'
p2298
NNNI4
I1
I0
tp2299
bS'DEGF'
p2300
tp2301
Rp2302
sS'OOBTHR21'
p2303
g2
(g3
(S'S4'
p2304
I0
I1
tp2305
Rp2306
(I3
S'|'
p2307
NNNI4
I1
I0
tp2308
bS'DEGF'
p2309
tp2310
Rp2311
sS'OOBTHR22'
p2312
g2
(g3
(S'S4'
p2313
I0
I1
tp2314
Rp2315
(I3
S'|'
p2316
NNNI4
I1
I0
tp2317
bS'DEGF'
p2318
tp2319
Rp2320
sS'OOBTHR23'
p2321
g2
(g3
(S'S4'
p2322
I0
I1
tp2323
Rp2324
(I3
S'|'
p2325
NNNI4
I1
I0
tp2326
bS'DEGF'
p2327
tp2328
Rp2329
sS'OHRTHR03'
p2330
g2
(g3
(S'S4'
p2331
I0
I1
tp2332
Rp2333
(I3
S'|'
p2334
NNNI4
I1
I0
tp2335
bS'DEGF'
p2336
tp2337
Rp2338
sS'AVD2CV5V'
p2339
g2
(g3
(S'S1'
p2340
I0
I1
tp2341
Rp2342
(I3
S'|'
p2343
NNNI1
I1
I0
tp2344
bg63
tp2345
Rp2346
sS'OOBTHR28'
p2347
g2
(g3
(S'S4'
p2348
I0
I1
tp2349
Rp2350
(I3
S'|'
p2351
NNNI4
I1
I0
tp2352
bS'DEGF'
p2353
tp2354
Rp2355
sS'OOBTHR29'
p2356
g2
(g3
(S'S4'
p2357
I0
I1
tp2358
Rp2359
(I3
S'|'
p2360
NNNI4
I1
I0
tp2361
bS'DEGF'
p2362
tp2363
Rp2364
sS'OOBTHR12_WIDE'
p2365
g2
(g3
(S'S4'
p2366
I0
I1
tp2367
Rp2368
(I3
S'|'
p2369
NNNI4
I1
I0
tp2370
bS'DEGF'
p2371
tp2372
Rp2373
sS'TB2T1'
p2374
g2
(g3
(S'S4'
p2375
I0
I1
tp2376
Rp2377
(I3
S'|'
p2378
NNNI4
I1
I0
tp2379
bS'DEGF'
p2380
tp2381
Rp2382
sS'OHRTHR14_WIDE'
p2383
g2
(g3
(S'S4'
p2384
I0
I1
tp2385
Rp2386
(I3
S'|'
p2387
NNNI4
I1
I0
tp2388
bS'DEGF'
p2389
tp2390
Rp2391
sS'EORTDMN16D'
p2392
g2
(g3
(S'S4'
p2393
I0
I1
tp2394
Rp2395
(I3
S'|'
p2396
NNNI4
I1
I0
tp2397
bS'DEGF'
p2398
tp2399
Rp2400
sS'2FHTRMZT'
p2401
g2
(g3
(S'S4'
p2402
I0
I1
tp2403
Rp2404
(I3
S'|'
p2405
NNNI4
I1
I0
tp2406
bS'DEGC'
p2407
tp2408
Rp2409
sS'AOSAANG1'
p2410
g2
(g3
(S'S3'
p2411
I0
I1
tp2412
Rp2413
(I3
S'|'
p2414
NNNI3
I1
I0
tp2415
bS'RAD'
p2416
tp2417
Rp2418
sS'AOSAANG2'
p2419
g2
(g3
(S'S3'
p2420
I0
I1
tp2421
Rp2422
(I3
S'|'
p2423
NNNI3
I1
I0
tp2424
bS'RAD'
p2425
tp2426
Rp2427
sS'CTSB15V'
p2428
g2
(g3
(S'S1'
p2429
I0
I1
tp2430
Rp2431
(I3
S'|'
p2432
NNNI1
I1
I0
tp2433
bg63
tp2434
Rp2435
sS'6MUPCNT3'
p2436
g2
(g3
(S'S3'
p2437
I0
I1
tp2438
Rp2439
(I3
S'|'
p2440
NNNI3
I1
I0
tp2441
bS'SEC'
p2442
tp2443
Rp2444
sS'6MUPCNT2'
p2445
g2
(g3
(S'S3'
p2446
I0
I1
tp2447
Rp2448
(I3
S'|'
p2449
NNNI3
I1
I0
tp2450
bS'SEC'
p2451
tp2452
Rp2453
sS'6MUPCNT1'
p2454
g2
(g3
(S'S3'
p2455
I0
I1
tp2456
Rp2457
(I3
S'|'
p2458
NNNI3
I1
I0
tp2459
bS'SEC'
p2460
tp2461
Rp2462
sS'4RT561T'
p2463
g2
(g3
(S'S4'
p2464
I0
I1
tp2465
Rp2466
(I3
S'|'
p2467
NNNI4
I1
I0
tp2468
bS'DEGF'
p2469
tp2470
Rp2471
sS'AOSAEST2'
p2472
g2
(g3
(S'S3'
p2473
I0
I1
tp2474
Rp2475
(I3
S'|'
p2476
NNNI3
I1
I0
tp2477
bS'RAD'
p2478
tp2479
Rp2480
sS'6MUPCNT4'
p2481
g2
(g3
(S'S3'
p2482
I0
I1
tp2483
Rp2484
(I3
S'|'
p2485
NNNI3
I1
I0
tp2486
bS'SEC'
p2487
tp2488
Rp2489
sS'OHRTHR57'
p2490
g2
(g3
(S'S4'
p2491
I0
I1
tp2492
Rp2493
(I3
S'|'
p2494
NNNI4
I1
I0
tp2495
bS'DEGF'
p2496
tp2497
Rp2498
sS'AOMANTIM'
p2499
g2
(g3
(S'S3'
p2500
I0
I1
tp2501
Rp2502
(I3
S'|'
p2503
NNNI3
I1
I0
tp2504
bS'SEC'
p2505
tp2506
Rp2507
sS'CTUB5V'
p2508
g2
(g3
(S'S1'
p2509
I0
I1
tp2510
Rp2511
(I3
S'|'
p2512
NNNI1
I1
I0
tp2513
bg63
tp2514
Rp2515
sS'AWD4TQI'
p2516
g2
(g3
(S'S3'
p2517
I0
I1
tp2518
Rp2519
(I3
S'|'
p2520
NNNI3
I1
I0
tp2521
bS'AMP'
p2522
tp2523
Rp2524
sS'4LLL2AT'
p2525
g2
(g3
(S'S4'
p2526
I0
I1
tp2527
Rp2528
(I3
S'|'
p2529
NNNI4
I1
I0
tp2530
bS'DEGF'
p2531
tp2532
Rp2533
sS'AWD5CV5V'
p2534
g2
(g3
(S'S1'
p2535
I0
I1
tp2536
Rp2537
(I3
S'|'
p2538
NNNI1
I1
I0
tp2539
bg63
tp2540
Rp2541
sS'4ALL1BT'
p2542
g2
(g3
(S'S4'
p2543
I0
I1
tp2544
Rp2545
(I3
S'|'
p2546
NNNI4
I1
I0
tp2547
bS'DEGF'
p2548
tp2549
Rp2550
sS'CPCB15V'
p2551
g2
(g3
(S'S1'
p2552
I0
I1
tp2553
Rp2554
(I3
S'|'
p2555
NNNI1
I1
I0
tp2556
bg63
tp2557
Rp2558
sS'4RT711T'
p2559
g2
(g3
(S'S4'
p2560
I0
I1
tp2561
Rp2562
(I3
S'|'
p2563
NNNI4
I1
I0
tp2564
bS'DEGF'
p2565
tp2566
Rp2567
sS'AAOTALT'
p2568
g2
(g3
(S'S4'
p2569
I0
I1
tp2570
Rp2571
(I3
S'|'
p2572
NNNI4
I1
I0
tp2573
bS'DEGF'
p2574
tp2575
Rp2576
sS'AGWS2V'
p2577
g2
(g3
(S'S1'
p2578
I0
I1
tp2579
Rp2580
(I3
S'|'
p2581
NNNI1
I1
I0
tp2582
bg63
tp2583
Rp2584
sS'OOBTHR38_WIDE'
p2585
g2
(g3
(S'S4'
p2586
I0
I1
tp2587
Rp2588
(I3
S'|'
p2589
NNNI4
I1
I0
tp2590
bS'DEGF'
p2591
tp2592
Rp2593
sS'EORTDMN26D'
p2594
g2
(g3
(S'S4'
p2595
I0
I1
tp2596
Rp2597
(I3
S'|'
p2598
NNNI4
I1
I0
tp2599
bS'DEGF'
p2600
tp2601
Rp2602
sS'EB1V'
p2603
g2
(g3
(S'S1'
p2604
I0
I1
tp2605
Rp2606
(I3
S'|'
p2607
NNNI1
I1
I0
tp2608
bg63
tp2609
Rp2610
sS'AOFFTQ1'
p2611
g2
(g3
(S'S4'
p2612
I0
I1
tp2613
Rp2614
(I3
S'|'
p2615
NNNI4
I1
I0
tp2616
bS'FTLB'
p2617
tp2618
Rp2619
sS'AOFFTQ2'
p2620
g2
(g3
(S'S4'
p2621
I0
I1
tp2622
Rp2623
(I3
S'|'
p2624
NNNI4
I1
I0
tp2625
bS'FTLB'
p2626
tp2627
Rp2628
sS'AOFFTQ3'
p2629
g2
(g3
(S'S4'
p2630
I0
I1
tp2631
Rp2632
(I3
S'|'
p2633
NNNI4
I1
I0
tp2634
bS'FTLB'
p2635
tp2636
Rp2637
sS'OHRTHR05'
p2638
g2
(g3
(S'S4'
p2639
I0
I1
tp2640
Rp2641
(I3
S'|'
p2642
NNNI4
I1
I0
tp2643
bS'DEGF'
p2644
tp2645
Rp2646
sS'3SFLXCST'
p2647
g2
(g3
(S'S4'
p2648
I0
I1
tp2649
Rp2650
(I3
S'|'
p2651
NNNI4
I1
I0
tp2652
bS'DEGC'
p2653
tp2654
Rp2655
sS'PLINE07T'
p2656
g2
(g3
(S'S4'
p2657
I0
I1
tp2658
Rp2659
(I3
S'|'
p2660
NNNI4
I1
I0
tp2661
bS'DEGF'
p2662
tp2663
Rp2664
sS'PLAEV2BT'
p2665
g2
(g3
(S'S4'
p2666
I0
I1
tp2667
Rp2668
(I3
S'|'
p2669
NNNI4
I1
I0
tp2670
bS'DEGF'
p2671
tp2672
Rp2673
sS'AOSCVEL1'
p2674
g2
(g3
(S'S4'
p2675
I0
I1
tp2676
Rp2677
(I3
S'|'
p2678
NNNI4
I1
I0
tp2679
bS'KMPS'
p2680
tp2681
Rp2682
sS'3TSPYFET'
p2683
g2
(g3
(S'S4'
p2684
I0
I1
tp2685
Rp2686
(I3
S'|'
p2687
NNNI4
I1
I0
tp2688
bS'DEGC'
p2689
tp2690
Rp2691
sS'4RT598T'
p2692
g2
(g3
(S'S4'
p2693
I0
I1
tp2694
Rp2695
(I3
S'|'
p2696
NNNI4
I1
I0
tp2697
bS'DEGF'
p2698
tp2699
Rp2700
sS'1DE28AVO'
p2701
g2
(g3
(S'S1'
p2702
I0
I1
tp2703
Rp2704
(I3
S'|'
p2705
NNNI1
I1
I0
tp2706
bg63
tp2707
Rp2708
sS'2N15VBVL'
p2709
g2
(g3
(S'S3'
p2710
I0
I1
tp2711
Rp2712
(I3
S'|'
p2713
NNNI3
I1
I0
tp2714
bS'VDC'
p2715
tp2716
Rp2717
sS'AFLC13BI'
p2718
g2
(g3
(S'S4'
p2719
I0
I1
tp2720
Rp2721
(I3
S'|'
p2722
NNNI4
I1
I0
tp2723
bS'MAMP'
p2724
tp2725
Rp2726
sS'PR4TV02T'
p2727
g2
(g3
(S'S4'
p2728
I0
I1
tp2729
Rp2730
(I3
S'|'
p2731
NNNI4
I1
I0
tp2732
bS'DEGF'
p2733
tp2734
Rp2735
sS'AOGBIAS1'
p2736
g2
(g3
(S'S5'
p2737
I0
I1
tp2738
Rp2739
(I3
S'|'
p2740
NNNI5
I1
I0
tp2741
bS'RADPS'
p2742
tp2743
Rp2744
sS'AOGBIAS2'
p2745
g2
(g3
(S'S5'
p2746
I0
I1
tp2747
Rp2748
(I3
S'|'
p2749
NNNI5
I1
I0
tp2750
bS'RADPS'
p2751
tp2752
Rp2753
sS'AOGBIAS3'
p2754
g2
(g3
(S'S5'
p2755
I0
I1
tp2756
Rp2757
(I3
S'|'
p2758
NNNI5
I1
I0
tp2759
bS'RADPS'
p2760
tp2761
Rp2762
sS'1DEN1AVO'
p2763
g2
(g3
(S'S1'
p2764
I0
I1
tp2765
Rp2766
(I3
S'|'
p2767
NNNI1
I1
I0
tp2768
bg63
tp2769
Rp2770
sS'1DEN0AVO'
p2771
g2
(g3
(S'S1'
p2772
I0
I1
tp2773
Rp2774
(I3
S'|'
p2775
NNNI1
I1
I0
tp2776
bg63
tp2777
Rp2778
sS'1DEP2BVO'
p2779
g2
(g3
(S'S1'
p2780
I0
I1
tp2781
Rp2782
(I3
S'|'
p2783
NNNI1
I1
I0
tp2784
bg63
tp2785
Rp2786
sS'TMP_FEP1_FB'
p2787
g353
sS'1DPICBCU'
p2788
g2
(g3
(S'S3'
p2789
I0
I1
tp2790
Rp2791
(I3
S'|'
p2792
NNNI3
I1
I0
tp2793
bS'AMP'
p2794
tp2795
Rp2796
sS'1DP28AVO'
p2797
g2
(g3
(S'S1'
p2798
I0
I1
tp2799
Rp2800
(I3
S'|'
p2801
NNNI1
I1
I0
tp2802
bg63
tp2803
Rp2804
sS'2CONDMXT'
p2805
g2
(g3
(S'S4'
p2806
I0
I1
tp2807
Rp2808
(I3
S'|'
p2809
NNNI4
I1
I0
tp2810
bS'DEGC'
p2811
tp2812
Rp2813
sS'4CSDHAV'
p2814
g2
(g3
(S'S3'
p2815
I0
I1
tp2816
Rp2817
(I3
S'|'
p2818
NNNI3
I1
I0
tp2819
bS'VDC'
p2820
tp2821
Rp2822
sS'OHRTHR26_WIDE'
p2823
g2
(g3
(S'S4'
p2824
I0
I1
tp2825
Rp2826
(I3
S'|'
p2827
NNNI4
I1
I0
tp2828
bS'DEGF'
p2829
tp2830
Rp2831
sS'4RT587T'
p2832
g2
(g3
(S'S4'
p2833
I0
I1
tp2834
Rp2835
(I3
S'|'
p2836
NNNI4
I1
I0
tp2837
bS'DEGF'
p2838
tp2839
Rp2840
sS'AI1AX2Y'
p2841
g2
(g3
(S'S5'
p2842
I0
I1
tp2843
Rp2844
(I3
S'|'
p2845
NNNI5
I1
I0
tp2846
bS'DEGPS'
p2847
tp2848
Rp2849
sS'AI1AX2X'
p2850
g2
(g3
(S'S5'
p2851
I0
I1
tp2852
Rp2853
(I3
S'|'
p2854
NNNI5
I1
I0
tp2855
bS'DEGPS'
p2856
tp2857
Rp2858
sS'TEP_PPAN'
p2859
g2
(g3
(S'S4'
p2860
I0
I1
tp2861
Rp2862
(I3
S'|'
p2863
NNNI4
I1
I0
tp2864
bS'DEGF'
p2865
tp2866
Rp2867
sS'AORWCMD5'
p2868
g2
(g3
(S'S4'
p2869
I0
I1
tp2870
Rp2871
(I3
S'|'
p2872
NNNI4
I1
I0
tp2873
bS'FTLB'
p2874
tp2875
Rp2876
sS'AORWCMD4'
p2877
g2
(g3
(S'S4'
p2878
I0
I1
tp2879
Rp2880
(I3
S'|'
p2881
NNNI4
I1
I0
tp2882
bS'FTLB'
p2883
tp2884
Rp2885
sS'OHRTHR29'
p2886
g2
(g3
(S'S4'
p2887
I0
I1
tp2888
Rp2889
(I3
S'|'
p2890
NNNI4
I1
I0
tp2891
bS'DEGF'
p2892
tp2893
Rp2894
sS'AORWCMD6'
p2895
g2
(g3
(S'S4'
p2896
I0
I1
tp2897
Rp2898
(I3
S'|'
p2899
NNNI4
I1
I0
tp2900
bS'FTLB'
p2901
tp2902
Rp2903
sS'AORWCMD1'
p2904
g2
(g3
(S'S4'
p2905
I0
I1
tp2906
Rp2907
(I3
S'|'
p2908
NNNI4
I1
I0
tp2909
bS'FTLB'
p2910
tp2911
Rp2912
sS'OOBTHR46_WIDE'
p2913
g2
(g3
(S'S4'
p2914
I0
I1
tp2915
Rp2916
(I3
S'|'
p2917
NNNI4
I1
I0
tp2918
bS'DEGF'
p2919
tp2920
Rp2921
sS'AORWCMD3'
p2922
g2
(g3
(S'S4'
p2923
I0
I1
tp2924
Rp2925
(I3
S'|'
p2926
NNNI4
I1
I0
tp2927
bS'FTLB'
p2928
tp2929
Rp2930
sS'AORWCMD2'
p2931
g2
(g3
(S'S4'
p2932
I0
I1
tp2933
Rp2934
(I3
S'|'
p2935
NNNI4
I1
I0
tp2936
bS'FTLB'
p2937
tp2938
Rp2939
sS'OHRTHR23'
p2940
g2
(g3
(S'S4'
p2941
I0
I1
tp2942
Rp2943
(I3
S'|'
p2944
NNNI4
I1
I0
tp2945
bS'DEGF'
p2946
tp2947
Rp2948
sS'OHRTHR22'
p2949
g2
(g3
(S'S4'
p2950
I0
I1
tp2951
Rp2952
(I3
S'|'
p2953
NNNI4
I1
I0
tp2954
bS'DEGF'
p2955
tp2956
Rp2957
sS'OHRTHR21'
p2958
g2
(g3
(S'S4'
p2959
I0
I1
tp2960
Rp2961
(I3
S'|'
p2962
NNNI4
I1
I0
tp2963
bS'DEGF'
p2964
tp2965
Rp2966
sS'OHRTHR20'
p2967
g2
(g3
(S'S4'
p2968
I0
I1
tp2969
Rp2970
(I3
S'|'
p2971
NNNI4
I1
I0
tp2972
bS'DEGF'
p2973
tp2974
Rp2975
sS'OHRTHR27'
p2976
g2
(g3
(S'S4'
p2977
I0
I1
tp2978
Rp2979
(I3
S'|'
p2980
NNNI4
I1
I0
tp2981
bS'DEGF'
p2982
tp2983
Rp2984
sS'AOCMDAC1'
p2985
g2
(g3
(S'S5'
p2986
I0
I1
tp2987
Rp2988
(I3
S'|'
p2989
NNNI5
I1
I0
tp2990
bS'RADSS'
p2991
tp2992
Rp2993
sS'AOCMDAC2'
p2994
g2
(g3
(S'S5'
p2995
I0
I1
tp2996
Rp2997
(I3
S'|'
p2998
NNNI5
I1
I0
tp2999
bS'RADSS'
p3000
tp3001
Rp3002
sS'AOCMDAC3'
p3003
g2
(g3
(S'S5'
p3004
I0
I1
tp3005
Rp3006
(I3
S'|'
p3007
NNNI5
I1
I0
tp3008
bS'RADSS'
p3009
tp3010
Rp3011
sS'4IN15BV'
p3012
g2
(g3
(S'S3'
p3013
I0
I1
tp3014
Rp3015
(I3
S'|'
p3016
NNNI3
I1
I0
tp3017
bS'VDC'
p3018
tp3019
Rp3020
sS'63RCSTMR'
p3021
g2
(g3
(S'S3'
p3022
I0
I1
tp3023
Rp3024
(I3
S'|'
p3025
NNNI3
I1
I0
tp3026
bS'MIN'
p3027
tp3028
Rp3029
sS'OOBTHR13_WIDE'
p3030
g2
(g3
(S'S4'
p3031
I0
I1
tp3032
Rp3033
(I3
S'|'
p3034
NNNI4
I1
I0
tp3035
bS'DEGF'
p3036
tp3037
Rp3038
sS'TCNR_BRM'
p3039
g2
(g3
(S'S4'
p3040
I0
I1
tp3041
Rp3042
(I3
S'|'
p3043
NNNI4
I1
I0
tp3044
bS'DEGF'
p3045
tp3046
Rp3047
sS'TCM_IFU'
p3048
g2
(g3
(S'S4'
p3049
I0
I1
tp3050
Rp3051
(I3
S'|'
p3052
NNNI4
I1
I0
tp3053
bS'DEGF'
p3054
tp3055
Rp3056
sS'TCYLFMZP'
p3057
g2
(g3
(S'S4'
p3058
I0
I1
tp3059
Rp3060
(I3
S'|'
p3061
NNNI4
I1
I0
tp3062
bS'DEGF'
p3063
tp3064
Rp3065
sS'EOEB1VC'
p3066
g2
(g3
(S'S1'
p3067
I0
I1
tp3068
Rp3069
(I3
S'|'
p3070
NNNI1
I1
I0
tp3071
bg63
tp3072
Rp3073
sS'TCYLFMZM'
p3074
g2
(g3
(S'S4'
p3075
I0
I1
tp3076
Rp3077
(I3
S'|'
p3078
NNNI4
I1
I0
tp3079
bS'DEGF'
p3080
tp3081
Rp3082
sS'4RT597T'
p3083
g2
(g3
(S'S4'
p3084
I0
I1
tp3085
Rp3086
(I3
S'|'
p3087
NNNI4
I1
I0
tp3088
bS'DEGF'
p3089
tp3090
Rp3091
sS'TEP_RCTU'
p3092
g2
(g3
(S'S4'
p3093
I0
I1
tp3094
Rp3095
(I3
S'|'
p3096
NNNI4
I1
I0
tp3097
bS'DEGF'
p3098
tp3099
Rp3100
sS'4RT702T'
p3101
g2
(g3
(S'S4'
p3102
I0
I1
tp3103
Rp3104
(I3
S'|'
p3105
NNNI4
I1
I0
tp3106
bS'DEGF'
p3107
tp3108
Rp3109
sS'OHRTHR13_WIDE'
p3110
g2
(g3
(S'S4'
p3111
I0
I1
tp3112
Rp3113
(I3
S'|'
p3114
NNNI4
I1
I0
tp3115
bS'DEGF'
p3116
tp3117
Rp3118
sS'AOSPBCS1B'
p3119
g2
(g3
(S'S4'
p3120
I0
I1
tp3121
Rp3122
(I3
S'|'
p3123
NNNI4
I1
I0
tp3124
bS'MAMP'
p3125
tp3126
Rp3127
sS'1VAHOAT'
p3128
g2
(g3
(S'S4'
p3129
I0
I1
tp3130
Rp3131
(I3
S'|'
p3132
NNNI4
I1
I0
tp3133
bS'DEGC'
p3134
tp3135
Rp3136
sS'AACH1T'
p3137
g2
(g3
(S'S4'
p3138
I0
I1
tp3139
Rp3140
(I3
S'|'
p3141
NNNI4
I1
I0
tp3142
bS'DEGF'
p3143
tp3144
Rp3145
sS'4PRT2AT'
p3146
g2
(g3
(S'S4'
p3147
I0
I1
tp3148
Rp3149
(I3
S'|'
p3150
NNNI4
I1
I0
tp3151
bS'DEGF'
p3152
tp3153
Rp3154
sS'POLINE07T'
p3155
g2
(g3
(S'S4'
p3156
I0
I1
tp3157
Rp3158
(I3
S'|'
p3159
NNNI4
I1
I0
tp3160
bS'DEGF'
p3161
tp3162
Rp3163
sS'TPC_ESE'
p3164
g2
(g3
(S'S4'
p3165
I0
I1
tp3166
Rp3167
(I3
S'|'
p3168
NNNI4
I1
I0
tp3169
bS'DEGF'
p3170
tp3171
Rp3172
sS'EB3V'
p3173
g2
(g3
(S'S1'
p3174
I0
I1
tp3175
Rp3176
(I3
S'|'
p3177
NNNI1
I1
I0
tp3178
bg63
tp3179
Rp3180
sS'AFLCA9AI'
p3181
g2
(g3
(S'S4'
p3182
I0
I1
tp3183
Rp3184
(I3
S'|'
p3185
NNNI4
I1
I0
tp3186
bS'MAMP'
p3187
tp3188
Rp3189
sS'CTSB5V'
p3190
g2
(g3
(S'S1'
p3191
I0
I1
tp3192
Rp3193
(I3
S'|'
p3194
NNNI1
I1
I0
tp3195
bg63
tp3196
Rp3197
sS'AFLCA1BI'
p3198
g2
(g3
(S'S4'
p3199
I0
I1
tp3200
Rp3201
(I3
S'|'
p3202
NNNI4
I1
I0
tp3203
bS'MAMP'
p3204
tp3205
Rp3206
sS'OOBTHR08_WIDE'
p3207
g2
(g3
(S'S4'
p3208
I0
I1
tp3209
Rp3210
(I3
S'|'
p3211
NNNI4
I1
I0
tp3212
bS'DEGF'
p3213
tp3214
Rp3215
sS'4VRMHAV'
p3216
g2
(g3
(S'S3'
p3217
I0
I1
tp3218
Rp3219
(I3
S'|'
p3220
NNNI3
I1
I0
tp3221
bS'VDC'
p3222
tp3223
Rp3224
sS'PR4TV01T'
p3225
g2
(g3
(S'S4'
p3226
I0
I1
tp3227
Rp3228
(I3
S'|'
p3229
NNNI4
I1
I0
tp3230
bS'DEGF'
p3231
tp3232
Rp3233
sS'PLINE10T'
p3234
g2
(g3
(S'S4'
p3235
I0
I1
tp3236
Rp3237
(I3
S'|'
p3238
NNNI4
I1
I0
tp3239
bS'DEGF'
p3240
tp3241
Rp3242
sS'OHRTHR41_WIDE'
p3243
g2
(g3
(S'S4'
p3244
I0
I1
tp3245
Rp3246
(I3
S'|'
p3247
NNNI4
I1
I0
tp3248
bS'DEGF'
p3249
tp3250
Rp3251
sS'TPC_RCTU'
p3252
g2
(g3
(S'S4'
p3253
I0
I1
tp3254
Rp3255
(I3
S'|'
p3256
NNNI4
I1
I0
tp3257
bS'DEGF'
p3258
tp3259
Rp3260
sS'TCM_PA1'
p3261
g2
(g3
(S'S4'
p3262
I0
I1
tp3263
Rp3264
(I3
S'|'
p3265
NNNI4
I1
I0
tp3266
bS'DEGF'
p3267
tp3268
Rp3269
sS'EORTDMN27D'
p3270
g2
(g3
(S'S4'
p3271
I0
I1
tp3272
Rp3273
(I3
S'|'
p3274
NNNI4
I1
I0
tp3275
bS'DEGF'
p3276
tp3277
Rp3278
sS'AOBETANG'
p3279
g2
(g3
(S'S3'
p3280
I0
I1
tp3281
Rp3282
(I3
S'|'
p3283
NNNI3
I1
I0
tp3284
bS'DEG'
p3285
tp3286
Rp3287
sS'PLINE03T'
p3288
g2
(g3
(S'S4'
p3289
I0
I1
tp3290
Rp3291
(I3
S'|'
p3292
NNNI4
I1
I0
tp3293
bS'DEGF'
p3294
tp3295
Rp3296
sS'2FRADPYT'
p3297
g2
(g3
(S'S4'
p3298
I0
I1
tp3299
Rp3300
(I3
S'|'
p3301
NNNI4
I1
I0
tp3302
bS'DEGC'
p3303
tp3304
Rp3305
sS'1DE28BVO'
p3306
g2
(g3
(S'S1'
p3307
I0
I1
tp3308
Rp3309
(I3
S'|'
p3310
NNNI1
I1
I0
tp3311
bg63
tp3312
Rp3313
sS'AOADACH2A_NBG'
p3314
g2
(g3
(S'S3'
p3315
I0
I1
tp3316
Rp3317
(I3
S'|'
p3318
NNNI3
I1
I0
tp3319
bS'DEG'
p3320
tp3321
Rp3322
sS'AORWMOM2'
p3323
g2
(g3
(S'S7'
p3324
I0
I1
tp3325
Rp3326
(I3
S'|'
p3327
NNNI7
I1
I0
tp3328
bS'FTLBSEC'
p3329
tp3330
Rp3331
sS'PLAED4FT'
p3332
g2
(g3
(S'S4'
p3333
I0
I1
tp3334
Rp3335
(I3
S'|'
p3336
NNNI4
I1
I0
tp3337
bS'DEGF'
p3338
tp3339
Rp3340
sS'C28VMONA'
p3341
g2
(g3
(S'S1'
p3342
I0
I1
tp3343
Rp3344
(I3
S'|'
p3345
NNNI1
I1
I0
tp3346
bg63
tp3347
Rp3348
sS'4LLL2BT'
p3349
g2
(g3
(S'S4'
p3350
I0
I1
tp3351
Rp3352
(I3
S'|'
p3353
NNNI4
I1
I0
tp3354
bS'DEGF'
p3355
tp3356
Rp3357
sS'1DEP1BVO'
p3358
g2
(g3
(S'S1'
p3359
I0
I1
tp3360
Rp3361
(I3
S'|'
p3362
NNNI1
I1
I0
tp3363
bg63
tp3364
Rp3365
sS'AOSPACS3B'
p3366
g2
(g3
(S'S4'
p3367
I0
I1
tp3368
Rp3369
(I3
S'|'
p3370
NNNI4
I1
I0
tp3371
bS'MAMP'
p3372
tp3373
Rp3374
sS'PLAEV4BT'
p3375
g2
(g3
(S'S4'
p3376
I0
I1
tp3377
Rp3378
(I3
S'|'
p3379
NNNI4
I1
I0
tp3380
bS'DEGF'
p3381
tp3382
Rp3383
sS'ES2P5CV'
p3384
g2
(g3
(S'S1'
p3385
I0
I1
tp3386
Rp3387
(I3
S'|'
p3388
NNNI1
I1
I0
tp3389
bg63
tp3390
Rp3391
sS'AORWPI5B'
p3392
g2
(g3
(S'S4'
p3393
I0
I1
tp3394
Rp3395
(I3
S'|'
p3396
NNNI4
I1
I0
tp3397
bS'MSEC'
p3398
tp3399
Rp3400
sS'4HLL2BT'
p3401
g2
(g3
(S'S4'
p3402
I0
I1
tp3403
Rp3404
(I3
S'|'
p3405
NNNI4
I1
I0
tp3406
bS'DEGF'
p3407
tp3408
Rp3409
sS'TFSPCMM'
p3410
g2
(g3
(S'S4'
p3411
I0
I1
tp3412
Rp3413
(I3
S'|'
p3414
NNNI4
I1
I0
tp3415
bS'DEGF'
p3416
tp3417
Rp3418
sS'EORTDMN19D'
p3419
g2
(g3
(S'S4'
p3420
I0
I1
tp3421
Rp3422
(I3
S'|'
p3423
NNNI4
I1
I0
tp3424
bS'DEGF'
p3425
tp3426
Rp3427
sS'OOBTHR02_WIDE'
p3428
g2
(g3
(S'S4'
p3429
I0
I1
tp3430
Rp3431
(I3
S'|'
p3432
NNNI4
I1
I0
tp3433
bS'DEGF'
p3434
tp3435
Rp3436
sS'4HFSPAT'
p3437
g2
(g3
(S'S4'
p3438
I0
I1
tp3439
Rp3440
(I3
S'|'
p3441
NNNI4
I1
I0
tp3442
bS'DEGF'
p3443
tp3444
Rp3445
sS'4MP5BV'
p3446
g2
(g3
(S'S3'
p3447
I0
I1
tp3448
Rp3449
(I3
S'|'
p3450
NNNI3
I1
I0
tp3451
bS'VDC'
p3452
tp3453
Rp3454
sS'3TTRALAT'
p3455
g2
(g3
(S'S4'
p3456
I0
I1
tp3457
Rp3458
(I3
S'|'
p3459
NNNI4
I1
I0
tp3460
bS'DEGC'
p3461
tp3462
Rp3463
sS'TFSPCMP'
p3464
g2
(g3
(S'S4'
p3465
I0
I1
tp3466
Rp3467
(I3
S'|'
p3468
NNNI4
I1
I0
tp3469
bS'DEGF'
p3470
tp3471
Rp3472
sS'POM1THV1T'
p3473
g2
(g3
(S'S4'
p3474
I0
I1
tp3475
Rp3476
(I3
S'|'
p3477
NNNI4
I1
I0
tp3478
bS'DEGF'
p3479
tp3480
Rp3481
sS'OOBTHR50_WIDE'
p3482
g2
(g3
(S'S4'
p3483
I0
I1
tp3484
Rp3485
(I3
S'|'
p3486
NNNI4
I1
I0
tp3487
bS'DEGF'
p3488
tp3489
Rp3490
sS'AOACZAN5'
p3491
g2
(g3
(S'S4'
p3492
I0
I1
tp3493
Rp3494
(I3
S'|'
p3495
NNNI4
I1
I0
tp3496
bS'ASEC'
p3497
tp3498
Rp3499
sS'AOACZAN4'
p3500
g2
(g3
(S'S4'
p3501
I0
I1
tp3502
Rp3503
(I3
S'|'
p3504
NNNI4
I1
I0
tp3505
bS'ASEC'
p3506
tp3507
Rp3508
sS'AOACZAN7'
p3509
g2
(g3
(S'S4'
p3510
I0
I1
tp3511
Rp3512
(I3
S'|'
p3513
NNNI4
I1
I0
tp3514
bS'ASEC'
p3515
tp3516
Rp3517
sS'AOACZAN6'
p3518
g2
(g3
(S'S4'
p3519
I0
I1
tp3520
Rp3521
(I3
S'|'
p3522
NNNI4
I1
I0
tp3523
bS'ASEC'
p3524
tp3525
Rp3526
sS'AOACZAN1'
p3527
g2
(g3
(S'S4'
p3528
I0
I1
tp3529
Rp3530
(I3
S'|'
p3531
NNNI4
I1
I0
tp3532
bS'ASEC'
p3533
tp3534
Rp3535
sS'AOACZAN0'
p3536
g2
(g3
(S'S4'
p3537
I0
I1
tp3538
Rp3539
(I3
S'|'
p3540
NNNI4
I1
I0
tp3541
bS'ASEC'
p3542
tp3543
Rp3544
sS'AOACZAN3'
p3545
g2
(g3
(S'S4'
p3546
I0
I1
tp3547
Rp3548
(I3
S'|'
p3549
NNNI4
I1
I0
tp3550
bS'ASEC'
p3551
tp3552
Rp3553
sS'AOACZAN2'
p3554
g2
(g3
(S'S4'
p3555
I0
I1
tp3556
Rp3557
(I3
S'|'
p3558
NNNI4
I1
I0
tp3559
bS'ASEC'
p3560
tp3561
Rp3562
sS'3TTHRC2T'
p3563
g2
(g3
(S'S4'
p3564
I0
I1
tp3565
Rp3566
(I3
S'|'
p3567
NNNI4
I1
I0
tp3568
bS'DEGC'
p3569
tp3570
Rp3571
sS'EOEBCC'
p3572
g2
(g3
(S'S3'
p3573
I0
I1
tp3574
Rp3575
(I3
S'|'
p3576
NNNI3
I1
I0
tp3577
bS'AMP'
p3578
tp3579
Rp3580
sS'TCYLAFT4'
p3581
g2
(g3
(S'S4'
p3582
I0
I1
tp3583
Rp3584
(I3
S'|'
p3585
NNNI4
I1
I0
tp3586
bS'DEGF'
p3587
tp3588
Rp3589
sS'OOBTHR26'
p3590
g2
(g3
(S'S4'
p3591
I0
I1
tp3592
Rp3593
(I3
S'|'
p3594
NNNI4
I1
I0
tp3595
bS'DEGF'
p3596
tp3597
Rp3598
sS'CRXALS'
p3599
g2
(g3
(S'S3'
p3600
I0
I1
tp3601
Rp3602
(I3
S'|'
p3603
NNNI3
I1
I0
tp3604
bS'KHZ'
p3605
tp3606
Rp3607
sS'AOYABR'
p3608
g2
(g3
(S'S3'
p3609
I0
I1
tp3610
Rp3611
(I3
S'|'
p3612
NNNI3
I1
I0
tp3613
bS'RAD'
p3614
tp3615
Rp3616
sS'AOSRERR1'
p3617
g2
(g3
(S'S5'
p3618
I0
I1
tp3619
Rp3620
(I3
S'|'
p3621
NNNI5
I1
I0
tp3622
bS'RADPS'
p3623
tp3624
Rp3625
sS'AOSRERR2'
p3626
g2
(g3
(S'S5'
p3627
I0
I1
tp3628
Rp3629
(I3
S'|'
p3630
NNNI5
I1
I0
tp3631
bS'RADPS'
p3632
tp3633
Rp3634
sS'AOSRERR3'
p3635
g2
(g3
(S'S5'
p3636
I0
I1
tp3637
Rp3638
(I3
S'|'
p3639
NNNI5
I1
I0
tp3640
bS'RADPS'
p3641
tp3642
Rp3643
sS'PLAED2GT'
p3644
g2
(g3
(S'S4'
p3645
I0
I1
tp3646
Rp3647
(I3
S'|'
p3648
NNNI4
I1
I0
tp3649
bS'DEGF'
p3650
tp3651
Rp3652
sS'POLINE16T'
p3653
g2
(g3
(S'S4'
p3654
I0
I1
tp3655
Rp3656
(I3
S'|'
p3657
NNNI4
I1
I0
tp3658
bS'DEGF'
p3659
tp3660
Rp3661
sS'CXO5VOBB'
p3662
g2
(g3
(S'S1'
p3663
I0
I1
tp3664
Rp3665
(I3
S'|'
p3666
NNNI1
I1
I0
tp3667
bg63
tp3668
Rp3669
sS'AOSAEST1'
p3670
g2
(g3
(S'S3'
p3671
I0
I1
tp3672
Rp3673
(I3
S'|'
p3674
NNNI3
I1
I0
tp3675
bS'RAD'
p3676
tp3677
Rp3678
sS'1DAHACU'
p3679
g2
(g3
(S'S3'
p3680
I0
I1
tp3681
Rp3682
(I3
S'|'
p3683
NNNI3
I1
I0
tp3684
bS'AMP'
p3685
tp3686
Rp3687
sS'4RT565T'
p3688
g2
(g3
(S'S4'
p3689
I0
I1
tp3690
Rp3691
(I3
S'|'
p3692
NNNI4
I1
I0
tp3693
bS'DEGF'
p3694
tp3695
Rp3696
sS'AORWINT3'
p3697
g2
(g3
(S'S4'
p3698
I0
I1
tp3699
Rp3700
(I3
S'|'
p3701
NNNI4
I1
I0
tp3702
bS'MSEC'
p3703
tp3704
Rp3705
sS'PM3THV1T'
p3706
g2
(g3
(S'S4'
p3707
I0
I1
tp3708
Rp3709
(I3
S'|'
p3710
NNNI4
I1
I0
tp3711
bS'DEGF'
p3712
tp3713
Rp3714
sS'4LPOSBRO'
p3715
g2
(g3
(S'S3'
p3716
I0
I1
tp3717
Rp3718
(I3
S'|'
p3719
NNNI3
I1
I0
tp3720
bS'DEG'
p3721
tp3722
Rp3723
sS'AOETIMEX'
p3724
g2
(g3
(S'S3'
p3725
I0
I1
tp3726
Rp3727
(I3
S'|'
p3728
NNNI3
I1
I0
tp3729
bS'SEC'
p3730
tp3731
Rp3732
sS'4RT594T'
p3733
g2
(g3
(S'S4'
p3734
I0
I1
tp3735
Rp3736
(I3
S'|'
p3737
NNNI4
I1
I0
tp3738
bS'DEGF'
p3739
tp3740
Rp3741
sS'6SARES2'
p3742
g2
(g3
(S'S3'
p3743
I0
I1
tp3744
Rp3745
(I3
S'|'
p3746
NNNI3
I1
I0
tp3747
bS'DEG'
p3748
tp3749
Rp3750
sS'6SARES1'
p3751
g2
(g3
(S'S3'
p3752
I0
I1
tp3753
Rp3754
(I3
S'|'
p3755
NNNI3
I1
I0
tp3756
bS'DEG'
p3757
tp3758
Rp3759
sS'4RT701T'
p3760
g2
(g3
(S'S4'
p3761
I0
I1
tp3762
Rp3763
(I3
S'|'
p3764
NNNI4
I1
I0
tp3765
bS'DEGF'
p3766
tp3767
Rp3768
sS'1DEN0BVO'
p3769
g2
(g3
(S'S1'
p3770
I0
I1
tp3771
Rp3772
(I3
S'|'
p3773
NNNI1
I1
I0
tp3774
bg63
tp3775
Rp3776
sS'4IP15BV'
p3777
g2
(g3
(S'S3'
p3778
I0
I1
tp3779
Rp3780
(I3
S'|'
p3781
NNNI3
I1
I0
tp3782
bS'VDC'
p3783
tp3784
Rp3785
sS'4ALL2BT'
p3786
g2
(g3
(S'S4'
p3787
I0
I1
tp3788
Rp3789
(I3
S'|'
p3790
NNNI4
I1
I0
tp3791
bS'DEGF'
p3792
tp3793
Rp3794
sS'AORWINT6'
p3795
g2
(g3
(S'S4'
p3796
I0
I1
tp3797
Rp3798
(I3
S'|'
p3799
NNNI4
I1
I0
tp3800
bS'MSEC'
p3801
tp3802
Rp3803
sS'CIUB5V'
p3804
g2
(g3
(S'S1'
p3805
I0
I1
tp3806
Rp3807
(I3
S'|'
p3808
NNNI1
I1
I0
tp3809
bg63
tp3810
Rp3811
sS'3FAMTRAT'
p3812
g2
(g3
(S'S4'
p3813
I0
I1
tp3814
Rp3815
(I3
S'|'
p3816
NNNI4
I1
I0
tp3817
bS'DEGC'
p3818
tp3819
Rp3820
sS'OOBTHR19'
p3821
g2
(g3
(S'S4'
p3822
I0
I1
tp3823
Rp3824
(I3
S'|'
p3825
NNNI4
I1
I0
tp3826
bS'DEGF'
p3827
tp3828
Rp3829
sS'CTUA15V'
p3830
g2
(g3
(S'S1'
p3831
I0
I1
tp3832
Rp3833
(I3
S'|'
p3834
NNNI1
I1
I0
tp3835
bg63
tp3836
Rp3837
sS'OHRTHR24_WIDE'
p3838
g2
(g3
(S'S4'
p3839
I0
I1
tp3840
Rp3841
(I3
S'|'
p3842
NNNI4
I1
I0
tp3843
bS'DEGF'
p3844
tp3845
Rp3846
sS'4CSDHBV'
p3847
g2
(g3
(S'S3'
p3848
I0
I1
tp3849
Rp3850
(I3
S'|'
p3851
NNNI3
I1
I0
tp3852
bS'VDC'
p3853
tp3854
Rp3855
sS'AFLC10BI'
p3856
g2
(g3
(S'S4'
p3857
I0
I1
tp3858
Rp3859
(I3
S'|'
p3860
NNNI4
I1
I0
tp3861
bS'MAMP'
p3862
tp3863
Rp3864
sS'PLAED2ET'
p3865
g2
(g3
(S'S4'
p3866
I0
I1
tp3867
Rp3868
(I3
S'|'
p3869
NNNI4
I1
I0
tp3870
bS'DEGF'
p3871
tp3872
Rp3873
sS'CSSR1CAV'
p3874
g2
(g3
(S'S1'
p3875
I0
I1
tp3876
Rp3877
(I3
S'|'
p3878
NNNI1
I1
I0
tp3879
bg63
tp3880
Rp3881
sS'TMP_BEP_OSC'
p3882
g353
sS'AOINTTIM'
p3883
g2
(g3
(S'S3'
p3884
I0
I1
tp3885
Rp3886
(I3
S'|'
p3887
NNNI3
I1
I0
tp3888
bS'SEC'
p3889
tp3890
Rp3891
sS'3TTBRGBT'
p3892
g2
(g3
(S'S4'
p3893
I0
I1
tp3894
Rp3895
(I3
S'|'
p3896
NNNI4
I1
I0
tp3897
bS'DEGC'
p3898
tp3899
Rp3900
sS'EOESAC2C'
p3901
g2
(g3
(S'S3'
p3902
I0
I1
tp3903
Rp3904
(I3
S'|'
p3905
NNNI3
I1
I0
tp3906
bS'AMP'
p3907
tp3908
Rp3909
sS'AORWINT1'
p3910
g2
(g3
(S'S4'
p3911
I0
I1
tp3912
Rp3913
(I3
S'|'
p3914
NNNI4
I1
I0
tp3915
bS'MSEC'
p3916
tp3917
Rp3918
sS'AORWINT2'
p3919
g2
(g3
(S'S4'
p3920
I0
I1
tp3921
Rp3922
(I3
S'|'
p3923
NNNI4
I1
I0
tp3924
bS'MSEC'
p3925
tp3926
Rp3927
sS'4IP5AV'
p3928
g2
(g3
(S'S3'
p3929
I0
I1
tp3930
Rp3931
(I3
S'|'
p3932
NNNI3
I1
I0
tp3933
bS'VDC'
p3934
tp3935
Rp3936
sS'AORWINT4'
p3937
g2
(g3
(S'S4'
p3938
I0
I1
tp3939
Rp3940
(I3
S'|'
p3941
NNNI4
I1
I0
tp3942
bS'MSEC'
p3943
tp3944
Rp3945
sS'1DACTAT'
p3946
g2
(g3
(S'S3'
p3947
I0
I1
tp3948
Rp3949
(I3
S'|'
p3950
NNNI3
I1
I0
tp3951
bS'DEG'
p3952
tp3953
Rp3954
sS'4RT557T'
p3955
g2
(g3
(S'S4'
p3956
I0
I1
tp3957
Rp3958
(I3
S'|'
p3959
NNNI4
I1
I0
tp3960
bS'DEGF'
p3961
tp3962
Rp3963
sS'AFLCA4AI'
p3964
g2
(g3
(S'S4'
p3965
I0
I1
tp3966
Rp3967
(I3
S'|'
p3968
NNNI4
I1
I0
tp3969
bS'MAMP'
p3970
tp3971
Rp3972
sS'OOBTHR15'
p3973
g2
(g3
(S'S4'
p3974
I0
I1
tp3975
Rp3976
(I3
S'|'
p3977
NNNI4
I1
I0
tp3978
bS'DEGF'
p3979
tp3980
Rp3981
sS'4SP51V'
p3982
g2
(g3
(S'S3'
p3983
I0
I1
tp3984
Rp3985
(I3
S'|'
p3986
NNNI3
I1
I0
tp3987
bS'VDC'
p3988
tp3989
Rp3990
sS'EORTDMN25D'
p3991
g2
(g3
(S'S4'
p3992
I0
I1
tp3993
Rp3994
(I3
S'|'
p3995
NNNI4
I1
I0
tp3996
bS'DEGF'
p3997
tp3998
Rp3999
sS'PLAED2CT'
p4000
g2
(g3
(S'S4'
p4001
I0
I1
tp4002
Rp4003
(I3
S'|'
p4004
NNNI4
I1
I0
tp4005
bS'DEGF'
p4006
tp4007
Rp4008
sS'4RT577T'
p4009
g2
(g3
(S'S4'
p4010
I0
I1
tp4011
Rp4012
(I3
S'|'
p4013
NNNI4
I1
I0
tp4014
bS'DEGF'
p4015
tp4016
Rp4017
sS'4IN15AV'
p4018
g2
(g3
(S'S3'
p4019
I0
I1
tp4020
Rp4021
(I3
S'|'
p4022
NNNI3
I1
I0
tp4023
bS'VDC'
p4024
tp4025
Rp4026
sS'C10VREFA'
p4027
g2
(g3
(S'S3'
p4028
I0
I1
tp4029
Rp4030
(I3
S'|'
p4031
NNNI3
I1
I0
tp4032
bS'VDC'
p4033
tp4034
Rp4035
sS'OHRTHR34_WIDE'
p4036
g2
(g3
(S'S4'
p4037
I0
I1
tp4038
Rp4039
(I3
S'|'
p4040
NNNI4
I1
I0
tp4041
bS'DEGF'
p4042
tp4043
Rp4044
sS'EOEB2VC'
p4045
g2
(g3
(S'S1'
p4046
I0
I1
tp4047
Rp4048
(I3
S'|'
p4049
NNNI1
I1
I0
tp4050
bg63
tp4051
Rp4052
sS'4PRT3BT'
p4053
g2
(g3
(S'S4'
p4054
I0
I1
tp4055
Rp4056
(I3
S'|'
p4057
NNNI4
I1
I0
tp4058
bS'DEGF'
p4059
tp4060
Rp4061
sS'AWD1CV5V'
p4062
g2
(g3
(S'S1'
p4063
I0
I1
tp4064
Rp4065
(I3
S'|'
p4066
NNNI1
I1
I0
tp4067
bg63
tp4068
Rp4069
sS'PMTANK3T'
p4070
g2
(g3
(S'S4'
p4071
I0
I1
tp4072
Rp4073
(I3
S'|'
p4074
NNNI4
I1
I0
tp4075
bS'DEGF'
p4076
tp4077
Rp4078
sS'AFLCA8BI'
p4079
g2
(g3
(S'S4'
p4080
I0
I1
tp4081
Rp4082
(I3
S'|'
p4083
NNNI4
I1
I0
tp4084
bS'MAMP'
p4085
tp4086
Rp4087
sS'PLAED1DT'
p4088
g2
(g3
(S'S4'
p4089
I0
I1
tp4090
Rp4091
(I3
S'|'
p4092
NNNI4
I1
I0
tp4093
bS'DEGF'
p4094
tp4095
Rp4096
sS'ARWA3BT'
p4097
g2
(g3
(S'S4'
p4098
I0
I1
tp4099
Rp4100
(I3
S'|'
p4101
NNNI4
I1
I0
tp4102
bS'DEGF'
p4103
tp4104
Rp4105
sS'AOACINTT'
p4106
g2
(g3
(S'S4'
p4107
I0
I1
tp4108
Rp4109
(I3
S'|'
p4110
NNNI4
I1
I0
tp4111
bS'MSEC'
p4112
tp4113
Rp4114
sS'POLAEV1AT'
p4115
g2
(g3
(S'S4'
p4116
I0
I1
tp4117
Rp4118
(I3
S'|'
p4119
NNNI4
I1
I0
tp4120
bS'DEGF'
p4121
tp4122
Rp4123
sS'OHRTHR63'
p4124
g2
(g3
(S'S4'
p4125
I0
I1
tp4126
Rp4127
(I3
S'|'
p4128
NNNI4
I1
I0
tp4129
bS'DEGF'
p4130
tp4131
Rp4132
sS'3BTU_BPT'
p4133
g2
(g3
(S'S4'
p4134
I0
I1
tp4135
Rp4136
(I3
S'|'
p4137
NNNI4
I1
I0
tp4138
bS'DEGC'
p4139
tp4140
Rp4141
sS'OHRTHR61'
p4142
g2
(g3
(S'S4'
p4143
I0
I1
tp4144
Rp4145
(I3
S'|'
p4146
NNNI4
I1
I0
tp4147
bS'DEGF'
p4148
tp4149
Rp4150
sS'AORESZ6_5'
p4151
g2
(g3
(S'S3'
p4152
I0
I1
tp4153
Rp4154
(I3
S'|'
p4155
NNNI3
I1
I0
tp4156
bS'RAD'
p4157
tp4158
Rp4159
sS'AOSYMOM3'
p4160
g2
(g3
(S'S7'
p4161
I0
I1
tp4162
Rp4163
(I3
S'|'
p4164
NNNI7
I1
I0
tp4165
bS'FTLBSEC'
p4166
tp4167
Rp4168
sS'AOSYMOM2'
p4169
g2
(g3
(S'S7'
p4170
I0
I1
tp4171
Rp4172
(I3
S'|'
p4173
NNNI7
I1
I0
tp4174
bS'FTLBSEC'
p4175
tp4176
Rp4177
sS'6BETANG'
p4178
g2
(g3
(S'S3'
p4179
I0
I1
tp4180
Rp4181
(I3
S'|'
p4182
NNNI3
I1
I0
tp4183
bS'DEG'
p4184
tp4185
Rp4186
sS'EOEBCC_LOW'
p4187
g2
(g3
(S'S3'
p4188
I0
I1
tp4189
Rp4190
(I3
S'|'
p4191
NNNI3
I1
I0
tp4192
bS'AMP'
p4193
tp4194
Rp4195
sS'AFLCA2AI'
p4196
g2
(g3
(S'S4'
p4197
I0
I1
tp4198
Rp4199
(I3
S'|'
p4200
NNNI4
I1
I0
tp4201
bS'MAMP'
p4202
tp4203
Rp4204
sS'1OAHBT'
p4205
g2
(g3
(S'S4'
p4206
I0
I1
tp4207
Rp4208
(I3
S'|'
p4209
NNNI4
I1
I0
tp4210
bS'DEGC'
p4211
tp4212
Rp4213
sS'TCYLAFT1'
p4214
g2
(g3
(S'S4'
p4215
I0
I1
tp4216
Rp4217
(I3
S'|'
p4218
NNNI4
I1
I0
tp4219
bS'DEGF'
p4220
tp4221
Rp4222
sS'1DAHBCU'
p4223
g2
(g3
(S'S3'
p4224
I0
I1
tp4225
Rp4226
(I3
S'|'
p4227
NNNI3
I1
I0
tp4228
bS'AMP'
p4229
tp4230
Rp4231
sS'OOBTHR63_WIDE'
p4232
g2
(g3
(S'S4'
p4233
I0
I1
tp4234
Rp4235
(I3
S'|'
p4236
NNNI4
I1
I0
tp4237
bS'DEGF'
p4238
tp4239
Rp4240
sS'PLAEV1AT'
p4241
g2
(g3
(S'S4'
p4242
I0
I1
tp4243
Rp4244
(I3
S'|'
p4245
NNNI4
I1
I0
tp4246
bS'DEGF'
p4247
tp4248
Rp4249
sS'PMFP01T'
p4250
g2
(g3
(S'S4'
p4251
I0
I1
tp4252
Rp4253
(I3
S'|'
p4254
NNNI4
I1
I0
tp4255
bS'DEGF'
p4256
tp4257
Rp4258
sS'AFLCA5BI'
p4259
g2
(g3
(S'S4'
p4260
I0
I1
tp4261
Rp4262
(I3
S'|'
p4263
NNNI4
I1
I0
tp4264
bS'MAMP'
p4265
tp4266
Rp4267
sS'OHRTHR04_WIDE'
p4268
g2
(g3
(S'S4'
p4269
I0
I1
tp4270
Rp4271
(I3
S'|'
p4272
NNNI4
I1
I0
tp4273
bS'DEGF'
p4274
tp4275
Rp4276
sS'ECNV3V'
p4277
g2
(g3
(S'S1'
p4278
I0
I1
tp4279
Rp4280
(I3
S'|'
p4281
NNNI1
I1
I0
tp4282
bg63
tp4283
Rp4284
sS'PLINE15T'
p4285
g2
(g3
(S'S4'
p4286
I0
I1
tp4287
Rp4288
(I3
S'|'
p4289
NNNI4
I1
I0
tp4290
bS'DEGF'
p4291
tp4292
Rp4293
sS'4RT583T'
p4294
g2
(g3
(S'S4'
p4295
I0
I1
tp4296
Rp4297
(I3
S'|'
p4298
NNNI4
I1
I0
tp4299
bS'DEGF'
p4300
tp4301
Rp4302
sS'OHRTHR51_WIDE'
p4303
g2
(g3
(S'S4'
p4304
I0
I1
tp4305
Rp4306
(I3
S'|'
p4307
NNNI4
I1
I0
tp4308
bS'DEGF'
p4309
tp4310
Rp4311
sS'AIOAP5CV'
p4312
g2
(g3
(S'S1'
p4313
I0
I1
tp4314
Rp4315
(I3
S'|'
p4316
NNNI1
I1
I0
tp4317
bg63
tp4318
Rp4319
sS'TFSPRWC'
p4320
g2
(g3
(S'S4'
p4321
I0
I1
tp4322
Rp4323
(I3
S'|'
p4324
NNNI4
I1
I0
tp4325
bS'DEGF'
p4326
tp4327
Rp4328
sS'4RT593T'
p4329
g2
(g3
(S'S4'
p4330
I0
I1
tp4331
Rp4332
(I3
S'|'
p4333
NNNI4
I1
I0
tp4334
bS'DEGF'
p4335
tp4336
Rp4337
sS'TATECDRT'
p4338
g2
(g3
(S'S4'
p4339
I0
I1
tp4340
Rp4341
(I3
S'|'
p4342
NNNI4
I1
I0
tp4343
bS'DEGF'
p4344
tp4345
Rp4346
sS'4RT559T'
p4347
g2
(g3
(S'S4'
p4348
I0
I1
tp4349
Rp4350
(I3
S'|'
p4351
NNNI4
I1
I0
tp4352
bS'DEGF'
p4353
tp4354
Rp4355
sS'TSCTSF1'
p4356
g2
(g3
(S'S4'
p4357
I0
I1
tp4358
Rp4359
(I3
S'|'
p4360
NNNI4
I1
I0
tp4361
bS'DEGF'
p4362
tp4363
Rp4364
sS'TSCTSF2'
p4365
g2
(g3
(S'S4'
p4366
I0
I1
tp4367
Rp4368
(I3
S'|'
p4369
NNNI4
I1
I0
tp4370
bS'DEGF'
p4371
tp4372
Rp4373
sS'TSCTSF3'
p4374
g2
(g3
(S'S4'
p4375
I0
I1
tp4376
Rp4377
(I3
S'|'
p4378
NNNI4
I1
I0
tp4379
bS'DEGF'
p4380
tp4381
Rp4382
sS'TSCTSF4'
p4383
g2
(g3
(S'S4'
p4384
I0
I1
tp4385
Rp4386
(I3
S'|'
p4387
NNNI4
I1
I0
tp4388
bS'DEGF'
p4389
tp4390
Rp4391
sS'TSCTSF5'
p4392
g2
(g3
(S'S4'
p4393
I0
I1
tp4394
Rp4395
(I3
S'|'
p4396
NNNI4
I1
I0
tp4397
bS'DEGF'
p4398
tp4399
Rp4400
sS'4PRT5BT'
p4401
g2
(g3
(S'S4'
p4402
I0
I1
tp4403
Rp4404
(I3
S'|'
p4405
NNNI4
I1
I0
tp4406
bS'DEGF'
p4407
tp4408
Rp4409
sS'AFLCA6BI'
p4410
g2
(g3
(S'S4'
p4411
I0
I1
tp4412
Rp4413
(I3
S'|'
p4414
NNNI4
I1
I0
tp4415
bS'MAMP'
p4416
tp4417
Rp4418
sS'TCM_RFAS'
p4419
g2
(g3
(S'S4'
p4420
I0
I1
tp4421
Rp4422
(I3
S'|'
p4423
NNNI4
I1
I0
tp4424
bS'DEGF'
p4425
tp4426
Rp4427
sS'OHRTHR11_WIDE'
p4428
g2
(g3
(S'S4'
p4429
I0
I1
tp4430
Rp4431
(I3
S'|'
p4432
NNNI4
I1
I0
tp4433
bS'DEGF'
p4434
tp4435
Rp4436
sS'PLAED4ET'
p4437
g2
(g3
(S'S4'
p4438
I0
I1
tp4439
Rp4440
(I3
S'|'
p4441
NNNI4
I1
I0
tp4442
bS'DEGF'
p4443
tp4444
Rp4445
sS'3FAFLBAT'
p4446
g2
(g3
(S'S4'
p4447
I0
I1
tp4448
Rp4449
(I3
S'|'
p4450
NNNI4
I1
I0
tp4451
bS'DEGC'
p4452
tp4453
Rp4454
sS'6SARATC2'
p4455
g2
(g3
(S'S5'
p4456
I0
I1
tp4457
Rp4458
(I3
S'|'
p4459
NNNI5
I1
I0
tp4460
bS'RADPS'
p4461
tp4462
Rp4463
sS'1DEICACU'
p4464
g2
(g3
(S'S3'
p4465
I0
I1
tp4466
Rp4467
(I3
S'|'
p4468
NNNI3
I1
I0
tp4469
bS'AMP'
p4470
tp4471
Rp4472
sS'6SARATC1'
p4473
g2
(g3
(S'S5'
p4474
I0
I1
tp4475
Rp4476
(I3
S'|'
p4477
NNNI5
I1
I0
tp4478
bS'RADPS'
p4479
tp4480
Rp4481
sS'1MAHCAT'
p4482
g2
(g3
(S'S4'
p4483
I0
I1
tp4484
Rp4485
(I3
S'|'
p4486
NNNI4
I1
I0
tp4487
bS'DEGC'
p4488
tp4489
Rp4490
sS'OOBTHR03_WIDE'
p4491
g2
(g3
(S'S4'
p4492
I0
I1
tp4493
Rp4494
(I3
S'|'
p4495
NNNI4
I1
I0
tp4496
bS'DEGF'
p4497
tp4498
Rp4499
sS'PR3TV02T'
p4500
g2
(g3
(S'S4'
p4501
I0
I1
tp4502
Rp4503
(I3
S'|'
p4504
NNNI4
I1
I0
tp4505
bS'DEGF'
p4506
tp4507
Rp4508
sS'3TSPZSPT'
p4509
g2
(g3
(S'S4'
p4510
I0
I1
tp4511
Rp4512
(I3
S'|'
p4513
NNNI4
I1
I0
tp4514
bS'DEGC'
p4515
tp4516
Rp4517
sS'HKEBOXTEMP'
p4518
S'DEGF'
p4519
sS'1DEP3BVO'
p4520
g2
(g3
(S'S1'
p4521
I0
I1
tp4522
Rp4523
(I3
S'|'
p4524
NNNI1
I1
I0
tp4525
bg63
tp4526
Rp4527
sS'AOAVGDTQ'
p4528
g2
(g3
(S'S4'
p4529
I0
I1
tp4530
Rp4531
(I3
S'|'
p4532
NNNI4
I1
I0
tp4533
bS'FTLB'
p4534
tp4535
Rp4536
sS'CXO5VOBA'
p4537
g2
(g3
(S'S1'
p4538
I0
I1
tp4539
Rp4540
(I3
S'|'
p4541
NNNI1
I1
I0
tp4542
bg63
tp4543
Rp4544
sS'EORTDMN17D'
p4545
g2
(g3
(S'S4'
p4546
I0
I1
tp4547
Rp4548
(I3
S'|'
p4549
NNNI4
I1
I0
tp4550
bS'DEGF'
p4551
tp4552
Rp4553
sS'PLAED4BT'
p4554
g2
(g3
(S'S4'
p4555
I0
I1
tp4556
Rp4557
(I3
S'|'
p4558
NNNI4
I1
I0
tp4559
bS'DEGF'
p4560
tp4561
Rp4562
sS'ADE1P5CV'
p4563
g2
(g3
(S'S1'
p4564
I0
I1
tp4565
Rp4566
(I3
S'|'
p4567
NNNI1
I1
I0
tp4568
bg63
tp4569
Rp4570
sS'TFSPPCU'
p4571
g2
(g3
(S'S4'
p4572
I0
I1
tp4573
Rp4574
(I3
S'|'
p4575
NNNI4
I1
I0
tp4576
bS'DEGF'
p4577
tp4578
Rp4579
sS'4RT560T'
p4580
g2
(g3
(S'S4'
p4581
I0
I1
tp4582
Rp4583
(I3
S'|'
p4584
NNNI4
I1
I0
tp4585
bS'DEGF'
p4586
tp4587
Rp4588
sS'AORESZ7'
p4589
g2
(g3
(S'S3'
p4590
I0
I1
tp4591
Rp4592
(I3
S'|'
p4593
NNNI3
I1
I0
tp4594
bS'RAD'
p4595
tp4596
Rp4597
sS'6RWSPD3'
p4598
g2
(g3
(S'S5'
p4599
I0
I1
tp4600
Rp4601
(I3
S'|'
p4602
NNNI5
I1
I0
tp4603
bS'RADPS'
p4604
tp4605
Rp4606
sS'6RWSPD2'
p4607
g2
(g3
(S'S5'
p4608
I0
I1
tp4609
Rp4610
(I3
S'|'
p4611
NNNI5
I1
I0
tp4612
bS'RADPS'
p4613
tp4614
Rp4615
sS'6RWSPD5'
p4616
g2
(g3
(S'S5'
p4617
I0
I1
tp4618
Rp4619
(I3
S'|'
p4620
NNNI5
I1
I0
tp4621
bS'RADPS'
p4622
tp4623
Rp4624
sS'6RWSPD4'
p4625
g2
(g3
(S'S5'
p4626
I0
I1
tp4627
Rp4628
(I3
S'|'
p4629
NNNI5
I1
I0
tp4630
bS'RADPS'
p4631
tp4632
Rp4633
sS'OHRTHR06_WIDE'
p4634
g2
(g3
(S'S4'
p4635
I0
I1
tp4636
Rp4637
(I3
S'|'
p4638
NNNI4
I1
I0
tp4639
bS'DEGF'
p4640
tp4641
Rp4642
sS'6RWSPD6'
p4643
g2
(g3
(S'S5'
p4644
I0
I1
tp4645
Rp4646
(I3
S'|'
p4647
NNNI5
I1
I0
tp4648
bS'RADPS'
p4649
tp4650
Rp4651
sS'1MAHOAT'
p4652
g2
(g3
(S'S4'
p4653
I0
I1
tp4654
Rp4655
(I3
S'|'
p4656
NNNI4
I1
I0
tp4657
bS'DEGC'
p4658
tp4659
Rp4660
sS'POLAEV1BT'
p4661
g2
(g3
(S'S4'
p4662
I0
I1
tp4663
Rp4664
(I3
S'|'
p4665
NNNI4
I1
I0
tp4666
bS'DEGF'
p4667
tp4668
Rp4669
sS'AFLCA7AI'
p4670
g2
(g3
(S'S4'
p4671
I0
I1
tp4672
Rp4673
(I3
S'|'
p4674
NNNI4
I1
I0
tp4675
bS'MAMP'
p4676
tp4677
Rp4678
sS'EB2DI'
p4679
g2
(g3
(S'S3'
p4680
I0
I1
tp4681
Rp4682
(I3
S'|'
p4683
NNNI3
I1
I0
tp4684
bS'AMP'
p4685
tp4686
Rp4687
sS'EORTDMN24D'
p4688
g2
(g3
(S'S4'
p4689
I0
I1
tp4690
Rp4691
(I3
S'|'
p4692
NNNI4
I1
I0
tp4693
bS'DEGF'
p4694
tp4695
Rp4696
sS'TRSPRWBB'
p4697
g2
(g3
(S'S4'
p4698
I0
I1
tp4699
Rp4700
(I3
S'|'
p4701
NNNI4
I1
I0
tp4702
bS'DEGF'
p4703
tp4704
Rp4705
sS'TRSPRWBC'
p4706
g2
(g3
(S'S4'
p4707
I0
I1
tp4708
Rp4709
(I3
S'|'
p4710
NNNI4
I1
I0
tp4711
bS'DEGF'
p4712
tp4713
Rp4714
sS'OOBTHR19_WIDE'
p4715
g2
(g3
(S'S4'
p4716
I0
I1
tp4717
Rp4718
(I3
S'|'
p4719
NNNI4
I1
I0
tp4720
bS'DEGF'
p4721
tp4722
Rp4723
sS'FPTEMP_11'
p4724
g353
sS'POLINE02T'
p4725
g2
(g3
(S'S4'
p4726
I0
I1
tp4727
Rp4728
(I3
S'|'
p4729
NNNI4
I1
I0
tp4730
bS'DEGF'
p4731
tp4732
Rp4733
sS'FPTEMP_12'
p4734
g353
sS'AORWPI1B'
p4735
g2
(g3
(S'S4'
p4736
I0
I1
tp4737
Rp4738
(I3
S'|'
p4739
NNNI4
I1
I0
tp4740
bS'MSEC'
p4741
tp4742
Rp4743
sS'EB1DI'
p4744
g2
(g3
(S'S3'
p4745
I0
I1
tp4746
Rp4747
(I3
S'|'
p4748
NNNI3
I1
I0
tp4749
bS'AMP'
p4750
tp4751
Rp4752
sS'PLAED3FT'
p4753
g2
(g3
(S'S4'
p4754
I0
I1
tp4755
Rp4756
(I3
S'|'
p4757
NNNI4
I1
I0
tp4758
bS'DEGF'
p4759
tp4760
Rp4761
sS'AFLCA3AI'
p4762
g2
(g3
(S'S4'
p4763
I0
I1
tp4764
Rp4765
(I3
S'|'
p4766
NNNI4
I1
I0
tp4767
bS'MAMP'
p4768
tp4769
Rp4770
sS'AFSSPC1V'
p4771
g2
(g3
(S'S1'
p4772
I0
I1
tp4773
Rp4774
(I3
S'|'
p4775
NNNI1
I1
I0
tp4776
bg63
tp4777
Rp4778
sS'TSCIUSF2'
p4779
g2
(g3
(S'S4'
p4780
I0
I1
tp4781
Rp4782
(I3
S'|'
p4783
NNNI4
I1
I0
tp4784
bS'DEGF'
p4785
tp4786
Rp4787
sS'TSCIUSF5'
p4788
g2
(g3
(S'S4'
p4789
I0
I1
tp4790
Rp4791
(I3
S'|'
p4792
NNNI4
I1
I0
tp4793
bS'DEGF'
p4794
tp4795
Rp4796
sS'AVD1CV5V'
p4797
g2
(g3
(S'S1'
p4798
I0
I1
tp4799
Rp4800
(I3
S'|'
p4801
NNNI1
I1
I0
tp4802
bg63
tp4803
Rp4804
sS'TSCIUSF8'
p4805
g2
(g3
(S'S4'
p4806
I0
I1
tp4807
Rp4808
(I3
S'|'
p4809
NNNI4
I1
I0
tp4810
bS'DEGF'
p4811
tp4812
Rp4813
sS'2SHEV2RT'
p4814
g2
(g3
(S'S2'
p4815
I0
I1
tp4816
Rp4817
(I3
S'|'
p4818
NNNI2
I1
I0
tp4819
bS'HZ'
p4820
tp4821
Rp4822
sS'1HOPRAPR'
p4823
g2
(g3
(S'S4'
p4824
I0
I1
tp4825
Rp4826
(I3
S'|'
p4827
NNNI4
I1
I0
tp4828
bS'TORR'
p4829
tp4830
Rp4831
sS'ADE2P5CV'
p4832
g2
(g3
(S'S1'
p4833
I0
I1
tp4834
Rp4835
(I3
S'|'
p4836
NNNI1
I1
I0
tp4837
bg63
tp4838
Rp4839
sS'OOBTHR09_WIDE'
p4840
g2
(g3
(S'S4'
p4841
I0
I1
tp4842
Rp4843
(I3
S'|'
p4844
NNNI4
I1
I0
tp4845
bS'DEGF'
p4846
tp4847
Rp4848
sS'OOBTHR06_WIDE'
p4849
g2
(g3
(S'S4'
p4850
I0
I1
tp4851
Rp4852
(I3
S'|'
p4853
NNNI4
I1
I0
tp4854
bS'DEGF'
p4855
tp4856
Rp4857
sS'TASPPCP'
p4858
g2
(g3
(S'S4'
p4859
I0
I1
tp4860
Rp4861
(I3
S'|'
p4862
NNNI4
I1
I0
tp4863
bS'DEGF'
p4864
tp4865
Rp4866
sS'OHRTHR02_WIDE'
p4867
g2
(g3
(S'S4'
p4868
I0
I1
tp4869
Rp4870
(I3
S'|'
p4871
NNNI4
I1
I0
tp4872
bS'DEGF'
p4873
tp4874
Rp4875
sS'3TTACS3T'
p4876
g2
(g3
(S'S4'
p4877
I0
I1
tp4878
Rp4879
(I3
S'|'
p4880
NNNI4
I1
I0
tp4881
bS'DEGC'
p4882
tp4883
Rp4884
sS'CTSA15V'
p4885
g2
(g3
(S'S1'
p4886
I0
I1
tp4887
Rp4888
(I3
S'|'
p4889
NNNI1
I1
I0
tp4890
bg63
tp4891
Rp4892
sS'PFDM102T'
p4893
g2
(g3
(S'S4'
p4894
I0
I1
tp4895
Rp4896
(I3
S'|'
p4897
NNNI4
I1
I0
tp4898
bS'DEGF'
p4899
tp4900
Rp4901
sS'PFDM202T'
p4902
g2
(g3
(S'S4'
p4903
I0
I1
tp4904
Rp4905
(I3
S'|'
p4906
NNNI4
I1
I0
tp4907
bS'DEGF'
p4908
tp4909
Rp4910
sS'4MP28AV'
p4911
g2
(g3
(S'S3'
p4912
I0
I1
tp4913
Rp4914
(I3
S'|'
p4915
NNNI3
I1
I0
tp4916
bS'VDC'
p4917
tp4918
Rp4919
sS'4RT586T'
p4920
g2
(g3
(S'S4'
p4921
I0
I1
tp4922
Rp4923
(I3
S'|'
p4924
NNNI4
I1
I0
tp4925
bS'DEGF'
p4926
tp4927
Rp4928
sS'TEP_PSU1'
p4929
g2
(g3
(S'S4'
p4930
I0
I1
tp4931
Rp4932
(I3
S'|'
p4933
NNNI4
I1
I0
tp4934
bS'DEGF'
p4935
tp4936
Rp4937
sS'CPA2V'
p4938
g2
(g3
(S'S1'
p4939
I0
I1
tp4940
Rp4941
(I3
S'|'
p4942
NNNI1
I1
I0
tp4943
bg63
tp4944
Rp4945
sS'PXDM01T'
p4946
g2
(g3
(S'S4'
p4947
I0
I1
tp4948
Rp4949
(I3
S'|'
p4950
NNNI4
I1
I0
tp4951
bS'DEGF'
p4952
tp4953
Rp4954
sS'OOBTHR37'
p4955
g2
(g3
(S'S4'
p4956
I0
I1
tp4957
Rp4958
(I3
S'|'
p4959
NNNI4
I1
I0
tp4960
bS'DEGF'
p4961
tp4962
Rp4963
sS'OOBTHR36'
p4964
g2
(g3
(S'S4'
p4965
I0
I1
tp4966
Rp4967
(I3
S'|'
p4968
NNNI4
I1
I0
tp4969
bS'DEGF'
p4970
tp4971
Rp4972
sS'OOBTHR35'
p4973
g2
(g3
(S'S4'
p4974
I0
I1
tp4975
Rp4976
(I3
S'|'
p4977
NNNI4
I1
I0
tp4978
bS'DEGF'
p4979
tp4980
Rp4981
sS'4RT705T'
p4982
g2
(g3
(S'S4'
p4983
I0
I1
tp4984
Rp4985
(I3
S'|'
p4986
NNNI4
I1
I0
tp4987
bS'DEGF'
p4988
tp4989
Rp4990
sS'CUSOBIT'
p4991
g2
(g3
(S'S4'
p4992
I0
I1
tp4993
Rp4994
(I3
S'|'
p4995
NNNI4
I1
I0
tp4996
bS'DEGF'
p4997
tp4998
Rp4999
sS'6SUNER1'
p5000
g2
(g3
(S'S3'
p5001
I0
I1
tp5002
Rp5003
(I3
S'|'
p5004
NNNI3
I1
I0
tp5005
bS'RAD'
p5006
tp5007
Rp5008
sS'6SUNER2'
p5009
g2
(g3
(S'S3'
p5010
I0
I1
tp5011
Rp5012
(I3
S'|'
p5013
NNNI3
I1
I0
tp5014
bS'RAD'
p5015
tp5016
Rp5017
sS'6SUNER3'
p5018
g2
(g3
(S'S3'
p5019
I0
I1
tp5020
Rp5021
(I3
S'|'
p5022
NNNI3
I1
I0
tp5023
bS'RAD'
p5024
tp5025
Rp5026
sS'AOSYMOM1'
p5027
g2
(g3
(S'S7'
p5028
I0
I1
tp5029
Rp5030
(I3
S'|'
p5031
NNNI7
I1
I0
tp5032
bS'FTLBSEC'
p5033
tp5034
Rp5035
sS'OOBTHR39'
p5036
g2
(g3
(S'S4'
p5037
I0
I1
tp5038
Rp5039
(I3
S'|'
p5040
NNNI4
I1
I0
tp5041
bS'DEGF'
p5042
tp5043
Rp5044
sS'OOBTHR38'
p5045
g2
(g3
(S'S4'
p5046
I0
I1
tp5047
Rp5048
(I3
S'|'
p5049
NNNI4
I1
I0
tp5050
bS'DEGF'
p5051
tp5052
Rp5053
sS'2P24VBVL'
p5054
g2
(g3
(S'S3'
p5055
I0
I1
tp5056
Rp5057
(I3
S'|'
p5058
NNNI3
I1
I0
tp5059
bS'VDC'
p5060
tp5061
Rp5062
sS'OOBTHR51_WIDE'
p5063
g2
(g3
(S'S4'
p5064
I0
I1
tp5065
Rp5066
(I3
S'|'
p5067
NNNI4
I1
I0
tp5068
bS'DEGF'
p5069
tp5070
Rp5071
sS'AIRU2G2T'
p5072
g2
(g3
(S'S4'
p5073
I0
I1
tp5074
Rp5075
(I3
S'|'
p5076
NNNI4
I1
I0
tp5077
bS'DEGF'
p5078
tp5079
Rp5080
sS'AWD3TQI'
p5081
g2
(g3
(S'S3'
p5082
I0
I1
tp5083
Rp5084
(I3
S'|'
p5085
NNNI3
I1
I0
tp5086
bS'AMP'
p5087
tp5088
Rp5089
sS'1DEP3AVO'
p5090
g2
(g3
(S'S1'
p5091
I0
I1
tp5092
Rp5093
(I3
S'|'
p5094
NNNI1
I1
I0
tp5095
bg63
tp5096
Rp5097
sS'AIRU1G2T'
p5098
g2
(g3
(S'S4'
p5099
I0
I1
tp5100
Rp5101
(I3
S'|'
p5102
NNNI4
I1
I0
tp5103
bS'DEGF'
p5104
tp5105
Rp5106
sS'TPC_CEA'
p5107
g2
(g3
(S'S4'
p5108
I0
I1
tp5109
Rp5110
(I3
S'|'
p5111
NNNI4
I1
I0
tp5112
bS'DEGF'
p5113
tp5114
Rp5115
sS'AIRU1G2I'
p5116
g2
(g3
(S'S4'
p5117
I0
I1
tp5118
Rp5119
(I3
S'|'
p5120
NNNI4
I1
I0
tp5121
bS'MAMP'
p5122
tp5123
Rp5124
sS'PM2THV2T'
p5125
g2
(g3
(S'S4'
p5126
I0
I1
tp5127
Rp5128
(I3
S'|'
p5129
NNNI4
I1
I0
tp5130
bS'DEGF'
p5131
tp5132
Rp5133
sS'OOBTHR08'
p5134
g2
(g3
(S'S4'
p5135
I0
I1
tp5136
Rp5137
(I3
S'|'
p5138
NNNI4
I1
I0
tp5139
bS'DEGF'
p5140
tp5141
Rp5142
sS'AVACMONV'
p5143
g2
(g3
(S'S1'
p5144
I0
I1
tp5145
Rp5146
(I3
S'|'
p5147
NNNI1
I1
I0
tp5148
bg63
tp5149
Rp5150
sS'4RT590T'
p5151
g2
(g3
(S'S4'
p5152
I0
I1
tp5153
Rp5154
(I3
S'|'
p5155
NNNI4
I1
I0
tp5156
bS'DEGF'
p5157
tp5158
Rp5159
sS'TCYLAFT6'
p5160
g2
(g3
(S'S4'
p5161
I0
I1
tp5162
Rp5163
(I3
S'|'
p5164
NNNI4
I1
I0
tp5165
bS'DEGF'
p5166
tp5167
Rp5168
sS'TEP_PSU2'
p5169
g2
(g3
(S'S4'
p5170
I0
I1
tp5171
Rp5172
(I3
S'|'
p5173
NNNI4
I1
I0
tp5174
bS'DEGF'
p5175
tp5176
Rp5177
sS'OOBTHR25'
p5178
g2
(g3
(S'S4'
p5179
I0
I1
tp5180
Rp5181
(I3
S'|'
p5182
NNNI4
I1
I0
tp5183
bS'DEGF'
p5184
tp5185
Rp5186
sS'1OAHAT'
p5187
g2
(g3
(S'S4'
p5188
I0
I1
tp5189
Rp5190
(I3
S'|'
p5191
NNNI4
I1
I0
tp5192
bS'DEGC'
p5193
tp5194
Rp5195
sS'AHKNATPR'
p5196
g2
(g3
(S'S1'
p5197
I0
I1
tp5198
Rp5199
(I3
S'|'
p5200
NNNI1
I1
I0
tp5201
bg63
tp5202
Rp5203
sS'ASPEFSW4B'
p5204
g2
(g3
(S'S3'
p5205
I0
I1
tp5206
Rp5207
(I3
S'|'
p5208
NNNI3
I1
I0
tp5209
bS'DEG'
p5210
tp5211
Rp5212
sS'ARWA4BT'
p5213
g2
(g3
(S'S4'
p5214
I0
I1
tp5215
Rp5216
(I3
S'|'
p5217
NNNI4
I1
I0
tp5218
bS'DEGF'
p5219
tp5220
Rp5221
sS'PLAED4IT'
p5222
g2
(g3
(S'S4'
p5223
I0
I1
tp5224
Rp5225
(I3
S'|'
p5226
NNNI4
I1
I0
tp5227
bS'DEGF'
p5228
tp5229
Rp5230
sS'AOMANRT'
p5231
g2
(g3
(S'S5'
p5232
I0
I1
tp5233
Rp5234
(I3
S'|'
p5235
NNNI5
I1
I0
tp5236
bS'RADPS'
p5237
tp5238
Rp5239
sS'AOCSSI1'
p5240
g2
(g3
(S'S4'
p5241
I0
I1
tp5242
Rp5243
(I3
S'|'
p5244
NNNI4
I1
I0
tp5245
bS'MAMP'
p5246
tp5247
Rp5248
sS'TPC_DEA'
p5249
g2
(g3
(S'S4'
p5250
I0
I1
tp5251
Rp5252
(I3
S'|'
p5253
NNNI4
I1
I0
tp5254
bS'DEGF'
p5255
tp5256
Rp5257
sS'AOCSSI3'
p5258
g2
(g3
(S'S4'
p5259
I0
I1
tp5260
Rp5261
(I3
S'|'
p5262
NNNI4
I1
I0
tp5263
bS'MAMP'
p5264
tp5265
Rp5266
sS'AIRU2G1T'
p5267
g2
(g3
(S'S4'
p5268
I0
I1
tp5269
Rp5270
(I3
S'|'
p5271
NNNI4
I1
I0
tp5272
bS'DEGF'
p5273
tp5274
Rp5275
sS'AOCSSI4'
p5276
g2
(g3
(S'S4'
p5277
I0
I1
tp5278
Rp5279
(I3
S'|'
p5280
NNNI4
I1
I0
tp5281
bS'MAMP'
p5282
tp5283
Rp5284
sS'OHRTHR37_WIDE'
p5285
g2
(g3
(S'S4'
p5286
I0
I1
tp5287
Rp5288
(I3
S'|'
p5289
NNNI4
I1
I0
tp5290
bS'DEGF'
p5291
tp5292
Rp5293
sS'AIRU2G1I'
p5294
g2
(g3
(S'S4'
p5295
I0
I1
tp5296
Rp5297
(I3
S'|'
p5298
NNNI4
I1
I0
tp5299
bS'MAMP'
p5300
tp5301
Rp5302
sS'CTUB15V'
p5303
g2
(g3
(S'S1'
p5304
I0
I1
tp5305
Rp5306
(I3
S'|'
p5307
NNNI1
I1
I0
tp5308
bg63
tp5309
Rp5310
sS'OOBTHR07_WIDE'
p5311
g2
(g3
(S'S4'
p5312
I0
I1
tp5313
Rp5314
(I3
S'|'
p5315
NNNI4
I1
I0
tp5316
bS'DEGF'
p5317
tp5318
Rp5319
sS'1VAHCAT'
p5320
g2
(g3
(S'S4'
p5321
I0
I1
tp5322
Rp5323
(I3
S'|'
p5324
NNNI4
I1
I0
tp5325
bS'DEGC'
p5326
tp5327
Rp5328
sS'TB3T2'
p5329
g2
(g3
(S'S4'
p5330
I0
I1
tp5331
Rp5332
(I3
S'|'
p5333
NNNI4
I1
I0
tp5334
bS'DEGF'
p5335
tp5336
Rp5337
sS'TB3T3'
p5338
g2
(g3
(S'S4'
p5339
I0
I1
tp5340
Rp5341
(I3
S'|'
p5342
NNNI4
I1
I0
tp5343
bS'DEGF'
p5344
tp5345
Rp5346
sS'OHRTHR25_WIDE'
p5347
g2
(g3
(S'S4'
p5348
I0
I1
tp5349
Rp5350
(I3
S'|'
p5351
NNNI4
I1
I0
tp5352
bS'DEGF'
p5353
tp5354
Rp5355
sS'TRSPOTPC'
p5356
g2
(g3
(S'S4'
p5357
I0
I1
tp5358
Rp5359
(I3
S'|'
p5360
NNNI4
I1
I0
tp5361
bS'DEGF'
p5362
tp5363
Rp5364
sS'PLAED3CT'
p5365
g2
(g3
(S'S4'
p5366
I0
I1
tp5367
Rp5368
(I3
S'|'
p5369
NNNI4
I1
I0
tp5370
bS'DEGF'
p5371
tp5372
Rp5373
sS'1PIN1AT'
p5374
g2
(g3
(S'S4'
p5375
I0
I1
tp5376
Rp5377
(I3
S'|'
p5378
NNNI4
I1
I0
tp5379
bS'DEGC'
p5380
tp5381
Rp5382
sS'PFTANK2T'
p5383
g2
(g3
(S'S4'
p5384
I0
I1
tp5385
Rp5386
(I3
S'|'
p5387
NNNI4
I1
I0
tp5388
bS'DEGF'
p5389
tp5390
Rp5391
sS'1DP28BVO'
p5392
g2
(g3
(S'S1'
p5393
I0
I1
tp5394
Rp5395
(I3
S'|'
p5396
NNNI1
I1
I0
tp5397
bg63
tp5398
Rp5399
sS'AOIRERL1'
p5400
g2
(g3
(S'S3'
p5401
I0
I1
tp5402
Rp5403
(I3
S'|'
p5404
NNNI3
I1
I0
tp5405
bS'RAD'
p5406
tp5407
Rp5408
sS'PLAEV1BT'
p5409
g2
(g3
(S'S4'
p5410
I0
I1
tp5411
Rp5412
(I3
S'|'
p5413
NNNI4
I1
I0
tp5414
bS'DEGF'
p5415
tp5416
Rp5417
sS'AOIRERL2'
p5418
g2
(g3
(S'S3'
p5419
I0
I1
tp5420
Rp5421
(I3
S'|'
p5422
NNNI3
I1
I0
tp5423
bS'RAD'
p5424
tp5425
Rp5426
sS'PFDM201T'
p5427
g2
(g3
(S'S4'
p5428
I0
I1
tp5429
Rp5430
(I3
S'|'
p5431
NNNI4
I1
I0
tp5432
bS'DEGF'
p5433
tp5434
Rp5435
sS'OOBTHR21_WIDE'
p5436
g2
(g3
(S'S4'
p5437
I0
I1
tp5438
Rp5439
(I3
S'|'
p5440
NNNI4
I1
I0
tp5441
bS'DEGF'
p5442
tp5443
Rp5444
sS'TCM_OBC'
p5445
g2
(g3
(S'S4'
p5446
I0
I1
tp5447
Rp5448
(I3
S'|'
p5449
NNNI4
I1
I0
tp5450
bS'DEGF'
p5451
tp5452
Rp5453
sS'AOIRERL3'
p5454
g2
(g3
(S'S3'
p5455
I0
I1
tp5456
Rp5457
(I3
S'|'
p5458
NNNI3
I1
I0
tp5459
bS'RAD'
p5460
tp5461
Rp5462
sS'1PDEABT'
p5463
g2
(g3
(S'S4'
p5464
I0
I1
tp5465
Rp5466
(I3
S'|'
p5467
NNNI4
I1
I0
tp5468
bS'DEGC'
p5469
tp5470
Rp5471
sS'3MRMMXMV'
p5472
S'PWMSTEP'
p5473
sS'PLAED2HT'
p5474
g2
(g3
(S'S4'
p5475
I0
I1
tp5476
Rp5477
(I3
S'|'
p5478
NNNI4
I1
I0
tp5479
bS'DEGF'
p5480
tp5481
Rp5482
sS'TFSSHDT1'
p5483
g2
(g3
(S'S4'
p5484
I0
I1
tp5485
Rp5486
(I3
S'|'
p5487
NNNI4
I1
I0
tp5488
bS'DEGF'
p5489
tp5490
Rp5491
sS'AOADBCH2A_PCAD'
p5492
g2
(g3
(S'S3'
p5493
I0
I1
tp5494
Rp5495
(I3
S'|'
p5496
NNNI3
I1
I0
tp5497
bS'DEG'
p5498
tp5499
Rp5500
sS'TRSPOTEP'
p5501
g2
(g3
(S'S4'
p5502
I0
I1
tp5503
Rp5504
(I3
S'|'
p5505
NNNI4
I1
I0
tp5506
bS'DEGF'
p5507
tp5508
Rp5509
sS'AORWPI6B'
p5510
g2
(g3
(S'S4'
p5511
I0
I1
tp5512
Rp5513
(I3
S'|'
p5514
NNNI4
I1
I0
tp5515
bS'MSEC'
p5516
tp5517
Rp5518
sS'TCM_PAN'
p5519
g2
(g3
(S'S4'
p5520
I0
I1
tp5521
Rp5522
(I3
S'|'
p5523
NNNI4
I1
I0
tp5524
bS'DEGF'
p5525
tp5526
Rp5527
sS'TCM_SSR2'
p5528
g2
(g3
(S'S4'
p5529
I0
I1
tp5530
Rp5531
(I3
S'|'
p5532
NNNI4
I1
I0
tp5533
bS'DEGF'
p5534
tp5535
Rp5536
sS'PMTANKP'
p5537
g2
(g3
(S'S4'
p5538
I0
I1
tp5539
Rp5540
(I3
S'|'
p5541
NNNI4
I1
I0
tp5542
bS'PSIA'
p5543
tp5544
Rp5545
sS'OOBTHR31_WIDE'
p5546
g2
(g3
(S'S4'
p5547
I0
I1
tp5548
Rp5549
(I3
S'|'
p5550
NNNI4
I1
I0
tp5551
bS'DEGF'
p5552
tp5553
Rp5554
sS'EOECNV1C'
p5555
g2
(g3
(S'S1'
p5556
I0
I1
tp5557
Rp5558
(I3
S'|'
p5559
NNNI1
I1
I0
tp5560
bg63
tp5561
Rp5562
sS'AFLCABH'
p5563
g2
(g3
(S'S1'
p5564
I0
I1
tp5565
Rp5566
(I3
S'|'
p5567
NNNI1
I1
I0
tp5568
bg63
tp5569
Rp5570
sS'3FLCABPT'
p5571
g2
(g3
(S'S4'
p5572
I0
I1
tp5573
Rp5574
(I3
S'|'
p5575
NNNI4
I1
I0
tp5576
bS'DEGC'
p5577
tp5578
Rp5579
sS'OHRTHR18'
p5580
g2
(g3
(S'S4'
p5581
I0
I1
tp5582
Rp5583
(I3
S'|'
p5584
NNNI4
I1
I0
tp5585
bS'DEGF'
p5586
tp5587
Rp5588
sS'OHRTHR19'
p5589
g2
(g3
(S'S4'
p5590
I0
I1
tp5591
Rp5592
(I3
S'|'
p5593
NNNI4
I1
I0
tp5594
bS'DEGF'
p5595
tp5596
Rp5597
sS'AFLCA3BI'
p5598
g2
(g3
(S'S4'
p5599
I0
I1
tp5600
Rp5601
(I3
S'|'
p5602
NNNI4
I1
I0
tp5603
bS'MAMP'
p5604
tp5605
Rp5606
sS'OHRTHR14'
p5607
g2
(g3
(S'S4'
p5608
I0
I1
tp5609
Rp5610
(I3
S'|'
p5611
NNNI4
I1
I0
tp5612
bS'DEGF'
p5613
tp5614
Rp5615
sS'OHRTHR15'
p5616
g2
(g3
(S'S4'
p5617
I0
I1
tp5618
Rp5619
(I3
S'|'
p5620
NNNI4
I1
I0
tp5621
bS'DEGF'
p5622
tp5623
Rp5624
sS'OHRTHR12'
p5625
g2
(g3
(S'S4'
p5626
I0
I1
tp5627
Rp5628
(I3
S'|'
p5629
NNNI4
I1
I0
tp5630
bS'DEGF'
p5631
tp5632
Rp5633
sS'OHRTHR13'
p5634
g2
(g3
(S'S4'
p5635
I0
I1
tp5636
Rp5637
(I3
S'|'
p5638
NNNI4
I1
I0
tp5639
bS'DEGF'
p5640
tp5641
Rp5642
sS'OHRTHR10'
p5643
g2
(g3
(S'S4'
p5644
I0
I1
tp5645
Rp5646
(I3
S'|'
p5647
NNNI4
I1
I0
tp5648
bS'DEGF'
p5649
tp5650
Rp5651
sS'OHRTHR11'
p5652
g2
(g3
(S'S4'
p5653
I0
I1
tp5654
Rp5655
(I3
S'|'
p5656
NNNI4
I1
I0
tp5657
bS'DEGF'
p5658
tp5659
Rp5660
sS'CIUB15V'
p5661
g2
(g3
(S'S1'
p5662
I0
I1
tp5663
Rp5664
(I3
S'|'
p5665
NNNI1
I1
I0
tp5666
bg63
tp5667
Rp5668
sS'3TTHRC3T'
p5669
g2
(g3
(S'S4'
p5670
I0
I1
tp5671
Rp5672
(I3
S'|'
p5673
NNNI4
I1
I0
tp5674
bS'DEGC'
p5675
tp5676
Rp5677
sS'PLAED3HT'
p5678
g2
(g3
(S'S4'
p5679
I0
I1
tp5680
Rp5681
(I3
S'|'
p5682
NNNI4
I1
I0
tp5683
bS'DEGF'
p5684
tp5685
Rp5686
sS'OHRTHR33_WIDE'
p5687
g2
(g3
(S'S4'
p5688
I0
I1
tp5689
Rp5690
(I3
S'|'
p5691
NNNI4
I1
I0
tp5692
bS'DEGF'
p5693
tp5694
Rp5695
sS'OOBTHR33_WIDE'
p5696
g2
(g3
(S'S4'
p5697
I0
I1
tp5698
Rp5699
(I3
S'|'
p5700
NNNI4
I1
I0
tp5701
bS'DEGF'
p5702
tp5703
Rp5704
sS'AIRU2BT'
p5705
g2
(g3
(S'S4'
p5706
I0
I1
tp5707
Rp5708
(I3
S'|'
p5709
NNNI4
I1
I0
tp5710
bS'DEGF'
p5711
tp5712
Rp5713
sS'AORWSPD1'
p5714
g2
(g3
(S'S5'
p5715
I0
I1
tp5716
Rp5717
(I3
S'|'
p5718
NNNI5
I1
I0
tp5719
bS'RADPS'
p5720
tp5721
Rp5722
sS'AORWSPD2'
p5723
g2
(g3
(S'S5'
p5724
I0
I1
tp5725
Rp5726
(I3
S'|'
p5727
NNNI5
I1
I0
tp5728
bS'RADPS'
p5729
tp5730
Rp5731
sS'AORWSPD3'
p5732
g2
(g3
(S'S5'
p5733
I0
I1
tp5734
Rp5735
(I3
S'|'
p5736
NNNI5
I1
I0
tp5737
bS'RADPS'
p5738
tp5739
Rp5740
sS'AORWSPD4'
p5741
g2
(g3
(S'S5'
p5742
I0
I1
tp5743
Rp5744
(I3
S'|'
p5745
NNNI5
I1
I0
tp5746
bS'RADPS'
p5747
tp5748
Rp5749
sS'AORWSPD5'
p5750
g2
(g3
(S'S5'
p5751
I0
I1
tp5752
Rp5753
(I3
S'|'
p5754
NNNI5
I1
I0
tp5755
bS'RADPS'
p5756
tp5757
Rp5758
sS'AORWSPD6'
p5759
g2
(g3
(S'S5'
p5760
I0
I1
tp5761
Rp5762
(I3
S'|'
p5763
NNNI5
I1
I0
tp5764
bS'RADPS'
p5765
tp5766
Rp5767
sS'PM1THV1T'
p5768
g2
(g3
(S'S4'
p5769
I0
I1
tp5770
Rp5771
(I3
S'|'
p5772
NNNI4
I1
I0
tp5773
bS'DEGF'
p5774
tp5775
Rp5776
sS'AOCMDRT2'
p5777
g2
(g3
(S'S5'
p5778
I0
I1
tp5779
Rp5780
(I3
S'|'
p5781
NNNI5
I1
I0
tp5782
bS'RADPS'
p5783
tp5784
Rp5785
sS'AOCMDRT3'
p5786
g2
(g3
(S'S5'
p5787
I0
I1
tp5788
Rp5789
(I3
S'|'
p5790
NNNI5
I1
I0
tp5791
bS'RADPS'
p5792
tp5793
Rp5794
sS'AI2AX2X'
p5795
g2
(g3
(S'S5'
p5796
I0
I1
tp5797
Rp5798
(I3
S'|'
p5799
NNNI5
I1
I0
tp5800
bS'DEGPS'
p5801
tp5802
Rp5803
sS'AI2AX2Y'
p5804
g2
(g3
(S'S5'
p5805
I0
I1
tp5806
Rp5807
(I3
S'|'
p5808
NNNI5
I1
I0
tp5809
bS'DEGPS'
p5810
tp5811
Rp5812
sS'4RT564T'
p5813
g2
(g3
(S'S4'
p5814
I0
I1
tp5815
Rp5816
(I3
S'|'
p5817
NNNI4
I1
I0
tp5818
bS'DEGF'
p5819
tp5820
Rp5821
sS'EORTDMN21D'
p5822
g2
(g3
(S'S4'
p5823
I0
I1
tp5824
Rp5825
(I3
S'|'
p5826
NNNI4
I1
I0
tp5827
bS'DEGF'
p5828
tp5829
Rp5830
sS'4RT704T'
p5831
g2
(g3
(S'S4'
p5832
I0
I1
tp5833
Rp5834
(I3
S'|'
p5835
NNNI4
I1
I0
tp5836
bS'DEGF'
p5837
tp5838
Rp5839
sS'EOEBC'
p5840
g2
(g3
(S'S3'
p5841
I0
I1
tp5842
Rp5843
(I3
S'|'
p5844
NNNI3
I1
I0
tp5845
bS'AMP'
p5846
tp5847
Rp5848
sS'PM3THV2T'
p5849
g2
(g3
(S'S4'
p5850
I0
I1
tp5851
Rp5852
(I3
S'|'
p5853
NNNI4
I1
I0
tp5854
bS'DEGF'
p5855
tp5856
Rp5857
sS'1DEN1BVO'
p5858
g2
(g3
(S'S1'
p5859
I0
I1
tp5860
Rp5861
(I3
S'|'
p5862
NNNI1
I1
I0
tp5863
bg63
tp5864
Rp5865
sS'4SP52V'
p5866
g2
(g3
(S'S3'
p5867
I0
I1
tp5868
Rp5869
(I3
S'|'
p5870
NNNI3
I1
I0
tp5871
bS'VDC'
p5872
tp5873
Rp5874
sS'EORTDMN29D'
p5875
g2
(g3
(S'S4'
p5876
I0
I1
tp5877
Rp5878
(I3
S'|'
p5879
NNNI4
I1
I0
tp5880
bS'DEGF'
p5881
tp5882
Rp5883
sS'PLINE04T'
p5884
g2
(g3
(S'S4'
p5885
I0
I1
tp5886
Rp5887
(I3
S'|'
p5888
NNNI4
I1
I0
tp5889
bS'DEGF'
p5890
tp5891
Rp5892
sS'PLAED3BT'
p5893
g2
(g3
(S'S4'
p5894
I0
I1
tp5895
Rp5896
(I3
S'|'
p5897
NNNI4
I1
I0
tp5898
bS'DEGF'
p5899
tp5900
Rp5901
sS'AIOBP5CV'
p5902
g2
(g3
(S'S1'
p5903
I0
I1
tp5904
Rp5905
(I3
S'|'
p5906
NNNI1
I1
I0
tp5907
bg63
tp5908
Rp5909
sS'PXTANKOP'
p5910
g2
(g3
(S'S4'
p5911
I0
I1
tp5912
Rp5913
(I3
S'|'
p5914
NNNI4
I1
I0
tp5915
bS'PSIA'
p5916
tp5917
Rp5918
sS'4OAVHRMT'
p5919
g2
(g3
(S'S4'
p5920
I0
I1
tp5921
Rp5922
(I3
S'|'
p5923
NNNI4
I1
I0
tp5924
bS'DEGF'
p5925
tp5926
Rp5927
sS'EORTDMN28D'
p5928
g2
(g3
(S'S4'
p5929
I0
I1
tp5930
Rp5931
(I3
S'|'
p5932
NNNI4
I1
I0
tp5933
bS'DEGF'
p5934
tp5935
Rp5936
sS'OHRTHR42_WIDE'
p5937
g2
(g3
(S'S4'
p5938
I0
I1
tp5939
Rp5940
(I3
S'|'
p5941
NNNI4
I1
I0
tp5942
bS'DEGF'
p5943
tp5944
Rp5945
sS'PFFP01T'
p5946
g2
(g3
(S'S4'
p5947
I0
I1
tp5948
Rp5949
(I3
S'|'
p5950
NNNI4
I1
I0
tp5951
bS'DEGF'
p5952
tp5953
Rp5954
sS'2N15VAVL'
p5955
g2
(g3
(S'S3'
p5956
I0
I1
tp5957
Rp5958
(I3
S'|'
p5959
NNNI3
I1
I0
tp5960
bS'VDC'
p5961
tp5962
Rp5963
sS'4RT578T'
p5964
g2
(g3
(S'S4'
p5965
I0
I1
tp5966
Rp5967
(I3
S'|'
p5968
NNNI4
I1
I0
tp5969
bS'DEGF'
p5970
tp5971
Rp5972
sS'4LFSPBT'
p5973
g2
(g3
(S'S4'
p5974
I0
I1
tp5975
Rp5976
(I3
S'|'
p5977
NNNI4
I1
I0
tp5978
bS'DEGF'
p5979
tp5980
Rp5981
sS'OOBTHR44_WIDE'
p5982
g2
(g3
(S'S4'
p5983
I0
I1
tp5984
Rp5985
(I3
S'|'
p5986
NNNI4
I1
I0
tp5987
bS'DEGF'
p5988
tp5989
Rp5990
sS'TMP_FEP1_PCB'
p5991
g353
sS'AOSPBCS2B'
p5992
g2
(g3
(S'S4'
p5993
I0
I1
tp5994
Rp5995
(I3
S'|'
p5996
NNNI4
I1
I0
tp5997
bS'MAMP'
p5998
tp5999
Rp6000
sS'1DEP0AVO'
p6001
g2
(g3
(S'S1'
p6002
I0
I1
tp6003
Rp6004
(I3
S'|'
p6005
NNNI1
I1
I0
tp6006
bg63
tp6007
Rp6008
sS'4CSDOAV'
p6009
g2
(g3
(S'S3'
p6010
I0
I1
tp6011
Rp6012
(I3
S'|'
p6013
NNNI3
I1
I0
tp6014
bS'VDC'
p6015
tp6016
Rp6017
sS'TEP_BPAN'
p6018
g2
(g3
(S'S4'
p6019
I0
I1
tp6020
Rp6021
(I3
S'|'
p6022
NNNI4
I1
I0
tp6023
bS'DEGF'
p6024
tp6025
Rp6026
sS'1WRAT'
p6027
g2
(g3
(S'S4'
p6028
I0
I1
tp6029
Rp6030
(I3
S'|'
p6031
NNNI4
I1
I0
tp6032
bS'DEGC'
p6033
tp6034
Rp6035
sS'PLAED1GT'
p6036
g2
(g3
(S'S4'
p6037
I0
I1
tp6038
Rp6039
(I3
S'|'
p6040
NNNI4
I1
I0
tp6041
bS'DEGF'
p6042
tp6043
Rp6044
sS'TASPRWC'
p6045
g2
(g3
(S'S4'
p6046
I0
I1
tp6047
Rp6048
(I3
S'|'
p6049
NNNI4
I1
I0
tp6050
bS'DEGF'
p6051
tp6052
Rp6053
sS'4PRT3AT'
p6054
g2
(g3
(S'S4'
p6055
I0
I1
tp6056
Rp6057
(I3
S'|'
p6058
NNNI4
I1
I0
tp6059
bS'DEGF'
p6060
tp6061
Rp6062
sS'OOBTHR35_WIDE'
p6063
g2
(g3
(S'S4'
p6064
I0
I1
tp6065
Rp6066
(I3
S'|'
p6067
NNNI4
I1
I0
tp6068
bS'DEGF'
p6069
tp6070
Rp6071
sS'PLINE01T'
p6072
g2
(g3
(S'S4'
p6073
I0
I1
tp6074
Rp6075
(I3
S'|'
p6076
NNNI4
I1
I0
tp6077
bS'DEGF'
p6078
tp6079
Rp6080
sS'6RWCMD4'
p6081
g2
(g3
(S'S4'
p6082
I0
I1
tp6083
Rp6084
(I3
S'|'
p6085
NNNI4
I1
I0
tp6086
bS'FTLB'
p6087
tp6088
Rp6089
sS'6RWCMD5'
p6090
g2
(g3
(S'S4'
p6091
I0
I1
tp6092
Rp6093
(I3
S'|'
p6094
NNNI4
I1
I0
tp6095
bS'FTLB'
p6096
tp6097
Rp6098
sS'6RWCMD6'
p6099
g2
(g3
(S'S4'
p6100
I0
I1
tp6101
Rp6102
(I3
S'|'
p6103
NNNI4
I1
I0
tp6104
bS'FTLB'
p6105
tp6106
Rp6107
sS'AFLCA8AI'
p6108
g2
(g3
(S'S4'
p6109
I0
I1
tp6110
Rp6111
(I3
S'|'
p6112
NNNI4
I1
I0
tp6113
bS'MAMP'
p6114
tp6115
Rp6116
sS'AACBPPT'
p6117
g2
(g3
(S'S4'
p6118
I0
I1
tp6119
Rp6120
(I3
S'|'
p6121
NNNI4
I1
I0
tp6122
bS'DEGF'
p6123
tp6124
Rp6125
sS'6RWCMD1'
p6126
g2
(g3
(S'S4'
p6127
I0
I1
tp6128
Rp6129
(I3
S'|'
p6130
NNNI4
I1
I0
tp6131
bS'FTLB'
p6132
tp6133
Rp6134
sS'6RWCMD2'
p6135
g2
(g3
(S'S4'
p6136
I0
I1
tp6137
Rp6138
(I3
S'|'
p6139
NNNI4
I1
I0
tp6140
bS'FTLB'
p6141
tp6142
Rp6143
sS'6RWCMD3'
p6144
g2
(g3
(S'S4'
p6145
I0
I1
tp6146
Rp6147
(I3
S'|'
p6148
NNNI4
I1
I0
tp6149
bS'FTLB'
p6150
tp6151
Rp6152
sS'PCM02T'
p6153
g2
(g3
(S'S4'
p6154
I0
I1
tp6155
Rp6156
(I3
S'|'
p6157
NNNI4
I1
I0
tp6158
bS'DEGF'
p6159
tp6160
Rp6161
sS'TCYLPCP'
p6162
g2
(g3
(S'S4'
p6163
I0
I1
tp6164
Rp6165
(I3
S'|'
p6166
NNNI4
I1
I0
tp6167
bS'DEGF'
p6168
tp6169
Rp6170
sS'3FAMYZAT'
p6171
g2
(g3
(S'S4'
p6172
I0
I1
tp6173
Rp6174
(I3
S'|'
p6175
NNNI4
I1
I0
tp6176
bS'DEGC'
p6177
tp6178
Rp6179
sS'AACCCDPT'
p6180
g2
(g3
(S'S4'
p6181
I0
I1
tp6182
Rp6183
(I3
S'|'
p6184
NNNI4
I1
I0
tp6185
bS'DEGF'
p6186
tp6187
Rp6188
sS'OHRTHR17'
p6189
g2
(g3
(S'S4'
p6190
I0
I1
tp6191
Rp6192
(I3
S'|'
p6193
NNNI4
I1
I0
tp6194
bS'DEGF'
p6195
tp6196
Rp6197
sS'OHRTHR53_WIDE'
p6198
g2
(g3
(S'S4'
p6199
I0
I1
tp6200
Rp6201
(I3
S'|'
p6202
NNNI4
I1
I0
tp6203
bS'DEGF'
p6204
tp6205
Rp6206
sS'OOBTHR11_WIDE'
p6207
g2
(g3
(S'S4'
p6208
I0
I1
tp6209
Rp6210
(I3
S'|'
p6211
NNNI4
I1
I0
tp6212
bS'DEGF'
p6213
tp6214
Rp6215
sS'OOBTHR41'
p6216
g2
(g3
(S'S4'
p6217
I0
I1
tp6218
Rp6219
(I3
S'|'
p6220
NNNI4
I1
I0
tp6221
bS'DEGF'
p6222
tp6223
Rp6224
sS'OHRTHR56_WIDE'
p6225
g2
(g3
(S'S4'
p6226
I0
I1
tp6227
Rp6228
(I3
S'|'
p6229
NNNI4
I1
I0
tp6230
bS'DEGF'
p6231
tp6232
Rp6233
sS'4OAVOBAT'
p6234
g2
(g3
(S'S4'
p6235
I0
I1
tp6236
Rp6237
(I3
S'|'
p6238
NNNI4
I1
I0
tp6239
bS'DEGF'
p6240
tp6241
Rp6242
sS'OOBTHR51'
p6243
g2
(g3
(S'S4'
p6244
I0
I1
tp6245
Rp6246
(I3
S'|'
p6247
NNNI4
I1
I0
tp6248
bS'DEGF'
p6249
tp6250
Rp6251
sS'TPC_WDA'
p6252
g2
(g3
(S'S4'
p6253
I0
I1
tp6254
Rp6255
(I3
S'|'
p6256
NNNI4
I1
I0
tp6257
bS'DEGF'
p6258
tp6259
Rp6260
sS'TSCTSF6'
p6261
g2
(g3
(S'S4'
p6262
I0
I1
tp6263
Rp6264
(I3
S'|'
p6265
NNNI4
I1
I0
tp6266
bS'DEGF'
p6267
tp6268
Rp6269
sS'4RT709T'
p6270
g2
(g3
(S'S4'
p6271
I0
I1
tp6272
Rp6273
(I3
S'|'
p6274
NNNI4
I1
I0
tp6275
bS'DEGF'
p6276
tp6277
Rp6278
sS'AWD1TQI'
p6279
g2
(g3
(S'S3'
p6280
I0
I1
tp6281
Rp6282
(I3
S'|'
p6283
NNNI3
I1
I0
tp6284
bS'AMP'
p6285
tp6286
Rp6287
sS'TCM_TX2'
p6288
g2
(g3
(S'S4'
p6289
I0
I1
tp6290
Rp6291
(I3
S'|'
p6292
NNNI4
I1
I0
tp6293
bS'DEGF'
p6294
tp6295
Rp6296
sS'TCM_TX1'
p6297
g2
(g3
(S'S4'
p6298
I0
I1
tp6299
Rp6300
(I3
S'|'
p6301
NNNI4
I1
I0
tp6302
bS'DEGF'
p6303
tp6304
Rp6305
sS'CTUA5V'
p6306
g2
(g3
(S'S1'
p6307
I0
I1
tp6308
Rp6309
(I3
S'|'
p6310
NNNI1
I1
I0
tp6311
bg63
tp6312
Rp6313
sS'4LLL1BT'
p6314
g2
(g3
(S'S4'
p6315
I0
I1
tp6316
Rp6317
(I3
S'|'
p6318
NNNI4
I1
I0
tp6319
bS'DEGF'
p6320
tp6321
Rp6322
sS'TMZP_CNT'
p6323
g2
(g3
(S'S4'
p6324
I0
I1
tp6325
Rp6326
(I3
S'|'
p6327
NNNI4
I1
I0
tp6328
bS'DEGF'
p6329
tp6330
Rp6331
sS'4RT582T'
p6332
g2
(g3
(S'S4'
p6333
I0
I1
tp6334
Rp6335
(I3
S'|'
p6336
NNNI4
I1
I0
tp6337
bS'DEGF'
p6338
tp6339
Rp6340
sS'OHRTHR55_WIDE'
p6341
g2
(g3
(S'S4'
p6342
I0
I1
tp6343
Rp6344
(I3
S'|'
p6345
NNNI4
I1
I0
tp6346
bS'DEGF'
p6347
tp6348
Rp6349
sS'TMP_BEP_PCB'
p6350
g353
sS'AHKNATRD'
p6351
g2
(g3
(S'S1'
p6352
I0
I1
tp6353
Rp6354
(I3
S'|'
p6355
NNNI1
I1
I0
tp6356
bg63
tp6357
Rp6358
sS'EOEB3VC'
p6359
g2
(g3
(S'S1'
p6360
I0
I1
tp6361
Rp6362
(I3
S'|'
p6363
NNNI1
I1
I0
tp6364
bg63
tp6365
Rp6366
sS'OOBTHR50'
p6367
g2
(g3
(S'S4'
p6368
I0
I1
tp6369
Rp6370
(I3
S'|'
p6371
NNNI4
I1
I0
tp6372
bS'DEGF'
p6373
tp6374
Rp6375
sS'AFLCA6AI'
p6376
g2
(g3
(S'S4'
p6377
I0
I1
tp6378
Rp6379
(I3
S'|'
p6380
NNNI4
I1
I0
tp6381
bS'MAMP'
p6382
tp6383
Rp6384
sS'4CSDOBV'
p6385
g2
(g3
(S'S3'
p6386
I0
I1
tp6387
Rp6388
(I3
S'|'
p6389
NNNI3
I1
I0
tp6390
bS'VDC'
p6391
tp6392
Rp6393
sS'AFLCA9BI'
p6394
g2
(g3
(S'S4'
p6395
I0
I1
tp6396
Rp6397
(I3
S'|'
p6398
NNNI4
I1
I0
tp6399
bS'MAMP'
p6400
tp6401
Rp6402
sS'1DEP2AVO'
p6403
g2
(g3
(S'S1'
p6404
I0
I1
tp6405
Rp6406
(I3
S'|'
p6407
NNNI1
I1
I0
tp6408
bg63
tp6409
Rp6410
sS'3RCTUBPT'
p6411
g2
(g3
(S'S4'
p6412
I0
I1
tp6413
Rp6414
(I3
S'|'
p6415
NNNI4
I1
I0
tp6416
bS'DEGC'
p6417
tp6418
Rp6419
sS'6SURTER3'
p6420
g2
(g3
(S'S5'
p6421
I0
I1
tp6422
Rp6423
(I3
S'|'
p6424
NNNI5
I1
I0
tp6425
bS'RADPS'
p6426
tp6427
Rp6428
sS'6SURTER2'
p6429
g2
(g3
(S'S5'
p6430
I0
I1
tp6431
Rp6432
(I3
S'|'
p6433
NNNI5
I1
I0
tp6434
bS'RADPS'
p6435
tp6436
Rp6437
sS'6SURTER1'
p6438
g2
(g3
(S'S5'
p6439
I0
I1
tp6440
Rp6441
(I3
S'|'
p6442
NNNI5
I1
I0
tp6443
bS'RADPS'
p6444
tp6445
Rp6446
sS'OOBTHR28_WIDE'
p6447
g2
(g3
(S'S4'
p6448
I0
I1
tp6449
Rp6450
(I3
S'|'
p6451
NNNI4
I1
I0
tp6452
bS'DEGF'
p6453
tp6454
Rp6455
sS'OHRTHR62'
p6456
g2
(g3
(S'S4'
p6457
I0
I1
tp6458
Rp6459
(I3
S'|'
p6460
NNNI4
I1
I0
tp6461
bS'DEGF'
p6462
tp6463
Rp6464
sS'OOBTHR49'
p6465
g2
(g3
(S'S4'
p6466
I0
I1
tp6467
Rp6468
(I3
S'|'
p6469
NNNI4
I1
I0
tp6470
bS'DEGF'
p6471
tp6472
Rp6473
sS'CRXBV'
p6474
g2
(g3
(S'S1'
p6475
I0
I1
tp6476
Rp6477
(I3
S'|'
p6478
NNNI1
I1
I0
tp6479
bg63
tp6480
Rp6481
sS'OOBTHR47'
p6482
g2
(g3
(S'S4'
p6483
I0
I1
tp6484
Rp6485
(I3
S'|'
p6486
NNNI4
I1
I0
tp6487
bS'DEGF'
p6488
tp6489
Rp6490
sS'OOBTHR44'
p6491
g2
(g3
(S'S4'
p6492
I0
I1
tp6493
Rp6494
(I3
S'|'
p6495
NNNI4
I1
I0
tp6496
bS'DEGF'
p6497
tp6498
Rp6499
sS'OOBTHR45'
p6500
g2
(g3
(S'S4'
p6501
I0
I1
tp6502
Rp6503
(I3
S'|'
p6504
NNNI4
I1
I0
tp6505
bS'DEGF'
p6506
tp6507
Rp6508
sS'OOBTHR42'
p6509
g2
(g3
(S'S4'
p6510
I0
I1
tp6511
Rp6512
(I3
S'|'
p6513
NNNI4
I1
I0
tp6514
bS'DEGF'
p6515
tp6516
Rp6517
sS'OOBTHR43'
p6518
g2
(g3
(S'S4'
p6519
I0
I1
tp6520
Rp6521
(I3
S'|'
p6522
NNNI4
I1
I0
tp6523
bS'DEGF'
p6524
tp6525
Rp6526
sS'OOBTHR40'
p6527
g2
(g3
(S'S4'
p6528
I0
I1
tp6529
Rp6530
(I3
S'|'
p6531
NNNI4
I1
I0
tp6532
bS'DEGF'
p6533
tp6534
Rp6535
sS'4PRT5AT'
p6536
g2
(g3
(S'S4'
p6537
I0
I1
tp6538
Rp6539
(I3
S'|'
p6540
NNNI4
I1
I0
tp6541
bS'DEGF'
p6542
tp6543
Rp6544
sS'AI1AX1X'
p6545
g2
(g3
(S'S5'
p6546
I0
I1
tp6547
Rp6548
(I3
S'|'
p6549
NNNI5
I1
I0
tp6550
bS'DEGPS'
p6551
tp6552
Rp6553
sS'PLAED2IT'
p6554
g2
(g3
(S'S4'
p6555
I0
I1
tp6556
Rp6557
(I3
S'|'
p6558
NNNI4
I1
I0
tp6559
bS'DEGF'
p6560
tp6561
Rp6562
sS'POLINE03T'
p6563
g2
(g3
(S'S4'
p6564
I0
I1
tp6565
Rp6566
(I3
S'|'
p6567
NNNI4
I1
I0
tp6568
bS'DEGF'
p6569
tp6570
Rp6571
sS'6SINTER2'
p6572
g2
(g3
(S'S3'
p6573
I0
I1
tp6574
Rp6575
(I3
S'|'
p6576
NNNI3
I1
I0
tp6577
bS'RAD'
p6578
tp6579
Rp6580
sS'OOBTHR27'
p6581
g2
(g3
(S'S4'
p6582
I0
I1
tp6583
Rp6584
(I3
S'|'
p6585
NNNI4
I1
I0
tp6586
bS'DEGF'
p6587
tp6588
Rp6589
sS'AWD2CV5V'
p6590
g2
(g3
(S'S1'
p6591
I0
I1
tp6592
Rp6593
(I3
S'|'
p6594
NNNI1
I1
I0
tp6595
bg63
tp6596
Rp6597
sS'OOBTHR53'
p6598
g2
(g3
(S'S4'
p6599
I0
I1
tp6600
Rp6601
(I3
S'|'
p6602
NNNI4
I1
I0
tp6603
bS'DEGF'
p6604
tp6605
Rp6606
sS'EORTDMN14D'
p6607
g2
(g3
(S'S4'
p6608
I0
I1
tp6609
Rp6610
(I3
S'|'
p6611
NNNI4
I1
I0
tp6612
bS'DEGF'
p6613
tp6614
Rp6615
sS'OHRMGRD3'
p6616
g2
(g3
(S'S4'
p6617
I0
I1
tp6618
Rp6619
(I3
S'|'
p6620
NNNI4
I1
I0
tp6621
bS'DEGF'
p6622
tp6623
Rp6624
sS'ARWA1BT'
p6625
g2
(g3
(S'S4'
p6626
I0
I1
tp6627
Rp6628
(I3
S'|'
p6629
NNNI4
I1
I0
tp6630
bS'DEGF'
p6631
tp6632
Rp6633
sS'AFLCA7BI'
p6634
g2
(g3
(S'S4'
p6635
I0
I1
tp6636
Rp6637
(I3
S'|'
p6638
NNNI4
I1
I0
tp6639
bS'MAMP'
p6640
tp6641
Rp6642
sS'PLAED4GT'
p6643
g2
(g3
(S'S4'
p6644
I0
I1
tp6645
Rp6646
(I3
S'|'
p6647
NNNI4
I1
I0
tp6648
bS'DEGF'
p6649
tp6650
Rp6651
sS'PFTANKOP'
p6652
g2
(g3
(S'S4'
p6653
I0
I1
tp6654
Rp6655
(I3
S'|'
p6656
NNNI4
I1
I0
tp6657
bS'PSIA'
p6658
tp6659
Rp6660
sS'TESH1'
p6661
g2
(g3
(S'S4'
p6662
I0
I1
tp6663
Rp6664
(I3
S'|'
p6665
NNNI4
I1
I0
tp6666
bS'DEGF'
p6667
tp6668
Rp6669
sS'AFLC14BI'
p6670
g2
(g3
(S'S4'
p6671
I0
I1
tp6672
Rp6673
(I3
S'|'
p6674
NNNI4
I1
I0
tp6675
bS'MAMP'
p6676
tp6677
Rp6678
sS'OHRTHR30_WIDE'
p6679
g2
(g3
(S'S4'
p6680
I0
I1
tp6681
Rp6682
(I3
S'|'
p6683
NNNI4
I1
I0
tp6684
bS'DEGF'
p6685
tp6686
Rp6687
sS'POLINE06T'
p6688
g2
(g3
(S'S4'
p6689
I0
I1
tp6690
Rp6691
(I3
S'|'
p6692
NNNI4
I1
I0
tp6693
bS'DEGF'
p6694
tp6695
Rp6696
sS'OOBTHR45_WIDE'
p6697
g2
(g3
(S'S4'
p6698
I0
I1
tp6699
Rp6700
(I3
S'|'
p6701
NNNI4
I1
I0
tp6702
bS'DEGF'
p6703
tp6704
Rp6705
sS'AOSPACS4B'
p6706
g2
(g3
(S'S4'
p6707
I0
I1
tp6708
Rp6709
(I3
S'|'
p6710
NNNI4
I1
I0
tp6711
bS'MAMP'
p6712
tp6713
Rp6714
sS'ACPA5CV'
p6715
g2
(g3
(S'S1'
p6716
I0
I1
tp6717
Rp6718
(I3
S'|'
p6719
NNNI1
I1
I0
tp6720
bg63
tp6721
Rp6722
sS'OHRTHR59'
p6723
g2
(g3
(S'S4'
p6724
I0
I1
tp6725
Rp6726
(I3
S'|'
p6727
NNNI4
I1
I0
tp6728
bS'DEGF'
p6729
tp6730
Rp6731
sS'OHRTHR52'
p6732
g2
(g3
(S'S4'
p6733
I0
I1
tp6734
Rp6735
(I3
S'|'
p6736
NNNI4
I1
I0
tp6737
bS'DEGF'
p6738
tp6739
Rp6740
sS'OHRTHR53'
p6741
g2
(g3
(S'S4'
p6742
I0
I1
tp6743
Rp6744
(I3
S'|'
p6745
NNNI4
I1
I0
tp6746
bS'DEGF'
p6747
tp6748
Rp6749
sS'OHRTHR50'
p6750
g2
(g3
(S'S4'
p6751
I0
I1
tp6752
Rp6753
(I3
S'|'
p6754
NNNI4
I1
I0
tp6755
bS'DEGF'
p6756
tp6757
Rp6758
sS'4LFSPAT'
p6759
g2
(g3
(S'S4'
p6760
I0
I1
tp6761
Rp6762
(I3
S'|'
p6763
NNNI4
I1
I0
tp6764
bS'DEGF'
p6765
tp6766
Rp6767
sS'OHRTHR56'
p6768
g2
(g3
(S'S4'
p6769
I0
I1
tp6770
Rp6771
(I3
S'|'
p6772
NNNI4
I1
I0
tp6773
bS'DEGF'
p6774
tp6775
Rp6776
sS'2P15VAVL'
p6777
g2
(g3
(S'S3'
p6778
I0
I1
tp6779
Rp6780
(I3
S'|'
p6781
NNNI3
I1
I0
tp6782
bS'VDC'
p6783
tp6784
Rp6785
sS'OHRTHR54'
p6786
g2
(g3
(S'S4'
p6787
I0
I1
tp6788
Rp6789
(I3
S'|'
p6790
NNNI4
I1
I0
tp6791
bS'DEGF'
p6792
tp6793
Rp6794
sS'AAOTAPMT'
p6795
g2
(g3
(S'S4'
p6796
I0
I1
tp6797
Rp6798
(I3
S'|'
p6799
NNNI4
I1
I0
tp6800
bS'DEGF'
p6801
tp6802
Rp6803
sS'AORWPI2B'
p6804
g2
(g3
(S'S4'
p6805
I0
I1
tp6806
Rp6807
(I3
S'|'
p6808
NNNI4
I1
I0
tp6809
bS'MSEC'
p6810
tp6811
Rp6812
sS'TCYZ_RW1'
p6813
g2
(g3
(S'S4'
p6814
I0
I1
tp6815
Rp6816
(I3
S'|'
p6817
NNNI4
I1
I0
tp6818
bS'DEGF'
p6819
tp6820
Rp6821
sS'OHRTHR60'
p6822
g2
(g3
(S'S4'
p6823
I0
I1
tp6824
Rp6825
(I3
S'|'
p6826
NNNI4
I1
I0
tp6827
bS'DEGF'
p6828
tp6829
Rp6830
sS'OOBTHR09'
p6831
g2
(g3
(S'S4'
p6832
I0
I1
tp6833
Rp6834
(I3
S'|'
p6835
NNNI4
I1
I0
tp6836
bS'DEGF'
p6837
tp6838
Rp6839
sS'3TSMXCET'
p6840
g2
(g3
(S'S4'
p6841
I0
I1
tp6842
Rp6843
(I3
S'|'
p6844
NNNI4
I1
I0
tp6845
bS'DEGC'
p6846
tp6847
Rp6848
sS'TCYZ_RW6'
p6849
g2
(g3
(S'S4'
p6850
I0
I1
tp6851
Rp6852
(I3
S'|'
p6853
NNNI4
I1
I0
tp6854
bS'DEGF'
p6855
tp6856
Rp6857
sS'ARWA2BT'
p6858
g2
(g3
(S'S4'
p6859
I0
I1
tp6860
Rp6861
(I3
S'|'
p6862
NNNI4
I1
I0
tp6863
bS'DEGF'
p6864
tp6865
Rp6866
sS'PLAED3ET'
p6867
g2
(g3
(S'S4'
p6868
I0
I1
tp6869
Rp6870
(I3
S'|'
p6871
NNNI4
I1
I0
tp6872
bS'DEGF'
p6873
tp6874
Rp6875
sS'OOBTHR04_WIDE'
p6876
g2
(g3
(S'S4'
p6877
I0
I1
tp6878
Rp6879
(I3
S'|'
p6880
NNNI4
I1
I0
tp6881
bS'DEGF'
p6882
tp6883
Rp6884
sS'3FAPOS'
p6885
S'FASTEP'
p6886
sS'TSAPYT'
p6887
g2
(g3
(S'S4'
p6888
I0
I1
tp6889
Rp6890
(I3
S'|'
p6891
NNNI4
I1
I0
tp6892
bS'DEGF'
p6893
tp6894
Rp6895
sS'CPA1V'
p6896
g2
(g3
(S'S1'
p6897
I0
I1
tp6898
Rp6899
(I3
S'|'
p6900
NNNI1
I1
I0
tp6901
bg63
tp6902
Rp6903
sS'ASPEA5CV'
p6904
g2
(g3
(S'S1'
p6905
I0
I1
tp6906
Rp6907
(I3
S'|'
p6908
NNNI1
I1
I0
tp6909
bg63
tp6910
Rp6911
sS'PXTANK1T'
p6912
g2
(g3
(S'S4'
p6913
I0
I1
tp6914
Rp6915
(I3
S'|'
p6916
NNNI4
I1
I0
tp6917
bS'DEGF'
p6918
tp6919
Rp6920
sS'4RT568T'
p6921
g2
(g3
(S'S4'
p6922
I0
I1
tp6923
Rp6924
(I3
S'|'
p6925
NNNI4
I1
I0
tp6926
bS'DEGF'
p6927
tp6928
Rp6929
sS'OOBTHR27_WIDE'
p6930
g2
(g3
(S'S4'
p6931
I0
I1
tp6932
Rp6933
(I3
S'|'
p6934
NNNI4
I1
I0
tp6935
bS'DEGF'
p6936
tp6937
Rp6938
sS'ACPB5CV'
p6939
g2
(g3
(S'S1'
p6940
I0
I1
tp6941
Rp6942
(I3
S'|'
p6943
NNNI1
I1
I0
tp6944
bg63
tp6945
Rp6946
sS'OOBTHR02'
p6947
g2
(g3
(S'S4'
p6948
I0
I1
tp6949
Rp6950
(I3
S'|'
p6951
NNNI4
I1
I0
tp6952
bS'DEGF'
p6953
tp6954
Rp6955
sS'1DPICACU'
p6956
g2
(g3
(S'S3'
p6957
I0
I1
tp6958
Rp6959
(I3
S'|'
p6960
NNNI3
I1
I0
tp6961
bS'AMP'
p6962
tp6963
Rp6964
sS'OOBTHR03'
p6965
g2
(g3
(S'S4'
p6966
I0
I1
tp6967
Rp6968
(I3
S'|'
p6969
NNNI4
I1
I0
tp6970
bS'DEGF'
p6971
tp6972
Rp6973
sS'OOBTHR54'
p6974
g2
(g3
(S'S4'
p6975
I0
I1
tp6976
Rp6977
(I3
S'|'
p6978
NNNI4
I1
I0
tp6979
bS'DEGF'
p6980
tp6981
Rp6982
sS'TOXTSUPN'
p6983
g2
(g3
(S'S4'
p6984
I0
I1
tp6985
Rp6986
(I3
S'|'
p6987
NNNI4
I1
I0
tp6988
bS'DEGF'
p6989
tp6990
Rp6991
sS'POR1TV01T'
p6992
g2
(g3
(S'S4'
p6993
I0
I1
tp6994
Rp6995
(I3
S'|'
p6996
NNNI4
I1
I0
tp6997
bS'DEGF'
p6998
tp6999
Rp7000
sS'AOSACMD1'
p7001
g2
(g3
(S'S3'
p7002
I0
I1
tp7003
Rp7004
(I3
S'|'
p7005
NNNI3
I1
I0
tp7006
bS'RAD'
p7007
tp7008
Rp7009
sS'OHRTHR29_WIDE'
p7010
g2
(g3
(S'S4'
p7011
I0
I1
tp7012
Rp7013
(I3
S'|'
p7014
NNNI4
I1
I0
tp7015
bS'DEGF'
p7016
tp7017
Rp7018
sS'4RT589T'
p7019
g2
(g3
(S'S4'
p7020
I0
I1
tp7021
Rp7022
(I3
S'|'
p7023
NNNI4
I1
I0
tp7024
bS'DEGF'
p7025
tp7026
Rp7027
sS'ASPEFSW2B'
p7028
g2
(g3
(S'S3'
p7029
I0
I1
tp7030
Rp7031
(I3
S'|'
p7032
NNNI3
I1
I0
tp7033
bS'DEG'
p7034
tp7035
Rp7036
sS'TFSSHDT2'
p7037
g2
(g3
(S'S4'
p7038
I0
I1
tp7039
Rp7040
(I3
S'|'
p7041
NNNI4
I1
I0
tp7042
bS'DEGF'
p7043
tp7044
Rp7045
sS'TCYLRWC'
p7046
g2
(g3
(S'S4'
p7047
I0
I1
tp7048
Rp7049
(I3
S'|'
p7050
NNNI4
I1
I0
tp7051
bS'DEGF'
p7052
tp7053
Rp7054
sS'4RT595T'
p7055
g2
(g3
(S'S4'
p7056
I0
I1
tp7057
Rp7058
(I3
S'|'
p7059
NNNI4
I1
I0
tp7060
bS'DEGF'
p7061
tp7062
Rp7063
sS'TCYLAFT5'
p7064
g2
(g3
(S'S4'
p7065
I0
I1
tp7066
Rp7067
(I3
S'|'
p7068
NNNI4
I1
I0
tp7069
bS'DEGF'
p7070
tp7071
Rp7072
sS'3TRMTRAT'
p7073
g2
(g3
(S'S4'
p7074
I0
I1
tp7075
Rp7076
(I3
S'|'
p7077
NNNI4
I1
I0
tp7078
bS'DEGC'
p7079
tp7080
Rp7081
sS'4RT700T'
p7082
g2
(g3
(S'S4'
p7083
I0
I1
tp7084
Rp7085
(I3
S'|'
p7086
NNNI4
I1
I0
tp7087
bS'DEGF'
p7088
tp7089
Rp7090
sS'4OAVHRMT_WIDE'
p7091
g2
(g3
(S'S4'
p7092
I0
I1
tp7093
Rp7094
(I3
S'|'
p7095
NNNI4
I1
I0
tp7096
bS'DEGF'
p7097
tp7098
Rp7099
sS'OOBTHR07'
p7100
g2
(g3
(S'S4'
p7101
I0
I1
tp7102
Rp7103
(I3
S'|'
p7104
NNNI4
I1
I0
tp7105
bS'DEGF'
p7106
tp7107
Rp7108
sS'1CBAT'
p7109
g2
(g3
(S'S4'
p7110
I0
I1
tp7111
Rp7112
(I3
S'|'
p7113
NNNI4
I1
I0
tp7114
bS'DEGC'
p7115
tp7116
Rp7117
sS'CPA2BPT'
p7118
g2
(g3
(S'S4'
p7119
I0
I1
tp7120
Rp7121
(I3
S'|'
p7122
NNNI4
I1
I0
tp7123
bS'DEGF'
p7124
tp7125
Rp7126
sS'4IP15AV'
p7127
g2
(g3
(S'S3'
p7128
I0
I1
tp7129
Rp7130
(I3
S'|'
p7131
NNNI3
I1
I0
tp7132
bS'VDC'
p7133
tp7134
Rp7135
sS'4ALL2AT'
p7136
g2
(g3
(S'S4'
p7137
I0
I1
tp7138
Rp7139
(I3
S'|'
p7140
NNNI4
I1
I0
tp7141
bS'DEGF'
p7142
tp7143
Rp7144
sS'4PRT4AT'
p7145
g2
(g3
(S'S4'
p7146
I0
I1
tp7147
Rp7148
(I3
S'|'
p7149
NNNI4
I1
I0
tp7150
bS'DEGF'
p7151
tp7152
Rp7153
sS'OOBTHR05'
p7154
g2
(g3
(S'S4'
p7155
I0
I1
tp7156
Rp7157
(I3
S'|'
p7158
NNNI4
I1
I0
tp7159
bS'DEGF'
p7160
tp7161
Rp7162
sS'OOBTHR22_WIDE'
p7163
g2
(g3
(S'S4'
p7164
I0
I1
tp7165
Rp7166
(I3
S'|'
p7167
NNNI4
I1
I0
tp7168
bS'DEGF'
p7169
tp7170
Rp7171
sS'PLAED2AT'
p7172
g2
(g3
(S'S4'
p7173
I0
I1
tp7174
Rp7175
(I3
S'|'
p7176
NNNI4
I1
I0
tp7177
bS'DEGF'
p7178
tp7179
Rp7180
sS'TAPEA2T'
p7181
g2
(g3
(S'S4'
p7182
I0
I1
tp7183
Rp7184
(I3
S'|'
p7185
NNNI4
I1
I0
tp7186
bS'DEGF'
p7187
tp7188
Rp7189
sS'AFLC10AI'
p7190
g2
(g3
(S'S4'
p7191
I0
I1
tp7192
Rp7193
(I3
S'|'
p7194
NNNI4
I1
I0
tp7195
bS'MAMP'
p7196
tp7197
Rp7198
sS'POR1TV02T'
p7199
g2
(g3
(S'S4'
p7200
I0
I1
tp7201
Rp7202
(I3
S'|'
p7203
NNNI4
I1
I0
tp7204
bS'DEGF'
p7205
tp7206
Rp7207
sS'2PMT2T'
p7208
g2
(g3
(S'S4'
p7209
I0
I1
tp7210
Rp7211
(I3
S'|'
p7212
NNNI4
I1
I0
tp7213
bS'DEGC'
p7214
tp7215
Rp7216
sS'EIACVAV'
p7217
g2
(g3
(S'S1'
p7218
I0
I1
tp7219
Rp7220
(I3
S'|'
p7221
NNNI1
I1
I0
tp7222
bg63
tp7223
Rp7224
sS'OHRTHR03_WIDE'
p7225
g2
(g3
(S'S4'
p7226
I0
I1
tp7227
Rp7228
(I3
S'|'
p7229
NNNI4
I1
I0
tp7230
bS'DEGF'
p7231
tp7232
Rp7233
sS'4IP5BV'
p7234
g2
(g3
(S'S3'
p7235
I0
I1
tp7236
Rp7237
(I3
S'|'
p7238
NNNI3
I1
I0
tp7239
bS'VDC'
p7240
tp7241
Rp7242
sS'6CSSI4'
p7243
g2
(g3
(S'S4'
p7244
I0
I1
tp7245
Rp7246
(I3
S'|'
p7247
NNNI4
I1
I0
tp7248
bS'MAMP'
p7249
tp7250
Rp7251
sS'PLAED1HT'
p7252
g2
(g3
(S'S4'
p7253
I0
I1
tp7254
Rp7255
(I3
S'|'
p7256
NNNI4
I1
I0
tp7257
bS'DEGF'
p7258
tp7259
Rp7260
sS'6CSSI2'
p7261
g2
(g3
(S'S4'
p7262
I0
I1
tp7263
Rp7264
(I3
S'|'
p7265
NNNI4
I1
I0
tp7266
bS'MAMP'
p7267
tp7268
Rp7269
sS'6CSSI3'
p7270
g2
(g3
(S'S4'
p7271
I0
I1
tp7272
Rp7273
(I3
S'|'
p7274
NNNI4
I1
I0
tp7275
bS'MAMP'
p7276
tp7277
Rp7278
sS'3TTVALVT'
p7279
g2
(g3
(S'S4'
p7280
I0
I1
tp7281
Rp7282
(I3
S'|'
p7283
NNNI4
I1
I0
tp7284
bS'DEGC'
p7285
tp7286
Rp7287
sS'6CSSI1'
p7288
g2
(g3
(S'S4'
p7289
I0
I1
tp7290
Rp7291
(I3
S'|'
p7292
NNNI4
I1
I0
tp7293
bS'MAMP'
p7294
tp7295
Rp7296
sS'PXDM02T'
p7297
g2
(g3
(S'S4'
p7298
I0
I1
tp7299
Rp7300
(I3
S'|'
p7301
NNNI4
I1
I0
tp7302
bS'DEGF'
p7303
tp7304
Rp7305
sS'TCYLCMM'
p7306
g2
(g3
(S'S4'
p7307
I0
I1
tp7308
Rp7309
(I3
S'|'
p7310
NNNI4
I1
I0
tp7311
bS'DEGF'
p7312
tp7313
Rp7314
sS'CUSOAIT'
p7315
g2
(g3
(S'S4'
p7316
I0
I1
tp7317
Rp7318
(I3
S'|'
p7319
NNNI4
I1
I0
tp7320
bS'DEGF'
p7321
tp7322
Rp7323
sS'OOBTHR18_WIDE'
p7324
g2
(g3
(S'S4'
p7325
I0
I1
tp7326
Rp7327
(I3
S'|'
p7328
NNNI4
I1
I0
tp7329
bS'DEGF'
p7330
tp7331
Rp7332
sS'4HPOSARO'
p7333
g2
(g3
(S'S3'
p7334
I0
I1
tp7335
Rp7336
(I3
S'|'
p7337
NNNI3
I1
I0
tp7338
bS'DEG'
p7339
tp7340
Rp7341
sS'OHRMGRD6'
p7342
g2
(g3
(S'S4'
p7343
I0
I1
tp7344
Rp7345
(I3
S'|'
p7346
NNNI4
I1
I0
tp7347
bS'DEGF'
p7348
tp7349
Rp7350
sS'POLINE05T'
p7351
g2
(g3
(S'S4'
p7352
I0
I1
tp7353
Rp7354
(I3
S'|'
p7355
NNNI4
I1
I0
tp7356
bS'DEGF'
p7357
tp7358
Rp7359
sS'4VRMOAV'
p7360
g2
(g3
(S'S3'
p7361
I0
I1
tp7362
Rp7363
(I3
S'|'
p7364
NNNI3
I1
I0
tp7365
bS'VDC'
p7366
tp7367
Rp7368
sS'OHRTHR35_WIDE'
p7369
g2
(g3
(S'S4'
p7370
I0
I1
tp7371
Rp7372
(I3
S'|'
p7373
NNNI4
I1
I0
tp7374
bS'DEGF'
p7375
tp7376
Rp7377
sS'EOEB3V'
p7378
g2
(g3
(S'S1'
p7379
I0
I1
tp7380
Rp7381
(I3
S'|'
p7382
NNNI1
I1
I0
tp7383
bg63
tp7384
Rp7385
sS'3FAFLCAT'
p7386
g2
(g3
(S'S4'
p7387
I0
I1
tp7388
Rp7389
(I3
S'|'
p7390
NNNI4
I1
I0
tp7391
bS'DEGC'
p7392
tp7393
Rp7394
sS'EB2V'
p7395
g2
(g3
(S'S1'
p7396
I0
I1
tp7397
Rp7398
(I3
S'|'
p7399
NNNI1
I1
I0
tp7400
bg63
tp7401
Rp7402
sS'AOTQCMD1'
p7403
g2
(g3
(S'S4'
p7404
I0
I1
tp7405
Rp7406
(I3
S'|'
p7407
NNNI4
I1
I0
tp7408
bS'FTLB'
p7409
tp7410
Rp7411
sS'AOTQCMD3'
p7412
g2
(g3
(S'S4'
p7413
I0
I1
tp7414
Rp7415
(I3
S'|'
p7416
NNNI4
I1
I0
tp7417
bS'FTLB'
p7418
tp7419
Rp7420
sS'AOTQCMD2'
p7421
g2
(g3
(S'S4'
p7422
I0
I1
tp7423
Rp7424
(I3
S'|'
p7425
NNNI4
I1
I0
tp7426
bS'FTLB'
p7427
tp7428
Rp7429
sS'CXPNBIT'
p7430
g2
(g3
(S'S4'
p7431
I0
I1
tp7432
Rp7433
(I3
S'|'
p7434
NNNI4
I1
I0
tp7435
bS'DEGF'
p7436
tp7437
Rp7438
sS'OHRTHR25'
p7439
g2
(g3
(S'S4'
p7440
I0
I1
tp7441
Rp7442
(I3
S'|'
p7443
NNNI4
I1
I0
tp7444
bS'DEGF'
p7445
tp7446
Rp7447
sS'AIRU2G2I'
p7448
g2
(g3
(S'S4'
p7449
I0
I1
tp7450
Rp7451
(I3
S'|'
p7452
NNNI4
I1
I0
tp7453
bS'MAMP'
p7454
tp7455
Rp7456
sS'OHRTHR05_WIDE'
p7457
g2
(g3
(S'S4'
p7458
I0
I1
tp7459
Rp7460
(I3
S'|'
p7461
NNNI4
I1
I0
tp7462
bS'DEGF'
p7463
tp7464
Rp7465
sS'TRSPOTEX'
p7466
g2
(g3
(S'S4'
p7467
I0
I1
tp7468
Rp7469
(I3
S'|'
p7470
NNNI4
I1
I0
tp7471
bS'DEGF'
p7472
tp7473
Rp7474
sS'TFUTSUPN'
p7475
g2
(g3
(S'S4'
p7476
I0
I1
tp7477
Rp7478
(I3
S'|'
p7479
NNNI4
I1
I0
tp7480
bS'DEGF'
p7481
tp7482
Rp7483
sS'AOSPACS1B'
p7484
g2
(g3
(S'S4'
p7485
I0
I1
tp7486
Rp7487
(I3
S'|'
p7488
NNNI4
I1
I0
tp7489
bS'MAMP'
p7490
tp7491
Rp7492
sS'6RWSPD1'
p7493
g2
(g3
(S'S5'
p7494
I0
I1
tp7495
Rp7496
(I3
S'|'
p7497
NNNI5
I1
I0
tp7498
bS'RADPS'
p7499
tp7500
Rp7501
sS'AOACYAN7'
p7502
g2
(g3
(S'S4'
p7503
I0
I1
tp7504
Rp7505
(I3
S'|'
p7506
NNNI4
I1
I0
tp7507
bS'ASEC'
p7508
tp7509
Rp7510
sS'1CRAT'
p7511
g2
(g3
(S'S4'
p7512
I0
I1
tp7513
Rp7514
(I3
S'|'
p7515
NNNI4
I1
I0
tp7516
bS'DEGC'
p7517
tp7518
Rp7519
sS'AOACYAN0'
p7520
g2
(g3
(S'S4'
p7521
I0
I1
tp7522
Rp7523
(I3
S'|'
p7524
NNNI4
I1
I0
tp7525
bS'ASEC'
p7526
tp7527
Rp7528
sS'PMTANK2T'
p7529
g2
(g3
(S'S4'
p7530
I0
I1
tp7531
Rp7532
(I3
S'|'
p7533
NNNI4
I1
I0
tp7534
bS'DEGF'
p7535
tp7536
Rp7537
sS'AOACYAN1'
p7538
g2
(g3
(S'S4'
p7539
I0
I1
tp7540
Rp7541
(I3
S'|'
p7542
NNNI4
I1
I0
tp7543
bS'ASEC'
p7544
tp7545
Rp7546
sS'OOBTHR54_WIDE'
p7547
g2
(g3
(S'S4'
p7548
I0
I1
tp7549
Rp7550
(I3
S'|'
p7551
NNNI4
I1
I0
tp7552
bS'DEGF'
p7553
tp7554
Rp7555
sS'TMP_FEP0_PCB'
p7556
g353
sS'1SSPYT'
p7557
g2
(g3
(S'S4'
p7558
I0
I1
tp7559
Rp7560
(I3
S'|'
p7561
NNNI4
I1
I0
tp7562
bS'DEGC'
p7563
tp7564
Rp7565
sS'AOACYAN2'
p7566
g2
(g3
(S'S4'
p7567
I0
I1
tp7568
Rp7569
(I3
S'|'
p7570
NNNI4
I1
I0
tp7571
bS'ASEC'
p7572
tp7573
Rp7574
sS'PLAED1CT'
p7575
g2
(g3
(S'S4'
p7576
I0
I1
tp7577
Rp7578
(I3
S'|'
p7579
NNNI4
I1
I0
tp7580
bS'DEGF'
p7581
tp7582
Rp7583
sS'OHRTHR24'
p7584
g2
(g3
(S'S4'
p7585
I0
I1
tp7586
Rp7587
(I3
S'|'
p7588
NNNI4
I1
I0
tp7589
bS'DEGF'
p7590
tp7591
Rp7592
sS'PLAED4HT'
p7593
g2
(g3
(S'S4'
p7594
I0
I1
tp7595
Rp7596
(I3
S'|'
p7597
NNNI4
I1
I0
tp7598
bS'DEGF'
p7599
tp7600
Rp7601
sS'2DTSTATT'
p7602
g2
(g3
(S'S4'
p7603
I0
I1
tp7604
Rp7605
(I3
S'|'
p7606
NNNI4
I1
I0
tp7607
bS'DEGC'
p7608
tp7609
Rp7610
sS'AI2AX1Y'
p7611
g2
(g3
(S'S5'
p7612
I0
I1
tp7613
Rp7614
(I3
S'|'
p7615
NNNI5
I1
I0
tp7616
bS'DEGPS'
p7617
tp7618
Rp7619
sS'AI2AX1X'
p7620
g2
(g3
(S'S5'
p7621
I0
I1
tp7622
Rp7623
(I3
S'|'
p7624
NNNI5
I1
I0
tp7625
bS'DEGPS'
p7626
tp7627
Rp7628
sS'AAOTASMT'
p7629
g2
(g3
(S'S4'
p7630
I0
I1
tp7631
Rp7632
(I3
S'|'
p7633
NNNI4
I1
I0
tp7634
bS'DEGF'
p7635
tp7636
Rp7637
sS'CSITA5V'
p7638
g2
(g3
(S'S1'
p7639
I0
I1
tp7640
Rp7641
(I3
S'|'
p7642
NNNI1
I1
I0
tp7643
bg63
tp7644
Rp7645
sS'AORTERR1'
p7646
g2
(g3
(S'S5'
p7647
I0
I1
tp7648
Rp7649
(I3
S'|'
p7650
NNNI5
I1
I0
tp7651
bS'RADPS'
p7652
tp7653
Rp7654
sS'TCYLAFT3'
p7655
g2
(g3
(S'S4'
p7656
I0
I1
tp7657
Rp7658
(I3
S'|'
p7659
NNNI4
I1
I0
tp7660
bS'DEGF'
p7661
tp7662
Rp7663
sS'TCYLAFT2'
p7664
g2
(g3
(S'S4'
p7665
I0
I1
tp7666
Rp7667
(I3
S'|'
p7668
NNNI4
I1
I0
tp7669
bS'DEGF'
p7670
tp7671
Rp7672
sS'OOBTHR06'
p7673
g2
(g3
(S'S4'
p7674
I0
I1
tp7675
Rp7676
(I3
S'|'
p7677
NNNI4
I1
I0
tp7678
bS'DEGF'
p7679
tp7680
Rp7681
sS'4LLL1AT'
p7682
g2
(g3
(S'S4'
p7683
I0
I1
tp7684
Rp7685
(I3
S'|'
p7686
NNNI4
I1
I0
tp7687
bS'DEGF'
p7688
tp7689
Rp7690
sS'OOBTHR04'
p7691
g2
(g3
(S'S4'
p7692
I0
I1
tp7693
Rp7694
(I3
S'|'
p7695
NNNI4
I1
I0
tp7696
bS'DEGF'
p7697
tp7698
Rp7699
sS'4HPOSBRO'
p7700
g2
(g3
(S'S3'
p7701
I0
I1
tp7702
Rp7703
(I3
S'|'
p7704
NNNI3
I1
I0
tp7705
bS'DEG'
p7706
tp7707
Rp7708
sS'EOESAT2C'
p7709
g2
(g3
(S'S4'
p7710
I0
I1
tp7711
Rp7712
(I3
S'|'
p7713
NNNI4
I1
I0
tp7714
bS'DEGF'
p7715
tp7716
Rp7717
sS'AORTERR3'
p7718
g2
(g3
(S'S5'
p7719
I0
I1
tp7720
Rp7721
(I3
S'|'
p7722
NNNI5
I1
I0
tp7723
bS'RADPS'
p7724
tp7725
Rp7726
sS'PR3TV01T'
p7727
g2
(g3
(S'S4'
p7728
I0
I1
tp7729
Rp7730
(I3
S'|'
p7731
NNNI4
I1
I0
tp7732
bS'DEGF'
p7733
tp7734
Rp7735
sS'TBOLTCUT'
p7736
g2
(g3
(S'S4'
p7737
I0
I1
tp7738
Rp7739
(I3
S'|'
p7740
NNNI4
I1
I0
tp7741
bS'DEGF'
p7742
tp7743
Rp7744
sS'AOACYAN4'
p7745
g2
(g3
(S'S4'
p7746
I0
I1
tp7747
Rp7748
(I3
S'|'
p7749
NNNI4
I1
I0
tp7750
bS'ASEC'
p7751
tp7752
Rp7753
sS'AOACYAN5'
p7754
g2
(g3
(S'S4'
p7755
I0
I1
tp7756
Rp7757
(I3
S'|'
p7758
NNNI4
I1
I0
tp7759
bS'ASEC'
p7760
tp7761
Rp7762
sS'AOACYAN6'
p7763
g2
(g3
(S'S4'
p7764
I0
I1
tp7765
Rp7766
(I3
S'|'
p7767
NNNI4
I1
I0
tp7768
bS'ASEC'
p7769
tp7770
Rp7771
sS'AFLCAAH'
p7772
g2
(g3
(S'S1'
p7773
I0
I1
tp7774
Rp7775
(I3
S'|'
p7776
NNNI1
I1
I0
tp7777
bg63
tp7778
Rp7779
sS'AFSSPC2V'
p7780
g2
(g3
(S'S1'
p7781
I0
I1
tp7782
Rp7783
(I3
S'|'
p7784
NNNI1
I1
I0
tp7785
bg63
tp7786
Rp7787
sS'1MAHCBT'
p7788
g2
(g3
(S'S4'
p7789
I0
I1
tp7790
Rp7791
(I3
S'|'
p7792
NNNI4
I1
I0
tp7793
bS'DEGC'
p7794
tp7795
Rp7796
sS'AFLC11AI'
p7797
g2
(g3
(S'S4'
p7798
I0
I1
tp7799
Rp7800
(I3
S'|'
p7801
NNNI4
I1
I0
tp7802
bS'MAMP'
p7803
tp7804
Rp7805
sS'AOACYAN3'
p7806
g2
(g3
(S'S4'
p7807
I0
I1
tp7808
Rp7809
(I3
S'|'
p7810
NNNI4
I1
I0
tp7811
bS'ASEC'
p7812
tp7813
Rp7814
sS'OOBTHR62_WIDE'
p7815
g2
(g3
(S'S4'
p7816
I0
I1
tp7817
Rp7818
(I3
S'|'
p7819
NNNI4
I1
I0
tp7820
bS'DEGF'
p7821
tp7822
Rp7823
sS'OHRTHR23_WIDE'
p7824
g2
(g3
(S'S4'
p7825
I0
I1
tp7826
Rp7827
(I3
S'|'
p7828
NNNI4
I1
I0
tp7829
bS'DEGF'
p7830
tp7831
Rp7832
sS'TFSSBKT1'
p7833
g2
(g3
(S'S4'
p7834
I0
I1
tp7835
Rp7836
(I3
S'|'
p7837
NNNI4
I1
I0
tp7838
bS'DEGF'
p7839
tp7840
Rp7841
sS'PLAED4CT'
p7842
g2
(g3
(S'S4'
p7843
I0
I1
tp7844
Rp7845
(I3
S'|'
p7846
NNNI4
I1
I0
tp7847
bS'DEGF'
p7848
tp7849
Rp7850
sS'3SFLXAST'
p7851
g2
(g3
(S'S4'
p7852
I0
I1
tp7853
Rp7854
(I3
S'|'
p7855
NNNI4
I1
I0
tp7856
bS'DEGC'
p7857
tp7858
Rp7859
sS'6RWNLTQ1'
p7860
g2
(g3
(S'S4'
p7861
I0
I1
tp7862
Rp7863
(I3
S'|'
p7864
NNNI4
I1
I0
tp7865
bS'FTLB'
p7866
tp7867
Rp7868
sS'6RWNLTQ2'
p7869
g2
(g3
(S'S4'
p7870
I0
I1
tp7871
Rp7872
(I3
S'|'
p7873
NNNI4
I1
I0
tp7874
bS'FTLB'
p7875
tp7876
Rp7877
sS'6RWNLTQ3'
p7878
g2
(g3
(S'S4'
p7879
I0
I1
tp7880
Rp7881
(I3
S'|'
p7882
NNNI4
I1
I0
tp7883
bS'FTLB'
p7884
tp7885
Rp7886
sS'6RWNLTQ4'
p7887
g2
(g3
(S'S4'
p7888
I0
I1
tp7889
Rp7890
(I3
S'|'
p7891
NNNI4
I1
I0
tp7892
bS'FTLB'
p7893
tp7894
Rp7895
sS'4RT563T'
p7896
g2
(g3
(S'S4'
p7897
I0
I1
tp7898
Rp7899
(I3
S'|'
p7900
NNNI4
I1
I0
tp7901
bS'DEGF'
p7902
tp7903
Rp7904
sS'6RWNLTQ6'
p7905
g2
(g3
(S'S4'
p7906
I0
I1
tp7907
Rp7908
(I3
S'|'
p7909
NNNI4
I1
I0
tp7910
bS'FTLB'
p7911
tp7912
Rp7913
sS'CSITB15V'
p7914
g2
(g3
(S'S1'
p7915
I0
I1
tp7916
Rp7917
(I3
S'|'
p7918
NNNI1
I1
I0
tp7919
bg63
tp7920
Rp7921
sS'EB2CI'
p7922
g2
(g3
(S'S3'
p7923
I0
I1
tp7924
Rp7925
(I3
S'|'
p7926
NNNI3
I1
I0
tp7927
bS'AMP'
p7928
tp7929
Rp7930
sS'AORESZ2_1'
p7931
g2
(g3
(S'S3'
p7932
I0
I1
tp7933
Rp7934
(I3
S'|'
p7935
NNNI3
I1
I0
tp7936
bS'RAD'
p7937
tp7938
Rp7939
sS'1DAHBVO'
p7940
g2
(g3
(S'S1'
p7941
I0
I1
tp7942
Rp7943
(I3
S'|'
p7944
NNNI1
I1
I0
tp7945
bg63
tp7946
Rp7947
sS'OOBTHR40_WIDE'
p7948
g2
(g3
(S'S4'
p7949
I0
I1
tp7950
Rp7951
(I3
S'|'
p7952
NNNI4
I1
I0
tp7953
bS'DEGF'
p7954
tp7955
Rp7956
sS'POLAEV2BT'
p7957
g2
(g3
(S'S4'
p7958
I0
I1
tp7959
Rp7960
(I3
S'|'
p7961
NNNI4
I1
I0
tp7962
bS'DEGF'
p7963
tp7964
Rp7965
sS'PLAED1ET'
p7966
g2
(g3
(S'S4'
p7967
I0
I1
tp7968
Rp7969
(I3
S'|'
p7970
NNNI4
I1
I0
tp7971
bS'DEGF'
p7972
tp7973
Rp7974
sS'PR1TV01T'
p7975
g2
(g3
(S'S4'
p7976
I0
I1
tp7977
Rp7978
(I3
S'|'
p7979
NNNI4
I1
I0
tp7980
bS'DEGF'
p7981
tp7982
Rp7983
sS'CSSR2CBV'
p7984
g2
(g3
(S'S1'
p7985
I0
I1
tp7986
Rp7987
(I3
S'|'
p7988
NNNI1
I1
I0
tp7989
bg63
tp7990
Rp7991
sS'4RT707T'
p7992
g2
(g3
(S'S4'
p7993
I0
I1
tp7994
Rp7995
(I3
S'|'
p7996
NNNI4
I1
I0
tp7997
bS'DEGF'
p7998
tp7999
Rp8000
sS'OHRTHR49_WIDE'
p8001
g2
(g3
(S'S4'
p8002
I0
I1
tp8003
Rp8004
(I3
S'|'
p8005
NNNI4
I1
I0
tp8006
bS'DEGF'
p8007
tp8008
Rp8009
sS'PLINE05T'
p8010
g2
(g3
(S'S4'
p8011
I0
I1
tp8012
Rp8013
(I3
S'|'
p8014
NNNI4
I1
I0
tp8015
bS'DEGF'
p8016
tp8017
Rp8018
sS'PLAED3AT'
p8019
g2
(g3
(S'S4'
p8020
I0
I1
tp8021
Rp8022
(I3
S'|'
p8023
NNNI4
I1
I0
tp8024
bS'DEGF'
p8025
tp8026
Rp8027
sS'TAPE2PST'
p8028
g2
(g3
(S'S4'
p8029
I0
I1
tp8030
Rp8031
(I3
S'|'
p8032
NNNI4
I1
I0
tp8033
bS'DEGF'
p8034
tp8035
Rp8036
sS'4PRT4BT'
p8037
g2
(g3
(S'S4'
p8038
I0
I1
tp8039
Rp8040
(I3
S'|'
p8041
NNNI4
I1
I0
tp8042
bS'DEGF'
p8043
tp8044
Rp8045
sS'1DAHHAVO'
p8046
g2
(g3
(S'S1'
p8047
I0
I1
tp8048
Rp8049
(I3
S'|'
p8050
NNNI1
I1
I0
tp8051
bg63
tp8052
Rp8053
sS'ASPEFSW1B'
p8054
g2
(g3
(S'S3'
p8055
I0
I1
tp8056
Rp8057
(I3
S'|'
p8058
NNNI3
I1
I0
tp8059
bS'DEG'
p8060
tp8061
Rp8062
sS'OHRTHR44_WIDE'
p8063
g2
(g3
(S'S4'
p8064
I0
I1
tp8065
Rp8066
(I3
S'|'
p8067
NNNI4
I1
I0
tp8068
bS'DEGF'
p8069
tp8070
Rp8071
sS'OOBTHR34_WIDE'
p8072
g2
(g3
(S'S4'
p8073
I0
I1
tp8074
Rp8075
(I3
S'|'
p8076
NNNI4
I1
I0
tp8077
bS'DEGF'
p8078
tp8079
Rp8080
sS'OOBTHR05_WIDE'
p8081
g2
(g3
(S'S4'
p8082
I0
I1
tp8083
Rp8084
(I3
S'|'
p8085
NNNI4
I1
I0
tp8086
bS'DEGF'
p8087
tp8088
Rp8089
sS'CUSOB28V'
p8090
g2
(g3
(S'S1'
p8091
I0
I1
tp8092
Rp8093
(I3
S'|'
p8094
NNNI1
I1
I0
tp8095
bg63
tp8096
Rp8097
sS'TMP_FEP1_ACTEL'
p8098
g353
sS'4RT555T'
p8099
g2
(g3
(S'S4'
p8100
I0
I1
tp8101
Rp8102
(I3
S'|'
p8103
NNNI4
I1
I0
tp8104
bS'DEGF'
p8105
tp8106
Rp8107
sS'AORESY7'
p8108
g2
(g3
(S'S3'
p8109
I0
I1
tp8110
Rp8111
(I3
S'|'
p8112
NNNI3
I1
I0
tp8113
bS'RAD'
p8114
tp8115
Rp8116
sS'OOBTHR25_WIDE'
p8117
g2
(g3
(S'S4'
p8118
I0
I1
tp8119
Rp8120
(I3
S'|'
p8121
NNNI4
I1
I0
tp8122
bS'DEGF'
p8123
tp8124
Rp8125
sS'AOSPBCS3B'
p8126
g2
(g3
(S'S4'
p8127
I0
I1
tp8128
Rp8129
(I3
S'|'
p8130
NNNI4
I1
I0
tp8131
bS'MAMP'
p8132
tp8133
Rp8134
sS'PXTANKIP'
p8135
g2
(g3
(S'S4'
p8136
I0
I1
tp8137
Rp8138
(I3
S'|'
p8139
NNNI4
I1
I0
tp8140
bS'PSIA'
p8141
tp8142
Rp8143
sS'3TSCPOS'
p8144
S'TSCSTEP'
p8145
sS'AORESY4'
p8146
g2
(g3
(S'S3'
p8147
I0
I1
tp8148
Rp8149
(I3
S'|'
p8150
NNNI3
I1
I0
tp8151
bS'RAD'
p8152
tp8153
Rp8154
sS'ARWA5BT'
p8155
g2
(g3
(S'S4'
p8156
I0
I1
tp8157
Rp8158
(I3
S'|'
p8159
NNNI4
I1
I0
tp8160
bS'DEGF'
p8161
tp8162
Rp8163
sS'CSITB5V'
p8164
g2
(g3
(S'S1'
p8165
I0
I1
tp8166
Rp8167
(I3
S'|'
p8168
NNNI1
I1
I0
tp8169
bg63
tp8170
Rp8171
sS'2CHTRPZT'
p8172
g2
(g3
(S'S4'
p8173
I0
I1
tp8174
Rp8175
(I3
S'|'
p8176
NNNI4
I1
I0
tp8177
bS'DEGC'
p8178
tp8179
Rp8180
sS'4RT579T'
p8181
g2
(g3
(S'S4'
p8182
I0
I1
tp8183
Rp8184
(I3
S'|'
p8185
NNNI4
I1
I0
tp8186
bS'DEGF'
p8187
tp8188
Rp8189
sS'TCM_USO'
p8190
g2
(g3
(S'S4'
p8191
I0
I1
tp8192
Rp8193
(I3
S'|'
p8194
NNNI4
I1
I0
tp8195
bS'DEGF'
p8196
tp8197
Rp8198
sS'OHRTHR46_WIDE'
p8199
g2
(g3
(S'S4'
p8200
I0
I1
tp8201
Rp8202
(I3
S'|'
p8203
NNNI4
I1
I0
tp8204
bS'DEGF'
p8205
tp8206
Rp8207
sS'PLINE13T'
p8208
g2
(g3
(S'S4'
p8209
I0
I1
tp8210
Rp8211
(I3
S'|'
p8212
NNNI4
I1
I0
tp8213
bS'DEGF'
p8214
tp8215
Rp8216
sS'AOATTER1'
p8217
g2
(g3
(S'S3'
p8218
I0
I1
tp8219
Rp8220
(I3
S'|'
p8221
NNNI3
I1
I0
tp8222
bS'RAD'
p8223
tp8224
Rp8225
sS'AOATTER2'
p8226
g2
(g3
(S'S3'
p8227
I0
I1
tp8228
Rp8229
(I3
S'|'
p8230
NNNI3
I1
I0
tp8231
bS'RAD'
p8232
tp8233
Rp8234
sS'6RWNLTQ5'
p8235
g2
(g3
(S'S4'
p8236
I0
I1
tp8237
Rp8238
(I3
S'|'
p8239
NNNI4
I1
I0
tp8240
bS'FTLB'
p8241
tp8242
Rp8243
sS'TMZLGABM'
p8244
g2
(g3
(S'S4'
p8245
I0
I1
tp8246
Rp8247
(I3
S'|'
p8248
NNNI4
I1
I0
tp8249
bS'DEGF'
p8250
tp8251
Rp8252
sS'AOCSSI2'
p8253
g2
(g3
(S'S4'
p8254
I0
I1
tp8255
Rp8256
(I3
S'|'
p8257
NNNI4
I1
I0
tp8258
bS'MAMP'
p8259
tp8260
Rp8261
sS'2P24VAVL'
p8262
g2
(g3
(S'S3'
p8263
I0
I1
tp8264
Rp8265
(I3
S'|'
p8266
NNNI3
I1
I0
tp8267
bS'VDC'
p8268
tp8269
Rp8270
sS'AWD5TQI'
p8271
g2
(g3
(S'S3'
p8272
I0
I1
tp8273
Rp8274
(I3
S'|'
p8275
NNNI3
I1
I0
tp8276
bS'AMP'
p8277
tp8278
Rp8279
sS'AORWBTQ5'
p8280
g2
(g3
(S'S4'
p8281
I0
I1
tp8282
Rp8283
(I3
S'|'
p8284
NNNI4
I1
I0
tp8285
bS'FTLB'
p8286
tp8287
Rp8288
sS'OHRTHR41'
p8289
g2
(g3
(S'S4'
p8290
I0
I1
tp8291
Rp8292
(I3
S'|'
p8293
NNNI4
I1
I0
tp8294
bS'DEGF'
p8295
tp8296
Rp8297
sS'ECNV1V'
p8298
g2
(g3
(S'S1'
p8299
I0
I1
tp8300
Rp8301
(I3
S'|'
p8302
NNNI1
I1
I0
tp8303
bg63
tp8304
Rp8305
sS'EEPA5V'
p8306
g2
(g3
(S'S1'
p8307
I0
I1
tp8308
Rp8309
(I3
S'|'
p8310
NNNI1
I1
I0
tp8311
bg63
tp8312
Rp8313
sS'4RT585T'
p8314
g2
(g3
(S'S4'
p8315
I0
I1
tp8316
Rp8317
(I3
S'|'
p8318
NNNI4
I1
I0
tp8319
bS'DEGF'
p8320
tp8321
Rp8322
sS'PLAED2BT'
p8323
g2
(g3
(S'S4'
p8324
I0
I1
tp8325
Rp8326
(I3
S'|'
p8327
NNNI4
I1
I0
tp8328
bS'DEGF'
p8329
tp8330
Rp8331
sS'AAOTH2MT'
p8332
g2
(g3
(S'S4'
p8333
I0
I1
tp8334
Rp8335
(I3
S'|'
p8336
NNNI4
I1
I0
tp8337
bS'DEGF'
p8338
tp8339
Rp8340
sS'OHRTHR02'
p8341
g2
(g3
(S'S4'
p8342
I0
I1
tp8343
Rp8344
(I3
S'|'
p8345
NNNI4
I1
I0
tp8346
bS'DEGF'
p8347
tp8348
Rp8349
sS'4HLL1BT'
p8350
g2
(g3
(S'S4'
p8351
I0
I1
tp8352
Rp8353
(I3
S'|'
p8354
NNNI4
I1
I0
tp8355
bS'DEGF'
p8356
tp8357
Rp8358
sS'AORESY1_1'
p8359
g2
(g3
(S'S3'
p8360
I0
I1
tp8361
Rp8362
(I3
S'|'
p8363
NNNI3
I1
I0
tp8364
bS'RAD'
p8365
tp8366
Rp8367
sS'OHRTHR07'
p8368
g2
(g3
(S'S4'
p8369
I0
I1
tp8370
Rp8371
(I3
S'|'
p8372
NNNI4
I1
I0
tp8373
bS'DEGF'
p8374
tp8375
Rp8376
sS'OHRTHR06'
p8377
g2
(g3
(S'S4'
p8378
I0
I1
tp8379
Rp8380
(I3
S'|'
p8381
NNNI4
I1
I0
tp8382
bS'DEGF'
p8383
tp8384
Rp8385
sS'OHRTHR09'
p8386
g2
(g3
(S'S4'
p8387
I0
I1
tp8388
Rp8389
(I3
S'|'
p8390
NNNI4
I1
I0
tp8391
bS'DEGF'
p8392
tp8393
Rp8394
sS'1WRBT'
p8395
g2
(g3
(S'S4'
p8396
I0
I1
tp8397
Rp8398
(I3
S'|'
p8399
NNNI4
I1
I0
tp8400
bS'DEGC'
p8401
tp8402
Rp8403
sS'AIRU1VFT'
p8404
g2
(g3
(S'S4'
p8405
I0
I1
tp8406
Rp8407
(I3
S'|'
p8408
NNNI4
I1
I0
tp8409
bS'DEGF'
p8410
tp8411
Rp8412
sS'AORESZ6_6'
p8413
g2
(g3
(S'S3'
p8414
I0
I1
tp8415
Rp8416
(I3
S'|'
p8417
NNNI3
I1
I0
tp8418
bS'RAD'
p8419
tp8420
Rp8421
sS'AORESZ6_7'
p8422
g2
(g3
(S'S3'
p8423
I0
I1
tp8424
Rp8425
(I3
S'|'
p8426
NNNI3
I1
I0
tp8427
bS'RAD'
p8428
tp8429
Rp8430
sS'AORESZ6_4'
p8431
g2
(g3
(S'S3'
p8432
I0
I1
tp8433
Rp8434
(I3
S'|'
p8435
NNNI3
I1
I0
tp8436
bS'RAD'
p8437
tp8438
Rp8439
sS'2VLEV2RT'
p8440
g2
(g3
(S'S2'
p8441
I0
I1
tp8442
Rp8443
(I3
S'|'
p8444
NNNI2
I1
I0
tp8445
bS'HZ'
p8446
tp8447
Rp8448
sS'AORESZ6_2'
p8449
g2
(g3
(S'S3'
p8450
I0
I1
tp8451
Rp8452
(I3
S'|'
p8453
NNNI3
I1
I0
tp8454
bS'RAD'
p8455
tp8456
Rp8457
sS'AORESZ6_3'
p8458
g2
(g3
(S'S3'
p8459
I0
I1
tp8460
Rp8461
(I3
S'|'
p8462
NNNI3
I1
I0
tp8463
bS'RAD'
p8464
tp8465
Rp8466
sS'AOSCVEL2'
p8467
g2
(g3
(S'S4'
p8468
I0
I1
tp8469
Rp8470
(I3
S'|'
p8471
NNNI4
I1
I0
tp8472
bS'KMPS'
p8473
tp8474
Rp8475
sS'3SFLXBST'
p8476
g2
(g3
(S'S4'
p8477
I0
I1
tp8478
Rp8479
(I3
S'|'
p8480
NNNI4
I1
I0
tp8481
bS'DEGC'
p8482
tp8483
Rp8484
sS'4RT570T'
p8485
g2
(g3
(S'S4'
p8486
I0
I1
tp8487
Rp8488
(I3
S'|'
p8489
NNNI4
I1
I0
tp8490
bS'DEGF'
p8491
tp8492
Rp8493
sS'3FABRAAT'
p8494
g2
(g3
(S'S4'
p8495
I0
I1
tp8496
Rp8497
(I3
S'|'
p8498
NNNI4
I1
I0
tp8499
bS'DEGC'
p8500
tp8501
Rp8502
sS'TASPPCM'
p8503
g2
(g3
(S'S4'
p8504
I0
I1
tp8505
Rp8506
(I3
S'|'
p8507
NNNI4
I1
I0
tp8508
bS'DEGF'
p8509
tp8510
Rp8511
sS'ELBI'
p8512
g2
(g3
(S'S3'
p8513
I0
I1
tp8514
Rp8515
(I3
S'|'
p8516
NNNI3
I1
I0
tp8517
bS'AMP'
p8518
tp8519
Rp8520
sS'1CBBT'
p8521
g2
(g3
(S'S4'
p8522
I0
I1
tp8523
Rp8524
(I3
S'|'
p8525
NNNI4
I1
I0
tp8526
bS'DEGC'
p8527
tp8528
Rp8529
sS'AORESZ6_8'
p8530
g2
(g3
(S'S3'
p8531
I0
I1
tp8532
Rp8533
(I3
S'|'
p8534
NNNI3
I1
I0
tp8535
bS'RAD'
p8536
tp8537
Rp8538
sS'TMP_FEP0_ACTEL'
p8539
g353
sS'AOSARES2'
p8540
g2
(g3
(S'S3'
p8541
I0
I1
tp8542
Rp8543
(I3
S'|'
p8544
NNNI3
I1
I0
tp8545
bS'DEG'
p8546
tp8547
Rp8548
sS'AORESY5_1'
p8549
g2
(g3
(S'S3'
p8550
I0
I1
tp8551
Rp8552
(I3
S'|'
p8553
NNNI3
I1
I0
tp8554
bS'RAD'
p8555
tp8556
Rp8557
sS'AOSARES1'
p8558
g2
(g3
(S'S3'
p8559
I0
I1
tp8560
Rp8561
(I3
S'|'
p8562
NNNI3
I1
I0
tp8563
bS'DEG'
p8564
tp8565
Rp8566
sS'4RT591T'
p8567
g2
(g3
(S'S4'
p8568
I0
I1
tp8569
Rp8570
(I3
S'|'
p8571
NNNI4
I1
I0
tp8572
bS'DEGF'
p8573
tp8574
Rp8575
sS'3LDRTPOS'
p8576
g8145
sS'AIRU1G1I'
p8577
g2
(g3
(S'S4'
p8578
I0
I1
tp8579
Rp8580
(I3
S'|'
p8581
NNNI4
I1
I0
tp8582
bS'MAMP'
p8583
tp8584
Rp8585
sS'4PRTAV'
p8586
g2
(g3
(S'S3'
p8587
I0
I1
tp8588
Rp8589
(I3
S'|'
p8590
NNNI3
I1
I0
tp8591
bS'VDC'
p8592
tp8593
Rp8594
sS'TMZP_MY'
p8595
g2
(g3
(S'S4'
p8596
I0
I1
tp8597
Rp8598
(I3
S'|'
p8599
NNNI4
I1
I0
tp8600
bS'DEGF'
p8601
tp8602
Rp8603
sS'AOCMDRT1'
p8604
g2
(g3
(S'S5'
p8605
I0
I1
tp8606
Rp8607
(I3
S'|'
p8608
NNNI5
I1
I0
tp8609
bS'RADPS'
p8610
tp8611
Rp8612
sS'4OAVOBAT_WIDE'
p8613
g2
(g3
(S'S4'
p8614
I0
I1
tp8615
Rp8616
(I3
S'|'
p8617
NNNI4
I1
I0
tp8618
bS'DEGF'
p8619
tp8620
Rp8621
sS'CPCA15V'
p8622
g2
(g3
(S'S1'
p8623
I0
I1
tp8624
Rp8625
(I3
S'|'
p8626
NNNI1
I1
I0
tp8627
bg63
tp8628
Rp8629
sS'TMYHNG'
p8630
g2
(g3
(S'S4'
p8631
I0
I1
tp8632
Rp8633
(I3
S'|'
p8634
NNNI4
I1
I0
tp8635
bS'DEGF'
p8636
tp8637
Rp8638
sS'PLAEV3BT'
p8639
g2
(g3
(S'S4'
p8640
I0
I1
tp8641
Rp8642
(I3
S'|'
p8643
NNNI4
I1
I0
tp8644
bS'DEGF'
p8645
tp8646
Rp8647
sS'1DEICBCU'
p8648
g2
(g3
(S'S3'
p8649
I0
I1
tp8650
Rp8651
(I3
S'|'
p8652
NNNI3
I1
I0
tp8653
bS'AMP'
p8654
tp8655
Rp8656
sS'POLAEV4AT'
p8657
g2
(g3
(S'S4'
p8658
I0
I1
tp8659
Rp8660
(I3
S'|'
p8661
NNNI4
I1
I0
tp8662
bS'DEGF'
p8663
tp8664
Rp8665
sS'PLINE12T'
p8666
g2
(g3
(S'S4'
p8667
I0
I1
tp8668
Rp8669
(I3
S'|'
p8670
NNNI4
I1
I0
tp8671
bS'DEGF'
p8672
tp8673
Rp8674
sS'AIRU2VFT'
p8675
g2
(g3
(S'S4'
p8676
I0
I1
tp8677
Rp8678
(I3
S'|'
p8679
NNNI4
I1
I0
tp8680
bS'DEGF'
p8681
tp8682
Rp8683
sS'EOESAT1C'
p8684
g2
(g3
(S'S4'
p8685
I0
I1
tp8686
Rp8687
(I3
S'|'
p8688
NNNI4
I1
I0
tp8689
bS'DEGF'
p8690
tp8691
Rp8692
sS'C28VMONB'
p8693
g2
(g3
(S'S1'
p8694
I0
I1
tp8695
Rp8696
(I3
S'|'
p8697
NNNI1
I1
I0
tp8698
bg63
tp8699
Rp8700
sS'AOADBCH2A_NBG'
p8701
g2
(g3
(S'S3'
p8702
I0
I1
tp8703
Rp8704
(I3
S'|'
p8705
NNNI3
I1
I0
tp8706
bS'DEG'
p8707
tp8708
Rp8709
sS'AOADACH2A_PCAD'
p8710
g2
(g3
(S'S3'
p8711
I0
I1
tp8712
Rp8713
(I3
S'|'
p8714
NNNI3
I1
I0
tp8715
bS'DEG'
p8716
tp8717
Rp8718
sS'3TSPZDET'
p8719
g2
(g3
(S'S4'
p8720
I0
I1
tp8721
Rp8722
(I3
S'|'
p8723
NNNI4
I1
I0
tp8724
bS'DEGC'
p8725
tp8726
Rp8727
sS'AORWINT5'
p8728
g2
(g3
(S'S4'
p8729
I0
I1
tp8730
Rp8731
(I3
S'|'
p8732
NNNI4
I1
I0
tp8733
bS'MSEC'
p8734
tp8735
Rp8736
sS'TPYSADA'
p8737
g2
(g3
(S'S4'
p8738
I0
I1
tp8739
Rp8740
(I3
S'|'
p8741
NNNI4
I1
I0
tp8742
bS'DEGF'
p8743
tp8744
Rp8745
sS'EORTDMN15D'
p8746
g2
(g3
(S'S4'
p8747
I0
I1
tp8748
Rp8749
(I3
S'|'
p8750
NNNI4
I1
I0
tp8751
bS'DEGF'
p8752
tp8753
Rp8754
sS'PLAED4DT'
p8755
g2
(g3
(S'S4'
p8756
I0
I1
tp8757
Rp8758
(I3
S'|'
p8759
NNNI4
I1
I0
tp8760
bS'DEGF'
p8761
tp8762
Rp8763
sS'PHETANKP'
p8764
g2
(g3
(S'S4'
p8765
I0
I1
tp8766
Rp8767
(I3
S'|'
p8768
NNNI4
I1
I0
tp8769
bS'PSIA'
p8770
tp8771
Rp8772
sS'OOBTHR14_WIDE'
p8773
g2
(g3
(S'S4'
p8774
I0
I1
tp8775
Rp8776
(I3
S'|'
p8777
NNNI4
I1
I0
tp8778
bS'DEGF'
p8779
tp8780
Rp8781
sS'PLINE08T'
p8782
g2
(g3
(S'S4'
p8783
I0
I1
tp8784
Rp8785
(I3
S'|'
p8786
NNNI4
I1
I0
tp8787
bS'DEGF'
p8788
tp8789
Rp8790
sS'OOBTHR49_WIDE'
p8791
g2
(g3
(S'S4'
p8792
I0
I1
tp8793
Rp8794
(I3
S'|'
p8795
NNNI4
I1
I0
tp8796
bS'DEGF'
p8797
tp8798
Rp8799
sS'POLINE01T'
p8800
g2
(g3
(S'S4'
p8801
I0
I1
tp8802
Rp8803
(I3
S'|'
p8804
NNNI4
I1
I0
tp8805
bS'DEGF'
p8806
tp8807
Rp8808
sS'TPC_FSSE'
p8809
g2
(g3
(S'S4'
p8810
I0
I1
tp8811
Rp8812
(I3
S'|'
p8813
NNNI4
I1
I0
tp8814
bS'DEGF'
p8815
tp8816
Rp8817
sS'OHRTHR27_WIDE'
p8818
g2
(g3
(S'S4'
p8819
I0
I1
tp8820
Rp8821
(I3
S'|'
p8822
NNNI4
I1
I0
tp8823
bS'DEGF'
p8824
tp8825
Rp8826
sS'AFLC12BI'
p8827
g2
(g3
(S'S4'
p8828
I0
I1
tp8829
Rp8830
(I3
S'|'
p8831
NNNI4
I1
I0
tp8832
bS'MAMP'
p8833
tp8834
Rp8835
sS'CIUA5V'
p8836
g2
(g3
(S'S1'
p8837
I0
I1
tp8838
Rp8839
(I3
S'|'
p8840
NNNI1
I1
I0
tp8841
bg63
tp8842
Rp8843
sS'AFLC14AI'
p8844
g2
(g3
(S'S4'
p8845
I0
I1
tp8846
Rp8847
(I3
S'|'
p8848
NNNI4
I1
I0
tp8849
bS'MAMP'
p8850
tp8851
Rp8852
sS'TSCIUSF1'
p8853
g2
(g3
(S'S4'
p8854
I0
I1
tp8855
Rp8856
(I3
S'|'
p8857
NNNI4
I1
I0
tp8858
bS'DEGF'
p8859
tp8860
Rp8861
sS'3FAPSAT'
p8862
g2
(g3
(S'S4'
p8863
I0
I1
tp8864
Rp8865
(I3
S'|'
p8866
NNNI4
I1
I0
tp8867
bS'DEGC'
p8868
tp8869
Rp8870
sS'AOMANANG'
p8871
g2
(g3
(S'S3'
p8872
I0
I1
tp8873
Rp8874
(I3
S'|'
p8875
NNNI3
I1
I0
tp8876
bS'RAD'
p8877
tp8878
Rp8879
sS'3TTRALCT'
p8880
g2
(g3
(S'S4'
p8881
I0
I1
tp8882
Rp8883
(I3
S'|'
p8884
NNNI4
I1
I0
tp8885
bS'DEGC'
p8886
tp8887
Rp8888
sS'2P15VBVL'
p8889
g2
(g3
(S'S3'
p8890
I0
I1
tp8891
Rp8892
(I3
S'|'
p8893
NNNI3
I1
I0
tp8894
bS'VDC'
p8895
tp8896
Rp8897
sS'AORESZ4'
p8898
g2
(g3
(S'S3'
p8899
I0
I1
tp8900
Rp8901
(I3
S'|'
p8902
NNNI3
I1
I0
tp8903
bS'RAD'
p8904
tp8905
Rp8906
sS'AORESZ3'
p8907
g2
(g3
(S'S3'
p8908
I0
I1
tp8909
Rp8910
(I3
S'|'
p8911
NNNI3
I1
I0
tp8912
bS'RAD'
p8913
tp8914
Rp8915
sS'POM2THV1T'
p8916
g2
(g3
(S'S4'
p8917
I0
I1
tp8918
Rp8919
(I3
S'|'
p8920
NNNI4
I1
I0
tp8921
bS'DEGF'
p8922
tp8923
Rp8924
sS'OOBTHR41_WIDE'
p8925
g2
(g3
(S'S4'
p8926
I0
I1
tp8927
Rp8928
(I3
S'|'
p8929
NNNI4
I1
I0
tp8930
bS'DEGF'
p8931
tp8932
Rp8933
sS'AORESZ0'
p8934
g2
(g3
(S'S3'
p8935
I0
I1
tp8936
Rp8937
(I3
S'|'
p8938
NNNI3
I1
I0
tp8939
bS'RAD'
p8940
tp8941
Rp8942
sS'AORWNTQ4'
p8943
g2
(g3
(S'S4'
p8944
I0
I1
tp8945
Rp8946
(I3
S'|'
p8947
NNNI4
I1
I0
tp8948
bS'FTLB'
p8949
tp8950
Rp8951
sS'AORWNTQ5'
p8952
g2
(g3
(S'S4'
p8953
I0
I1
tp8954
Rp8955
(I3
S'|'
p8956
NNNI4
I1
I0
tp8957
bS'FTLB'
p8958
tp8959
Rp8960
sS'AORWNTQ6'
p8961
g2
(g3
(S'S4'
p8962
I0
I1
tp8963
Rp8964
(I3
S'|'
p8965
NNNI4
I1
I0
tp8966
bS'FTLB'
p8967
tp8968
Rp8969
sS'TMP_FEP1_MONG'
p8970
g353
sS'AORWMC6_1'
p8971
g2
(g3
(S'S7'
p8972
I0
I1
tp8973
Rp8974
(I3
S'|'
p8975
NNNI7
I1
I0
tp8976
bS'FTLBSEC'
p8977
tp8978
Rp8979
sS'AORWNTQ1'
p8980
g2
(g3
(S'S4'
p8981
I0
I1
tp8982
Rp8983
(I3
S'|'
p8984
NNNI4
I1
I0
tp8985
bS'FTLB'
p8986
tp8987
Rp8988
sS'AORWNTQ2'
p8989
g2
(g3
(S'S4'
p8990
I0
I1
tp8991
Rp8992
(I3
S'|'
p8993
NNNI4
I1
I0
tp8994
bS'FTLB'
p8995
tp8996
Rp8997
sS'AORWNTQ3'
p8998
g2
(g3
(S'S4'
p8999
I0
I1
tp9000
Rp9001
(I3
S'|'
p9002
NNNI4
I1
I0
tp9003
bS'FTLB'
p9004
tp9005
Rp9006
sS'AOSPBCS4B'
p9007
g2
(g3
(S'S4'
p9008
I0
I1
tp9009
Rp9010
(I3
S'|'
p9011
NNNI4
I1
I0
tp9012
bS'MAMP'
p9013
tp9014
Rp9015
sS'4RT567T'
p9016
g2
(g3
(S'S4'
p9017
I0
I1
tp9018
Rp9019
(I3
S'|'
p9020
NNNI4
I1
I0
tp9021
bS'DEGF'
p9022
tp9023
Rp9024
sS'4PRT1BT'
p9025
g2
(g3
(S'S4'
p9026
I0
I1
tp9027
Rp9028
(I3
S'|'
p9029
NNNI4
I1
I0
tp9030
bS'DEGF'
p9031
tp9032
Rp9033
sS'OHRTHR09_WIDE'
p9034
g2
(g3
(S'S4'
p9035
I0
I1
tp9036
Rp9037
(I3
S'|'
p9038
NNNI4
I1
I0
tp9039
bS'DEGF'
p9040
tp9041
Rp9042
sS'6RATE2'
p9043
g2
(g3
(S'S5'
p9044
I0
I1
tp9045
Rp9046
(I3
S'|'
p9047
NNNI5
I1
I0
tp9048
bS'RADPS'
p9049
tp9050
Rp9051
sS'6RATE3'
p9052
g2
(g3
(S'S5'
p9053
I0
I1
tp9054
Rp9055
(I3
S'|'
p9056
NNNI5
I1
I0
tp9057
bS'RADPS'
p9058
tp9059
Rp9060
sS'6RATE1'
p9061
g2
(g3
(S'S5'
p9062
I0
I1
tp9063
Rp9064
(I3
S'|'
p9065
NNNI5
I1
I0
tp9066
bS'RADPS'
p9067
tp9068
Rp9069
sS'6SAEST1'
p9070
g2
(g3
(S'S3'
p9071
I0
I1
tp9072
Rp9073
(I3
S'|'
p9074
NNNI3
I1
I0
tp9075
bS'RAD'
p9076
tp9077
Rp9078
sS'AORWMC1'
p9079
g2
(g3
(S'S7'
p9080
I0
I1
tp9081
Rp9082
(I3
S'|'
p9083
NNNI7
I1
I0
tp9084
bS'FTLBSEC'
p9085
tp9086
Rp9087
sS'6SAEST2'
p9088
g2
(g3
(S'S3'
p9089
I0
I1
tp9090
Rp9091
(I3
S'|'
p9092
NNNI3
I1
I0
tp9093
bS'RAD'
p9094
tp9095
Rp9096
sS'AORWMC4'
p9097
g2
(g3
(S'S7'
p9098
I0
I1
tp9099
Rp9100
(I3
S'|'
p9101
NNNI7
I1
I0
tp9102
bS'FTLBSEC'
p9103
tp9104
Rp9105
sS'AORWMC5'
p9106
g2
(g3
(S'S7'
p9107
I0
I1
tp9108
Rp9109
(I3
S'|'
p9110
NNNI7
I1
I0
tp9111
bS'FTLBSEC'
p9112
tp9113
Rp9114
sS'6ALPANG'
p9115
g2
(g3
(S'S3'
p9116
I0
I1
tp9117
Rp9118
(I3
S'|'
p9119
NNNI3
I1
I0
tp9120
bS'DEG'
p9121
tp9122
Rp9123
sS'TB1T2'
p9124
g2
(g3
(S'S4'
p9125
I0
I1
tp9126
Rp9127
(I3
S'|'
p9128
NNNI4
I1
I0
tp9129
bS'DEGF'
p9130
tp9131
Rp9132
sS'PM1THV2T'
p9133
g2
(g3
(S'S4'
p9134
I0
I1
tp9135
Rp9136
(I3
S'|'
p9137
NNNI4
I1
I0
tp9138
bS'DEGF'
p9139
tp9140
Rp9141
sS'EB3DI'
p9142
g2
(g3
(S'S3'
p9143
I0
I1
tp9144
Rp9145
(I3
S'|'
p9146
NNNI3
I1
I0
tp9147
bS'AMP'
p9148
tp9149
Rp9150
sS'OHRTHR20_WIDE'
p9151
g2
(g3
(S'S4'
p9152
I0
I1
tp9153
Rp9154
(I3
S'|'
p9155
NNNI4
I1
I0
tp9156
bS'DEGF'
p9157
tp9158
Rp9159
sS'OHRTHR50_WIDE'
p9160
g2
(g3
(S'S4'
p9161
I0
I1
tp9162
Rp9163
(I3
S'|'
p9164
NNNI4
I1
I0
tp9165
bS'DEGF'
p9166
tp9167
Rp9168
sS'AOSCPOS1'
p9169
g2
(g3
(S'S2'
p9170
I0
I1
tp9171
Rp9172
(I3
S'|'
p9173
NNNI2
I1
I0
tp9174
bS'KM'
p9175
tp9176
Rp9177
sS'AOSCPOS2'
p9178
g2
(g3
(S'S2'
p9179
I0
I1
tp9180
Rp9181
(I3
S'|'
p9182
NNNI2
I1
I0
tp9183
bS'KM'
p9184
tp9185
Rp9186
sS'4RT569T'
p9187
g2
(g3
(S'S4'
p9188
I0
I1
tp9189
Rp9190
(I3
S'|'
p9191
NNNI4
I1
I0
tp9192
bS'DEGF'
p9193
tp9194
Rp9195
sS'4RT588T'
p9196
g2
(g3
(S'S4'
p9197
I0
I1
tp9198
Rp9199
(I3
S'|'
p9200
NNNI4
I1
I0
tp9201
bS'DEGF'
p9202
tp9203
Rp9204
sS'PCM01T'
p9205
g2
(g3
(S'S4'
p9206
I0
I1
tp9207
Rp9208
(I3
S'|'
p9209
NNNI4
I1
I0
tp9210
bS'DEGF'
p9211
tp9212
Rp9213
sS'4RT596T'
p9214
g2
(g3
(S'S4'
p9215
I0
I1
tp9216
Rp9217
(I3
S'|'
p9218
NNNI4
I1
I0
tp9219
bS'DEGF'
p9220
tp9221
Rp9222
sS'TPCP_RW2'
p9223
g2
(g3
(S'S4'
p9224
I0
I1
tp9225
Rp9226
(I3
S'|'
p9227
NNNI4
I1
I0
tp9228
bS'DEGF'
p9229
tp9230
Rp9231
sS'6SINTER3'
p9232
g2
(g3
(S'S3'
p9233
I0
I1
tp9234
Rp9235
(I3
S'|'
p9236
NNNI3
I1
I0
tp9237
bS'RAD'
p9238
tp9239
Rp9240
sS'AI1AX1Y'
p9241
g2
(g3
(S'S5'
p9242
I0
I1
tp9243
Rp9244
(I3
S'|'
p9245
NNNI5
I1
I0
tp9246
bS'DEGPS'
p9247
tp9248
Rp9249
sS'6SINTER1'
p9250
g2
(g3
(S'S3'
p9251
I0
I1
tp9252
Rp9253
(I3
S'|'
p9254
NNNI3
I1
I0
tp9255
bS'RAD'
p9256
tp9257
Rp9258
sS'OOBTHR52'
p9259
g2
(g3
(S'S4'
p9260
I0
I1
tp9261
Rp9262
(I3
S'|'
p9263
NNNI4
I1
I0
tp9264
bS'DEGF'
p9265
tp9266
Rp9267
sS'OOBTHR55'
p9268
g2
(g3
(S'S4'
p9269
I0
I1
tp9270
Rp9271
(I3
S'|'
p9272
NNNI4
I1
I0
tp9273
bS'DEGF'
p9274
tp9275
Rp9276
sS'EORTDMN13D'
p9277
g2
(g3
(S'S4'
p9278
I0
I1
tp9279
Rp9280
(I3
S'|'
p9281
NNNI4
I1
I0
tp9282
bS'DEGF'
p9283
tp9284
Rp9285
sS'OOBTHR57'
p9286
g2
(g3
(S'S4'
p9287
I0
I1
tp9288
Rp9289
(I3
S'|'
p9290
NNNI4
I1
I0
tp9291
bS'DEGF'
p9292
tp9293
Rp9294
sS'OOBTHR56'
p9295
g2
(g3
(S'S4'
p9296
I0
I1
tp9297
Rp9298
(I3
S'|'
p9299
NNNI4
I1
I0
tp9300
bS'DEGF'
p9301
tp9302
Rp9303
sS'OOBTHR59'
p9304
g2
(g3
(S'S4'
p9305
I0
I1
tp9306
Rp9307
(I3
S'|'
p9308
NNNI4
I1
I0
tp9309
bS'DEGF'
p9310
tp9311
Rp9312
sS'OOBTHR58'
p9313
g2
(g3
(S'S4'
p9314
I0
I1
tp9315
Rp9316
(I3
S'|'
p9317
NNNI4
I1
I0
tp9318
bS'DEGF'
p9319
tp9320
Rp9321
sS'PLINE14T'
p9322
g2
(g3
(S'S4'
p9323
I0
I1
tp9324
Rp9325
(I3
S'|'
p9326
NNNI4
I1
I0
tp9327
bS'DEGF'
p9328
tp9329
Rp9330
sS'1SSMYT'
p9331
g2
(g3
(S'S4'
p9332
I0
I1
tp9333
Rp9334
(I3
S'|'
p9335
NNNI4
I1
I0
tp9336
bS'DEGC'
p9337
tp9338
Rp9339
sS'CTXBV'
p9340
g2
(g3
(S'S1'
p9341
I0
I1
tp9342
Rp9343
(I3
S'|'
p9344
NNNI1
I1
I0
tp9345
bg63
tp9346
Rp9347
sS'4PRT2BT'
p9348
g2
(g3
(S'S4'
p9349
I0
I1
tp9350
Rp9351
(I3
S'|'
p9352
NNNI4
I1
I0
tp9353
bS'DEGF'
p9354
tp9355
Rp9356
sS'ARWA6BT'
p9357
g2
(g3
(S'S4'
p9358
I0
I1
tp9359
Rp9360
(I3
S'|'
p9361
NNNI4
I1
I0
tp9362
bS'DEGF'
p9363
tp9364
Rp9365
sS'4RT575T'
p9366
g2
(g3
(S'S4'
p9367
I0
I1
tp9368
Rp9369
(I3
S'|'
p9370
NNNI4
I1
I0
tp9371
bS'DEGF'
p9372
tp9373
Rp9374
sS'CPA1BPT'
p9375
g2
(g3
(S'S4'
p9376
I0
I1
tp9377
Rp9378
(I3
S'|'
p9379
NNNI4
I1
I0
tp9380
bS'DEGF'
p9381
tp9382
Rp9383
sS'PM4THV2T'
p9384
g2
(g3
(S'S4'
p9385
I0
I1
tp9386
Rp9387
(I3
S'|'
p9388
NNNI4
I1
I0
tp9389
bS'DEGF'
p9390
tp9391
Rp9392
sS'TPC_PAN'
p9393
g2
(g3
(S'S4'
p9394
I0
I1
tp9395
Rp9396
(I3
S'|'
p9397
NNNI4
I1
I0
tp9398
bS'DEGF'
p9399
tp9400
Rp9401
sS'2PMT1T'
p9402
g2
(g3
(S'S4'
p9403
I0
I1
tp9404
Rp9405
(I3
S'|'
p9406
NNNI4
I1
I0
tp9407
bS'DEGC'
p9408
tp9409
Rp9410
sS'CIUA15V'
p9411
g2
(g3
(S'S1'
p9412
I0
I1
tp9413
Rp9414
(I3
S'|'
p9415
NNNI1
I1
I0
tp9416
bg63
tp9417
Rp9418
sS'1DPAMZT'
p9419
g2
(g3
(S'S4'
p9420
I0
I1
tp9421
Rp9422
(I3
S'|'
p9423
NNNI4
I1
I0
tp9424
bS'DEGC'
p9425
tp9426
Rp9427
sS'EIACVBV'
p9428
g2
(g3
(S'S1'
p9429
I0
I1
tp9430
Rp9431
(I3
S'|'
p9432
NNNI1
I1
I0
tp9433
bg63
tp9434
Rp9435
sS'4PRTBV'
p9436
g2
(g3
(S'S3'
p9437
I0
I1
tp9438
Rp9439
(I3
S'|'
p9440
NNNI3
I1
I0
tp9441
bS'VDC'
p9442
tp9443
Rp9444
sS'4RT703T'
p9445
g2
(g3
(S'S4'
p9446
I0
I1
tp9447
Rp9448
(I3
S'|'
p9449
NNNI4
I1
I0
tp9450
bS'DEGF'
p9451
tp9452
Rp9453
sS'1DAHHBVO'
p9454
g2
(g3
(S'S1'
p9455
I0
I1
tp9456
Rp9457
(I3
S'|'
p9458
NNNI1
I1
I0
tp9459
bg63
tp9460
Rp9461
sS'1DEP1AVO'
p9462
g2
(g3
(S'S1'
p9463
I0
I1
tp9464
Rp9465
(I3
S'|'
p9466
NNNI1
I1
I0
tp9467
bg63
tp9468
Rp9469
sS'1VAHOBT'
p9470
g2
(g3
(S'S4'
p9471
I0
I1
tp9472
Rp9473
(I3
S'|'
p9474
NNNI4
I1
I0
tp9475
bS'DEGC'
p9476
tp9477
Rp9478
sS'1MAHOBT'
p9479
g2
(g3
(S'S4'
p9480
I0
I1
tp9481
Rp9482
(I3
S'|'
p9483
NNNI4
I1
I0
tp9484
bS'DEGC'
p9485
tp9486
Rp9487
sS'CXPNAIT'
p9488
g2
(g3
(S'S4'
p9489
I0
I1
tp9490
Rp9491
(I3
S'|'
p9492
NNNI4
I1
I0
tp9493
bS'DEGF'
p9494
tp9495
Rp9496
sS'4ALL1AT'
p9497
g2
(g3
(S'S4'
p9498
I0
I1
tp9499
Rp9500
(I3
S'|'
p9501
NNNI4
I1
I0
tp9502
bS'DEGF'
p9503
tp9504
Rp9505
sS'CRXBLS'
p9506
g2
(g3
(S'S3'
p9507
I0
I1
tp9508
Rp9509
(I3
S'|'
p9510
NNNI3
I1
I0
tp9511
bS'KHZ'
p9512
tp9513
Rp9514
sS'PMTANK1T'
p9515
g2
(g3
(S'S4'
p9516
I0
I1
tp9517
Rp9518
(I3
S'|'
p9519
NNNI4
I1
I0
tp9520
bS'DEGF'
p9521
tp9522
Rp9523
sS'OHRTHR49'
p9524
g2
(g3
(S'S4'
p9525
I0
I1
tp9526
Rp9527
(I3
S'|'
p9528
NNNI4
I1
I0
tp9529
bS'DEGF'
p9530
tp9531
Rp9532
sS'POLINE12T'
p9533
g2
(g3
(S'S4'
p9534
I0
I1
tp9535
Rp9536
(I3
S'|'
p9537
NNNI4
I1
I0
tp9538
bS'DEGF'
p9539
tp9540
Rp9541
sS'EOEB3DIC'
p9542
g2
(g3
(S'S3'
p9543
I0
I1
tp9544
Rp9545
(I3
S'|'
p9546
NNNI3
I1
I0
tp9547
bS'AMP'
p9548
tp9549
Rp9550
sS'OHRTHR45'
p9551
g2
(g3
(S'S4'
p9552
I0
I1
tp9553
Rp9554
(I3
S'|'
p9555
NNNI4
I1
I0
tp9556
bS'DEGF'
p9557
tp9558
Rp9559
sS'OHRTHR44'
p9560
g2
(g3
(S'S4'
p9561
I0
I1
tp9562
Rp9563
(I3
S'|'
p9564
NNNI4
I1
I0
tp9565
bS'DEGF'
p9566
tp9567
Rp9568
sS'OHRTHR47'
p9569
g2
(g3
(S'S4'
p9570
I0
I1
tp9571
Rp9572
(I3
S'|'
p9573
NNNI4
I1
I0
tp9574
bS'DEGF'
p9575
tp9576
Rp9577
sS'OHRTHR46'
p9578
g2
(g3
(S'S4'
p9579
I0
I1
tp9580
Rp9581
(I3
S'|'
p9582
NNNI4
I1
I0
tp9583
bS'DEGF'
p9584
tp9585
Rp9586
sS'AOADACH1A_NBG'
p9587
g2
(g3
(S'S3'
p9588
I0
I1
tp9589
Rp9590
(I3
S'|'
p9591
NNNI3
I1
I0
tp9592
bS'DEG'
p9593
tp9594
Rp9595
sS'OHRTHR40'
p9596
g2
(g3
(S'S4'
p9597
I0
I1
tp9598
Rp9599
(I3
S'|'
p9600
NNNI4
I1
I0
tp9601
bS'DEGF'
p9602
tp9603
Rp9604
sS'OHRTHR43'
p9605
g2
(g3
(S'S4'
p9606
I0
I1
tp9607
Rp9608
(I3
S'|'
p9609
NNNI4
I1
I0
tp9610
bS'DEGF'
p9611
tp9612
Rp9613
sS'OHRTHR42'
p9614
g2
(g3
(S'S4'
p9615
I0
I1
tp9616
Rp9617
(I3
S'|'
p9618
NNNI4
I1
I0
tp9619
bS'DEGF'
p9620
tp9621
Rp9622
sS'AWD2TQI'
p9623
g2
(g3
(S'S3'
p9624
I0
I1
tp9625
Rp9626
(I3
S'|'
p9627
NNNI3
I1
I0
tp9628
bS'AMP'
p9629
tp9630
Rp9631
sS'4LPOSARO'
p9632
g2
(g3
(S'S3'
p9633
I0
I1
tp9634
Rp9635
(I3
S'|'
p9636
NNNI3
I1
I0
tp9637
bS'DEG'
p9638
tp9639
Rp9640
sS'PCM03T'
p9641
g2
(g3
(S'S4'
p9642
I0
I1
tp9643
Rp9644
(I3
S'|'
p9645
NNNI4
I1
I0
tp9646
bS'DEGF'
p9647
tp9648
Rp9649
sS'EOEB1DIC'
p9650
g2
(g3
(S'S3'
p9651
I0
I1
tp9652
Rp9653
(I3
S'|'
p9654
NNNI3
I1
I0
tp9655
bS'AMP'
p9656
tp9657
Rp9658
sS'TMP_FEP0_MONG'
p9659
g353
sS'62RCSTMR'
p9660
g2
(g3
(S'S3'
p9661
I0
I1
tp9662
Rp9663
(I3
S'|'
p9664
NNNI3
I1
I0
tp9665
bS'MIN'
p9666
tp9667
Rp9668
sS'POR2TV01T'
p9669
g2
(g3
(S'S4'
p9670
I0
I1
tp9671
Rp9672
(I3
S'|'
p9673
NNNI4
I1
I0
tp9674
bS'DEGF'
p9675
tp9676
Rp9677
sS'TASPPCU'
p9678
g2
(g3
(S'S4'
p9679
I0
I1
tp9680
Rp9681
(I3
S'|'
p9682
NNNI4
I1
I0
tp9683
bS'DEGF'
p9684
tp9685
Rp9686
sS'PCM04T'
p9687
g2
(g3
(S'S4'
p9688
I0
I1
tp9689
Rp9690
(I3
S'|'
p9691
NNNI4
I1
I0
tp9692
bS'DEGF'
p9693
tp9694
Rp9695
sS'64RCSTMR'
p9696
g2
(g3
(S'S3'
p9697
I0
I1
tp9698
Rp9699
(I3
S'|'
p9700
NNNI3
I1
I0
tp9701
bS'MIN'
p9702
tp9703
Rp9704
sS'4RT708T'
p9705
g2
(g3
(S'S4'
p9706
I0
I1
tp9707
Rp9708
(I3
S'|'
p9709
NNNI4
I1
I0
tp9710
bS'DEGF'
p9711
tp9712
Rp9713
sS'OHRTHR57_WIDE'
p9714
g2
(g3
(S'S4'
p9715
I0
I1
tp9716
Rp9717
(I3
S'|'
p9718
NNNI4
I1
I0
tp9719
bS'DEGF'
p9720
tp9721
Rp9722
sS'OOBAGRD6'
p9723
g2
(g3
(S'S4'
p9724
I0
I1
tp9725
Rp9726
(I3
S'|'
p9727
NNNI4
I1
I0
tp9728
bS'DEGF'
p9729
tp9730
Rp9731
sS'TB1T3'
p9732
g2
(g3
(S'S4'
p9733
I0
I1
tp9734
Rp9735
(I3
S'|'
p9736
NNNI4
I1
I0
tp9737
bS'DEGF'
p9738
tp9739
Rp9740
sS'TEP_EIA'
p9741
g2
(g3
(S'S4'
p9742
I0
I1
tp9743
Rp9744
(I3
S'|'
p9745
NNNI4
I1
I0
tp9746
bS'DEGF'
p9747
tp9748
Rp9749
sS'TB1T1'
p9750
g2
(g3
(S'S4'
p9751
I0
I1
tp9752
Rp9753
(I3
S'|'
p9754
NNNI4
I1
I0
tp9755
bS'DEGF'
p9756
tp9757
Rp9758
sS'OOBAGRD3'
p9759
g2
(g3
(S'S4'
p9760
I0
I1
tp9761
Rp9762
(I3
S'|'
p9763
NNNI4
I1
I0
tp9764
bS'DEGF'
p9765
tp9766
Rp9767
sS'PLAED1FT'
p9768
g2
(g3
(S'S4'
p9769
I0
I1
tp9770
Rp9771
(I3
S'|'
p9772
NNNI4
I1
I0
tp9773
bS'DEGF'
p9774
tp9775
Rp9776
sS'EB3CI'
p9777
g2
(g3
(S'S3'
p9778
I0
I1
tp9779
Rp9780
(I3
S'|'
p9781
NNNI3
I1
I0
tp9782
bS'AMP'
p9783
tp9784
Rp9785
sS'AORESZ1_1'
p9786
g2
(g3
(S'S3'
p9787
I0
I1
tp9788
Rp9789
(I3
S'|'
p9790
NNNI3
I1
I0
tp9791
bS'RAD'
p9792
tp9793
Rp9794
sS'TATECDPT'
p9795
g2
(g3
(S'S4'
p9796
I0
I1
tp9797
Rp9798
(I3
S'|'
p9799
NNNI4
I1
I0
tp9800
bS'DEGF'
p9801
tp9802
Rp9803
sS'OOBTHR30_WIDE'
p9804
g2
(g3
(S'S4'
p9805
I0
I1
tp9806
Rp9807
(I3
S'|'
p9808
NNNI4
I1
I0
tp9809
bS'DEGF'
p9810
tp9811
Rp9812
sS'4RT581T'
p9813
g2
(g3
(S'S4'
p9814
I0
I1
tp9815
Rp9816
(I3
S'|'
p9817
NNNI4
I1
I0
tp9818
bS'DEGF'
p9819
tp9820
Rp9821
sS'1HOPRBPR'
p9822
g2
(g3
(S'S4'
p9823
I0
I1
tp9824
Rp9825
(I3
S'|'
p9826
NNNI4
I1
I0
tp9827
bS'TORR'
p9828
tp9829
Rp9830
sS'1CRBT'
p9831
g2
(g3
(S'S4'
p9832
I0
I1
tp9833
Rp9834
(I3
S'|'
p9835
NNNI4
I1
I0
tp9836
bS'DEGC'
p9837
tp9838
Rp9839
sS'OHRTHR26'
p9840
g2
(g3
(S'S4'
p9841
I0
I1
tp9842
Rp9843
(I3
S'|'
p9844
NNNI4
I1
I0
tp9845
bS'DEGF'
p9846
tp9847
Rp9848
sS'AWD6TQI'
p9849
g2
(g3
(S'S3'
p9850
I0
I1
tp9851
Rp9852
(I3
S'|'
p9853
NNNI3
I1
I0
tp9854
bS'AMP'
p9855
tp9856
Rp9857
s.