(dp0
S'AORWPI4B'
p1
cnumpy.core.multiarray
scalar
p2
(cnumpy
dtype
p3
(S'S4'
p4
I0
I1
tp5
Rp6
(I3
S'|'
p7
NNNI4
I1
I0
tp8
bS'MSEC'
p9
tp10
Rp11
sS'1DEAMZT'
p12
g2
(g3
(S'S4'
p13
I0
I1
tp14
Rp15
(I3
S'|'
p16
NNNI4
I1
I0
tp17
bS'DEGC'
p18
tp19
Rp20
sS'PLINE16T'
p21
g2
(g3
(S'S4'
p22
I0
I1
tp23
Rp24
(I3
S'|'
p25
NNNI4
I1
I0
tp26
bS'DEGF'
p27
tp28
Rp29
sS'EORTDMN18D'
p30
g2
(g3
(S'S4'
p31
I0
I1
tp32
Rp33
(I3
S'|'
p34
NNNI4
I1
I0
tp35
bS'DEGF'
p36
tp37
Rp38
sS'CTXAV'
p39
g2
(g3
(S'S1'
p40
I0
I1
tp41
Rp42
(I3
S'|'
p43
NNNI1
I1
I0
tp44
bS'V'
p45
tp46
Rp47
sS'TFSPPCM'
p48
g2
(g3
(S'S4'
p49
I0
I1
tp50
Rp51
(I3
S'|'
p52
NNNI4
I1
I0
tp53
bS'DEGF'
p54
tp55
Rp56
sS'EB1CI'
p57
g2
(g3
(S'S3'
p58
I0
I1
tp59
Rp60
(I3
S'|'
p61
NNNI3
I1
I0
tp62
bS'AMP'
p63
tp64
Rp65
sS'OHRTHR38'
p66
g2
(g3
(S'S4'
p67
I0
I1
tp68
Rp69
(I3
S'|'
p70
NNNI4
I1
I0
tp71
bS'DEGF'
p72
tp73
Rp74
sS'OHRTHR39'
p75
g2
(g3
(S'S4'
p76
I0
I1
tp77
Rp78
(I3
S'|'
p79
NNNI4
I1
I0
tp80
bS'DEGF'
p81
tp82
Rp83
sS'TFSPPCP'
p84
g2
(g3
(S'S4'
p85
I0
I1
tp86
Rp87
(I3
S'|'
p88
NNNI4
I1
I0
tp89
bS'DEGF'
p90
tp91
Rp92
sS'ASPEFSW3B'
p93
g2
(g3
(S'S3'
p94
I0
I1
tp95
Rp96
(I3
S'|'
p97
NNNI3
I1
I0
tp98
bS'DEG'
p99
tp100
Rp101
sS'CUSOAOVN'
p102
g2
(g3
(S'S1'
p103
I0
I1
tp104
Rp105
(I3
S'|'
p106
NNNI1
I1
I0
tp107
bS'W'
p108
tp109
Rp110
sS'OHRTHR30'
p111
g2
(g3
(S'S4'
p112
I0
I1
tp113
Rp114
(I3
S'|'
p115
NNNI4
I1
I0
tp116
bS'DEGF'
p117
tp118
Rp119
sS'OHRTHR31'
p120
g2
(g3
(S'S4'
p121
I0
I1
tp122
Rp123
(I3
S'|'
p124
NNNI4
I1
I0
tp125
bS'DEGF'
p126
tp127
Rp128
sS'OHRTHR33'
p129
g2
(g3
(S'S4'
p130
I0
I1
tp131
Rp132
(I3
S'|'
p133
NNNI4
I1
I0
tp134
bS'DEGF'
p135
tp136
Rp137
sS'1DPP0BVO'
p138
g2
(g3
(S'S1'
p139
I0
I1
tp140
Rp141
(I3
S'|'
p142
NNNI1
I1
I0
tp143
bg45
tp144
Rp145
sS'OHRTHR35'
p146
g2
(g3
(S'S4'
p147
I0
I1
tp148
Rp149
(I3
S'|'
p150
NNNI4
I1
I0
tp151
bS'DEGF'
p152
tp153
Rp154
sS'OHRTHR36'
p155
g2
(g3
(S'S4'
p156
I0
I1
tp157
Rp158
(I3
S'|'
p159
NNNI4
I1
I0
tp160
bS'DEGF'
p161
tp162
Rp163
sS'OHRTHR37'
p164
g2
(g3
(S'S4'
p165
I0
I1
tp166
Rp167
(I3
S'|'
p168
NNNI4
I1
I0
tp169
bS'DEGF'
p170
tp171
Rp172
sS'EORTDMN11D'
p173
g2
(g3
(S'S4'
p174
I0
I1
tp175
Rp176
(I3
S'|'
p177
NNNI4
I1
I0
tp178
bS'DEGF'
p179
tp180
Rp181
sS'AFLC11BI'
p182
g2
(g3
(S'S4'
p183
I0
I1
tp184
Rp185
(I3
S'|'
p186
NNNI4
I1
I0
tp187
bS'MAMP'
p188
tp189
Rp190
sS'AORWMC3_1'
p191
g2
(g3
(S'S7'
p192
I0
I1
tp193
Rp194
(I3
S'|'
p195
NNNI7
I1
I0
tp196
bS'FTLBSEC'
p197
tp198
Rp199
sS'PLAED2FT'
p200
g2
(g3
(S'S4'
p201
I0
I1
tp202
Rp203
(I3
S'|'
p204
NNNI4
I1
I0
tp205
bS'DEGF'
p206
tp207
Rp208
sS'TEPHIN'
p209
g2
(g3
(S'S4'
p210
I0
I1
tp211
Rp212
(I3
S'|'
p213
NNNI4
I1
I0
tp214
bS'DEGF'
p215
tp216
Rp217
sS'3TTHRC1T'
p218
g2
(g3
(S'S4'
p219
I0
I1
tp220
Rp221
(I3
S'|'
p222
NNNI4
I1
I0
tp223
bS'DEGC'
p224
tp225
Rp226
sS'PXDM01T'
p227
g2
(g3
(S'S4'
p228
I0
I1
tp229
Rp230
(I3
S'|'
p231
NNNI4
I1
I0
tp232
bS'DEGF'
p233
tp234
Rp235
sS'4RT562T'
p236
g2
(g3
(S'S4'
p237
I0
I1
tp238
Rp239
(I3
S'|'
p240
NNNI4
I1
I0
tp241
bS'DEGF'
p242
tp243
Rp244
sS'4PRT1AT'
p245
g2
(g3
(S'S4'
p246
I0
I1
tp247
Rp248
(I3
S'|'
p249
NNNI4
I1
I0
tp250
bS'DEGF'
p251
tp252
Rp253
sS'TMZP_PY'
p254
g2
(g3
(S'S4'
p255
I0
I1
tp256
Rp257
(I3
S'|'
p258
NNNI4
I1
I0
tp259
bS'DEGF'
p260
tp261
Rp262
sS'4RT710T'
p263
g2
(g3
(S'S4'
p264
I0
I1
tp265
Rp266
(I3
S'|'
p267
NNNI4
I1
I0
tp268
bS'DEGF'
p269
tp270
Rp271
sS'POR2TV01T'
p272
g2
(g3
(S'S4'
p273
I0
I1
tp274
Rp275
(I3
S'|'
p276
NNNI4
I1
I0
tp277
bS'DEGF'
p278
tp279
Rp280
sS'TMP_FEP0_RAM'
p281
S'DEGC'
p282
sS'AOZABR'
p283
g2
(g3
(S'S3'
p284
I0
I1
tp285
Rp286
(I3
S'|'
p287
NNNI3
I1
I0
tp288
bS'RAD'
p289
tp290
Rp291
sS'AORESZ5_1'
p292
g2
(g3
(S'S3'
p293
I0
I1
tp294
Rp295
(I3
S'|'
p296
NNNI3
I1
I0
tp297
bS'RAD'
p298
tp299
Rp300
sS'TB2T3'
p301
g2
(g3
(S'S4'
p302
I0
I1
tp303
Rp304
(I3
S'|'
p305
NNNI4
I1
I0
tp306
bS'DEGF'
p307
tp308
Rp309
sS'TB2T2'
p310
g2
(g3
(S'S4'
p311
I0
I1
tp312
Rp313
(I3
S'|'
p314
NNNI4
I1
I0
tp315
bS'DEGF'
p316
tp317
Rp318
sS'PLINE06T'
p319
g2
(g3
(S'S4'
p320
I0
I1
tp321
Rp322
(I3
S'|'
p323
NNNI4
I1
I0
tp324
bS'DEGF'
p325
tp326
Rp327
sS'AOADBCH1A_PCAD'
p328
g2
(g3
(S'S3'
p329
I0
I1
tp330
Rp331
(I3
S'|'
p332
NNNI3
I1
I0
tp333
bS'DEG'
p334
tp335
Rp336
sS'AORWPI3B'
p337
g2
(g3
(S'S4'
p338
I0
I1
tp339
Rp340
(I3
S'|'
p341
NNNI4
I1
I0
tp342
bS'MSEC'
p343
tp344
Rp345
sS'POR2TV02T'
p346
g2
(g3
(S'S4'
p347
I0
I1
tp348
Rp349
(I3
S'|'
p350
NNNI4
I1
I0
tp351
bS'DEGF'
p352
tp353
Rp354
sS'1DAHAVO'
p355
g2
(g3
(S'S1'
p356
I0
I1
tp357
Rp358
(I3
S'|'
p359
NNNI1
I1
I0
tp360
bg45
tp361
Rp362
sS'PXTANK2T'
p363
g2
(g3
(S'S4'
p364
I0
I1
tp365
Rp366
(I3
S'|'
p367
NNNI4
I1
I0
tp368
bS'DEGF'
p369
tp370
Rp371
sS'3TSMYDPT'
p372
g2
(g3
(S'S4'
p373
I0
I1
tp374
Rp375
(I3
S'|'
p376
NNNI4
I1
I0
tp377
bS'DEGC'
p378
tp379
Rp380
sS'PR1TV02T'
p381
g2
(g3
(S'S4'
p382
I0
I1
tp383
Rp384
(I3
S'|'
p385
NNNI4
I1
I0
tp386
bS'DEGF'
p387
tp388
Rp389
sS'3TTACS1T'
p390
g2
(g3
(S'S4'
p391
I0
I1
tp392
Rp393
(I3
S'|'
p394
NNNI4
I1
I0
tp395
bS'DEGC'
p396
tp397
Rp398
sS'AORESY2_1'
p399
g2
(g3
(S'S3'
p400
I0
I1
tp401
Rp402
(I3
S'|'
p403
NNNI3
I1
I0
tp404
bS'RAD'
p405
tp406
Rp407
sS'PHOFP1T'
p408
g2
(g3
(S'S4'
p409
I0
I1
tp410
Rp411
(I3
S'|'
p412
NNNI4
I1
I0
tp413
bS'DEGF'
p414
tp415
Rp416
sS'4MP5AV'
p417
g2
(g3
(S'S3'
p418
I0
I1
tp419
Rp420
(I3
S'|'
p421
NNNI3
I1
I0
tp422
bS'VDC'
p423
tp424
Rp425
sS'AORTERR2'
p426
g2
(g3
(S'S5'
p427
I0
I1
tp428
Rp429
(I3
S'|'
p430
NNNI5
I1
I0
tp431
bS'RADPS'
p432
tp433
Rp434
sS'CUSOA28V'
p435
g2
(g3
(S'S1'
p436
I0
I1
tp437
Rp438
(I3
S'|'
p439
NNNI1
I1
I0
tp440
bg45
tp441
Rp442
sS'OOBTHR34'
p443
g2
(g3
(S'S4'
p444
I0
I1
tp445
Rp446
(I3
S'|'
p447
NNNI4
I1
I0
tp448
bS'DEGF'
p449
tp450
Rp451
sS'AVACMON'
p452
g2
(g3
(S'S4'
p453
I0
I1
tp454
Rp455
(I3
S'|'
p456
NNNI4
I1
I0
tp457
bS'DEGC'
p458
tp459
Rp460
sS'EOECNV2C'
p461
g2
(g3
(S'S1'
p462
I0
I1
tp463
Rp464
(I3
S'|'
p465
NNNI1
I1
I0
tp466
bg45
tp467
Rp468
sS'OOBTHR33'
p469
g2
(g3
(S'S4'
p470
I0
I1
tp471
Rp472
(I3
S'|'
p473
NNNI4
I1
I0
tp474
bS'DEGF'
p475
tp476
Rp477
sS'ES1P5CV'
p478
g2
(g3
(S'S1'
p479
I0
I1
tp480
Rp481
(I3
S'|'
p482
NNNI1
I1
I0
tp483
bg45
tp484
Rp485
sS'EOESAC1C'
p486
g2
(g3
(S'S3'
p487
I0
I1
tp488
Rp489
(I3
S'|'
p490
NNNI3
I1
I0
tp491
bS'AMP'
p492
tp493
Rp494
sS'OOBTHR18'
p495
g2
(g3
(S'S4'
p496
I0
I1
tp497
Rp498
(I3
S'|'
p499
NNNI4
I1
I0
tp500
bS'DEGF'
p501
tp502
Rp503
sS'PFTANKIP'
p504
g2
(g3
(S'S4'
p505
I0
I1
tp506
Rp507
(I3
S'|'
p508
NNNI4
I1
I0
tp509
bS'PSIA'
p510
tp511
Rp512
sS'OOBTHR15'
p513
g2
(g3
(S'S4'
p514
I0
I1
tp515
Rp516
(I3
S'|'
p517
NNNI4
I1
I0
tp518
bS'DEGF'
p519
tp520
Rp521
sS'OOBTHR14'
p522
g2
(g3
(S'S4'
p523
I0
I1
tp524
Rp525
(I3
S'|'
p526
NNNI4
I1
I0
tp527
bS'DEGF'
p528
tp529
Rp530
sS'OOBTHR17'
p531
g2
(g3
(S'S4'
p532
I0
I1
tp533
Rp534
(I3
S'|'
p535
NNNI4
I1
I0
tp536
bS'DEGF'
p537
tp538
Rp539
sS'OOBTHR30'
p540
g2
(g3
(S'S4'
p541
I0
I1
tp542
Rp543
(I3
S'|'
p544
NNNI4
I1
I0
tp545
bS'DEGF'
p546
tp547
Rp548
sS'OOBTHR11'
p549
g2
(g3
(S'S4'
p550
I0
I1
tp551
Rp552
(I3
S'|'
p553
NNNI4
I1
I0
tp554
bS'DEGF'
p555
tp556
Rp557
sS'OOBTHR10'
p558
g2
(g3
(S'S4'
p559
I0
I1
tp560
Rp561
(I3
S'|'
p562
NNNI4
I1
I0
tp563
bS'DEGF'
p564
tp565
Rp566
sS'ECNV2V'
p567
g2
(g3
(S'S1'
p568
I0
I1
tp569
Rp570
(I3
S'|'
p571
NNNI1
I1
I0
tp572
bg45
tp573
Rp574
sS'OOBTHR12'
p575
g2
(g3
(S'S4'
p576
I0
I1
tp577
Rp578
(I3
S'|'
p579
NNNI4
I1
I0
tp580
bS'DEGF'
p581
tp582
Rp583
sS'EOEB3CIC'
p584
g2
(g3
(S'S3'
p585
I0
I1
tp586
Rp587
(I3
S'|'
p588
NNNI3
I1
I0
tp589
bS'AMP'
p590
tp591
Rp592
sS'CUSOBOVN'
p593
g2
(g3
(S'S1'
p594
I0
I1
tp595
Rp596
(I3
S'|'
p597
NNNI1
I1
I0
tp598
bg108
tp599
Rp600
sS'EOEB1CIC'
p601
g2
(g3
(S'S3'
p602
I0
I1
tp603
Rp604
(I3
S'|'
p605
NNNI3
I1
I0
tp606
bS'AMP'
p607
tp608
Rp609
sS'TB3T1'
p610
g2
(g3
(S'S4'
p611
I0
I1
tp612
Rp613
(I3
S'|'
p614
NNNI4
I1
I0
tp615
bS'DEGF'
p616
tp617
Rp618
sS'4HLL1AT'
p619
g2
(g3
(S'S4'
p620
I0
I1
tp621
Rp622
(I3
S'|'
p623
NNNI4
I1
I0
tp624
bS'DEGF'
p625
tp626
Rp627
sS'AOSCPOS3'
p628
g2
(g3
(S'S2'
p629
I0
I1
tp630
Rp631
(I3
S'|'
p632
NNNI2
I1
I0
tp633
bS'KM'
p634
tp635
Rp636
sS'AACCCDRT'
p637
g2
(g3
(S'S4'
p638
I0
I1
tp639
Rp640
(I3
S'|'
p641
NNNI4
I1
I0
tp642
bS'DEGF'
p643
tp644
Rp645
sS'ESAMYI'
p646
g2
(g3
(S'S3'
p647
I0
I1
tp648
Rp649
(I3
S'|'
p650
NNNI3
I1
I0
tp651
bS'AMP'
p652
tp653
Rp654
sS'TMYSADA'
p655
g2
(g3
(S'S4'
p656
I0
I1
tp657
Rp658
(I3
S'|'
p659
NNNI4
I1
I0
tp660
bS'DEGF'
p661
tp662
Rp663
sS'AACH2T'
p664
g2
(g3
(S'S4'
p665
I0
I1
tp666
Rp667
(I3
S'|'
p668
NNNI4
I1
I0
tp669
bS'DEGF'
p670
tp671
Rp672
sS'OHRTHR34'
p673
g2
(g3
(S'S4'
p674
I0
I1
tp675
Rp676
(I3
S'|'
p677
NNNI4
I1
I0
tp678
bS'DEGF'
p679
tp680
Rp681
sS'AFLCA5AI'
p682
g2
(g3
(S'S4'
p683
I0
I1
tp684
Rp685
(I3
S'|'
p686
NNNI4
I1
I0
tp687
bS'MAMP'
p688
tp689
Rp690
sS'3TSMXSPT'
p691
g2
(g3
(S'S4'
p692
I0
I1
tp693
Rp694
(I3
S'|'
p695
NNNI4
I1
I0
tp696
bS'DEGC'
p697
tp698
Rp699
sS'AORESY3'
p700
g2
(g3
(S'S3'
p701
I0
I1
tp702
Rp703
(I3
S'|'
p704
NNNI3
I1
I0
tp705
bS'RAD'
p706
tp707
Rp708
sS'CVEER'
p709
g2
(g3
(S'S1'
p710
I0
I1
tp711
Rp712
(I3
S'|'
p713
NNNI1
I1
I0
tp714
bg45
tp715
Rp716
sS'4RT584T'
p717
g2
(g3
(S'S4'
p718
I0
I1
tp719
Rp720
(I3
S'|'
p721
NNNI4
I1
I0
tp722
bS'DEGF'
p723
tp724
Rp725
sS'OOBTHR13'
p726
g2
(g3
(S'S4'
p727
I0
I1
tp728
Rp729
(I3
S'|'
p730
NNNI4
I1
I0
tp731
bS'DEGF'
p732
tp733
Rp734
sS'2P05VBVL'
p735
g2
(g3
(S'S3'
p736
I0
I1
tp737
Rp738
(I3
S'|'
p739
NNNI3
I1
I0
tp740
bS'VDC'
p741
tp742
Rp743
sS'PLAED3IT'
p744
g2
(g3
(S'S4'
p745
I0
I1
tp746
Rp747
(I3
S'|'
p748
NNNI4
I1
I0
tp749
bS'DEGF'
p750
tp751
Rp752
sS'EORTDMN22D'
p753
g2
(g3
(S'S4'
p754
I0
I1
tp755
Rp756
(I3
S'|'
p757
NNNI4
I1
I0
tp758
bS'DEGF'
p759
tp760
Rp761
sS'4RT592T'
p762
g2
(g3
(S'S4'
p763
I0
I1
tp764
Rp765
(I3
S'|'
p766
NNNI4
I1
I0
tp767
bS'DEGF'
p768
tp769
Rp770
sS'PLAED4AT'
p771
g2
(g3
(S'S4'
p772
I0
I1
tp773
Rp774
(I3
S'|'
p775
NNNI4
I1
I0
tp776
bS'DEGF'
p777
tp778
Rp779
sS'AIRU1BT'
p780
g2
(g3
(S'S4'
p781
I0
I1
tp782
Rp783
(I3
S'|'
p784
NNNI4
I1
I0
tp785
bS'DEGF'
p786
tp787
Rp788
sS'PR2TV01T'
p789
g2
(g3
(S'S4'
p790
I0
I1
tp791
Rp792
(I3
S'|'
p793
NNNI4
I1
I0
tp794
bS'DEGF'
p795
tp796
Rp797
sS'TCM_SSR1'
p798
g2
(g3
(S'S4'
p799
I0
I1
tp800
Rp801
(I3
S'|'
p802
NNNI4
I1
I0
tp803
bS'DEGF'
p804
tp805
Rp806
sS'PFTANK2T'
p807
g2
(g3
(S'S4'
p808
I0
I1
tp809
Rp810
(I3
S'|'
p811
NNNI4
I1
I0
tp812
bS'DEGF'
p813
tp814
Rp815
sS'POLINE04T'
p816
g2
(g3
(S'S4'
p817
I0
I1
tp818
Rp819
(I3
S'|'
p820
NNNI4
I1
I0
tp821
bS'DEGF'
p822
tp823
Rp824
sS'5EPHINT'
p825
g2
(g3
(S'S4'
p826
I0
I1
tp827
Rp828
(I3
S'|'
p829
NNNI4
I1
I0
tp830
bS'DEGC'
p831
tp832
Rp833
sS'4VRMOBV'
p834
g2
(g3
(S'S3'
p835
I0
I1
tp836
Rp837
(I3
S'|'
p838
NNNI3
I1
I0
tp839
bS'VDC'
p840
tp841
Rp842
sS'PLAEV3AT'
p843
g2
(g3
(S'S4'
p844
I0
I1
tp845
Rp846
(I3
S'|'
p847
NNNI4
I1
I0
tp848
bS'DEGF'
p849
tp850
Rp851
sS'AFLCA1AI'
p852
g2
(g3
(S'S4'
p853
I0
I1
tp854
Rp855
(I3
S'|'
p856
NNNI4
I1
I0
tp857
bS'MAMP'
p858
tp859
Rp860
sS'2DCENTRT'
p861
g2
(g3
(S'S4'
p862
I0
I1
tp863
Rp864
(I3
S'|'
p865
NNNI4
I1
I0
tp866
bS'DEGC'
p867
tp868
Rp869
sS'OOBTHR60'
p870
g2
(g3
(S'S4'
p871
I0
I1
tp872
Rp873
(I3
S'|'
p874
NNNI4
I1
I0
tp875
bS'DEGF'
p876
tp877
Rp878
sS'OOBTHR61'
p879
g2
(g3
(S'S4'
p880
I0
I1
tp881
Rp882
(I3
S'|'
p883
NNNI4
I1
I0
tp884
bS'DEGF'
p885
tp886
Rp887
sS'OOBTHR62'
p888
g2
(g3
(S'S4'
p889
I0
I1
tp890
Rp891
(I3
S'|'
p892
NNNI4
I1
I0
tp893
bS'DEGF'
p894
tp895
Rp896
sS'OOBTHR63'
p897
g2
(g3
(S'S4'
p898
I0
I1
tp899
Rp900
(I3
S'|'
p901
NNNI4
I1
I0
tp902
bS'DEGF'
p903
tp904
Rp905
sS'PLINE11T'
p906
g2
(g3
(S'S4'
p907
I0
I1
tp908
Rp909
(I3
S'|'
p910
NNNI4
I1
I0
tp911
bS'DEGF'
p912
tp913
Rp914
sS'EPA15V'
p915
g2
(g3
(S'S1'
p916
I0
I1
tp917
Rp918
(I3
S'|'
p919
NNNI1
I1
I0
tp920
bg45
tp921
Rp922
sS'AOALPANG'
p923
g2
(g3
(S'S3'
p924
I0
I1
tp925
Rp926
(I3
S'|'
p927
NNNI3
I1
I0
tp928
bS'DEG'
p929
tp930
Rp931
sS'TRSPMTPC'
p932
g2
(g3
(S'S4'
p933
I0
I1
tp934
Rp935
(I3
S'|'
p936
NNNI4
I1
I0
tp937
bS'DEGF'
p938
tp939
Rp940
sS'AOSPACS2B'
p941
g2
(g3
(S'S4'
p942
I0
I1
tp943
Rp944
(I3
S'|'
p945
NNNI4
I1
I0
tp946
bS'MAMP'
p947
tp948
Rp949
sS'AODVTIME'
p950
g2
(g3
(S'S3'
p951
I0
I1
tp952
Rp953
(I3
S'|'
p954
NNNI3
I1
I0
tp955
bS'SEC'
p956
tp957
Rp958
sS'AODITHR3'
p959
g2
(g3
(S'S3'
p960
I0
I1
tp961
Rp962
(I3
S'|'
p963
NNNI3
I1
I0
tp964
bS'RAD'
p965
tp966
Rp967
sS'AODITHR2'
p968
g2
(g3
(S'S3'
p969
I0
I1
tp970
Rp971
(I3
S'|'
p972
NNNI3
I1
I0
tp973
bS'RAD'
p974
tp975
Rp976
sS'AODITHR1'
p977
g2
(g3
(S'S3'
p978
I0
I1
tp979
Rp980
(I3
S'|'
p981
NNNI3
I1
I0
tp982
bS'RAD'
p983
tp984
Rp985
sS'PLAED1BT'
p986
g2
(g3
(S'S4'
p987
I0
I1
tp988
Rp989
(I3
S'|'
p990
NNNI4
I1
I0
tp991
bS'DEGF'
p992
tp993
Rp994
sS'TCYLPCM'
p995
g2
(g3
(S'S4'
p996
I0
I1
tp997
Rp998
(I3
S'|'
p999
NNNI4
I1
I0
tp1000
bS'DEGF'
p1001
tp1002
Rp1003
sS'AFLC12AI'
p1004
g2
(g3
(S'S4'
p1005
I0
I1
tp1006
Rp1007
(I3
S'|'
p1008
NNNI4
I1
I0
tp1009
bS'MAMP'
p1010
tp1011
Rp1012
sS'AOSACMD2'
p1013
g2
(g3
(S'S3'
p1014
I0
I1
tp1015
Rp1016
(I3
S'|'
p1017
NNNI3
I1
I0
tp1018
bS'RAD'
p1019
tp1020
Rp1021
sS'AOADACH1A_PCAD'
p1022
g2
(g3
(S'S3'
p1023
I0
I1
tp1024
Rp1025
(I3
S'|'
p1026
NNNI3
I1
I0
tp1027
bS'DEG'
p1028
tp1029
Rp1030
sS'OOBTHR31'
p1031
g2
(g3
(S'S4'
p1032
I0
I1
tp1033
Rp1034
(I3
S'|'
p1035
NNNI4
I1
I0
tp1036
bS'DEGF'
p1037
tp1038
Rp1039
sS'OHRTHR04'
p1040
g2
(g3
(S'S4'
p1041
I0
I1
tp1042
Rp1043
(I3
S'|'
p1044
NNNI4
I1
I0
tp1045
bS'DEGF'
p1046
tp1047
Rp1048
sS'OOBTHR46'
p1049
g2
(g3
(S'S4'
p1050
I0
I1
tp1051
Rp1052
(I3
S'|'
p1053
NNNI4
I1
I0
tp1054
bS'DEGF'
p1055
tp1056
Rp1057
sS'EPB15V'
p1058
g2
(g3
(S'S1'
p1059
I0
I1
tp1060
Rp1061
(I3
S'|'
p1062
NNNI1
I1
I0
tp1063
bg45
tp1064
Rp1065
sS'2UVLSPXT'
p1066
g2
(g3
(S'S4'
p1067
I0
I1
tp1068
Rp1069
(I3
S'|'
p1070
NNNI4
I1
I0
tp1071
bS'DEGC'
p1072
tp1073
Rp1074
sS'3FARALAT'
p1075
g2
(g3
(S'S4'
p1076
I0
I1
tp1077
Rp1078
(I3
S'|'
p1079
NNNI4
I1
I0
tp1080
bS'DEGC'
p1081
tp1082
Rp1083
sS'TMP_FEP0_FB'
p1084
g282
sS'4HLL2AT'
p1085
g2
(g3
(S'S4'
p1086
I0
I1
tp1087
Rp1088
(I3
S'|'
p1089
NNNI4
I1
I0
tp1090
bS'DEGF'
p1091
tp1092
Rp1093
sS'TCM_PA2'
p1094
g2
(g3
(S'S4'
p1095
I0
I1
tp1096
Rp1097
(I3
S'|'
p1098
NNNI4
I1
I0
tp1099
bS'DEGF'
p1100
tp1101
Rp1102
sS'OHRTHR58'
p1103
g2
(g3
(S'S4'
p1104
I0
I1
tp1105
Rp1106
(I3
S'|'
p1107
NNNI4
I1
I0
tp1108
bS'DEGF'
p1109
tp1110
Rp1111
sS'TMP_FEP1_RAM'
p1112
g282
sS'3FAPYZAT'
p1113
g2
(g3
(S'S4'
p1114
I0
I1
tp1115
Rp1116
(I3
S'|'
p1117
NNNI4
I1
I0
tp1118
bS'DEGC'
p1119
tp1120
Rp1121
sS'OHRTHR08'
p1122
g2
(g3
(S'S4'
p1123
I0
I1
tp1124
Rp1125
(I3
S'|'
p1126
NNNI4
I1
I0
tp1127
bS'DEGF'
p1128
tp1129
Rp1130
sS'AOSCVEL3'
p1131
g2
(g3
(S'S4'
p1132
I0
I1
tp1133
Rp1134
(I3
S'|'
p1135
NNNI4
I1
I0
tp1136
bS'KMPS'
p1137
tp1138
Rp1139
sS'PLAED3GT'
p1140
g2
(g3
(S'S4'
p1141
I0
I1
tp1142
Rp1143
(I3
S'|'
p1144
NNNI4
I1
I0
tp1145
bS'DEGF'
p1146
tp1147
Rp1148
sS'AORATE1'
p1149
g2
(g3
(S'S5'
p1150
I0
I1
tp1151
Rp1152
(I3
S'|'
p1153
NNNI5
I1
I0
tp1154
bS'RADPS'
p1155
tp1156
Rp1157
sS'AORATE3'
p1158
g2
(g3
(S'S5'
p1159
I0
I1
tp1160
Rp1161
(I3
S'|'
p1162
NNNI5
I1
I0
tp1163
bS'RADPS'
p1164
tp1165
Rp1166
sS'AORATE2'
p1167
g2
(g3
(S'S5'
p1168
I0
I1
tp1169
Rp1170
(I3
S'|'
p1171
NNNI5
I1
I0
tp1172
bS'RADPS'
p1173
tp1174
Rp1175
sS'CRXAV'
p1176
g2
(g3
(S'S1'
p1177
I0
I1
tp1178
Rp1179
(I3
S'|'
p1180
NNNI1
I1
I0
tp1181
bg45
tp1182
Rp1183
sS'EORTDMN12D'
p1184
g2
(g3
(S'S4'
p1185
I0
I1
tp1186
Rp1187
(I3
S'|'
p1188
NNNI4
I1
I0
tp1189
bS'DEGF'
p1190
tp1191
Rp1192
sS'EOECNV3C'
p1193
g2
(g3
(S'S1'
p1194
I0
I1
tp1195
Rp1196
(I3
S'|'
p1197
NNNI1
I1
I0
tp1198
bg45
tp1199
Rp1200
sS'3TTACS2T'
p1201
g2
(g3
(S'S4'
p1202
I0
I1
tp1203
Rp1204
(I3
S'|'
p1205
NNNI4
I1
I0
tp1206
bS'DEGC'
p1207
tp1208
Rp1209
sS'TCM_CTU'
p1210
g2
(g3
(S'S4'
p1211
I0
I1
tp1212
Rp1213
(I3
S'|'
p1214
NNNI4
I1
I0
tp1215
bS'DEGF'
p1216
tp1217
Rp1218
sS'ESAPYI'
p1219
g2
(g3
(S'S3'
p1220
I0
I1
tp1221
Rp1222
(I3
S'|'
p1223
NNNI3
I1
I0
tp1224
bS'AMP'
p1225
tp1226
Rp1227
sS'4HFSPBT'
p1228
g2
(g3
(S'S4'
p1229
I0
I1
tp1230
Rp1231
(I3
S'|'
p1232
NNNI4
I1
I0
tp1233
bS'DEGF'
p1234
tp1235
Rp1236
sS'EEPB5V'
p1237
g2
(g3
(S'S1'
p1238
I0
I1
tp1239
Rp1240
(I3
S'|'
p1241
NNNI1
I1
I0
tp1242
bg45
tp1243
Rp1244
sS'AOSCVEL2'
p1245
g2
(g3
(S'S4'
p1246
I0
I1
tp1247
Rp1248
(I3
S'|'
p1249
NNNI4
I1
I0
tp1250
bS'KMPS'
p1251
tp1252
Rp1253
sS'TSAMYT'
p1254
g2
(g3
(S'S4'
p1255
I0
I1
tp1256
Rp1257
(I3
S'|'
p1258
NNNI4
I1
I0
tp1259
bS'DEGF'
p1260
tp1261
Rp1262
sS'4MP28BV'
p1263
g2
(g3
(S'S3'
p1264
I0
I1
tp1265
Rp1266
(I3
S'|'
p1267
NNNI3
I1
I0
tp1268
bS'VDC'
p1269
tp1270
Rp1271
sS'PFDM101T'
p1272
g2
(g3
(S'S4'
p1273
I0
I1
tp1274
Rp1275
(I3
S'|'
p1276
NNNI4
I1
I0
tp1277
bS'DEGF'
p1278
tp1279
Rp1280
sS'PLAED3DT'
p1281
g2
(g3
(S'S4'
p1282
I0
I1
tp1283
Rp1284
(I3
S'|'
p1285
NNNI4
I1
I0
tp1286
bS'DEGF'
p1287
tp1288
Rp1289
sS'OHRTHR51'
p1290
g2
(g3
(S'S4'
p1291
I0
I1
tp1292
Rp1293
(I3
S'|'
p1294
NNNI4
I1
I0
tp1295
bS'DEGF'
p1296
tp1297
Rp1298
sS'EORTDMN23D'
p1299
g2
(g3
(S'S4'
p1300
I0
I1
tp1301
Rp1302
(I3
S'|'
p1303
NNNI4
I1
I0
tp1304
bS'DEGF'
p1305
tp1306
Rp1307
sS'AWD3CV5V'
p1308
g2
(g3
(S'S1'
p1309
I0
I1
tp1310
Rp1311
(I3
S'|'
p1312
NNNI1
I1
I0
tp1313
bg45
tp1314
Rp1315
sS'PLINE02T'
p1316
g2
(g3
(S'S4'
p1317
I0
I1
tp1318
Rp1319
(I3
S'|'
p1320
NNNI4
I1
I0
tp1321
bS'DEGF'
p1322
tp1323
Rp1324
sS'4RT706T'
p1325
g2
(g3
(S'S4'
p1326
I0
I1
tp1327
Rp1328
(I3
S'|'
p1329
NNNI4
I1
I0
tp1330
bS'DEGF'
p1331
tp1332
Rp1333
sS'TPCM_RW5'
p1334
g2
(g3
(S'S4'
p1335
I0
I1
tp1336
Rp1337
(I3
S'|'
p1338
NNNI4
I1
I0
tp1339
bS'DEGF'
p1340
tp1341
Rp1342
sS'2CEAHVPT'
p1343
g2
(g3
(S'S4'
p1344
I0
I1
tp1345
Rp1346
(I3
S'|'
p1347
NNNI4
I1
I0
tp1348
bS'DEGC'
p1349
tp1350
Rp1351
sS'PLAEV2AT'
p1352
g2
(g3
(S'S4'
p1353
I0
I1
tp1354
Rp1355
(I3
S'|'
p1356
NNNI4
I1
I0
tp1357
bS'DEGF'
p1358
tp1359
Rp1360
sS'EOEB2DIC'
p1361
g2
(g3
(S'S3'
p1362
I0
I1
tp1363
Rp1364
(I3
S'|'
p1365
NNNI3
I1
I0
tp1366
bS'AMP'
p1367
tp1368
Rp1369
sS'AORESZ6_5'
p1370
g2
(g3
(S'S3'
p1371
I0
I1
tp1372
Rp1373
(I3
S'|'
p1374
NNNI3
I1
I0
tp1375
bS'RAD'
p1376
tp1377
Rp1378
sS'AOSUNER1'
p1379
g2
(g3
(S'S3'
p1380
I0
I1
tp1381
Rp1382
(I3
S'|'
p1383
NNNI3
I1
I0
tp1384
bS'RAD'
p1385
tp1386
Rp1387
sS'TRSPRWCM'
p1388
g2
(g3
(S'S4'
p1389
I0
I1
tp1390
Rp1391
(I3
S'|'
p1392
NNNI4
I1
I0
tp1393
bS'DEGF'
p1394
tp1395
Rp1396
sS'AOSUNER3'
p1397
g2
(g3
(S'S3'
p1398
I0
I1
tp1399
Rp1400
(I3
S'|'
p1401
NNNI3
I1
I0
tp1402
bS'RAD'
p1403
tp1404
Rp1405
sS'AOSUNER2'
p1406
g2
(g3
(S'S3'
p1407
I0
I1
tp1408
Rp1409
(I3
S'|'
p1410
NNNI3
I1
I0
tp1411
bS'RAD'
p1412
tp1413
Rp1414
sS'OHRTHR55'
p1415
g2
(g3
(S'S4'
p1416
I0
I1
tp1417
Rp1418
(I3
S'|'
p1419
NNNI4
I1
I0
tp1420
bS'DEGF'
p1421
tp1422
Rp1423
sS'PLAED2DT'
p1424
g2
(g3
(S'S4'
p1425
I0
I1
tp1426
Rp1427
(I3
S'|'
p1428
NNNI4
I1
I0
tp1429
bS'DEGF'
p1430
tp1431
Rp1432
sS'AORESY6_1'
p1433
g2
(g3
(S'S3'
p1434
I0
I1
tp1435
Rp1436
(I3
S'|'
p1437
NNNI3
I1
I0
tp1438
bS'RAD'
p1439
tp1440
Rp1441
sS'TESH2'
p1442
g2
(g3
(S'S4'
p1443
I0
I1
tp1444
Rp1445
(I3
S'|'
p1446
NNNI4
I1
I0
tp1447
bS'DEGF'
p1448
tp1449
Rp1450
sS'PFTANK1T'
p1451
g2
(g3
(S'S4'
p1452
I0
I1
tp1453
Rp1454
(I3
S'|'
p1455
NNNI4
I1
I0
tp1456
bS'DEGF'
p1457
tp1458
Rp1459
sS'1DPAMYT'
p1460
g2
(g3
(S'S4'
p1461
I0
I1
tp1462
Rp1463
(I3
S'|'
p1464
NNNI4
I1
I0
tp1465
bS'DEGC'
p1466
tp1467
Rp1468
sS'1DACTBT'
p1469
g2
(g3
(S'S4'
p1470
I0
I1
tp1471
Rp1472
(I3
S'|'
p1473
NNNI4
I1
I0
tp1474
bS'DEGC'
p1475
tp1476
Rp1477
sS'4RT556T'
p1478
g2
(g3
(S'S4'
p1479
I0
I1
tp1480
Rp1481
(I3
S'|'
p1482
NNNI4
I1
I0
tp1483
bS'DEGF'
p1484
tp1485
Rp1486
sS'AFLCA4BI'
p1487
g2
(g3
(S'S4'
p1488
I0
I1
tp1489
Rp1490
(I3
S'|'
p1491
NNNI4
I1
I0
tp1492
bS'MAMP'
p1493
tp1494
Rp1495
sS'PM4THV1T'
p1496
g2
(g3
(S'S4'
p1497
I0
I1
tp1498
Rp1499
(I3
S'|'
p1500
NNNI4
I1
I0
tp1501
bS'DEGF'
p1502
tp1503
Rp1504
sS'CSITA15V'
p1505
g2
(g3
(S'S1'
p1506
I0
I1
tp1507
Rp1508
(I3
S'|'
p1509
NNNI1
I1
I0
tp1510
bg45
tp1511
Rp1512
sS'AFLC13AI'
p1513
g2
(g3
(S'S4'
p1514
I0
I1
tp1515
Rp1516
(I3
S'|'
p1517
NNNI4
I1
I0
tp1518
bS'MAMP'
p1519
tp1520
Rp1521
sS'AORWBTQ1'
p1522
g2
(g3
(S'S4'
p1523
I0
I1
tp1524
Rp1525
(I3
S'|'
p1526
NNNI4
I1
I0
tp1527
bS'FTLB'
p1528
tp1529
Rp1530
sS'AORWBTQ2'
p1531
g2
(g3
(S'S4'
p1532
I0
I1
tp1533
Rp1534
(I3
S'|'
p1535
NNNI4
I1
I0
tp1536
bS'FTLB'
p1537
tp1538
Rp1539
sS'AORWBTQ3'
p1540
g2
(g3
(S'S4'
p1541
I0
I1
tp1542
Rp1543
(I3
S'|'
p1544
NNNI4
I1
I0
tp1545
bS'FTLB'
p1546
tp1547
Rp1548
sS'AORWBTQ4'
p1549
g2
(g3
(S'S4'
p1550
I0
I1
tp1551
Rp1552
(I3
S'|'
p1553
NNNI4
I1
I0
tp1554
bS'FTLB'
p1555
tp1556
Rp1557
sS'AGWS1V'
p1558
g2
(g3
(S'S1'
p1559
I0
I1
tp1560
Rp1561
(I3
S'|'
p1562
NNNI1
I1
I0
tp1563
bg45
tp1564
Rp1565
sS'AORWBTQ6'
p1566
g2
(g3
(S'S4'
p1567
I0
I1
tp1568
Rp1569
(I3
S'|'
p1570
NNNI4
I1
I0
tp1571
bS'FTLB'
p1572
tp1573
Rp1574
sS'AWD6CV5V'
p1575
g2
(g3
(S'S1'
p1576
I0
I1
tp1577
Rp1578
(I3
S'|'
p1579
NNNI1
I1
I0
tp1580
bg45
tp1581
Rp1582
sS'3FABRCAT'
p1583
g2
(g3
(S'S4'
p1584
I0
I1
tp1585
Rp1586
(I3
S'|'
p1587
NNNI4
I1
I0
tp1588
bS'DEGC'
p1589
tp1590
Rp1591
sS'AWD4CV5V'
p1592
g2
(g3
(S'S1'
p1593
I0
I1
tp1594
Rp1595
(I3
S'|'
p1596
NNNI1
I1
I0
tp1597
bg45
tp1598
Rp1599
sS'4RT576T'
p1600
g2
(g3
(S'S4'
p1601
I0
I1
tp1602
Rp1603
(I3
S'|'
p1604
NNNI4
I1
I0
tp1605
bS'DEGF'
p1606
tp1607
Rp1608
sS'AIRU1G1T'
p1609
g2
(g3
(S'S4'
p1610
I0
I1
tp1611
Rp1612
(I3
S'|'
p1613
NNNI4
I1
I0
tp1614
bS'DEGF'
p1615
tp1616
Rp1617
sS'PR2TV02T'
p1618
g2
(g3
(S'S4'
p1619
I0
I1
tp1620
Rp1621
(I3
S'|'
p1622
NNNI4
I1
I0
tp1623
bS'DEGF'
p1624
tp1625
Rp1626
sS'2P05VAVL'
p1627
g2
(g3
(S'S3'
p1628
I0
I1
tp1629
Rp1630
(I3
S'|'
p1631
NNNI3
I1
I0
tp1632
bS'VDC'
p1633
tp1634
Rp1635
sS'PLAEV4AT'
p1636
g2
(g3
(S'S4'
p1637
I0
I1
tp1638
Rp1639
(I3
S'|'
p1640
NNNI4
I1
I0
tp1641
bS'DEGF'
p1642
tp1643
Rp1644
sS'1VAHCBT'
p1645
g2
(g3
(S'S4'
p1646
I0
I1
tp1647
Rp1648
(I3
S'|'
p1649
NNNI4
I1
I0
tp1650
bS'DEGC'
p1651
tp1652
Rp1653
sS'PM2THV1T'
p1654
g2
(g3
(S'S4'
p1655
I0
I1
tp1656
Rp1657
(I3
S'|'
p1658
NNNI4
I1
I0
tp1659
bS'DEGF'
p1660
tp1661
Rp1662
sS'PLINE09T'
p1663
g2
(g3
(S'S4'
p1664
I0
I1
tp1665
Rp1666
(I3
S'|'
p1667
NNNI4
I1
I0
tp1668
bS'DEGF'
p1669
tp1670
Rp1671
sS'1DPP0AVO'
p1672
g2
(g3
(S'S1'
p1673
I0
I1
tp1674
Rp1675
(I3
S'|'
p1676
NNNI1
I1
I0
tp1677
bg45
tp1678
Rp1679
sS'5EIOT'
p1680
g2
(g3
(S'S4'
p1681
I0
I1
tp1682
Rp1683
(I3
S'|'
p1684
NNNI4
I1
I0
tp1685
bS'DEGC'
p1686
tp1687
Rp1688
sS'CPCB5V'
p1689
g2
(g3
(S'S1'
p1690
I0
I1
tp1691
Rp1692
(I3
S'|'
p1693
NNNI1
I1
I0
tp1694
bg45
tp1695
Rp1696
sS'PLAED1IT'
p1697
g2
(g3
(S'S4'
p1698
I0
I1
tp1699
Rp1700
(I3
S'|'
p1701
NNNI4
I1
I0
tp1702
bS'DEGF'
p1703
tp1704
Rp1705
sS'CPCA5V'
p1706
g2
(g3
(S'S1'
p1707
I0
I1
tp1708
Rp1709
(I3
S'|'
p1710
NNNI1
I1
I0
tp1711
bg45
tp1712
Rp1713
sS'AFLCA2BI'
p1714
g2
(g3
(S'S4'
p1715
I0
I1
tp1716
Rp1717
(I3
S'|'
p1718
NNNI4
I1
I0
tp1719
bS'MAMP'
p1720
tp1721
Rp1722
sS'TEIO'
p1723
g2
(g3
(S'S4'
p1724
I0
I1
tp1725
Rp1726
(I3
S'|'
p1727
NNNI4
I1
I0
tp1728
bS'DEGF'
p1729
tp1730
Rp1731
sS'AORWMC2_1'
p1732
g2
(g3
(S'S7'
p1733
I0
I1
tp1734
Rp1735
(I3
S'|'
p1736
NNNI7
I1
I0
tp1737
bS'FTLBSEC'
p1738
tp1739
Rp1740
sS'ELBV'
p1741
g2
(g3
(S'S1'
p1742
I0
I1
tp1743
Rp1744
(I3
S'|'
p1745
NNNI1
I1
I0
tp1746
bg45
tp1747
Rp1748
sS'AACBPRT'
p1749
g2
(g3
(S'S4'
p1750
I0
I1
tp1751
Rp1752
(I3
S'|'
p1753
NNNI4
I1
I0
tp1754
bS'DEGF'
p1755
tp1756
Rp1757
sS'PLAED1AT'
p1758
g2
(g3
(S'S4'
p1759
I0
I1
tp1760
Rp1761
(I3
S'|'
p1762
NNNI4
I1
I0
tp1763
bS'DEGF'
p1764
tp1765
Rp1766
sS'POM2THV2T'
p1767
g2
(g3
(S'S4'
p1768
I0
I1
tp1769
Rp1770
(I3
S'|'
p1771
NNNI4
I1
I0
tp1772
bS'DEGF'
p1773
tp1774
Rp1775
sS'TPCM_RW4'
p1776
g2
(g3
(S'S4'
p1777
I0
I1
tp1778
Rp1779
(I3
S'|'
p1780
NNNI4
I1
I0
tp1781
bS'DEGF'
p1782
tp1783
Rp1784
sS'4RT580T'
p1785
g2
(g3
(S'S4'
p1786
I0
I1
tp1787
Rp1788
(I3
S'|'
p1789
NNNI4
I1
I0
tp1790
bS'DEGF'
p1791
tp1792
Rp1793
sS'4VRMHBV'
p1794
g2
(g3
(S'S3'
p1795
I0
I1
tp1796
Rp1797
(I3
S'|'
p1798
NNNI3
I1
I0
tp1799
bS'VDC'
p1800
tp1801
Rp1802
sS'PHETANKT'
p1803
g2
(g3
(S'S4'
p1804
I0
I1
tp1805
Rp1806
(I3
S'|'
p1807
NNNI4
I1
I0
tp1808
bS'DEGF'
p1809
tp1810
Rp1811
sS'TAPE1PST'
p1812
g2
(g3
(S'S4'
p1813
I0
I1
tp1814
Rp1815
(I3
S'|'
p1816
NNNI4
I1
I0
tp1817
bS'DEGF'
p1818
tp1819
Rp1820
sS'4RT558T'
p1821
g2
(g3
(S'S4'
p1822
I0
I1
tp1823
Rp1824
(I3
S'|'
p1825
NNNI4
I1
I0
tp1826
bS'DEGF'
p1827
tp1828
Rp1829
sS'POM1THV2T'
p1830
g2
(g3
(S'S4'
p1831
I0
I1
tp1832
Rp1833
(I3
S'|'
p1834
NNNI4
I1
I0
tp1835
bS'DEGF'
p1836
tp1837
Rp1838
sS'AIRU1G1I'
p1839
g2
(g3
(S'S4'
p1840
I0
I1
tp1841
Rp1842
(I3
S'|'
p1843
NNNI4
I1
I0
tp1844
bS'MAMP'
p1845
tp1846
Rp1847
sS'OOBTHR24'
p1848
g2
(g3
(S'S4'
p1849
I0
I1
tp1850
Rp1851
(I3
S'|'
p1852
NNNI4
I1
I0
tp1853
bS'DEGF'
p1854
tp1855
Rp1856
sS'OOBTHR25'
p1857
g2
(g3
(S'S4'
p1858
I0
I1
tp1859
Rp1860
(I3
S'|'
p1861
NNNI4
I1
I0
tp1862
bS'DEGF'
p1863
tp1864
Rp1865
sS'OOBTHR26'
p1866
g2
(g3
(S'S4'
p1867
I0
I1
tp1868
Rp1869
(I3
S'|'
p1870
NNNI4
I1
I0
tp1871
bS'DEGF'
p1872
tp1873
Rp1874
sS'CRXALS'
p1875
g2
(g3
(S'S3'
p1876
I0
I1
tp1877
Rp1878
(I3
S'|'
p1879
NNNI3
I1
I0
tp1880
bS'KHZ'
p1881
tp1882
Rp1883
sS'OOBTHR20'
p1884
g2
(g3
(S'S4'
p1885
I0
I1
tp1886
Rp1887
(I3
S'|'
p1888
NNNI4
I1
I0
tp1889
bS'DEGF'
p1890
tp1891
Rp1892
sS'OOBTHR21'
p1893
g2
(g3
(S'S4'
p1894
I0
I1
tp1895
Rp1896
(I3
S'|'
p1897
NNNI4
I1
I0
tp1898
bS'DEGF'
p1899
tp1900
Rp1901
sS'OOBTHR22'
p1902
g2
(g3
(S'S4'
p1903
I0
I1
tp1904
Rp1905
(I3
S'|'
p1906
NNNI4
I1
I0
tp1907
bS'DEGF'
p1908
tp1909
Rp1910
sS'OOBTHR23'
p1911
g2
(g3
(S'S4'
p1912
I0
I1
tp1913
Rp1914
(I3
S'|'
p1915
NNNI4
I1
I0
tp1916
bS'DEGF'
p1917
tp1918
Rp1919
sS'OHRTHR03'
p1920
g2
(g3
(S'S4'
p1921
I0
I1
tp1922
Rp1923
(I3
S'|'
p1924
NNNI4
I1
I0
tp1925
bS'DEGF'
p1926
tp1927
Rp1928
sS'AVD2CV5V'
p1929
g2
(g3
(S'S1'
p1930
I0
I1
tp1931
Rp1932
(I3
S'|'
p1933
NNNI1
I1
I0
tp1934
bg45
tp1935
Rp1936
sS'OOBTHR28'
p1937
g2
(g3
(S'S4'
p1938
I0
I1
tp1939
Rp1940
(I3
S'|'
p1941
NNNI4
I1
I0
tp1942
bS'DEGF'
p1943
tp1944
Rp1945
sS'OOBTHR29'
p1946
g2
(g3
(S'S4'
p1947
I0
I1
tp1948
Rp1949
(I3
S'|'
p1950
NNNI4
I1
I0
tp1951
bS'DEGF'
p1952
tp1953
Rp1954
sS'TB2T1'
p1955
g2
(g3
(S'S4'
p1956
I0
I1
tp1957
Rp1958
(I3
S'|'
p1959
NNNI4
I1
I0
tp1960
bS'DEGF'
p1961
tp1962
Rp1963
sS'EORTDMN16D'
p1964
g2
(g3
(S'S4'
p1965
I0
I1
tp1966
Rp1967
(I3
S'|'
p1968
NNNI4
I1
I0
tp1969
bS'DEGF'
p1970
tp1971
Rp1972
sS'2FHTRMZT'
p1973
g2
(g3
(S'S4'
p1974
I0
I1
tp1975
Rp1976
(I3
S'|'
p1977
NNNI4
I1
I0
tp1978
bS'DEGC'
p1979
tp1980
Rp1981
sS'AOSAANG1'
p1982
g2
(g3
(S'S3'
p1983
I0
I1
tp1984
Rp1985
(I3
S'|'
p1986
NNNI3
I1
I0
tp1987
bS'RAD'
p1988
tp1989
Rp1990
sS'AOSAANG2'
p1991
g2
(g3
(S'S3'
p1992
I0
I1
tp1993
Rp1994
(I3
S'|'
p1995
NNNI3
I1
I0
tp1996
bS'RAD'
p1997
tp1998
Rp1999
sS'CTSB15V'
p2000
g2
(g3
(S'S1'
p2001
I0
I1
tp2002
Rp2003
(I3
S'|'
p2004
NNNI1
I1
I0
tp2005
bg45
tp2006
Rp2007
sS'TCYLCMM'
p2008
g2
(g3
(S'S4'
p2009
I0
I1
tp2010
Rp2011
(I3
S'|'
p2012
NNNI4
I1
I0
tp2013
bS'DEGF'
p2014
tp2015
Rp2016
sS'AOCSSI2'
p2017
g2
(g3
(S'S4'
p2018
I0
I1
tp2019
Rp2020
(I3
S'|'
p2021
NNNI4
I1
I0
tp2022
bS'MAMP'
p2023
tp2024
Rp2025
sS'4RT561T'
p2026
g2
(g3
(S'S4'
p2027
I0
I1
tp2028
Rp2029
(I3
S'|'
p2030
NNNI4
I1
I0
tp2031
bS'DEGF'
p2032
tp2033
Rp2034
sS'AOSAEST2'
p2035
g2
(g3
(S'S3'
p2036
I0
I1
tp2037
Rp2038
(I3
S'|'
p2039
NNNI3
I1
I0
tp2040
bS'RAD'
p2041
tp2042
Rp2043
sS'OHRTHR57'
p2044
g2
(g3
(S'S4'
p2045
I0
I1
tp2046
Rp2047
(I3
S'|'
p2048
NNNI4
I1
I0
tp2049
bS'DEGF'
p2050
tp2051
Rp2052
sS'AOMANTIM'
p2053
g2
(g3
(S'S3'
p2054
I0
I1
tp2055
Rp2056
(I3
S'|'
p2057
NNNI3
I1
I0
tp2058
bS'SEC'
p2059
tp2060
Rp2061
sS'CTUB5V'
p2062
g2
(g3
(S'S1'
p2063
I0
I1
tp2064
Rp2065
(I3
S'|'
p2066
NNNI1
I1
I0
tp2067
bg45
tp2068
Rp2069
sS'AWD4TQI'
p2070
g2
(g3
(S'S3'
p2071
I0
I1
tp2072
Rp2073
(I3
S'|'
p2074
NNNI3
I1
I0
tp2075
bS'AMP'
p2076
tp2077
Rp2078
sS'4LLL2AT'
p2079
g2
(g3
(S'S4'
p2080
I0
I1
tp2081
Rp2082
(I3
S'|'
p2083
NNNI4
I1
I0
tp2084
bS'DEGF'
p2085
tp2086
Rp2087
sS'AWD5CV5V'
p2088
g2
(g3
(S'S1'
p2089
I0
I1
tp2090
Rp2091
(I3
S'|'
p2092
NNNI1
I1
I0
tp2093
bg45
tp2094
Rp2095
sS'4ALL1BT'
p2096
g2
(g3
(S'S4'
p2097
I0
I1
tp2098
Rp2099
(I3
S'|'
p2100
NNNI4
I1
I0
tp2101
bS'DEGF'
p2102
tp2103
Rp2104
sS'CPCB15V'
p2105
g2
(g3
(S'S1'
p2106
I0
I1
tp2107
Rp2108
(I3
S'|'
p2109
NNNI1
I1
I0
tp2110
bg45
tp2111
Rp2112
sS'4RT711T'
p2113
g2
(g3
(S'S4'
p2114
I0
I1
tp2115
Rp2116
(I3
S'|'
p2117
NNNI4
I1
I0
tp2118
bS'DEGF'
p2119
tp2120
Rp2121
sS'AAOTALT'
p2122
g2
(g3
(S'S4'
p2123
I0
I1
tp2124
Rp2125
(I3
S'|'
p2126
NNNI4
I1
I0
tp2127
bS'DEGF'
p2128
tp2129
Rp2130
sS'AGWS2V'
p2131
g2
(g3
(S'S1'
p2132
I0
I1
tp2133
Rp2134
(I3
S'|'
p2135
NNNI1
I1
I0
tp2136
bg45
tp2137
Rp2138
sS'EORTDMN26D'
p2139
g2
(g3
(S'S4'
p2140
I0
I1
tp2141
Rp2142
(I3
S'|'
p2143
NNNI4
I1
I0
tp2144
bS'DEGF'
p2145
tp2146
Rp2147
sS'EB1V'
p2148
g2
(g3
(S'S1'
p2149
I0
I1
tp2150
Rp2151
(I3
S'|'
p2152
NNNI1
I1
I0
tp2153
bg45
tp2154
Rp2155
sS'AOFFTQ1'
p2156
g2
(g3
(S'S4'
p2157
I0
I1
tp2158
Rp2159
(I3
S'|'
p2160
NNNI4
I1
I0
tp2161
bS'FTLB'
p2162
tp2163
Rp2164
sS'AOFFTQ2'
p2165
g2
(g3
(S'S4'
p2166
I0
I1
tp2167
Rp2168
(I3
S'|'
p2169
NNNI4
I1
I0
tp2170
bS'FTLB'
p2171
tp2172
Rp2173
sS'AOFFTQ3'
p2174
g2
(g3
(S'S4'
p2175
I0
I1
tp2176
Rp2177
(I3
S'|'
p2178
NNNI4
I1
I0
tp2179
bS'FTLB'
p2180
tp2181
Rp2182
sS'OHRTHR05'
p2183
g2
(g3
(S'S4'
p2184
I0
I1
tp2185
Rp2186
(I3
S'|'
p2187
NNNI4
I1
I0
tp2188
bS'DEGF'
p2189
tp2190
Rp2191
sS'PLINE07T'
p2192
g2
(g3
(S'S4'
p2193
I0
I1
tp2194
Rp2195
(I3
S'|'
p2196
NNNI4
I1
I0
tp2197
bS'DEGF'
p2198
tp2199
Rp2200
sS'PLAEV2BT'
p2201
g2
(g3
(S'S4'
p2202
I0
I1
tp2203
Rp2204
(I3
S'|'
p2205
NNNI4
I1
I0
tp2206
bS'DEGF'
p2207
tp2208
Rp2209
sS'AOSCVEL1'
p2210
g2
(g3
(S'S4'
p2211
I0
I1
tp2212
Rp2213
(I3
S'|'
p2214
NNNI4
I1
I0
tp2215
bS'KMPS'
p2216
tp2217
Rp2218
sS'3TSPYFET'
p2219
g2
(g3
(S'S4'
p2220
I0
I1
tp2221
Rp2222
(I3
S'|'
p2223
NNNI4
I1
I0
tp2224
bS'DEGC'
p2225
tp2226
Rp2227
sS'4RT598T'
p2228
g2
(g3
(S'S4'
p2229
I0
I1
tp2230
Rp2231
(I3
S'|'
p2232
NNNI4
I1
I0
tp2233
bS'DEGF'
p2234
tp2235
Rp2236
sS'1DE28AVO'
p2237
g2
(g3
(S'S1'
p2238
I0
I1
tp2239
Rp2240
(I3
S'|'
p2241
NNNI1
I1
I0
tp2242
bg45
tp2243
Rp2244
sS'2N15VBVL'
p2245
g2
(g3
(S'S3'
p2246
I0
I1
tp2247
Rp2248
(I3
S'|'
p2249
NNNI3
I1
I0
tp2250
bS'VDC'
p2251
tp2252
Rp2253
sS'AFLC13BI'
p2254
g2
(g3
(S'S4'
p2255
I0
I1
tp2256
Rp2257
(I3
S'|'
p2258
NNNI4
I1
I0
tp2259
bS'MAMP'
p2260
tp2261
Rp2262
sS'PR4TV02T'
p2263
g2
(g3
(S'S4'
p2264
I0
I1
tp2265
Rp2266
(I3
S'|'
p2267
NNNI4
I1
I0
tp2268
bS'DEGF'
p2269
tp2270
Rp2271
sS'AOGBIAS1'
p2272
g2
(g3
(S'S5'
p2273
I0
I1
tp2274
Rp2275
(I3
S'|'
p2276
NNNI5
I1
I0
tp2277
bS'RADPS'
p2278
tp2279
Rp2280
sS'AOGBIAS2'
p2281
g2
(g3
(S'S5'
p2282
I0
I1
tp2283
Rp2284
(I3
S'|'
p2285
NNNI5
I1
I0
tp2286
bS'RADPS'
p2287
tp2288
Rp2289
sS'AOGBIAS3'
p2290
g2
(g3
(S'S5'
p2291
I0
I1
tp2292
Rp2293
(I3
S'|'
p2294
NNNI5
I1
I0
tp2295
bS'RADPS'
p2296
tp2297
Rp2298
sS'1DEN1AVO'
p2299
g2
(g3
(S'S1'
p2300
I0
I1
tp2301
Rp2302
(I3
S'|'
p2303
NNNI1
I1
I0
tp2304
bg45
tp2305
Rp2306
sS'1DEN0AVO'
p2307
g2
(g3
(S'S1'
p2308
I0
I1
tp2309
Rp2310
(I3
S'|'
p2311
NNNI1
I1
I0
tp2312
bg45
tp2313
Rp2314
sS'1DEP2BVO'
p2315
g2
(g3
(S'S1'
p2316
I0
I1
tp2317
Rp2318
(I3
S'|'
p2319
NNNI1
I1
I0
tp2320
bg45
tp2321
Rp2322
sS'TMP_FEP1_FB'
p2323
g282
sS'1DPICBCU'
p2324
g2
(g3
(S'S3'
p2325
I0
I1
tp2326
Rp2327
(I3
S'|'
p2328
NNNI3
I1
I0
tp2329
bS'AMP'
p2330
tp2331
Rp2332
sS'1DP28AVO'
p2333
g2
(g3
(S'S1'
p2334
I0
I1
tp2335
Rp2336
(I3
S'|'
p2337
NNNI1
I1
I0
tp2338
bg45
tp2339
Rp2340
sS'2CONDMXT'
p2341
g2
(g3
(S'S4'
p2342
I0
I1
tp2343
Rp2344
(I3
S'|'
p2345
NNNI4
I1
I0
tp2346
bS'DEGC'
p2347
tp2348
Rp2349
sS'4CSDHAV'
p2350
g2
(g3
(S'S3'
p2351
I0
I1
tp2352
Rp2353
(I3
S'|'
p2354
NNNI3
I1
I0
tp2355
bS'VDC'
p2356
tp2357
Rp2358
sS'4RT587T'
p2359
g2
(g3
(S'S4'
p2360
I0
I1
tp2361
Rp2362
(I3
S'|'
p2363
NNNI4
I1
I0
tp2364
bS'DEGF'
p2365
tp2366
Rp2367
sS'AI1AX2Y'
p2368
g2
(g3
(S'S5'
p2369
I0
I1
tp2370
Rp2371
(I3
S'|'
p2372
NNNI5
I1
I0
tp2373
bS'DEGPS'
p2374
tp2375
Rp2376
sS'AI1AX2X'
p2377
g2
(g3
(S'S5'
p2378
I0
I1
tp2379
Rp2380
(I3
S'|'
p2381
NNNI5
I1
I0
tp2382
bS'DEGPS'
p2383
tp2384
Rp2385
sS'TEP_PPAN'
p2386
g2
(g3
(S'S4'
p2387
I0
I1
tp2388
Rp2389
(I3
S'|'
p2390
NNNI4
I1
I0
tp2391
bS'DEGF'
p2392
tp2393
Rp2394
sS'AORWCMD5'
p2395
g2
(g3
(S'S4'
p2396
I0
I1
tp2397
Rp2398
(I3
S'|'
p2399
NNNI4
I1
I0
tp2400
bS'FTLB'
p2401
tp2402
Rp2403
sS'AORWCMD4'
p2404
g2
(g3
(S'S4'
p2405
I0
I1
tp2406
Rp2407
(I3
S'|'
p2408
NNNI4
I1
I0
tp2409
bS'FTLB'
p2410
tp2411
Rp2412
sS'OHRTHR29'
p2413
g2
(g3
(S'S4'
p2414
I0
I1
tp2415
Rp2416
(I3
S'|'
p2417
NNNI4
I1
I0
tp2418
bS'DEGF'
p2419
tp2420
Rp2421
sS'AORWCMD6'
p2422
g2
(g3
(S'S4'
p2423
I0
I1
tp2424
Rp2425
(I3
S'|'
p2426
NNNI4
I1
I0
tp2427
bS'FTLB'
p2428
tp2429
Rp2430
sS'AORWCMD1'
p2431
g2
(g3
(S'S4'
p2432
I0
I1
tp2433
Rp2434
(I3
S'|'
p2435
NNNI4
I1
I0
tp2436
bS'FTLB'
p2437
tp2438
Rp2439
sS'AORWCMD3'
p2440
g2
(g3
(S'S4'
p2441
I0
I1
tp2442
Rp2443
(I3
S'|'
p2444
NNNI4
I1
I0
tp2445
bS'FTLB'
p2446
tp2447
Rp2448
sS'AORWCMD2'
p2449
g2
(g3
(S'S4'
p2450
I0
I1
tp2451
Rp2452
(I3
S'|'
p2453
NNNI4
I1
I0
tp2454
bS'FTLB'
p2455
tp2456
Rp2457
sS'OHRTHR23'
p2458
g2
(g3
(S'S4'
p2459
I0
I1
tp2460
Rp2461
(I3
S'|'
p2462
NNNI4
I1
I0
tp2463
bS'DEGF'
p2464
tp2465
Rp2466
sS'OHRTHR22'
p2467
g2
(g3
(S'S4'
p2468
I0
I1
tp2469
Rp2470
(I3
S'|'
p2471
NNNI4
I1
I0
tp2472
bS'DEGF'
p2473
tp2474
Rp2475
sS'OHRTHR21'
p2476
g2
(g3
(S'S4'
p2477
I0
I1
tp2478
Rp2479
(I3
S'|'
p2480
NNNI4
I1
I0
tp2481
bS'DEGF'
p2482
tp2483
Rp2484
sS'OHRTHR20'
p2485
g2
(g3
(S'S4'
p2486
I0
I1
tp2487
Rp2488
(I3
S'|'
p2489
NNNI4
I1
I0
tp2490
bS'DEGF'
p2491
tp2492
Rp2493
sS'OHRTHR27'
p2494
g2
(g3
(S'S4'
p2495
I0
I1
tp2496
Rp2497
(I3
S'|'
p2498
NNNI4
I1
I0
tp2499
bS'DEGF'
p2500
tp2501
Rp2502
sS'AOCMDAC1'
p2503
g2
(g3
(S'S5'
p2504
I0
I1
tp2505
Rp2506
(I3
S'|'
p2507
NNNI5
I1
I0
tp2508
bS'RADSS'
p2509
tp2510
Rp2511
sS'AOCMDAC2'
p2512
g2
(g3
(S'S5'
p2513
I0
I1
tp2514
Rp2515
(I3
S'|'
p2516
NNNI5
I1
I0
tp2517
bS'RADSS'
p2518
tp2519
Rp2520
sS'AOCMDAC3'
p2521
g2
(g3
(S'S5'
p2522
I0
I1
tp2523
Rp2524
(I3
S'|'
p2525
NNNI5
I1
I0
tp2526
bS'RADSS'
p2527
tp2528
Rp2529
sS'4IN15BV'
p2530
g2
(g3
(S'S3'
p2531
I0
I1
tp2532
Rp2533
(I3
S'|'
p2534
NNNI3
I1
I0
tp2535
bS'VDC'
p2536
tp2537
Rp2538
sS'TCNR_BRM'
p2539
g2
(g3
(S'S4'
p2540
I0
I1
tp2541
Rp2542
(I3
S'|'
p2543
NNNI4
I1
I0
tp2544
bS'DEGF'
p2545
tp2546
Rp2547
sS'TCM_IFU'
p2548
g2
(g3
(S'S4'
p2549
I0
I1
tp2550
Rp2551
(I3
S'|'
p2552
NNNI4
I1
I0
tp2553
bS'DEGF'
p2554
tp2555
Rp2556
sS'TCYLFMZP'
p2557
g2
(g3
(S'S4'
p2558
I0
I1
tp2559
Rp2560
(I3
S'|'
p2561
NNNI4
I1
I0
tp2562
bS'DEGF'
p2563
tp2564
Rp2565
sS'EOEB1VC'
p2566
g2
(g3
(S'S1'
p2567
I0
I1
tp2568
Rp2569
(I3
S'|'
p2570
NNNI1
I1
I0
tp2571
bg45
tp2572
Rp2573
sS'TCYLFMZM'
p2574
g2
(g3
(S'S4'
p2575
I0
I1
tp2576
Rp2577
(I3
S'|'
p2578
NNNI4
I1
I0
tp2579
bS'DEGF'
p2580
tp2581
Rp2582
sS'4RT597T'
p2583
g2
(g3
(S'S4'
p2584
I0
I1
tp2585
Rp2586
(I3
S'|'
p2587
NNNI4
I1
I0
tp2588
bS'DEGF'
p2589
tp2590
Rp2591
sS'TEP_RCTU'
p2592
g2
(g3
(S'S4'
p2593
I0
I1
tp2594
Rp2595
(I3
S'|'
p2596
NNNI4
I1
I0
tp2597
bS'DEGF'
p2598
tp2599
Rp2600
sS'4RT702T'
p2601
g2
(g3
(S'S4'
p2602
I0
I1
tp2603
Rp2604
(I3
S'|'
p2605
NNNI4
I1
I0
tp2606
bS'DEGF'
p2607
tp2608
Rp2609
sS'AOSPBCS1B'
p2610
g2
(g3
(S'S4'
p2611
I0
I1
tp2612
Rp2613
(I3
S'|'
p2614
NNNI4
I1
I0
tp2615
bS'MAMP'
p2616
tp2617
Rp2618
sS'1VAHOAT'
p2619
g2
(g3
(S'S4'
p2620
I0
I1
tp2621
Rp2622
(I3
S'|'
p2623
NNNI4
I1
I0
tp2624
bS'DEGC'
p2625
tp2626
Rp2627
sS'AACH1T'
p2628
g2
(g3
(S'S4'
p2629
I0
I1
tp2630
Rp2631
(I3
S'|'
p2632
NNNI4
I1
I0
tp2633
bS'DEGF'
p2634
tp2635
Rp2636
sS'4PRT2AT'
p2637
g2
(g3
(S'S4'
p2638
I0
I1
tp2639
Rp2640
(I3
S'|'
p2641
NNNI4
I1
I0
tp2642
bS'DEGF'
p2643
tp2644
Rp2645
sS'POLINE07T'
p2646
g2
(g3
(S'S4'
p2647
I0
I1
tp2648
Rp2649
(I3
S'|'
p2650
NNNI4
I1
I0
tp2651
bS'DEGF'
p2652
tp2653
Rp2654
sS'TPC_ESE'
p2655
g2
(g3
(S'S4'
p2656
I0
I1
tp2657
Rp2658
(I3
S'|'
p2659
NNNI4
I1
I0
tp2660
bS'DEGF'
p2661
tp2662
Rp2663
sS'EB3V'
p2664
g2
(g3
(S'S1'
p2665
I0
I1
tp2666
Rp2667
(I3
S'|'
p2668
NNNI1
I1
I0
tp2669
bg45
tp2670
Rp2671
sS'AFLCA9AI'
p2672
g2
(g3
(S'S4'
p2673
I0
I1
tp2674
Rp2675
(I3
S'|'
p2676
NNNI4
I1
I0
tp2677
bS'MAMP'
p2678
tp2679
Rp2680
sS'CTSB5V'
p2681
g2
(g3
(S'S1'
p2682
I0
I1
tp2683
Rp2684
(I3
S'|'
p2685
NNNI1
I1
I0
tp2686
bg45
tp2687
Rp2688
sS'AFLCA1BI'
p2689
g2
(g3
(S'S4'
p2690
I0
I1
tp2691
Rp2692
(I3
S'|'
p2693
NNNI4
I1
I0
tp2694
bS'MAMP'
p2695
tp2696
Rp2697
sS'4VRMHAV'
p2698
g2
(g3
(S'S3'
p2699
I0
I1
tp2700
Rp2701
(I3
S'|'
p2702
NNNI3
I1
I0
tp2703
bS'VDC'
p2704
tp2705
Rp2706
sS'PR4TV01T'
p2707
g2
(g3
(S'S4'
p2708
I0
I1
tp2709
Rp2710
(I3
S'|'
p2711
NNNI4
I1
I0
tp2712
bS'DEGF'
p2713
tp2714
Rp2715
sS'PLINE10T'
p2716
g2
(g3
(S'S4'
p2717
I0
I1
tp2718
Rp2719
(I3
S'|'
p2720
NNNI4
I1
I0
tp2721
bS'DEGF'
p2722
tp2723
Rp2724
sS'TPC_RCTU'
p2725
g2
(g3
(S'S4'
p2726
I0
I1
tp2727
Rp2728
(I3
S'|'
p2729
NNNI4
I1
I0
tp2730
bS'DEGF'
p2731
tp2732
Rp2733
sS'TCM_PA1'
p2734
g2
(g3
(S'S4'
p2735
I0
I1
tp2736
Rp2737
(I3
S'|'
p2738
NNNI4
I1
I0
tp2739
bS'DEGF'
p2740
tp2741
Rp2742
sS'EORTDMN27D'
p2743
g2
(g3
(S'S4'
p2744
I0
I1
tp2745
Rp2746
(I3
S'|'
p2747
NNNI4
I1
I0
tp2748
bS'DEGF'
p2749
tp2750
Rp2751
sS'AOBETANG'
p2752
g2
(g3
(S'S3'
p2753
I0
I1
tp2754
Rp2755
(I3
S'|'
p2756
NNNI3
I1
I0
tp2757
bS'DEG'
p2758
tp2759
Rp2760
sS'PLINE03T'
p2761
g2
(g3
(S'S4'
p2762
I0
I1
tp2763
Rp2764
(I3
S'|'
p2765
NNNI4
I1
I0
tp2766
bS'DEGF'
p2767
tp2768
Rp2769
sS'2FRADPYT'
p2770
g2
(g3
(S'S4'
p2771
I0
I1
tp2772
Rp2773
(I3
S'|'
p2774
NNNI4
I1
I0
tp2775
bS'DEGC'
p2776
tp2777
Rp2778
sS'1DE28BVO'
p2779
g2
(g3
(S'S1'
p2780
I0
I1
tp2781
Rp2782
(I3
S'|'
p2783
NNNI1
I1
I0
tp2784
bg45
tp2785
Rp2786
sS'4CSDHBV'
p2787
g2
(g3
(S'S3'
p2788
I0
I1
tp2789
Rp2790
(I3
S'|'
p2791
NNNI3
I1
I0
tp2792
bS'VDC'
p2793
tp2794
Rp2795
sS'AORWMOM2'
p2796
g2
(g3
(S'S7'
p2797
I0
I1
tp2798
Rp2799
(I3
S'|'
p2800
NNNI7
I1
I0
tp2801
bS'FTLBSEC'
p2802
tp2803
Rp2804
sS'PLAED4FT'
p2805
g2
(g3
(S'S4'
p2806
I0
I1
tp2807
Rp2808
(I3
S'|'
p2809
NNNI4
I1
I0
tp2810
bS'DEGF'
p2811
tp2812
Rp2813
sS'C28VMONA'
p2814
g2
(g3
(S'S1'
p2815
I0
I1
tp2816
Rp2817
(I3
S'|'
p2818
NNNI1
I1
I0
tp2819
bg45
tp2820
Rp2821
sS'4LLL2BT'
p2822
g2
(g3
(S'S4'
p2823
I0
I1
tp2824
Rp2825
(I3
S'|'
p2826
NNNI4
I1
I0
tp2827
bS'DEGF'
p2828
tp2829
Rp2830
sS'1DEP1BVO'
p2831
g2
(g3
(S'S1'
p2832
I0
I1
tp2833
Rp2834
(I3
S'|'
p2835
NNNI1
I1
I0
tp2836
bg45
tp2837
Rp2838
sS'AOSPACS3B'
p2839
g2
(g3
(S'S4'
p2840
I0
I1
tp2841
Rp2842
(I3
S'|'
p2843
NNNI4
I1
I0
tp2844
bS'MAMP'
p2845
tp2846
Rp2847
sS'PLAEV4BT'
p2848
g2
(g3
(S'S4'
p2849
I0
I1
tp2850
Rp2851
(I3
S'|'
p2852
NNNI4
I1
I0
tp2853
bS'DEGF'
p2854
tp2855
Rp2856
sS'ES2P5CV'
p2857
g2
(g3
(S'S1'
p2858
I0
I1
tp2859
Rp2860
(I3
S'|'
p2861
NNNI1
I1
I0
tp2862
bg45
tp2863
Rp2864
sS'AORWPI5B'
p2865
g2
(g3
(S'S4'
p2866
I0
I1
tp2867
Rp2868
(I3
S'|'
p2869
NNNI4
I1
I0
tp2870
bS'MSEC'
p2871
tp2872
Rp2873
sS'4HLL2BT'
p2874
g2
(g3
(S'S4'
p2875
I0
I1
tp2876
Rp2877
(I3
S'|'
p2878
NNNI4
I1
I0
tp2879
bS'DEGF'
p2880
tp2881
Rp2882
sS'TFSPCMM'
p2883
g2
(g3
(S'S4'
p2884
I0
I1
tp2885
Rp2886
(I3
S'|'
p2887
NNNI4
I1
I0
tp2888
bS'DEGF'
p2889
tp2890
Rp2891
sS'EORTDMN19D'
p2892
g2
(g3
(S'S4'
p2893
I0
I1
tp2894
Rp2895
(I3
S'|'
p2896
NNNI4
I1
I0
tp2897
bS'DEGF'
p2898
tp2899
Rp2900
sS'4HFSPAT'
p2901
g2
(g3
(S'S4'
p2902
I0
I1
tp2903
Rp2904
(I3
S'|'
p2905
NNNI4
I1
I0
tp2906
bS'DEGF'
p2907
tp2908
Rp2909
sS'4MP5BV'
p2910
g2
(g3
(S'S3'
p2911
I0
I1
tp2912
Rp2913
(I3
S'|'
p2914
NNNI3
I1
I0
tp2915
bS'VDC'
p2916
tp2917
Rp2918
sS'3TTRALAT'
p2919
g2
(g3
(S'S4'
p2920
I0
I1
tp2921
Rp2922
(I3
S'|'
p2923
NNNI4
I1
I0
tp2924
bS'DEGC'
p2925
tp2926
Rp2927
sS'TFSPCMP'
p2928
g2
(g3
(S'S4'
p2929
I0
I1
tp2930
Rp2931
(I3
S'|'
p2932
NNNI4
I1
I0
tp2933
bS'DEGF'
p2934
tp2935
Rp2936
sS'POM1THV1T'
p2937
g2
(g3
(S'S4'
p2938
I0
I1
tp2939
Rp2940
(I3
S'|'
p2941
NNNI4
I1
I0
tp2942
bS'DEGF'
p2943
tp2944
Rp2945
sS'AOACZAN5'
p2946
g2
(g3
(S'S4'
p2947
I0
I1
tp2948
Rp2949
(I3
S'|'
p2950
NNNI4
I1
I0
tp2951
bS'ASEC'
p2952
tp2953
Rp2954
sS'AOACZAN4'
p2955
g2
(g3
(S'S4'
p2956
I0
I1
tp2957
Rp2958
(I3
S'|'
p2959
NNNI4
I1
I0
tp2960
bS'ASEC'
p2961
tp2962
Rp2963
sS'AOACZAN7'
p2964
g2
(g3
(S'S4'
p2965
I0
I1
tp2966
Rp2967
(I3
S'|'
p2968
NNNI4
I1
I0
tp2969
bS'ASEC'
p2970
tp2971
Rp2972
sS'AOACZAN6'
p2973
g2
(g3
(S'S4'
p2974
I0
I1
tp2975
Rp2976
(I3
S'|'
p2977
NNNI4
I1
I0
tp2978
bS'ASEC'
p2979
tp2980
Rp2981
sS'AOACZAN1'
p2982
g2
(g3
(S'S4'
p2983
I0
I1
tp2984
Rp2985
(I3
S'|'
p2986
NNNI4
I1
I0
tp2987
bS'ASEC'
p2988
tp2989
Rp2990
sS'AOACZAN0'
p2991
g2
(g3
(S'S4'
p2992
I0
I1
tp2993
Rp2994
(I3
S'|'
p2995
NNNI4
I1
I0
tp2996
bS'ASEC'
p2997
tp2998
Rp2999
sS'AOACZAN3'
p3000
g2
(g3
(S'S4'
p3001
I0
I1
tp3002
Rp3003
(I3
S'|'
p3004
NNNI4
I1
I0
tp3005
bS'ASEC'
p3006
tp3007
Rp3008
sS'AOACZAN2'
p3009
g2
(g3
(S'S4'
p3010
I0
I1
tp3011
Rp3012
(I3
S'|'
p3013
NNNI4
I1
I0
tp3014
bS'ASEC'
p3015
tp3016
Rp3017
sS'3TTHRC2T'
p3018
g2
(g3
(S'S4'
p3019
I0
I1
tp3020
Rp3021
(I3
S'|'
p3022
NNNI4
I1
I0
tp3023
bS'DEGC'
p3024
tp3025
Rp3026
sS'EOEBCC'
p3027
g2
(g3
(S'S3'
p3028
I0
I1
tp3029
Rp3030
(I3
S'|'
p3031
NNNI3
I1
I0
tp3032
bS'AMP'
p3033
tp3034
Rp3035
sS'TCYLAFT4'
p3036
g2
(g3
(S'S4'
p3037
I0
I1
tp3038
Rp3039
(I3
S'|'
p3040
NNNI4
I1
I0
tp3041
bS'DEGF'
p3042
tp3043
Rp3044
sS'OOBTHR27'
p3045
g2
(g3
(S'S4'
p3046
I0
I1
tp3047
Rp3048
(I3
S'|'
p3049
NNNI4
I1
I0
tp3050
bS'DEGF'
p3051
tp3052
Rp3053
sS'AOYABR'
p3054
g2
(g3
(S'S3'
p3055
I0
I1
tp3056
Rp3057
(I3
S'|'
p3058
NNNI3
I1
I0
tp3059
bS'RAD'
p3060
tp3061
Rp3062
sS'AOSRERR1'
p3063
g2
(g3
(S'S5'
p3064
I0
I1
tp3065
Rp3066
(I3
S'|'
p3067
NNNI5
I1
I0
tp3068
bS'RADPS'
p3069
tp3070
Rp3071
sS'AOSRERR2'
p3072
g2
(g3
(S'S5'
p3073
I0
I1
tp3074
Rp3075
(I3
S'|'
p3076
NNNI5
I1
I0
tp3077
bS'RADPS'
p3078
tp3079
Rp3080
sS'AOSRERR3'
p3081
g2
(g3
(S'S5'
p3082
I0
I1
tp3083
Rp3084
(I3
S'|'
p3085
NNNI5
I1
I0
tp3086
bS'RADPS'
p3087
tp3088
Rp3089
sS'PLAED2GT'
p3090
g2
(g3
(S'S4'
p3091
I0
I1
tp3092
Rp3093
(I3
S'|'
p3094
NNNI4
I1
I0
tp3095
bS'DEGF'
p3096
tp3097
Rp3098
sS'POLINE16T'
p3099
g2
(g3
(S'S4'
p3100
I0
I1
tp3101
Rp3102
(I3
S'|'
p3103
NNNI4
I1
I0
tp3104
bS'DEGF'
p3105
tp3106
Rp3107
sS'CXO5VOBB'
p3108
g2
(g3
(S'S1'
p3109
I0
I1
tp3110
Rp3111
(I3
S'|'
p3112
NNNI1
I1
I0
tp3113
bg45
tp3114
Rp3115
sS'AOSAEST1'
p3116
g2
(g3
(S'S3'
p3117
I0
I1
tp3118
Rp3119
(I3
S'|'
p3120
NNNI3
I1
I0
tp3121
bS'RAD'
p3122
tp3123
Rp3124
sS'1DAHACU'
p3125
g2
(g3
(S'S3'
p3126
I0
I1
tp3127
Rp3128
(I3
S'|'
p3129
NNNI3
I1
I0
tp3130
bS'AMP'
p3131
tp3132
Rp3133
sS'4RT565T'
p3134
g2
(g3
(S'S4'
p3135
I0
I1
tp3136
Rp3137
(I3
S'|'
p3138
NNNI4
I1
I0
tp3139
bS'DEGF'
p3140
tp3141
Rp3142
sS'AORWINT3'
p3143
g2
(g3
(S'S4'
p3144
I0
I1
tp3145
Rp3146
(I3
S'|'
p3147
NNNI4
I1
I0
tp3148
bS'MSEC'
p3149
tp3150
Rp3151
sS'PM3THV1T'
p3152
g2
(g3
(S'S4'
p3153
I0
I1
tp3154
Rp3155
(I3
S'|'
p3156
NNNI4
I1
I0
tp3157
bS'DEGF'
p3158
tp3159
Rp3160
sS'4LPOSBRO'
p3161
g2
(g3
(S'S3'
p3162
I0
I1
tp3163
Rp3164
(I3
S'|'
p3165
NNNI3
I1
I0
tp3166
bS'DEG'
p3167
tp3168
Rp3169
sS'AOETIMEX'
p3170
g2
(g3
(S'S3'
p3171
I0
I1
tp3172
Rp3173
(I3
S'|'
p3174
NNNI3
I1
I0
tp3175
bS'SEC'
p3176
tp3177
Rp3178
sS'4RT594T'
p3179
g2
(g3
(S'S4'
p3180
I0
I1
tp3181
Rp3182
(I3
S'|'
p3183
NNNI4
I1
I0
tp3184
bS'DEGF'
p3185
tp3186
Rp3187
sS'4RT701T'
p3188
g2
(g3
(S'S4'
p3189
I0
I1
tp3190
Rp3191
(I3
S'|'
p3192
NNNI4
I1
I0
tp3193
bS'DEGF'
p3194
tp3195
Rp3196
sS'1DEN0BVO'
p3197
g2
(g3
(S'S1'
p3198
I0
I1
tp3199
Rp3200
(I3
S'|'
p3201
NNNI1
I1
I0
tp3202
bg45
tp3203
Rp3204
sS'4IP15BV'
p3205
g2
(g3
(S'S3'
p3206
I0
I1
tp3207
Rp3208
(I3
S'|'
p3209
NNNI3
I1
I0
tp3210
bS'VDC'
p3211
tp3212
Rp3213
sS'4ALL2BT'
p3214
g2
(g3
(S'S4'
p3215
I0
I1
tp3216
Rp3217
(I3
S'|'
p3218
NNNI4
I1
I0
tp3219
bS'DEGF'
p3220
tp3221
Rp3222
sS'AORWINT6'
p3223
g2
(g3
(S'S4'
p3224
I0
I1
tp3225
Rp3226
(I3
S'|'
p3227
NNNI4
I1
I0
tp3228
bS'MSEC'
p3229
tp3230
Rp3231
sS'CIUB5V'
p3232
g2
(g3
(S'S1'
p3233
I0
I1
tp3234
Rp3235
(I3
S'|'
p3236
NNNI1
I1
I0
tp3237
bg45
tp3238
Rp3239
sS'OOBTHR19'
p3240
g2
(g3
(S'S4'
p3241
I0
I1
tp3242
Rp3243
(I3
S'|'
p3244
NNNI4
I1
I0
tp3245
bS'DEGF'
p3246
tp3247
Rp3248
sS'CTUA15V'
p3249
g2
(g3
(S'S1'
p3250
I0
I1
tp3251
Rp3252
(I3
S'|'
p3253
NNNI1
I1
I0
tp3254
bg45
tp3255
Rp3256
sS'AOADACH2A_NBG'
p3257
g2
(g3
(S'S3'
p3258
I0
I1
tp3259
Rp3260
(I3
S'|'
p3261
NNNI3
I1
I0
tp3262
bS'DEG'
p3263
tp3264
Rp3265
sS'AFLC10BI'
p3266
g2
(g3
(S'S4'
p3267
I0
I1
tp3268
Rp3269
(I3
S'|'
p3270
NNNI4
I1
I0
tp3271
bS'MAMP'
p3272
tp3273
Rp3274
sS'PLAED2ET'
p3275
g2
(g3
(S'S4'
p3276
I0
I1
tp3277
Rp3278
(I3
S'|'
p3279
NNNI4
I1
I0
tp3280
bS'DEGF'
p3281
tp3282
Rp3283
sS'CSSR1CAV'
p3284
g2
(g3
(S'S1'
p3285
I0
I1
tp3286
Rp3287
(I3
S'|'
p3288
NNNI1
I1
I0
tp3289
bg45
tp3290
Rp3291
sS'TMP_BEP_OSC'
p3292
g282
sS'AOINTTIM'
p3293
g2
(g3
(S'S3'
p3294
I0
I1
tp3295
Rp3296
(I3
S'|'
p3297
NNNI3
I1
I0
tp3298
bS'SEC'
p3299
tp3300
Rp3301
sS'3TTBRGBT'
p3302
g2
(g3
(S'S4'
p3303
I0
I1
tp3304
Rp3305
(I3
S'|'
p3306
NNNI4
I1
I0
tp3307
bS'DEGC'
p3308
tp3309
Rp3310
sS'AORWINT1'
p3311
g2
(g3
(S'S4'
p3312
I0
I1
tp3313
Rp3314
(I3
S'|'
p3315
NNNI4
I1
I0
tp3316
bS'MSEC'
p3317
tp3318
Rp3319
sS'AORWINT2'
p3320
g2
(g3
(S'S4'
p3321
I0
I1
tp3322
Rp3323
(I3
S'|'
p3324
NNNI4
I1
I0
tp3325
bS'MSEC'
p3326
tp3327
Rp3328
sS'4IP5AV'
p3329
g2
(g3
(S'S3'
p3330
I0
I1
tp3331
Rp3332
(I3
S'|'
p3333
NNNI3
I1
I0
tp3334
bS'VDC'
p3335
tp3336
Rp3337
sS'AORWINT4'
p3338
g2
(g3
(S'S4'
p3339
I0
I1
tp3340
Rp3341
(I3
S'|'
p3342
NNNI4
I1
I0
tp3343
bS'MSEC'
p3344
tp3345
Rp3346
sS'1DACTAT'
p3347
g2
(g3
(S'S3'
p3348
I0
I1
tp3349
Rp3350
(I3
S'|'
p3351
NNNI3
I1
I0
tp3352
bS'DEG'
p3353
tp3354
Rp3355
sS'4RT557T'
p3356
g2
(g3
(S'S4'
p3357
I0
I1
tp3358
Rp3359
(I3
S'|'
p3360
NNNI4
I1
I0
tp3361
bS'DEGF'
p3362
tp3363
Rp3364
sS'AFLCA4AI'
p3365
g2
(g3
(S'S4'
p3366
I0
I1
tp3367
Rp3368
(I3
S'|'
p3369
NNNI4
I1
I0
tp3370
bS'MAMP'
p3371
tp3372
Rp3373
sS'POR1TV01T'
p3374
g2
(g3
(S'S4'
p3375
I0
I1
tp3376
Rp3377
(I3
S'|'
p3378
NNNI4
I1
I0
tp3379
bS'DEGF'
p3380
tp3381
Rp3382
sS'4SP51V'
p3383
g2
(g3
(S'S3'
p3384
I0
I1
tp3385
Rp3386
(I3
S'|'
p3387
NNNI3
I1
I0
tp3388
bS'VDC'
p3389
tp3390
Rp3391
sS'EORTDMN25D'
p3392
g2
(g3
(S'S4'
p3393
I0
I1
tp3394
Rp3395
(I3
S'|'
p3396
NNNI4
I1
I0
tp3397
bS'DEGF'
p3398
tp3399
Rp3400
sS'PLAED2CT'
p3401
g2
(g3
(S'S4'
p3402
I0
I1
tp3403
Rp3404
(I3
S'|'
p3405
NNNI4
I1
I0
tp3406
bS'DEGF'
p3407
tp3408
Rp3409
sS'4RT577T'
p3410
g2
(g3
(S'S4'
p3411
I0
I1
tp3412
Rp3413
(I3
S'|'
p3414
NNNI4
I1
I0
tp3415
bS'DEGF'
p3416
tp3417
Rp3418
sS'4IN15AV'
p3419
g2
(g3
(S'S3'
p3420
I0
I1
tp3421
Rp3422
(I3
S'|'
p3423
NNNI3
I1
I0
tp3424
bS'VDC'
p3425
tp3426
Rp3427
sS'C10VREFA'
p3428
g2
(g3
(S'S3'
p3429
I0
I1
tp3430
Rp3431
(I3
S'|'
p3432
NNNI3
I1
I0
tp3433
bS'VDC'
p3434
tp3435
Rp3436
sS'EOEB2VC'
p3437
g2
(g3
(S'S1'
p3438
I0
I1
tp3439
Rp3440
(I3
S'|'
p3441
NNNI1
I1
I0
tp3442
bg45
tp3443
Rp3444
sS'4PRT3BT'
p3445
g2
(g3
(S'S4'
p3446
I0
I1
tp3447
Rp3448
(I3
S'|'
p3449
NNNI4
I1
I0
tp3450
bS'DEGF'
p3451
tp3452
Rp3453
sS'AWD1CV5V'
p3454
g2
(g3
(S'S1'
p3455
I0
I1
tp3456
Rp3457
(I3
S'|'
p3458
NNNI1
I1
I0
tp3459
bg45
tp3460
Rp3461
sS'PMTANK3T'
p3462
g2
(g3
(S'S4'
p3463
I0
I1
tp3464
Rp3465
(I3
S'|'
p3466
NNNI4
I1
I0
tp3467
bS'DEGF'
p3468
tp3469
Rp3470
sS'AFLCA8BI'
p3471
g2
(g3
(S'S4'
p3472
I0
I1
tp3473
Rp3474
(I3
S'|'
p3475
NNNI4
I1
I0
tp3476
bS'MAMP'
p3477
tp3478
Rp3479
sS'PLAED1DT'
p3480
g2
(g3
(S'S4'
p3481
I0
I1
tp3482
Rp3483
(I3
S'|'
p3484
NNNI4
I1
I0
tp3485
bS'DEGF'
p3486
tp3487
Rp3488
sS'ARWA3BT'
p3489
g2
(g3
(S'S4'
p3490
I0
I1
tp3491
Rp3492
(I3
S'|'
p3493
NNNI4
I1
I0
tp3494
bS'DEGF'
p3495
tp3496
Rp3497
sS'AOACINTT'
p3498
g2
(g3
(S'S4'
p3499
I0
I1
tp3500
Rp3501
(I3
S'|'
p3502
NNNI4
I1
I0
tp3503
bS'MSEC'
p3504
tp3505
Rp3506
sS'POLAEV1AT'
p3507
g2
(g3
(S'S4'
p3508
I0
I1
tp3509
Rp3510
(I3
S'|'
p3511
NNNI4
I1
I0
tp3512
bS'DEGF'
p3513
tp3514
Rp3515
sS'OHRTHR63'
p3516
g2
(g3
(S'S4'
p3517
I0
I1
tp3518
Rp3519
(I3
S'|'
p3520
NNNI4
I1
I0
tp3521
bS'DEGF'
p3522
tp3523
Rp3524
sS'3BTU_BPT'
p3525
g2
(g3
(S'S4'
p3526
I0
I1
tp3527
Rp3528
(I3
S'|'
p3529
NNNI4
I1
I0
tp3530
bS'DEGC'
p3531
tp3532
Rp3533
sS'OHRTHR61'
p3534
g2
(g3
(S'S4'
p3535
I0
I1
tp3536
Rp3537
(I3
S'|'
p3538
NNNI4
I1
I0
tp3539
bS'DEGF'
p3540
tp3541
Rp3542
sS'C10VREFB'
p3543
g2
(g3
(S'S3'
p3544
I0
I1
tp3545
Rp3546
(I3
S'|'
p3547
NNNI3
I1
I0
tp3548
bS'VDC'
p3549
tp3550
Rp3551
sS'AOSYMOM3'
p3552
g2
(g3
(S'S7'
p3553
I0
I1
tp3554
Rp3555
(I3
S'|'
p3556
NNNI7
I1
I0
tp3557
bS'FTLBSEC'
p3558
tp3559
Rp3560
sS'AOSYMOM2'
p3561
g2
(g3
(S'S7'
p3562
I0
I1
tp3563
Rp3564
(I3
S'|'
p3565
NNNI7
I1
I0
tp3566
bS'FTLBSEC'
p3567
tp3568
Rp3569
sS'AOSYMOM1'
p3570
g2
(g3
(S'S7'
p3571
I0
I1
tp3572
Rp3573
(I3
S'|'
p3574
NNNI7
I1
I0
tp3575
bS'FTLBSEC'
p3576
tp3577
Rp3578
sS'EOEBCC_LOW'
p3579
g2
(g3
(S'S3'
p3580
I0
I1
tp3581
Rp3582
(I3
S'|'
p3583
NNNI3
I1
I0
tp3584
bS'AMP'
p3585
tp3586
Rp3587
sS'AFLCA2AI'
p3588
g2
(g3
(S'S4'
p3589
I0
I1
tp3590
Rp3591
(I3
S'|'
p3592
NNNI4
I1
I0
tp3593
bS'MAMP'
p3594
tp3595
Rp3596
sS'1OAHBT'
p3597
g2
(g3
(S'S4'
p3598
I0
I1
tp3599
Rp3600
(I3
S'|'
p3601
NNNI4
I1
I0
tp3602
bS'DEGC'
p3603
tp3604
Rp3605
sS'TCYLAFT1'
p3606
g2
(g3
(S'S4'
p3607
I0
I1
tp3608
Rp3609
(I3
S'|'
p3610
NNNI4
I1
I0
tp3611
bS'DEGF'
p3612
tp3613
Rp3614
sS'1DAHBCU'
p3615
g2
(g3
(S'S3'
p3616
I0
I1
tp3617
Rp3618
(I3
S'|'
p3619
NNNI3
I1
I0
tp3620
bS'AMP'
p3621
tp3622
Rp3623
sS'PLAEV1AT'
p3624
g2
(g3
(S'S4'
p3625
I0
I1
tp3626
Rp3627
(I3
S'|'
p3628
NNNI4
I1
I0
tp3629
bS'DEGF'
p3630
tp3631
Rp3632
sS'PMFP01T'
p3633
g2
(g3
(S'S4'
p3634
I0
I1
tp3635
Rp3636
(I3
S'|'
p3637
NNNI4
I1
I0
tp3638
bS'DEGF'
p3639
tp3640
Rp3641
sS'AFLCA5BI'
p3642
g2
(g3
(S'S4'
p3643
I0
I1
tp3644
Rp3645
(I3
S'|'
p3646
NNNI4
I1
I0
tp3647
bS'MAMP'
p3648
tp3649
Rp3650
sS'ECNV3V'
p3651
g2
(g3
(S'S1'
p3652
I0
I1
tp3653
Rp3654
(I3
S'|'
p3655
NNNI1
I1
I0
tp3656
bg45
tp3657
Rp3658
sS'PLINE15T'
p3659
g2
(g3
(S'S4'
p3660
I0
I1
tp3661
Rp3662
(I3
S'|'
p3663
NNNI4
I1
I0
tp3664
bS'DEGF'
p3665
tp3666
Rp3667
sS'4RT583T'
p3668
g2
(g3
(S'S4'
p3669
I0
I1
tp3670
Rp3671
(I3
S'|'
p3672
NNNI4
I1
I0
tp3673
bS'DEGF'
p3674
tp3675
Rp3676
sS'AIOAP5CV'
p3677
g2
(g3
(S'S1'
p3678
I0
I1
tp3679
Rp3680
(I3
S'|'
p3681
NNNI1
I1
I0
tp3682
bg45
tp3683
Rp3684
sS'TFSPRWC'
p3685
g2
(g3
(S'S4'
p3686
I0
I1
tp3687
Rp3688
(I3
S'|'
p3689
NNNI4
I1
I0
tp3690
bS'DEGF'
p3691
tp3692
Rp3693
sS'4RT593T'
p3694
g2
(g3
(S'S4'
p3695
I0
I1
tp3696
Rp3697
(I3
S'|'
p3698
NNNI4
I1
I0
tp3699
bS'DEGF'
p3700
tp3701
Rp3702
sS'TATECDRT'
p3703
g2
(g3
(S'S4'
p3704
I0
I1
tp3705
Rp3706
(I3
S'|'
p3707
NNNI4
I1
I0
tp3708
bS'DEGF'
p3709
tp3710
Rp3711
sS'4RT559T'
p3712
g2
(g3
(S'S4'
p3713
I0
I1
tp3714
Rp3715
(I3
S'|'
p3716
NNNI4
I1
I0
tp3717
bS'DEGF'
p3718
tp3719
Rp3720
sS'TSCTSF1'
p3721
g2
(g3
(S'S4'
p3722
I0
I1
tp3723
Rp3724
(I3
S'|'
p3725
NNNI4
I1
I0
tp3726
bS'DEGF'
p3727
tp3728
Rp3729
sS'TSCTSF2'
p3730
g2
(g3
(S'S4'
p3731
I0
I1
tp3732
Rp3733
(I3
S'|'
p3734
NNNI4
I1
I0
tp3735
bS'DEGF'
p3736
tp3737
Rp3738
sS'TSCTSF3'
p3739
g2
(g3
(S'S4'
p3740
I0
I1
tp3741
Rp3742
(I3
S'|'
p3743
NNNI4
I1
I0
tp3744
bS'DEGF'
p3745
tp3746
Rp3747
sS'TSCTSF4'
p3748
g2
(g3
(S'S4'
p3749
I0
I1
tp3750
Rp3751
(I3
S'|'
p3752
NNNI4
I1
I0
tp3753
bS'DEGF'
p3754
tp3755
Rp3756
sS'TSCTSF5'
p3757
g2
(g3
(S'S4'
p3758
I0
I1
tp3759
Rp3760
(I3
S'|'
p3761
NNNI4
I1
I0
tp3762
bS'DEGF'
p3763
tp3764
Rp3765
sS'4PRT5BT'
p3766
g2
(g3
(S'S4'
p3767
I0
I1
tp3768
Rp3769
(I3
S'|'
p3770
NNNI4
I1
I0
tp3771
bS'DEGF'
p3772
tp3773
Rp3774
sS'AFLCA6BI'
p3775
g2
(g3
(S'S4'
p3776
I0
I1
tp3777
Rp3778
(I3
S'|'
p3779
NNNI4
I1
I0
tp3780
bS'MAMP'
p3781
tp3782
Rp3783
sS'TCM_RFAS'
p3784
g2
(g3
(S'S4'
p3785
I0
I1
tp3786
Rp3787
(I3
S'|'
p3788
NNNI4
I1
I0
tp3789
bS'DEGF'
p3790
tp3791
Rp3792
sS'PLAED4ET'
p3793
g2
(g3
(S'S4'
p3794
I0
I1
tp3795
Rp3796
(I3
S'|'
p3797
NNNI4
I1
I0
tp3798
bS'DEGF'
p3799
tp3800
Rp3801
sS'PLINE14T'
p3802
g2
(g3
(S'S4'
p3803
I0
I1
tp3804
Rp3805
(I3
S'|'
p3806
NNNI4
I1
I0
tp3807
bS'DEGF'
p3808
tp3809
Rp3810
sS'TESH1'
p3811
g2
(g3
(S'S4'
p3812
I0
I1
tp3813
Rp3814
(I3
S'|'
p3815
NNNI4
I1
I0
tp3816
bS'DEGF'
p3817
tp3818
Rp3819
sS'1DEICACU'
p3820
g2
(g3
(S'S3'
p3821
I0
I1
tp3822
Rp3823
(I3
S'|'
p3824
NNNI3
I1
I0
tp3825
bS'AMP'
p3826
tp3827
Rp3828
sS'CXPNBIT'
p3829
g2
(g3
(S'S4'
p3830
I0
I1
tp3831
Rp3832
(I3
S'|'
p3833
NNNI4
I1
I0
tp3834
bS'DEGF'
p3835
tp3836
Rp3837
sS'1MAHCAT'
p3838
g2
(g3
(S'S4'
p3839
I0
I1
tp3840
Rp3841
(I3
S'|'
p3842
NNNI4
I1
I0
tp3843
bS'DEGC'
p3844
tp3845
Rp3846
sS'PR3TV02T'
p3847
g2
(g3
(S'S4'
p3848
I0
I1
tp3849
Rp3850
(I3
S'|'
p3851
NNNI4
I1
I0
tp3852
bS'DEGF'
p3853
tp3854
Rp3855
sS'3TSPZSPT'
p3856
g2
(g3
(S'S4'
p3857
I0
I1
tp3858
Rp3859
(I3
S'|'
p3860
NNNI4
I1
I0
tp3861
bS'DEGC'
p3862
tp3863
Rp3864
sS'1DEP3BVO'
p3865
g2
(g3
(S'S1'
p3866
I0
I1
tp3867
Rp3868
(I3
S'|'
p3869
NNNI1
I1
I0
tp3870
bg45
tp3871
Rp3872
sS'AOAVGDTQ'
p3873
g2
(g3
(S'S4'
p3874
I0
I1
tp3875
Rp3876
(I3
S'|'
p3877
NNNI4
I1
I0
tp3878
bS'FTLB'
p3879
tp3880
Rp3881
sS'CXO5VOBA'
p3882
g2
(g3
(S'S1'
p3883
I0
I1
tp3884
Rp3885
(I3
S'|'
p3886
NNNI1
I1
I0
tp3887
bg45
tp3888
Rp3889
sS'EORTDMN17D'
p3890
g2
(g3
(S'S4'
p3891
I0
I1
tp3892
Rp3893
(I3
S'|'
p3894
NNNI4
I1
I0
tp3895
bS'DEGF'
p3896
tp3897
Rp3898
sS'PLAED4BT'
p3899
g2
(g3
(S'S4'
p3900
I0
I1
tp3901
Rp3902
(I3
S'|'
p3903
NNNI4
I1
I0
tp3904
bS'DEGF'
p3905
tp3906
Rp3907
sS'ADE1P5CV'
p3908
g2
(g3
(S'S1'
p3909
I0
I1
tp3910
Rp3911
(I3
S'|'
p3912
NNNI1
I1
I0
tp3913
bg45
tp3914
Rp3915
sS'TFSPPCU'
p3916
g2
(g3
(S'S4'
p3917
I0
I1
tp3918
Rp3919
(I3
S'|'
p3920
NNNI4
I1
I0
tp3921
bS'DEGF'
p3922
tp3923
Rp3924
sS'4RT560T'
p3925
g2
(g3
(S'S4'
p3926
I0
I1
tp3927
Rp3928
(I3
S'|'
p3929
NNNI4
I1
I0
tp3930
bS'DEGF'
p3931
tp3932
Rp3933
sS'AORESZ7'
p3934
g2
(g3
(S'S3'
p3935
I0
I1
tp3936
Rp3937
(I3
S'|'
p3938
NNNI3
I1
I0
tp3939
bS'RAD'
p3940
tp3941
Rp3942
sS'POLINE03T'
p3943
g2
(g3
(S'S4'
p3944
I0
I1
tp3945
Rp3946
(I3
S'|'
p3947
NNNI4
I1
I0
tp3948
bS'DEGF'
p3949
tp3950
Rp3951
sS'POLAEV1BT'
p3952
g2
(g3
(S'S4'
p3953
I0
I1
tp3954
Rp3955
(I3
S'|'
p3956
NNNI4
I1
I0
tp3957
bS'DEGF'
p3958
tp3959
Rp3960
sS'AFLCA7AI'
p3961
g2
(g3
(S'S4'
p3962
I0
I1
tp3963
Rp3964
(I3
S'|'
p3965
NNNI4
I1
I0
tp3966
bS'MAMP'
p3967
tp3968
Rp3969
sS'EB2DI'
p3970
g2
(g3
(S'S3'
p3971
I0
I1
tp3972
Rp3973
(I3
S'|'
p3974
NNNI3
I1
I0
tp3975
bS'AMP'
p3976
tp3977
Rp3978
sS'TFSSBKT2'
p3979
g2
(g3
(S'S4'
p3980
I0
I1
tp3981
Rp3982
(I3
S'|'
p3983
NNNI4
I1
I0
tp3984
bS'DEGF'
p3985
tp3986
Rp3987
sS'TRSPRWBB'
p3988
g2
(g3
(S'S4'
p3989
I0
I1
tp3990
Rp3991
(I3
S'|'
p3992
NNNI4
I1
I0
tp3993
bS'DEGF'
p3994
tp3995
Rp3996
sS'TRSPRWBC'
p3997
g2
(g3
(S'S4'
p3998
I0
I1
tp3999
Rp4000
(I3
S'|'
p4001
NNNI4
I1
I0
tp4002
bS'DEGF'
p4003
tp4004
Rp4005
sS'FPTEMP_11'
p4006
g282
sS'FPTEMP_12'
p4007
g282
sS'AORWPI1B'
p4008
g2
(g3
(S'S4'
p4009
I0
I1
tp4010
Rp4011
(I3
S'|'
p4012
NNNI4
I1
I0
tp4013
bS'MSEC'
p4014
tp4015
Rp4016
sS'EB1DI'
p4017
g2
(g3
(S'S3'
p4018
I0
I1
tp4019
Rp4020
(I3
S'|'
p4021
NNNI3
I1
I0
tp4022
bS'AMP'
p4023
tp4024
Rp4025
sS'PLAED3FT'
p4026
g2
(g3
(S'S4'
p4027
I0
I1
tp4028
Rp4029
(I3
S'|'
p4030
NNNI4
I1
I0
tp4031
bS'DEGF'
p4032
tp4033
Rp4034
sS'AFLCA3AI'
p4035
g2
(g3
(S'S4'
p4036
I0
I1
tp4037
Rp4038
(I3
S'|'
p4039
NNNI4
I1
I0
tp4040
bS'MAMP'
p4041
tp4042
Rp4043
sS'AFSSPC1V'
p4044
g2
(g3
(S'S1'
p4045
I0
I1
tp4046
Rp4047
(I3
S'|'
p4048
NNNI1
I1
I0
tp4049
bg45
tp4050
Rp4051
sS'TSCIUSF2'
p4052
g2
(g3
(S'S4'
p4053
I0
I1
tp4054
Rp4055
(I3
S'|'
p4056
NNNI4
I1
I0
tp4057
bS'DEGF'
p4058
tp4059
Rp4060
sS'TSCIUSF5'
p4061
g2
(g3
(S'S4'
p4062
I0
I1
tp4063
Rp4064
(I3
S'|'
p4065
NNNI4
I1
I0
tp4066
bS'DEGF'
p4067
tp4068
Rp4069
sS'AVD1CV5V'
p4070
g2
(g3
(S'S1'
p4071
I0
I1
tp4072
Rp4073
(I3
S'|'
p4074
NNNI1
I1
I0
tp4075
bg45
tp4076
Rp4077
sS'TSCIUSF8'
p4078
g2
(g3
(S'S4'
p4079
I0
I1
tp4080
Rp4081
(I3
S'|'
p4082
NNNI4
I1
I0
tp4083
bS'DEGF'
p4084
tp4085
Rp4086
sS'1HOPRAPR'
p4087
g2
(g3
(S'S4'
p4088
I0
I1
tp4089
Rp4090
(I3
S'|'
p4091
NNNI4
I1
I0
tp4092
bS'TORR'
p4093
tp4094
Rp4095
sS'ADE2P5CV'
p4096
g2
(g3
(S'S1'
p4097
I0
I1
tp4098
Rp4099
(I3
S'|'
p4100
NNNI1
I1
I0
tp4101
bg45
tp4102
Rp4103
sS'TASPPCP'
p4104
g2
(g3
(S'S4'
p4105
I0
I1
tp4106
Rp4107
(I3
S'|'
p4108
NNNI4
I1
I0
tp4109
bS'DEGF'
p4110
tp4111
Rp4112
sS'3TTACS3T'
p4113
g2
(g3
(S'S4'
p4114
I0
I1
tp4115
Rp4116
(I3
S'|'
p4117
NNNI4
I1
I0
tp4118
bS'DEGC'
p4119
tp4120
Rp4121
sS'CTSA15V'
p4122
g2
(g3
(S'S1'
p4123
I0
I1
tp4124
Rp4125
(I3
S'|'
p4126
NNNI1
I1
I0
tp4127
bg45
tp4128
Rp4129
sS'PFDM102T'
p4130
g2
(g3
(S'S4'
p4131
I0
I1
tp4132
Rp4133
(I3
S'|'
p4134
NNNI4
I1
I0
tp4135
bS'DEGF'
p4136
tp4137
Rp4138
sS'PFDM202T'
p4139
g2
(g3
(S'S4'
p4140
I0
I1
tp4141
Rp4142
(I3
S'|'
p4143
NNNI4
I1
I0
tp4144
bS'DEGF'
p4145
tp4146
Rp4147
sS'4MP28AV'
p4148
g2
(g3
(S'S3'
p4149
I0
I1
tp4150
Rp4151
(I3
S'|'
p4152
NNNI3
I1
I0
tp4153
bS'VDC'
p4154
tp4155
Rp4156
sS'4RT586T'
p4157
g2
(g3
(S'S4'
p4158
I0
I1
tp4159
Rp4160
(I3
S'|'
p4161
NNNI4
I1
I0
tp4162
bS'DEGF'
p4163
tp4164
Rp4165
sS'TEP_PSU1'
p4166
g2
(g3
(S'S4'
p4167
I0
I1
tp4168
Rp4169
(I3
S'|'
p4170
NNNI4
I1
I0
tp4171
bS'DEGF'
p4172
tp4173
Rp4174
sS'CPA2V'
p4175
g2
(g3
(S'S1'
p4176
I0
I1
tp4177
Rp4178
(I3
S'|'
p4179
NNNI1
I1
I0
tp4180
bg45
tp4181
Rp4182
sS'OOBTHR37'
p4183
g2
(g3
(S'S4'
p4184
I0
I1
tp4185
Rp4186
(I3
S'|'
p4187
NNNI4
I1
I0
tp4188
bS'DEGF'
p4189
tp4190
Rp4191
sS'OOBTHR36'
p4192
g2
(g3
(S'S4'
p4193
I0
I1
tp4194
Rp4195
(I3
S'|'
p4196
NNNI4
I1
I0
tp4197
bS'DEGF'
p4198
tp4199
Rp4200
sS'OOBTHR35'
p4201
g2
(g3
(S'S4'
p4202
I0
I1
tp4203
Rp4204
(I3
S'|'
p4205
NNNI4
I1
I0
tp4206
bS'DEGF'
p4207
tp4208
Rp4209
sS'4RT705T'
p4210
g2
(g3
(S'S4'
p4211
I0
I1
tp4212
Rp4213
(I3
S'|'
p4214
NNNI4
I1
I0
tp4215
bS'DEGF'
p4216
tp4217
Rp4218
sS'CUSOBIT'
p4219
g2
(g3
(S'S4'
p4220
I0
I1
tp4221
Rp4222
(I3
S'|'
p4223
NNNI4
I1
I0
tp4224
bS'DEGF'
p4225
tp4226
Rp4227
sS'TAPEA1T'
p4228
g2
(g3
(S'S4'
p4229
I0
I1
tp4230
Rp4231
(I3
S'|'
p4232
NNNI4
I1
I0
tp4233
bS'DEGF'
p4234
tp4235
Rp4236
sS'AOSPBCS3B'
p4237
g2
(g3
(S'S4'
p4238
I0
I1
tp4239
Rp4240
(I3
S'|'
p4241
NNNI4
I1
I0
tp4242
bS'MAMP'
p4243
tp4244
Rp4245
sS'EOESAC2C'
p4246
g2
(g3
(S'S3'
p4247
I0
I1
tp4248
Rp4249
(I3
S'|'
p4250
NNNI3
I1
I0
tp4251
bS'AMP'
p4252
tp4253
Rp4254
sS'OOBTHR39'
p4255
g2
(g3
(S'S4'
p4256
I0
I1
tp4257
Rp4258
(I3
S'|'
p4259
NNNI4
I1
I0
tp4260
bS'DEGF'
p4261
tp4262
Rp4263
sS'OOBTHR38'
p4264
g2
(g3
(S'S4'
p4265
I0
I1
tp4266
Rp4267
(I3
S'|'
p4268
NNNI4
I1
I0
tp4269
bS'DEGF'
p4270
tp4271
Rp4272
sS'2P24VBVL'
p4273
g2
(g3
(S'S3'
p4274
I0
I1
tp4275
Rp4276
(I3
S'|'
p4277
NNNI3
I1
I0
tp4278
bS'VDC'
p4279
tp4280
Rp4281
sS'AIRU2G2T'
p4282
g2
(g3
(S'S4'
p4283
I0
I1
tp4284
Rp4285
(I3
S'|'
p4286
NNNI4
I1
I0
tp4287
bS'DEGF'
p4288
tp4289
Rp4290
sS'AWD3TQI'
p4291
g2
(g3
(S'S3'
p4292
I0
I1
tp4293
Rp4294
(I3
S'|'
p4295
NNNI3
I1
I0
tp4296
bS'AMP'
p4297
tp4298
Rp4299
sS'1DEP3AVO'
p4300
g2
(g3
(S'S1'
p4301
I0
I1
tp4302
Rp4303
(I3
S'|'
p4304
NNNI1
I1
I0
tp4305
bg45
tp4306
Rp4307
sS'AIRU1G2T'
p4308
g2
(g3
(S'S4'
p4309
I0
I1
tp4310
Rp4311
(I3
S'|'
p4312
NNNI4
I1
I0
tp4313
bS'DEGF'
p4314
tp4315
Rp4316
sS'TPC_CEA'
p4317
g2
(g3
(S'S4'
p4318
I0
I1
tp4319
Rp4320
(I3
S'|'
p4321
NNNI4
I1
I0
tp4322
bS'DEGF'
p4323
tp4324
Rp4325
sS'AIRU1G2I'
p4326
g2
(g3
(S'S4'
p4327
I0
I1
tp4328
Rp4329
(I3
S'|'
p4330
NNNI4
I1
I0
tp4331
bS'MAMP'
p4332
tp4333
Rp4334
sS'PM2THV2T'
p4335
g2
(g3
(S'S4'
p4336
I0
I1
tp4337
Rp4338
(I3
S'|'
p4339
NNNI4
I1
I0
tp4340
bS'DEGF'
p4341
tp4342
Rp4343
sS'OOBTHR08'
p4344
g2
(g3
(S'S4'
p4345
I0
I1
tp4346
Rp4347
(I3
S'|'
p4348
NNNI4
I1
I0
tp4349
bS'DEGF'
p4350
tp4351
Rp4352
sS'AVACMONV'
p4353
g2
(g3
(S'S1'
p4354
I0
I1
tp4355
Rp4356
(I3
S'|'
p4357
NNNI1
I1
I0
tp4358
bg45
tp4359
Rp4360
sS'4RT590T'
p4361
g2
(g3
(S'S4'
p4362
I0
I1
tp4363
Rp4364
(I3
S'|'
p4365
NNNI4
I1
I0
tp4366
bS'DEGF'
p4367
tp4368
Rp4369
sS'TEP_PSU2'
p4370
g2
(g3
(S'S4'
p4371
I0
I1
tp4372
Rp4373
(I3
S'|'
p4374
NNNI4
I1
I0
tp4375
bS'DEGF'
p4376
tp4377
Rp4378
sS'TPZLGABM'
p4379
g2
(g3
(S'S4'
p4380
I0
I1
tp4381
Rp4382
(I3
S'|'
p4383
NNNI4
I1
I0
tp4384
bS'DEGF'
p4385
tp4386
Rp4387
sS'1OAHAT'
p4388
g2
(g3
(S'S4'
p4389
I0
I1
tp4390
Rp4391
(I3
S'|'
p4392
NNNI4
I1
I0
tp4393
bS'DEGC'
p4394
tp4395
Rp4396
sS'AHKNATPR'
p4397
g2
(g3
(S'S1'
p4398
I0
I1
tp4399
Rp4400
(I3
S'|'
p4401
NNNI1
I1
I0
tp4402
bg45
tp4403
Rp4404
sS'ASPEFSW4B'
p4405
g2
(g3
(S'S3'
p4406
I0
I1
tp4407
Rp4408
(I3
S'|'
p4409
NNNI3
I1
I0
tp4410
bS'DEG'
p4411
tp4412
Rp4413
sS'ARWA4BT'
p4414
g2
(g3
(S'S4'
p4415
I0
I1
tp4416
Rp4417
(I3
S'|'
p4418
NNNI4
I1
I0
tp4419
bS'DEGF'
p4420
tp4421
Rp4422
sS'PLAED4IT'
p4423
g2
(g3
(S'S4'
p4424
I0
I1
tp4425
Rp4426
(I3
S'|'
p4427
NNNI4
I1
I0
tp4428
bS'DEGF'
p4429
tp4430
Rp4431
sS'AOMANRT'
p4432
g2
(g3
(S'S5'
p4433
I0
I1
tp4434
Rp4435
(I3
S'|'
p4436
NNNI5
I1
I0
tp4437
bS'RADPS'
p4438
tp4439
Rp4440
sS'AOCSSI1'
p4441
g2
(g3
(S'S4'
p4442
I0
I1
tp4443
Rp4444
(I3
S'|'
p4445
NNNI4
I1
I0
tp4446
bS'MAMP'
p4447
tp4448
Rp4449
sS'AOCSSI3'
p4450
g2
(g3
(S'S4'
p4451
I0
I1
tp4452
Rp4453
(I3
S'|'
p4454
NNNI4
I1
I0
tp4455
bS'MAMP'
p4456
tp4457
Rp4458
sS'AIRU2G1T'
p4459
g2
(g3
(S'S4'
p4460
I0
I1
tp4461
Rp4462
(I3
S'|'
p4463
NNNI4
I1
I0
tp4464
bS'DEGF'
p4465
tp4466
Rp4467
sS'AOCSSI4'
p4468
g2
(g3
(S'S4'
p4469
I0
I1
tp4470
Rp4471
(I3
S'|'
p4472
NNNI4
I1
I0
tp4473
bS'MAMP'
p4474
tp4475
Rp4476
sS'AIRU2G1I'
p4477
g2
(g3
(S'S4'
p4478
I0
I1
tp4479
Rp4480
(I3
S'|'
p4481
NNNI4
I1
I0
tp4482
bS'MAMP'
p4483
tp4484
Rp4485
sS'CTUB15V'
p4486
g2
(g3
(S'S1'
p4487
I0
I1
tp4488
Rp4489
(I3
S'|'
p4490
NNNI1
I1
I0
tp4491
bg45
tp4492
Rp4493
sS'1VAHCAT'
p4494
g2
(g3
(S'S4'
p4495
I0
I1
tp4496
Rp4497
(I3
S'|'
p4498
NNNI4
I1
I0
tp4499
bS'DEGC'
p4500
tp4501
Rp4502
sS'TB3T2'
p4503
g2
(g3
(S'S4'
p4504
I0
I1
tp4505
Rp4506
(I3
S'|'
p4507
NNNI4
I1
I0
tp4508
bS'DEGF'
p4509
tp4510
Rp4511
sS'TB3T3'
p4512
g2
(g3
(S'S4'
p4513
I0
I1
tp4514
Rp4515
(I3
S'|'
p4516
NNNI4
I1
I0
tp4517
bS'DEGF'
p4518
tp4519
Rp4520
sS'PLAED3CT'
p4521
g2
(g3
(S'S4'
p4522
I0
I1
tp4523
Rp4524
(I3
S'|'
p4525
NNNI4
I1
I0
tp4526
bS'DEGF'
p4527
tp4528
Rp4529
sS'1PIN1AT'
p4530
g2
(g3
(S'S4'
p4531
I0
I1
tp4532
Rp4533
(I3
S'|'
p4534
NNNI4
I1
I0
tp4535
bS'DEGC'
p4536
tp4537
Rp4538
sS'1DP28BVO'
p4539
g2
(g3
(S'S1'
p4540
I0
I1
tp4541
Rp4542
(I3
S'|'
p4543
NNNI1
I1
I0
tp4544
bg45
tp4545
Rp4546
sS'AOIRERL1'
p4547
g2
(g3
(S'S3'
p4548
I0
I1
tp4549
Rp4550
(I3
S'|'
p4551
NNNI3
I1
I0
tp4552
bS'RAD'
p4553
tp4554
Rp4555
sS'PLAEV1BT'
p4556
g2
(g3
(S'S4'
p4557
I0
I1
tp4558
Rp4559
(I3
S'|'
p4560
NNNI4
I1
I0
tp4561
bS'DEGF'
p4562
tp4563
Rp4564
sS'AOIRERL2'
p4565
g2
(g3
(S'S3'
p4566
I0
I1
tp4567
Rp4568
(I3
S'|'
p4569
NNNI3
I1
I0
tp4570
bS'RAD'
p4571
tp4572
Rp4573
sS'PFDM201T'
p4574
g2
(g3
(S'S4'
p4575
I0
I1
tp4576
Rp4577
(I3
S'|'
p4578
NNNI4
I1
I0
tp4579
bS'DEGF'
p4580
tp4581
Rp4582
sS'TPCP_RW3'
p4583
g2
(g3
(S'S4'
p4584
I0
I1
tp4585
Rp4586
(I3
S'|'
p4587
NNNI4
I1
I0
tp4588
bS'DEGF'
p4589
tp4590
Rp4591
sS'AOIRERL3'
p4592
g2
(g3
(S'S3'
p4593
I0
I1
tp4594
Rp4595
(I3
S'|'
p4596
NNNI3
I1
I0
tp4597
bS'RAD'
p4598
tp4599
Rp4600
sS'1PDEABT'
p4601
g2
(g3
(S'S4'
p4602
I0
I1
tp4603
Rp4604
(I3
S'|'
p4605
NNNI4
I1
I0
tp4606
bS'DEGC'
p4607
tp4608
Rp4609
sS'TPCP_RW2'
p4610
g2
(g3
(S'S4'
p4611
I0
I1
tp4612
Rp4613
(I3
S'|'
p4614
NNNI4
I1
I0
tp4615
bS'DEGF'
p4616
tp4617
Rp4618
sS'PLAED2HT'
p4619
g2
(g3
(S'S4'
p4620
I0
I1
tp4621
Rp4622
(I3
S'|'
p4623
NNNI4
I1
I0
tp4624
bS'DEGF'
p4625
tp4626
Rp4627
sS'AOADBCH2A_PCAD'
p4628
g2
(g3
(S'S3'
p4629
I0
I1
tp4630
Rp4631
(I3
S'|'
p4632
NNNI3
I1
I0
tp4633
bS'DEG'
p4634
tp4635
Rp4636
sS'TRSPOTEP'
p4637
g2
(g3
(S'S4'
p4638
I0
I1
tp4639
Rp4640
(I3
S'|'
p4641
NNNI4
I1
I0
tp4642
bS'DEGF'
p4643
tp4644
Rp4645
sS'AORWPI6B'
p4646
g2
(g3
(S'S4'
p4647
I0
I1
tp4648
Rp4649
(I3
S'|'
p4650
NNNI4
I1
I0
tp4651
bS'MSEC'
p4652
tp4653
Rp4654
sS'TCM_PAN'
p4655
g2
(g3
(S'S4'
p4656
I0
I1
tp4657
Rp4658
(I3
S'|'
p4659
NNNI4
I1
I0
tp4660
bS'DEGF'
p4661
tp4662
Rp4663
sS'TCM_SSR2'
p4664
g2
(g3
(S'S4'
p4665
I0
I1
tp4666
Rp4667
(I3
S'|'
p4668
NNNI4
I1
I0
tp4669
bS'DEGF'
p4670
tp4671
Rp4672
sS'PMTANKP'
p4673
g2
(g3
(S'S4'
p4674
I0
I1
tp4675
Rp4676
(I3
S'|'
p4677
NNNI4
I1
I0
tp4678
bS'PSIA'
p4679
tp4680
Rp4681
sS'EOECNV1C'
p4682
g2
(g3
(S'S1'
p4683
I0
I1
tp4684
Rp4685
(I3
S'|'
p4686
NNNI1
I1
I0
tp4687
bg45
tp4688
Rp4689
sS'AFLCABH'
p4690
g2
(g3
(S'S1'
p4691
I0
I1
tp4692
Rp4693
(I3
S'|'
p4694
NNNI1
I1
I0
tp4695
bg45
tp4696
Rp4697
sS'3FLCABPT'
p4698
g2
(g3
(S'S4'
p4699
I0
I1
tp4700
Rp4701
(I3
S'|'
p4702
NNNI4
I1
I0
tp4703
bS'DEGC'
p4704
tp4705
Rp4706
sS'OHRTHR18'
p4707
g2
(g3
(S'S4'
p4708
I0
I1
tp4709
Rp4710
(I3
S'|'
p4711
NNNI4
I1
I0
tp4712
bS'DEGF'
p4713
tp4714
Rp4715
sS'OHRTHR19'
p4716
g2
(g3
(S'S4'
p4717
I0
I1
tp4718
Rp4719
(I3
S'|'
p4720
NNNI4
I1
I0
tp4721
bS'DEGF'
p4722
tp4723
Rp4724
sS'AFLCA3BI'
p4725
g2
(g3
(S'S4'
p4726
I0
I1
tp4727
Rp4728
(I3
S'|'
p4729
NNNI4
I1
I0
tp4730
bS'MAMP'
p4731
tp4732
Rp4733
sS'OHRTHR14'
p4734
g2
(g3
(S'S4'
p4735
I0
I1
tp4736
Rp4737
(I3
S'|'
p4738
NNNI4
I1
I0
tp4739
bS'DEGF'
p4740
tp4741
Rp4742
sS'OHRTHR15'
p4743
g2
(g3
(S'S4'
p4744
I0
I1
tp4745
Rp4746
(I3
S'|'
p4747
NNNI4
I1
I0
tp4748
bS'DEGF'
p4749
tp4750
Rp4751
sS'OHRTHR12'
p4752
g2
(g3
(S'S4'
p4753
I0
I1
tp4754
Rp4755
(I3
S'|'
p4756
NNNI4
I1
I0
tp4757
bS'DEGF'
p4758
tp4759
Rp4760
sS'OHRTHR13'
p4761
g2
(g3
(S'S4'
p4762
I0
I1
tp4763
Rp4764
(I3
S'|'
p4765
NNNI4
I1
I0
tp4766
bS'DEGF'
p4767
tp4768
Rp4769
sS'OHRTHR10'
p4770
g2
(g3
(S'S4'
p4771
I0
I1
tp4772
Rp4773
(I3
S'|'
p4774
NNNI4
I1
I0
tp4775
bS'DEGF'
p4776
tp4777
Rp4778
sS'OHRTHR11'
p4779
g2
(g3
(S'S4'
p4780
I0
I1
tp4781
Rp4782
(I3
S'|'
p4783
NNNI4
I1
I0
tp4784
bS'DEGF'
p4785
tp4786
Rp4787
sS'CIUB15V'
p4788
g2
(g3
(S'S1'
p4789
I0
I1
tp4790
Rp4791
(I3
S'|'
p4792
NNNI1
I1
I0
tp4793
bg45
tp4794
Rp4795
sS'3TTHRC3T'
p4796
g2
(g3
(S'S4'
p4797
I0
I1
tp4798
Rp4799
(I3
S'|'
p4800
NNNI4
I1
I0
tp4801
bS'DEGC'
p4802
tp4803
Rp4804
sS'PLAED3HT'
p4805
g2
(g3
(S'S4'
p4806
I0
I1
tp4807
Rp4808
(I3
S'|'
p4809
NNNI4
I1
I0
tp4810
bS'DEGF'
p4811
tp4812
Rp4813
sS'AIRU2BT'
p4814
g2
(g3
(S'S4'
p4815
I0
I1
tp4816
Rp4817
(I3
S'|'
p4818
NNNI4
I1
I0
tp4819
bS'DEGF'
p4820
tp4821
Rp4822
sS'AORWSPD1'
p4823
g2
(g3
(S'S5'
p4824
I0
I1
tp4825
Rp4826
(I3
S'|'
p4827
NNNI5
I1
I0
tp4828
bS'RADPS'
p4829
tp4830
Rp4831
sS'AORWSPD2'
p4832
g2
(g3
(S'S5'
p4833
I0
I1
tp4834
Rp4835
(I3
S'|'
p4836
NNNI5
I1
I0
tp4837
bS'RADPS'
p4838
tp4839
Rp4840
sS'AORWSPD3'
p4841
g2
(g3
(S'S5'
p4842
I0
I1
tp4843
Rp4844
(I3
S'|'
p4845
NNNI5
I1
I0
tp4846
bS'RADPS'
p4847
tp4848
Rp4849
sS'AORWSPD4'
p4850
g2
(g3
(S'S5'
p4851
I0
I1
tp4852
Rp4853
(I3
S'|'
p4854
NNNI5
I1
I0
tp4855
bS'RADPS'
p4856
tp4857
Rp4858
sS'AORWSPD5'
p4859
g2
(g3
(S'S5'
p4860
I0
I1
tp4861
Rp4862
(I3
S'|'
p4863
NNNI5
I1
I0
tp4864
bS'RADPS'
p4865
tp4866
Rp4867
sS'AORWSPD6'
p4868
g2
(g3
(S'S5'
p4869
I0
I1
tp4870
Rp4871
(I3
S'|'
p4872
NNNI5
I1
I0
tp4873
bS'RADPS'
p4874
tp4875
Rp4876
sS'PM1THV1T'
p4877
g2
(g3
(S'S4'
p4878
I0
I1
tp4879
Rp4880
(I3
S'|'
p4881
NNNI4
I1
I0
tp4882
bS'DEGF'
p4883
tp4884
Rp4885
sS'AOCMDRT2'
p4886
g2
(g3
(S'S5'
p4887
I0
I1
tp4888
Rp4889
(I3
S'|'
p4890
NNNI5
I1
I0
tp4891
bS'RADPS'
p4892
tp4893
Rp4894
sS'AOCMDRT3'
p4895
g2
(g3
(S'S5'
p4896
I0
I1
tp4897
Rp4898
(I3
S'|'
p4899
NNNI5
I1
I0
tp4900
bS'RADPS'
p4901
tp4902
Rp4903
sS'AI2AX2X'
p4904
g2
(g3
(S'S5'
p4905
I0
I1
tp4906
Rp4907
(I3
S'|'
p4908
NNNI5
I1
I0
tp4909
bS'DEGPS'
p4910
tp4911
Rp4912
sS'AI2AX2Y'
p4913
g2
(g3
(S'S5'
p4914
I0
I1
tp4915
Rp4916
(I3
S'|'
p4917
NNNI5
I1
I0
tp4918
bS'DEGPS'
p4919
tp4920
Rp4921
sS'4RT564T'
p4922
g2
(g3
(S'S4'
p4923
I0
I1
tp4924
Rp4925
(I3
S'|'
p4926
NNNI4
I1
I0
tp4927
bS'DEGF'
p4928
tp4929
Rp4930
sS'EORTDMN21D'
p4931
g2
(g3
(S'S4'
p4932
I0
I1
tp4933
Rp4934
(I3
S'|'
p4935
NNNI4
I1
I0
tp4936
bS'DEGF'
p4937
tp4938
Rp4939
sS'4RT704T'
p4940
g2
(g3
(S'S4'
p4941
I0
I1
tp4942
Rp4943
(I3
S'|'
p4944
NNNI4
I1
I0
tp4945
bS'DEGF'
p4946
tp4947
Rp4948
sS'PM3THV2T'
p4949
g2
(g3
(S'S4'
p4950
I0
I1
tp4951
Rp4952
(I3
S'|'
p4953
NNNI4
I1
I0
tp4954
bS'DEGF'
p4955
tp4956
Rp4957
sS'1DEN1BVO'
p4958
g2
(g3
(S'S1'
p4959
I0
I1
tp4960
Rp4961
(I3
S'|'
p4962
NNNI1
I1
I0
tp4963
bg45
tp4964
Rp4965
sS'4SP52V'
p4966
g2
(g3
(S'S3'
p4967
I0
I1
tp4968
Rp4969
(I3
S'|'
p4970
NNNI3
I1
I0
tp4971
bS'VDC'
p4972
tp4973
Rp4974
sS'EORTDMN29D'
p4975
g2
(g3
(S'S4'
p4976
I0
I1
tp4977
Rp4978
(I3
S'|'
p4979
NNNI4
I1
I0
tp4980
bS'DEGF'
p4981
tp4982
Rp4983
sS'PLINE04T'
p4984
g2
(g3
(S'S4'
p4985
I0
I1
tp4986
Rp4987
(I3
S'|'
p4988
NNNI4
I1
I0
tp4989
bS'DEGF'
p4990
tp4991
Rp4992
sS'PLAED3BT'
p4993
g2
(g3
(S'S4'
p4994
I0
I1
tp4995
Rp4996
(I3
S'|'
p4997
NNNI4
I1
I0
tp4998
bS'DEGF'
p4999
tp5000
Rp5001
sS'AIOBP5CV'
p5002
g2
(g3
(S'S1'
p5003
I0
I1
tp5004
Rp5005
(I3
S'|'
p5006
NNNI1
I1
I0
tp5007
bg45
tp5008
Rp5009
sS'PXTANKOP'
p5010
g2
(g3
(S'S4'
p5011
I0
I1
tp5012
Rp5013
(I3
S'|'
p5014
NNNI4
I1
I0
tp5015
bS'PSIA'
p5016
tp5017
Rp5018
sS'4OAVHRMT'
p5019
g2
(g3
(S'S4'
p5020
I0
I1
tp5021
Rp5022
(I3
S'|'
p5023
NNNI4
I1
I0
tp5024
bS'DEGF'
p5025
tp5026
Rp5027
sS'EORTDMN28D'
p5028
g2
(g3
(S'S4'
p5029
I0
I1
tp5030
Rp5031
(I3
S'|'
p5032
NNNI4
I1
I0
tp5033
bS'DEGF'
p5034
tp5035
Rp5036
sS'PFFP01T'
p5037
g2
(g3
(S'S4'
p5038
I0
I1
tp5039
Rp5040
(I3
S'|'
p5041
NNNI4
I1
I0
tp5042
bS'DEGF'
p5043
tp5044
Rp5045
sS'2N15VAVL'
p5046
g2
(g3
(S'S3'
p5047
I0
I1
tp5048
Rp5049
(I3
S'|'
p5050
NNNI3
I1
I0
tp5051
bS'VDC'
p5052
tp5053
Rp5054
sS'4RT578T'
p5055
g2
(g3
(S'S4'
p5056
I0
I1
tp5057
Rp5058
(I3
S'|'
p5059
NNNI4
I1
I0
tp5060
bS'DEGF'
p5061
tp5062
Rp5063
sS'4LFSPBT'
p5064
g2
(g3
(S'S4'
p5065
I0
I1
tp5066
Rp5067
(I3
S'|'
p5068
NNNI4
I1
I0
tp5069
bS'DEGF'
p5070
tp5071
Rp5072
sS'TMP_FEP1_PCB'
p5073
g282
sS'AOSPBCS2B'
p5074
g2
(g3
(S'S4'
p5075
I0
I1
tp5076
Rp5077
(I3
S'|'
p5078
NNNI4
I1
I0
tp5079
bS'MAMP'
p5080
tp5081
Rp5082
sS'1DEP0AVO'
p5083
g2
(g3
(S'S1'
p5084
I0
I1
tp5085
Rp5086
(I3
S'|'
p5087
NNNI1
I1
I0
tp5088
bg45
tp5089
Rp5090
sS'4CSDOAV'
p5091
g2
(g3
(S'S3'
p5092
I0
I1
tp5093
Rp5094
(I3
S'|'
p5095
NNNI3
I1
I0
tp5096
bS'VDC'
p5097
tp5098
Rp5099
sS'TEP_BPAN'
p5100
g2
(g3
(S'S4'
p5101
I0
I1
tp5102
Rp5103
(I3
S'|'
p5104
NNNI4
I1
I0
tp5105
bS'DEGF'
p5106
tp5107
Rp5108
sS'1WRAT'
p5109
g2
(g3
(S'S4'
p5110
I0
I1
tp5111
Rp5112
(I3
S'|'
p5113
NNNI4
I1
I0
tp5114
bS'DEGC'
p5115
tp5116
Rp5117
sS'PLAED1GT'
p5118
g2
(g3
(S'S4'
p5119
I0
I1
tp5120
Rp5121
(I3
S'|'
p5122
NNNI4
I1
I0
tp5123
bS'DEGF'
p5124
tp5125
Rp5126
sS'TASPRWC'
p5127
g2
(g3
(S'S4'
p5128
I0
I1
tp5129
Rp5130
(I3
S'|'
p5131
NNNI4
I1
I0
tp5132
bS'DEGF'
p5133
tp5134
Rp5135
sS'4PRT3AT'
p5136
g2
(g3
(S'S4'
p5137
I0
I1
tp5138
Rp5139
(I3
S'|'
p5140
NNNI4
I1
I0
tp5141
bS'DEGF'
p5142
tp5143
Rp5144
sS'PLINE01T'
p5145
g2
(g3
(S'S4'
p5146
I0
I1
tp5147
Rp5148
(I3
S'|'
p5149
NNNI4
I1
I0
tp5150
bS'DEGF'
p5151
tp5152
Rp5153
sS'AFLCA8AI'
p5154
g2
(g3
(S'S4'
p5155
I0
I1
tp5156
Rp5157
(I3
S'|'
p5158
NNNI4
I1
I0
tp5159
bS'MAMP'
p5160
tp5161
Rp5162
sS'AACBPPT'
p5163
g2
(g3
(S'S4'
p5164
I0
I1
tp5165
Rp5166
(I3
S'|'
p5167
NNNI4
I1
I0
tp5168
bS'DEGF'
p5169
tp5170
Rp5171
sS'4HPOSBRO'
p5172
g2
(g3
(S'S3'
p5173
I0
I1
tp5174
Rp5175
(I3
S'|'
p5176
NNNI3
I1
I0
tp5177
bS'DEG'
p5178
tp5179
Rp5180
sS'AORTERR3'
p5181
g2
(g3
(S'S5'
p5182
I0
I1
tp5183
Rp5184
(I3
S'|'
p5185
NNNI5
I1
I0
tp5186
bS'RADPS'
p5187
tp5188
Rp5189
sS'1PDEAAT'
p5190
g2
(g3
(S'S4'
p5191
I0
I1
tp5192
Rp5193
(I3
S'|'
p5194
NNNI4
I1
I0
tp5195
bS'DEGC'
p5196
tp5197
Rp5198
sS'PCM02T'
p5199
g2
(g3
(S'S4'
p5200
I0
I1
tp5201
Rp5202
(I3
S'|'
p5203
NNNI4
I1
I0
tp5204
bS'DEGF'
p5205
tp5206
Rp5207
sS'TCYLPCP'
p5208
g2
(g3
(S'S4'
p5209
I0
I1
tp5210
Rp5211
(I3
S'|'
p5212
NNNI4
I1
I0
tp5213
bS'DEGF'
p5214
tp5215
Rp5216
sS'3FAMYZAT'
p5217
g2
(g3
(S'S4'
p5218
I0
I1
tp5219
Rp5220
(I3
S'|'
p5221
NNNI4
I1
I0
tp5222
bS'DEGC'
p5223
tp5224
Rp5225
sS'AACCCDPT'
p5226
g2
(g3
(S'S4'
p5227
I0
I1
tp5228
Rp5229
(I3
S'|'
p5230
NNNI4
I1
I0
tp5231
bS'DEGF'
p5232
tp5233
Rp5234
sS'OHRTHR17'
p5235
g2
(g3
(S'S4'
p5236
I0
I1
tp5237
Rp5238
(I3
S'|'
p5239
NNNI4
I1
I0
tp5240
bS'DEGF'
p5241
tp5242
Rp5243
sS'OOBTHR41'
p5244
g2
(g3
(S'S4'
p5245
I0
I1
tp5246
Rp5247
(I3
S'|'
p5248
NNNI4
I1
I0
tp5249
bS'DEGF'
p5250
tp5251
Rp5252
sS'4OAVOBAT'
p5253
g2
(g3
(S'S4'
p5254
I0
I1
tp5255
Rp5256
(I3
S'|'
p5257
NNNI4
I1
I0
tp5258
bS'DEGF'
p5259
tp5260
Rp5261
sS'OOBTHR51'
p5262
g2
(g3
(S'S4'
p5263
I0
I1
tp5264
Rp5265
(I3
S'|'
p5266
NNNI4
I1
I0
tp5267
bS'DEGF'
p5268
tp5269
Rp5270
sS'TPC_WDA'
p5271
g2
(g3
(S'S4'
p5272
I0
I1
tp5273
Rp5274
(I3
S'|'
p5275
NNNI4
I1
I0
tp5276
bS'DEGF'
p5277
tp5278
Rp5279
sS'TSCTSF6'
p5280
g2
(g3
(S'S4'
p5281
I0
I1
tp5282
Rp5283
(I3
S'|'
p5284
NNNI4
I1
I0
tp5285
bS'DEGF'
p5286
tp5287
Rp5288
sS'4RT709T'
p5289
g2
(g3
(S'S4'
p5290
I0
I1
tp5291
Rp5292
(I3
S'|'
p5293
NNNI4
I1
I0
tp5294
bS'DEGF'
p5295
tp5296
Rp5297
sS'AWD1TQI'
p5298
g2
(g3
(S'S3'
p5299
I0
I1
tp5300
Rp5301
(I3
S'|'
p5302
NNNI3
I1
I0
tp5303
bS'AMP'
p5304
tp5305
Rp5306
sS'TCM_TX2'
p5307
g2
(g3
(S'S4'
p5308
I0
I1
tp5309
Rp5310
(I3
S'|'
p5311
NNNI4
I1
I0
tp5312
bS'DEGF'
p5313
tp5314
Rp5315
sS'TCM_TX1'
p5316
g2
(g3
(S'S4'
p5317
I0
I1
tp5318
Rp5319
(I3
S'|'
p5320
NNNI4
I1
I0
tp5321
bS'DEGF'
p5322
tp5323
Rp5324
sS'CTUA5V'
p5325
g2
(g3
(S'S1'
p5326
I0
I1
tp5327
Rp5328
(I3
S'|'
p5329
NNNI1
I1
I0
tp5330
bg45
tp5331
Rp5332
sS'4LLL1BT'
p5333
g2
(g3
(S'S4'
p5334
I0
I1
tp5335
Rp5336
(I3
S'|'
p5337
NNNI4
I1
I0
tp5338
bS'DEGF'
p5339
tp5340
Rp5341
sS'TMZP_CNT'
p5342
g2
(g3
(S'S4'
p5343
I0
I1
tp5344
Rp5345
(I3
S'|'
p5346
NNNI4
I1
I0
tp5347
bS'DEGF'
p5348
tp5349
Rp5350
sS'4RT582T'
p5351
g2
(g3
(S'S4'
p5352
I0
I1
tp5353
Rp5354
(I3
S'|'
p5355
NNNI4
I1
I0
tp5356
bS'DEGF'
p5357
tp5358
Rp5359
sS'TMP_BEP_PCB'
p5360
g282
sS'AHKNATRD'
p5361
g2
(g3
(S'S1'
p5362
I0
I1
tp5363
Rp5364
(I3
S'|'
p5365
NNNI1
I1
I0
tp5366
bg45
tp5367
Rp5368
sS'EOEB3VC'
p5369
g2
(g3
(S'S1'
p5370
I0
I1
tp5371
Rp5372
(I3
S'|'
p5373
NNNI1
I1
I0
tp5374
bg45
tp5375
Rp5376
sS'OOBTHR50'
p5377
g2
(g3
(S'S4'
p5378
I0
I1
tp5379
Rp5380
(I3
S'|'
p5381
NNNI4
I1
I0
tp5382
bS'DEGF'
p5383
tp5384
Rp5385
sS'AFLCA6AI'
p5386
g2
(g3
(S'S4'
p5387
I0
I1
tp5388
Rp5389
(I3
S'|'
p5390
NNNI4
I1
I0
tp5391
bS'MAMP'
p5392
tp5393
Rp5394
sS'4CSDOBV'
p5395
g2
(g3
(S'S3'
p5396
I0
I1
tp5397
Rp5398
(I3
S'|'
p5399
NNNI3
I1
I0
tp5400
bS'VDC'
p5401
tp5402
Rp5403
sS'AFLCA9BI'
p5404
g2
(g3
(S'S4'
p5405
I0
I1
tp5406
Rp5407
(I3
S'|'
p5408
NNNI4
I1
I0
tp5409
bS'MAMP'
p5410
tp5411
Rp5412
sS'1DEP2AVO'
p5413
g2
(g3
(S'S1'
p5414
I0
I1
tp5415
Rp5416
(I3
S'|'
p5417
NNNI1
I1
I0
tp5418
bg45
tp5419
Rp5420
sS'3RCTUBPT'
p5421
g2
(g3
(S'S4'
p5422
I0
I1
tp5423
Rp5424
(I3
S'|'
p5425
NNNI4
I1
I0
tp5426
bS'DEGC'
p5427
tp5428
Rp5429
sS'OHRTHR62'
p5430
g2
(g3
(S'S4'
p5431
I0
I1
tp5432
Rp5433
(I3
S'|'
p5434
NNNI4
I1
I0
tp5435
bS'DEGF'
p5436
tp5437
Rp5438
sS'OOBTHR49'
p5439
g2
(g3
(S'S4'
p5440
I0
I1
tp5441
Rp5442
(I3
S'|'
p5443
NNNI4
I1
I0
tp5444
bS'DEGF'
p5445
tp5446
Rp5447
sS'CRXBV'
p5448
g2
(g3
(S'S1'
p5449
I0
I1
tp5450
Rp5451
(I3
S'|'
p5452
NNNI1
I1
I0
tp5453
bg45
tp5454
Rp5455
sS'OOBTHR47'
p5456
g2
(g3
(S'S4'
p5457
I0
I1
tp5458
Rp5459
(I3
S'|'
p5460
NNNI4
I1
I0
tp5461
bS'DEGF'
p5462
tp5463
Rp5464
sS'OOBTHR44'
p5465
g2
(g3
(S'S4'
p5466
I0
I1
tp5467
Rp5468
(I3
S'|'
p5469
NNNI4
I1
I0
tp5470
bS'DEGF'
p5471
tp5472
Rp5473
sS'OOBTHR45'
p5474
g2
(g3
(S'S4'
p5475
I0
I1
tp5476
Rp5477
(I3
S'|'
p5478
NNNI4
I1
I0
tp5479
bS'DEGF'
p5480
tp5481
Rp5482
sS'OOBTHR42'
p5483
g2
(g3
(S'S4'
p5484
I0
I1
tp5485
Rp5486
(I3
S'|'
p5487
NNNI4
I1
I0
tp5488
bS'DEGF'
p5489
tp5490
Rp5491
sS'OOBTHR43'
p5492
g2
(g3
(S'S4'
p5493
I0
I1
tp5494
Rp5495
(I3
S'|'
p5496
NNNI4
I1
I0
tp5497
bS'DEGF'
p5498
tp5499
Rp5500
sS'OOBTHR40'
p5501
g2
(g3
(S'S4'
p5502
I0
I1
tp5503
Rp5504
(I3
S'|'
p5505
NNNI4
I1
I0
tp5506
bS'DEGF'
p5507
tp5508
Rp5509
sS'4PRT5AT'
p5510
g2
(g3
(S'S4'
p5511
I0
I1
tp5512
Rp5513
(I3
S'|'
p5514
NNNI4
I1
I0
tp5515
bS'DEGF'
p5516
tp5517
Rp5518
sS'ASPEB5CV'
p5519
g2
(g3
(S'S1'
p5520
I0
I1
tp5521
Rp5522
(I3
S'|'
p5523
NNNI1
I1
I0
tp5524
bg45
tp5525
Rp5526
sS'PLAED2IT'
p5527
g2
(g3
(S'S4'
p5528
I0
I1
tp5529
Rp5530
(I3
S'|'
p5531
NNNI4
I1
I0
tp5532
bS'DEGF'
p5533
tp5534
Rp5535
sS'CVEEP'
p5536
g2
(g3
(S'S1'
p5537
I0
I1
tp5538
Rp5539
(I3
S'|'
p5540
NNNI1
I1
I0
tp5541
bg45
tp5542
Rp5543
sS'AWD2CV5V'
p5544
g2
(g3
(S'S1'
p5545
I0
I1
tp5546
Rp5547
(I3
S'|'
p5548
NNNI1
I1
I0
tp5549
bg45
tp5550
Rp5551
sS'EORTDMN14D'
p5552
g2
(g3
(S'S4'
p5553
I0
I1
tp5554
Rp5555
(I3
S'|'
p5556
NNNI4
I1
I0
tp5557
bS'DEGF'
p5558
tp5559
Rp5560
sS'OHRMGRD3'
p5561
g2
(g3
(S'S4'
p5562
I0
I1
tp5563
Rp5564
(I3
S'|'
p5565
NNNI4
I1
I0
tp5566
bS'DEGF'
p5567
tp5568
Rp5569
sS'ARWA1BT'
p5570
g2
(g3
(S'S4'
p5571
I0
I1
tp5572
Rp5573
(I3
S'|'
p5574
NNNI4
I1
I0
tp5575
bS'DEGF'
p5576
tp5577
Rp5578
sS'AFLCA7BI'
p5579
g2
(g3
(S'S4'
p5580
I0
I1
tp5581
Rp5582
(I3
S'|'
p5583
NNNI4
I1
I0
tp5584
bS'MAMP'
p5585
tp5586
Rp5587
sS'PLAED4GT'
p5588
g2
(g3
(S'S4'
p5589
I0
I1
tp5590
Rp5591
(I3
S'|'
p5592
NNNI4
I1
I0
tp5593
bS'DEGF'
p5594
tp5595
Rp5596
sS'AFLC14BI'
p5597
g2
(g3
(S'S4'
p5598
I0
I1
tp5599
Rp5600
(I3
S'|'
p5601
NNNI4
I1
I0
tp5602
bS'MAMP'
p5603
tp5604
Rp5605
sS'POLINE06T'
p5606
g2
(g3
(S'S4'
p5607
I0
I1
tp5608
Rp5609
(I3
S'|'
p5610
NNNI4
I1
I0
tp5611
bS'DEGF'
p5612
tp5613
Rp5614
sS'AOSPACS4B'
p5615
g2
(g3
(S'S4'
p5616
I0
I1
tp5617
Rp5618
(I3
S'|'
p5619
NNNI4
I1
I0
tp5620
bS'MAMP'
p5621
tp5622
Rp5623
sS'ACPA5CV'
p5624
g2
(g3
(S'S1'
p5625
I0
I1
tp5626
Rp5627
(I3
S'|'
p5628
NNNI1
I1
I0
tp5629
bg45
tp5630
Rp5631
sS'OHRTHR59'
p5632
g2
(g3
(S'S4'
p5633
I0
I1
tp5634
Rp5635
(I3
S'|'
p5636
NNNI4
I1
I0
tp5637
bS'DEGF'
p5638
tp5639
Rp5640
sS'OHRTHR52'
p5641
g2
(g3
(S'S4'
p5642
I0
I1
tp5643
Rp5644
(I3
S'|'
p5645
NNNI4
I1
I0
tp5646
bS'DEGF'
p5647
tp5648
Rp5649
sS'OHRTHR53'
p5650
g2
(g3
(S'S4'
p5651
I0
I1
tp5652
Rp5653
(I3
S'|'
p5654
NNNI4
I1
I0
tp5655
bS'DEGF'
p5656
tp5657
Rp5658
sS'OHRTHR50'
p5659
g2
(g3
(S'S4'
p5660
I0
I1
tp5661
Rp5662
(I3
S'|'
p5663
NNNI4
I1
I0
tp5664
bS'DEGF'
p5665
tp5666
Rp5667
sS'4LFSPAT'
p5668
g2
(g3
(S'S4'
p5669
I0
I1
tp5670
Rp5671
(I3
S'|'
p5672
NNNI4
I1
I0
tp5673
bS'DEGF'
p5674
tp5675
Rp5676
sS'OHRTHR56'
p5677
g2
(g3
(S'S4'
p5678
I0
I1
tp5679
Rp5680
(I3
S'|'
p5681
NNNI4
I1
I0
tp5682
bS'DEGF'
p5683
tp5684
Rp5685
sS'2P15VAVL'
p5686
g2
(g3
(S'S3'
p5687
I0
I1
tp5688
Rp5689
(I3
S'|'
p5690
NNNI3
I1
I0
tp5691
bS'VDC'
p5692
tp5693
Rp5694
sS'OHRTHR54'
p5695
g2
(g3
(S'S4'
p5696
I0
I1
tp5697
Rp5698
(I3
S'|'
p5699
NNNI4
I1
I0
tp5700
bS'DEGF'
p5701
tp5702
Rp5703
sS'AAOTAPMT'
p5704
g2
(g3
(S'S4'
p5705
I0
I1
tp5706
Rp5707
(I3
S'|'
p5708
NNNI4
I1
I0
tp5709
bS'DEGF'
p5710
tp5711
Rp5712
sS'AORWPI2B'
p5713
g2
(g3
(S'S4'
p5714
I0
I1
tp5715
Rp5716
(I3
S'|'
p5717
NNNI4
I1
I0
tp5718
bS'MSEC'
p5719
tp5720
Rp5721
sS'TCYZ_RW1'
p5722
g2
(g3
(S'S4'
p5723
I0
I1
tp5724
Rp5725
(I3
S'|'
p5726
NNNI4
I1
I0
tp5727
bS'DEGF'
p5728
tp5729
Rp5730
sS'OHRTHR60'
p5731
g2
(g3
(S'S4'
p5732
I0
I1
tp5733
Rp5734
(I3
S'|'
p5735
NNNI4
I1
I0
tp5736
bS'DEGF'
p5737
tp5738
Rp5739
sS'OOBTHR09'
p5740
g2
(g3
(S'S4'
p5741
I0
I1
tp5742
Rp5743
(I3
S'|'
p5744
NNNI4
I1
I0
tp5745
bS'DEGF'
p5746
tp5747
Rp5748
sS'3TSMXCET'
p5749
g2
(g3
(S'S4'
p5750
I0
I1
tp5751
Rp5752
(I3
S'|'
p5753
NNNI4
I1
I0
tp5754
bS'DEGC'
p5755
tp5756
Rp5757
sS'TCYZ_RW6'
p5758
g2
(g3
(S'S4'
p5759
I0
I1
tp5760
Rp5761
(I3
S'|'
p5762
NNNI4
I1
I0
tp5763
bS'DEGF'
p5764
tp5765
Rp5766
sS'ARWA2BT'
p5767
g2
(g3
(S'S4'
p5768
I0
I1
tp5769
Rp5770
(I3
S'|'
p5771
NNNI4
I1
I0
tp5772
bS'DEGF'
p5773
tp5774
Rp5775
sS'PLAED3ET'
p5776
g2
(g3
(S'S4'
p5777
I0
I1
tp5778
Rp5779
(I3
S'|'
p5780
NNNI4
I1
I0
tp5781
bS'DEGF'
p5782
tp5783
Rp5784
sS'TSAPYT'
p5785
g2
(g3
(S'S4'
p5786
I0
I1
tp5787
Rp5788
(I3
S'|'
p5789
NNNI4
I1
I0
tp5790
bS'DEGF'
p5791
tp5792
Rp5793
sS'CPA1V'
p5794
g2
(g3
(S'S1'
p5795
I0
I1
tp5796
Rp5797
(I3
S'|'
p5798
NNNI1
I1
I0
tp5799
bg45
tp5800
Rp5801
sS'ASPEA5CV'
p5802
g2
(g3
(S'S1'
p5803
I0
I1
tp5804
Rp5805
(I3
S'|'
p5806
NNNI1
I1
I0
tp5807
bg45
tp5808
Rp5809
sS'PXTANK1T'
p5810
g2
(g3
(S'S4'
p5811
I0
I1
tp5812
Rp5813
(I3
S'|'
p5814
NNNI4
I1
I0
tp5815
bS'DEGF'
p5816
tp5817
Rp5818
sS'4RT568T'
p5819
g2
(g3
(S'S4'
p5820
I0
I1
tp5821
Rp5822
(I3
S'|'
p5823
NNNI4
I1
I0
tp5824
bS'DEGF'
p5825
tp5826
Rp5827
sS'ACPB5CV'
p5828
g2
(g3
(S'S1'
p5829
I0
I1
tp5830
Rp5831
(I3
S'|'
p5832
NNNI1
I1
I0
tp5833
bg45
tp5834
Rp5835
sS'OOBTHR02'
p5836
g2
(g3
(S'S4'
p5837
I0
I1
tp5838
Rp5839
(I3
S'|'
p5840
NNNI4
I1
I0
tp5841
bS'DEGF'
p5842
tp5843
Rp5844
sS'1DPICACU'
p5845
g2
(g3
(S'S3'
p5846
I0
I1
tp5847
Rp5848
(I3
S'|'
p5849
NNNI3
I1
I0
tp5850
bS'AMP'
p5851
tp5852
Rp5853
sS'OOBTHR03'
p5854
g2
(g3
(S'S4'
p5855
I0
I1
tp5856
Rp5857
(I3
S'|'
p5858
NNNI4
I1
I0
tp5859
bS'DEGF'
p5860
tp5861
Rp5862
sS'OOBTHR54'
p5863
g2
(g3
(S'S4'
p5864
I0
I1
tp5865
Rp5866
(I3
S'|'
p5867
NNNI4
I1
I0
tp5868
bS'DEGF'
p5869
tp5870
Rp5871
sS'TOXTSUPN'
p5872
g2
(g3
(S'S4'
p5873
I0
I1
tp5874
Rp5875
(I3
S'|'
p5876
NNNI4
I1
I0
tp5877
bS'DEGF'
p5878
tp5879
Rp5880
sS'AOSACMD1'
p5881
g2
(g3
(S'S3'
p5882
I0
I1
tp5883
Rp5884
(I3
S'|'
p5885
NNNI3
I1
I0
tp5886
bS'RAD'
p5887
tp5888
Rp5889
sS'4RT589T'
p5890
g2
(g3
(S'S4'
p5891
I0
I1
tp5892
Rp5893
(I3
S'|'
p5894
NNNI4
I1
I0
tp5895
bS'DEGF'
p5896
tp5897
Rp5898
sS'ASPEFSW2B'
p5899
g2
(g3
(S'S3'
p5900
I0
I1
tp5901
Rp5902
(I3
S'|'
p5903
NNNI3
I1
I0
tp5904
bS'DEG'
p5905
tp5906
Rp5907
sS'TCYLRWC'
p5908
g2
(g3
(S'S4'
p5909
I0
I1
tp5910
Rp5911
(I3
S'|'
p5912
NNNI4
I1
I0
tp5913
bS'DEGF'
p5914
tp5915
Rp5916
sS'4RT595T'
p5917
g2
(g3
(S'S4'
p5918
I0
I1
tp5919
Rp5920
(I3
S'|'
p5921
NNNI4
I1
I0
tp5922
bS'DEGF'
p5923
tp5924
Rp5925
sS'TCYLAFT5'
p5926
g2
(g3
(S'S4'
p5927
I0
I1
tp5928
Rp5929
(I3
S'|'
p5930
NNNI4
I1
I0
tp5931
bS'DEGF'
p5932
tp5933
Rp5934
sS'AORWMOM1'
p5935
g2
(g3
(S'S7'
p5936
I0
I1
tp5937
Rp5938
(I3
S'|'
p5939
NNNI7
I1
I0
tp5940
bS'FTLBSEC'
p5941
tp5942
Rp5943
sS'4RT700T'
p5944
g2
(g3
(S'S4'
p5945
I0
I1
tp5946
Rp5947
(I3
S'|'
p5948
NNNI4
I1
I0
tp5949
bS'DEGF'
p5950
tp5951
Rp5952
sS'OOBTHR07'
p5953
g2
(g3
(S'S4'
p5954
I0
I1
tp5955
Rp5956
(I3
S'|'
p5957
NNNI4
I1
I0
tp5958
bS'DEGF'
p5959
tp5960
Rp5961
sS'1CBAT'
p5962
g2
(g3
(S'S4'
p5963
I0
I1
tp5964
Rp5965
(I3
S'|'
p5966
NNNI4
I1
I0
tp5967
bS'DEGC'
p5968
tp5969
Rp5970
sS'CPA2BPT'
p5971
g2
(g3
(S'S4'
p5972
I0
I1
tp5973
Rp5974
(I3
S'|'
p5975
NNNI4
I1
I0
tp5976
bS'DEGF'
p5977
tp5978
Rp5979
sS'4IP15AV'
p5980
g2
(g3
(S'S3'
p5981
I0
I1
tp5982
Rp5983
(I3
S'|'
p5984
NNNI3
I1
I0
tp5985
bS'VDC'
p5986
tp5987
Rp5988
sS'4ALL2AT'
p5989
g2
(g3
(S'S4'
p5990
I0
I1
tp5991
Rp5992
(I3
S'|'
p5993
NNNI4
I1
I0
tp5994
bS'DEGF'
p5995
tp5996
Rp5997
sS'4PRT4AT'
p5998
g2
(g3
(S'S4'
p5999
I0
I1
tp6000
Rp6001
(I3
S'|'
p6002
NNNI4
I1
I0
tp6003
bS'DEGF'
p6004
tp6005
Rp6006
sS'TCYLAFT6'
p6007
g2
(g3
(S'S4'
p6008
I0
I1
tp6009
Rp6010
(I3
S'|'
p6011
NNNI4
I1
I0
tp6012
bS'DEGF'
p6013
tp6014
Rp6015
sS'PLAED2AT'
p6016
g2
(g3
(S'S4'
p6017
I0
I1
tp6018
Rp6019
(I3
S'|'
p6020
NNNI4
I1
I0
tp6021
bS'DEGF'
p6022
tp6023
Rp6024
sS'TAPEA2T'
p6025
g2
(g3
(S'S4'
p6026
I0
I1
tp6027
Rp6028
(I3
S'|'
p6029
NNNI4
I1
I0
tp6030
bS'DEGF'
p6031
tp6032
Rp6033
sS'AFLC10AI'
p6034
g2
(g3
(S'S4'
p6035
I0
I1
tp6036
Rp6037
(I3
S'|'
p6038
NNNI4
I1
I0
tp6039
bS'MAMP'
p6040
tp6041
Rp6042
sS'POR1TV02T'
p6043
g2
(g3
(S'S4'
p6044
I0
I1
tp6045
Rp6046
(I3
S'|'
p6047
NNNI4
I1
I0
tp6048
bS'DEGF'
p6049
tp6050
Rp6051
sS'2PMT2T'
p6052
g2
(g3
(S'S4'
p6053
I0
I1
tp6054
Rp6055
(I3
S'|'
p6056
NNNI4
I1
I0
tp6057
bS'DEGC'
p6058
tp6059
Rp6060
sS'EIACVAV'
p6061
g2
(g3
(S'S1'
p6062
I0
I1
tp6063
Rp6064
(I3
S'|'
p6065
NNNI1
I1
I0
tp6066
bg45
tp6067
Rp6068
sS'4IP5BV'
p6069
g2
(g3
(S'S3'
p6070
I0
I1
tp6071
Rp6072
(I3
S'|'
p6073
NNNI3
I1
I0
tp6074
bS'VDC'
p6075
tp6076
Rp6077
sS'PLAED1HT'
p6078
g2
(g3
(S'S4'
p6079
I0
I1
tp6080
Rp6081
(I3
S'|'
p6082
NNNI4
I1
I0
tp6083
bS'DEGF'
p6084
tp6085
Rp6086
sS'1MAHOAT'
p6087
g2
(g3
(S'S4'
p6088
I0
I1
tp6089
Rp6090
(I3
S'|'
p6091
NNNI4
I1
I0
tp6092
bS'DEGC'
p6093
tp6094
Rp6095
sS'EORTDMN24D'
p6096
g2
(g3
(S'S4'
p6097
I0
I1
tp6098
Rp6099
(I3
S'|'
p6100
NNNI4
I1
I0
tp6101
bS'DEGF'
p6102
tp6103
Rp6104
sS'3TTVALVT'
p6105
g2
(g3
(S'S4'
p6106
I0
I1
tp6107
Rp6108
(I3
S'|'
p6109
NNNI4
I1
I0
tp6110
bS'DEGC'
p6111
tp6112
Rp6113
sS'PXDM02T'
p6114
g2
(g3
(S'S4'
p6115
I0
I1
tp6116
Rp6117
(I3
S'|'
p6118
NNNI4
I1
I0
tp6119
bS'DEGF'
p6120
tp6121
Rp6122
sS'CUSOAIT'
p6123
g2
(g3
(S'S4'
p6124
I0
I1
tp6125
Rp6126
(I3
S'|'
p6127
NNNI4
I1
I0
tp6128
bS'DEGF'
p6129
tp6130
Rp6131
sS'4HPOSARO'
p6132
g2
(g3
(S'S3'
p6133
I0
I1
tp6134
Rp6135
(I3
S'|'
p6136
NNNI3
I1
I0
tp6137
bS'DEG'
p6138
tp6139
Rp6140
sS'OHRMGRD6'
p6141
g2
(g3
(S'S4'
p6142
I0
I1
tp6143
Rp6144
(I3
S'|'
p6145
NNNI4
I1
I0
tp6146
bS'DEGF'
p6147
tp6148
Rp6149
sS'POLINE05T'
p6150
g2
(g3
(S'S4'
p6151
I0
I1
tp6152
Rp6153
(I3
S'|'
p6154
NNNI4
I1
I0
tp6155
bS'DEGF'
p6156
tp6157
Rp6158
sS'4VRMOAV'
p6159
g2
(g3
(S'S3'
p6160
I0
I1
tp6161
Rp6162
(I3
S'|'
p6163
NNNI3
I1
I0
tp6164
bS'VDC'
p6165
tp6166
Rp6167
sS'EOEB3V'
p6168
g2
(g3
(S'S1'
p6169
I0
I1
tp6170
Rp6171
(I3
S'|'
p6172
NNNI1
I1
I0
tp6173
bg45
tp6174
Rp6175
sS'EB2V'
p6176
g2
(g3
(S'S1'
p6177
I0
I1
tp6178
Rp6179
(I3
S'|'
p6180
NNNI1
I1
I0
tp6181
bg45
tp6182
Rp6183
sS'AOTQCMD1'
p6184
g2
(g3
(S'S4'
p6185
I0
I1
tp6186
Rp6187
(I3
S'|'
p6188
NNNI4
I1
I0
tp6189
bS'FTLB'
p6190
tp6191
Rp6192
sS'AOTQCMD3'
p6193
g2
(g3
(S'S4'
p6194
I0
I1
tp6195
Rp6196
(I3
S'|'
p6197
NNNI4
I1
I0
tp6198
bS'FTLB'
p6199
tp6200
Rp6201
sS'AOTQCMD2'
p6202
g2
(g3
(S'S4'
p6203
I0
I1
tp6204
Rp6205
(I3
S'|'
p6206
NNNI4
I1
I0
tp6207
bS'FTLB'
p6208
tp6209
Rp6210
sS'OHRTHR25'
p6211
g2
(g3
(S'S4'
p6212
I0
I1
tp6213
Rp6214
(I3
S'|'
p6215
NNNI4
I1
I0
tp6216
bS'DEGF'
p6217
tp6218
Rp6219
sS'AIRU2G2I'
p6220
g2
(g3
(S'S4'
p6221
I0
I1
tp6222
Rp6223
(I3
S'|'
p6224
NNNI4
I1
I0
tp6225
bS'MAMP'
p6226
tp6227
Rp6228
sS'TRSPOTEX'
p6229
g2
(g3
(S'S4'
p6230
I0
I1
tp6231
Rp6232
(I3
S'|'
p6233
NNNI4
I1
I0
tp6234
bS'DEGF'
p6235
tp6236
Rp6237
sS'TFUTSUPN'
p6238
g2
(g3
(S'S4'
p6239
I0
I1
tp6240
Rp6241
(I3
S'|'
p6242
NNNI4
I1
I0
tp6243
bS'DEGF'
p6244
tp6245
Rp6246
sS'AOSPACS1B'
p6247
g2
(g3
(S'S4'
p6248
I0
I1
tp6249
Rp6250
(I3
S'|'
p6251
NNNI4
I1
I0
tp6252
bS'MAMP'
p6253
tp6254
Rp6255
sS'EOEBC'
p6256
g2
(g3
(S'S3'
p6257
I0
I1
tp6258
Rp6259
(I3
S'|'
p6260
NNNI3
I1
I0
tp6261
bS'AMP'
p6262
tp6263
Rp6264
sS'AOACYAN7'
p6265
g2
(g3
(S'S4'
p6266
I0
I1
tp6267
Rp6268
(I3
S'|'
p6269
NNNI4
I1
I0
tp6270
bS'ASEC'
p6271
tp6272
Rp6273
sS'1CRAT'
p6274
g2
(g3
(S'S4'
p6275
I0
I1
tp6276
Rp6277
(I3
S'|'
p6278
NNNI4
I1
I0
tp6279
bS'DEGC'
p6280
tp6281
Rp6282
sS'AOACYAN0'
p6283
g2
(g3
(S'S4'
p6284
I0
I1
tp6285
Rp6286
(I3
S'|'
p6287
NNNI4
I1
I0
tp6288
bS'ASEC'
p6289
tp6290
Rp6291
sS'PMTANK2T'
p6292
g2
(g3
(S'S4'
p6293
I0
I1
tp6294
Rp6295
(I3
S'|'
p6296
NNNI4
I1
I0
tp6297
bS'DEGF'
p6298
tp6299
Rp6300
sS'AOACYAN1'
p6301
g2
(g3
(S'S4'
p6302
I0
I1
tp6303
Rp6304
(I3
S'|'
p6305
NNNI4
I1
I0
tp6306
bS'ASEC'
p6307
tp6308
Rp6309
sS'TMP_FEP0_PCB'
p6310
g282
sS'1SSPYT'
p6311
g2
(g3
(S'S4'
p6312
I0
I1
tp6313
Rp6314
(I3
S'|'
p6315
NNNI4
I1
I0
tp6316
bS'DEGC'
p6317
tp6318
Rp6319
sS'AOACYAN2'
p6320
g2
(g3
(S'S4'
p6321
I0
I1
tp6322
Rp6323
(I3
S'|'
p6324
NNNI4
I1
I0
tp6325
bS'ASEC'
p6326
tp6327
Rp6328
sS'PLAED1CT'
p6329
g2
(g3
(S'S4'
p6330
I0
I1
tp6331
Rp6332
(I3
S'|'
p6333
NNNI4
I1
I0
tp6334
bS'DEGF'
p6335
tp6336
Rp6337
sS'OHRTHR24'
p6338
g2
(g3
(S'S4'
p6339
I0
I1
tp6340
Rp6341
(I3
S'|'
p6342
NNNI4
I1
I0
tp6343
bS'DEGF'
p6344
tp6345
Rp6346
sS'PLAED4HT'
p6347
g2
(g3
(S'S4'
p6348
I0
I1
tp6349
Rp6350
(I3
S'|'
p6351
NNNI4
I1
I0
tp6352
bS'DEGF'
p6353
tp6354
Rp6355
sS'2DTSTATT'
p6356
g2
(g3
(S'S4'
p6357
I0
I1
tp6358
Rp6359
(I3
S'|'
p6360
NNNI4
I1
I0
tp6361
bS'DEGC'
p6362
tp6363
Rp6364
sS'AI2AX1Y'
p6365
g2
(g3
(S'S5'
p6366
I0
I1
tp6367
Rp6368
(I3
S'|'
p6369
NNNI5
I1
I0
tp6370
bS'DEGPS'
p6371
tp6372
Rp6373
sS'AI2AX1X'
p6374
g2
(g3
(S'S5'
p6375
I0
I1
tp6376
Rp6377
(I3
S'|'
p6378
NNNI5
I1
I0
tp6379
bS'DEGPS'
p6380
tp6381
Rp6382
sS'AAOTASMT'
p6383
g2
(g3
(S'S4'
p6384
I0
I1
tp6385
Rp6386
(I3
S'|'
p6387
NNNI4
I1
I0
tp6388
bS'DEGF'
p6389
tp6390
Rp6391
sS'CSITA5V'
p6392
g2
(g3
(S'S1'
p6393
I0
I1
tp6394
Rp6395
(I3
S'|'
p6396
NNNI1
I1
I0
tp6397
bg45
tp6398
Rp6399
sS'AORTERR1'
p6400
g2
(g3
(S'S5'
p6401
I0
I1
tp6402
Rp6403
(I3
S'|'
p6404
NNNI5
I1
I0
tp6405
bS'RADPS'
p6406
tp6407
Rp6408
sS'TCYLAFT3'
p6409
g2
(g3
(S'S4'
p6410
I0
I1
tp6411
Rp6412
(I3
S'|'
p6413
NNNI4
I1
I0
tp6414
bS'DEGF'
p6415
tp6416
Rp6417
sS'TCYLAFT2'
p6418
g2
(g3
(S'S4'
p6419
I0
I1
tp6420
Rp6421
(I3
S'|'
p6422
NNNI4
I1
I0
tp6423
bS'DEGF'
p6424
tp6425
Rp6426
sS'OOBTHR06'
p6427
g2
(g3
(S'S4'
p6428
I0
I1
tp6429
Rp6430
(I3
S'|'
p6431
NNNI4
I1
I0
tp6432
bS'DEGF'
p6433
tp6434
Rp6435
sS'4LLL1AT'
p6436
g2
(g3
(S'S4'
p6437
I0
I1
tp6438
Rp6439
(I3
S'|'
p6440
NNNI4
I1
I0
tp6441
bS'DEGF'
p6442
tp6443
Rp6444
sS'OOBTHR04'
p6445
g2
(g3
(S'S4'
p6446
I0
I1
tp6447
Rp6448
(I3
S'|'
p6449
NNNI4
I1
I0
tp6450
bS'DEGF'
p6451
tp6452
Rp6453
sS'OOBTHR05'
p6454
g2
(g3
(S'S4'
p6455
I0
I1
tp6456
Rp6457
(I3
S'|'
p6458
NNNI4
I1
I0
tp6459
bS'DEGF'
p6460
tp6461
Rp6462
sS'EOESAT2C'
p6463
g2
(g3
(S'S4'
p6464
I0
I1
tp6465
Rp6466
(I3
S'|'
p6467
NNNI4
I1
I0
tp6468
bS'DEGF'
p6469
tp6470
Rp6471
sS'PR3TV01T'
p6472
g2
(g3
(S'S4'
p6473
I0
I1
tp6474
Rp6475
(I3
S'|'
p6476
NNNI4
I1
I0
tp6477
bS'DEGF'
p6478
tp6479
Rp6480
sS'TBOLTCUT'
p6481
g2
(g3
(S'S4'
p6482
I0
I1
tp6483
Rp6484
(I3
S'|'
p6485
NNNI4
I1
I0
tp6486
bS'DEGF'
p6487
tp6488
Rp6489
sS'AOACYAN4'
p6490
g2
(g3
(S'S4'
p6491
I0
I1
tp6492
Rp6493
(I3
S'|'
p6494
NNNI4
I1
I0
tp6495
bS'ASEC'
p6496
tp6497
Rp6498
sS'AOACYAN5'
p6499
g2
(g3
(S'S4'
p6500
I0
I1
tp6501
Rp6502
(I3
S'|'
p6503
NNNI4
I1
I0
tp6504
bS'ASEC'
p6505
tp6506
Rp6507
sS'AOACYAN6'
p6508
g2
(g3
(S'S4'
p6509
I0
I1
tp6510
Rp6511
(I3
S'|'
p6512
NNNI4
I1
I0
tp6513
bS'ASEC'
p6514
tp6515
Rp6516
sS'AFLCAAH'
p6517
g2
(g3
(S'S1'
p6518
I0
I1
tp6519
Rp6520
(I3
S'|'
p6521
NNNI1
I1
I0
tp6522
bg45
tp6523
Rp6524
sS'AFSSPC2V'
p6525
g2
(g3
(S'S1'
p6526
I0
I1
tp6527
Rp6528
(I3
S'|'
p6529
NNNI1
I1
I0
tp6530
bg45
tp6531
Rp6532
sS'1MAHCBT'
p6533
g2
(g3
(S'S4'
p6534
I0
I1
tp6535
Rp6536
(I3
S'|'
p6537
NNNI4
I1
I0
tp6538
bS'DEGC'
p6539
tp6540
Rp6541
sS'AFLC11AI'
p6542
g2
(g3
(S'S4'
p6543
I0
I1
tp6544
Rp6545
(I3
S'|'
p6546
NNNI4
I1
I0
tp6547
bS'MAMP'
p6548
tp6549
Rp6550
sS'AOACYAN3'
p6551
g2
(g3
(S'S4'
p6552
I0
I1
tp6553
Rp6554
(I3
S'|'
p6555
NNNI4
I1
I0
tp6556
bS'ASEC'
p6557
tp6558
Rp6559
sS'TFSSBKT1'
p6560
g2
(g3
(S'S4'
p6561
I0
I1
tp6562
Rp6563
(I3
S'|'
p6564
NNNI4
I1
I0
tp6565
bS'DEGF'
p6566
tp6567
Rp6568
sS'PLAED4CT'
p6569
g2
(g3
(S'S4'
p6570
I0
I1
tp6571
Rp6572
(I3
S'|'
p6573
NNNI4
I1
I0
tp6574
bS'DEGF'
p6575
tp6576
Rp6577
sS'CUSOB28V'
p6578
g2
(g3
(S'S1'
p6579
I0
I1
tp6580
Rp6581
(I3
S'|'
p6582
NNNI1
I1
I0
tp6583
bg45
tp6584
Rp6585
sS'AORESY7'
p6586
g2
(g3
(S'S3'
p6587
I0
I1
tp6588
Rp6589
(I3
S'|'
p6590
NNNI3
I1
I0
tp6591
bS'RAD'
p6592
tp6593
Rp6594
sS'AORESY4'
p6595
g2
(g3
(S'S3'
p6596
I0
I1
tp6597
Rp6598
(I3
S'|'
p6599
NNNI3
I1
I0
tp6600
bS'RAD'
p6601
tp6602
Rp6603
sS'CSITB5V'
p6604
g2
(g3
(S'S1'
p6605
I0
I1
tp6606
Rp6607
(I3
S'|'
p6608
NNNI1
I1
I0
tp6609
bg45
tp6610
Rp6611
sS'4RT563T'
p6612
g2
(g3
(S'S4'
p6613
I0
I1
tp6614
Rp6615
(I3
S'|'
p6616
NNNI4
I1
I0
tp6617
bS'DEGF'
p6618
tp6619
Rp6620
sS'AORESY0'
p6621
g2
(g3
(S'S3'
p6622
I0
I1
tp6623
Rp6624
(I3
S'|'
p6625
NNNI3
I1
I0
tp6626
bS'RAD'
p6627
tp6628
Rp6629
sS'CSITB15V'
p6630
g2
(g3
(S'S1'
p6631
I0
I1
tp6632
Rp6633
(I3
S'|'
p6634
NNNI1
I1
I0
tp6635
bg45
tp6636
Rp6637
sS'EB2CI'
p6638
g2
(g3
(S'S3'
p6639
I0
I1
tp6640
Rp6641
(I3
S'|'
p6642
NNNI3
I1
I0
tp6643
bS'AMP'
p6644
tp6645
Rp6646
sS'AORESZ2_1'
p6647
g2
(g3
(S'S3'
p6648
I0
I1
tp6649
Rp6650
(I3
S'|'
p6651
NNNI3
I1
I0
tp6652
bS'RAD'
p6653
tp6654
Rp6655
sS'1DAHBVO'
p6656
g2
(g3
(S'S1'
p6657
I0
I1
tp6658
Rp6659
(I3
S'|'
p6660
NNNI1
I1
I0
tp6661
bg45
tp6662
Rp6663
sS'POLAEV2BT'
p6664
g2
(g3
(S'S4'
p6665
I0
I1
tp6666
Rp6667
(I3
S'|'
p6668
NNNI4
I1
I0
tp6669
bS'DEGF'
p6670
tp6671
Rp6672
sS'PLAED1ET'
p6673
g2
(g3
(S'S4'
p6674
I0
I1
tp6675
Rp6676
(I3
S'|'
p6677
NNNI4
I1
I0
tp6678
bS'DEGF'
p6679
tp6680
Rp6681
sS'PR1TV01T'
p6682
g2
(g3
(S'S4'
p6683
I0
I1
tp6684
Rp6685
(I3
S'|'
p6686
NNNI4
I1
I0
tp6687
bS'DEGF'
p6688
tp6689
Rp6690
sS'CSSR2CBV'
p6691
g2
(g3
(S'S1'
p6692
I0
I1
tp6693
Rp6694
(I3
S'|'
p6695
NNNI1
I1
I0
tp6696
bg45
tp6697
Rp6698
sS'4RT707T'
p6699
g2
(g3
(S'S4'
p6700
I0
I1
tp6701
Rp6702
(I3
S'|'
p6703
NNNI4
I1
I0
tp6704
bS'DEGF'
p6705
tp6706
Rp6707
sS'PLINE05T'
p6708
g2
(g3
(S'S4'
p6709
I0
I1
tp6710
Rp6711
(I3
S'|'
p6712
NNNI4
I1
I0
tp6713
bS'DEGF'
p6714
tp6715
Rp6716
sS'PLAED3AT'
p6717
g2
(g3
(S'S4'
p6718
I0
I1
tp6719
Rp6720
(I3
S'|'
p6721
NNNI4
I1
I0
tp6722
bS'DEGF'
p6723
tp6724
Rp6725
sS'TAPE2PST'
p6726
g2
(g3
(S'S4'
p6727
I0
I1
tp6728
Rp6729
(I3
S'|'
p6730
NNNI4
I1
I0
tp6731
bS'DEGF'
p6732
tp6733
Rp6734
sS'4PRT4BT'
p6735
g2
(g3
(S'S4'
p6736
I0
I1
tp6737
Rp6738
(I3
S'|'
p6739
NNNI4
I1
I0
tp6740
bS'DEGF'
p6741
tp6742
Rp6743
sS'1DAHHAVO'
p6744
g2
(g3
(S'S1'
p6745
I0
I1
tp6746
Rp6747
(I3
S'|'
p6748
NNNI1
I1
I0
tp6749
bg45
tp6750
Rp6751
sS'ASPEFSW1B'
p6752
g2
(g3
(S'S3'
p6753
I0
I1
tp6754
Rp6755
(I3
S'|'
p6756
NNNI3
I1
I0
tp6757
bS'DEG'
p6758
tp6759
Rp6760
sS'POLINE02T'
p6761
g2
(g3
(S'S4'
p6762
I0
I1
tp6763
Rp6764
(I3
S'|'
p6765
NNNI4
I1
I0
tp6766
bS'DEGF'
p6767
tp6768
Rp6769
sS'TMP_FEP1_ACTEL'
p6770
g282
sS'4RT555T'
p6771
g2
(g3
(S'S4'
p6772
I0
I1
tp6773
Rp6774
(I3
S'|'
p6775
NNNI4
I1
I0
tp6776
bS'DEGF'
p6777
tp6778
Rp6779
sS'TPC_DEA'
p6780
g2
(g3
(S'S4'
p6781
I0
I1
tp6782
Rp6783
(I3
S'|'
p6784
NNNI4
I1
I0
tp6785
bS'DEGF'
p6786
tp6787
Rp6788
sS'PXTANKIP'
p6789
g2
(g3
(S'S4'
p6790
I0
I1
tp6791
Rp6792
(I3
S'|'
p6793
NNNI4
I1
I0
tp6794
bS'PSIA'
p6795
tp6796
Rp6797
sS'ARWA5BT'
p6798
g2
(g3
(S'S4'
p6799
I0
I1
tp6800
Rp6801
(I3
S'|'
p6802
NNNI4
I1
I0
tp6803
bS'DEGF'
p6804
tp6805
Rp6806
sS'ELBI_LOW'
p6807
g2
(g3
(S'S3'
p6808
I0
I1
tp6809
Rp6810
(I3
S'|'
p6811
NNNI3
I1
I0
tp6812
bS'AMP'
p6813
tp6814
Rp6815
sS'2CHTRPZT'
p6816
g2
(g3
(S'S4'
p6817
I0
I1
tp6818
Rp6819
(I3
S'|'
p6820
NNNI4
I1
I0
tp6821
bS'DEGC'
p6822
tp6823
Rp6824
sS'4RT579T'
p6825
g2
(g3
(S'S4'
p6826
I0
I1
tp6827
Rp6828
(I3
S'|'
p6829
NNNI4
I1
I0
tp6830
bS'DEGF'
p6831
tp6832
Rp6833
sS'TCM_USO'
p6834
g2
(g3
(S'S4'
p6835
I0
I1
tp6836
Rp6837
(I3
S'|'
p6838
NNNI4
I1
I0
tp6839
bS'DEGF'
p6840
tp6841
Rp6842
sS'PLINE13T'
p6843
g2
(g3
(S'S4'
p6844
I0
I1
tp6845
Rp6846
(I3
S'|'
p6847
NNNI4
I1
I0
tp6848
bS'DEGF'
p6849
tp6850
Rp6851
sS'AOATTER1'
p6852
g2
(g3
(S'S3'
p6853
I0
I1
tp6854
Rp6855
(I3
S'|'
p6856
NNNI3
I1
I0
tp6857
bS'RAD'
p6858
tp6859
Rp6860
sS'AOATTER2'
p6861
g2
(g3
(S'S3'
p6862
I0
I1
tp6863
Rp6864
(I3
S'|'
p6865
NNNI3
I1
I0
tp6866
bS'RAD'
p6867
tp6868
Rp6869
sS'AOATTER3'
p6870
g2
(g3
(S'S3'
p6871
I0
I1
tp6872
Rp6873
(I3
S'|'
p6874
NNNI3
I1
I0
tp6875
bS'RAD'
p6876
tp6877
Rp6878
sS'TMZLGABM'
p6879
g2
(g3
(S'S4'
p6880
I0
I1
tp6881
Rp6882
(I3
S'|'
p6883
NNNI4
I1
I0
tp6884
bS'DEGF'
p6885
tp6886
Rp6887
sS'2P24VAVL'
p6888
g2
(g3
(S'S3'
p6889
I0
I1
tp6890
Rp6891
(I3
S'|'
p6892
NNNI3
I1
I0
tp6893
bS'VDC'
p6894
tp6895
Rp6896
sS'AWD5TQI'
p6897
g2
(g3
(S'S3'
p6898
I0
I1
tp6899
Rp6900
(I3
S'|'
p6901
NNNI3
I1
I0
tp6902
bS'AMP'
p6903
tp6904
Rp6905
sS'AORWBTQ5'
p6906
g2
(g3
(S'S4'
p6907
I0
I1
tp6908
Rp6909
(I3
S'|'
p6910
NNNI4
I1
I0
tp6911
bS'FTLB'
p6912
tp6913
Rp6914
sS'OHRTHR41'
p6915
g2
(g3
(S'S4'
p6916
I0
I1
tp6917
Rp6918
(I3
S'|'
p6919
NNNI4
I1
I0
tp6920
bS'DEGF'
p6921
tp6922
Rp6923
sS'ECNV1V'
p6924
g2
(g3
(S'S1'
p6925
I0
I1
tp6926
Rp6927
(I3
S'|'
p6928
NNNI1
I1
I0
tp6929
bg45
tp6930
Rp6931
sS'EEPA5V'
p6932
g2
(g3
(S'S1'
p6933
I0
I1
tp6934
Rp6935
(I3
S'|'
p6936
NNNI1
I1
I0
tp6937
bg45
tp6938
Rp6939
sS'4RT585T'
p6940
g2
(g3
(S'S4'
p6941
I0
I1
tp6942
Rp6943
(I3
S'|'
p6944
NNNI4
I1
I0
tp6945
bS'DEGF'
p6946
tp6947
Rp6948
sS'PLAED2BT'
p6949
g2
(g3
(S'S4'
p6950
I0
I1
tp6951
Rp6952
(I3
S'|'
p6953
NNNI4
I1
I0
tp6954
bS'DEGF'
p6955
tp6956
Rp6957
sS'AAOTH2MT'
p6958
g2
(g3
(S'S4'
p6959
I0
I1
tp6960
Rp6961
(I3
S'|'
p6962
NNNI4
I1
I0
tp6963
bS'DEGF'
p6964
tp6965
Rp6966
sS'OHRTHR02'
p6967
g2
(g3
(S'S4'
p6968
I0
I1
tp6969
Rp6970
(I3
S'|'
p6971
NNNI4
I1
I0
tp6972
bS'DEGF'
p6973
tp6974
Rp6975
sS'4HLL1BT'
p6976
g2
(g3
(S'S4'
p6977
I0
I1
tp6978
Rp6979
(I3
S'|'
p6980
NNNI4
I1
I0
tp6981
bS'DEGF'
p6982
tp6983
Rp6984
sS'AORESY1_1'
p6985
g2
(g3
(S'S3'
p6986
I0
I1
tp6987
Rp6988
(I3
S'|'
p6989
NNNI3
I1
I0
tp6990
bS'RAD'
p6991
tp6992
Rp6993
sS'OHRTHR07'
p6994
g2
(g3
(S'S4'
p6995
I0
I1
tp6996
Rp6997
(I3
S'|'
p6998
NNNI4
I1
I0
tp6999
bS'DEGF'
p7000
tp7001
Rp7002
sS'OHRTHR06'
p7003
g2
(g3
(S'S4'
p7004
I0
I1
tp7005
Rp7006
(I3
S'|'
p7007
NNNI4
I1
I0
tp7008
bS'DEGF'
p7009
tp7010
Rp7011
sS'OHRTHR09'
p7012
g2
(g3
(S'S4'
p7013
I0
I1
tp7014
Rp7015
(I3
S'|'
p7016
NNNI4
I1
I0
tp7017
bS'DEGF'
p7018
tp7019
Rp7020
sS'1WRBT'
p7021
g2
(g3
(S'S4'
p7022
I0
I1
tp7023
Rp7024
(I3
S'|'
p7025
NNNI4
I1
I0
tp7026
bS'DEGC'
p7027
tp7028
Rp7029
sS'AIRU1VFT'
p7030
g2
(g3
(S'S4'
p7031
I0
I1
tp7032
Rp7033
(I3
S'|'
p7034
NNNI4
I1
I0
tp7035
bS'DEGF'
p7036
tp7037
Rp7038
sS'AORESZ6_6'
p7039
g2
(g3
(S'S3'
p7040
I0
I1
tp7041
Rp7042
(I3
S'|'
p7043
NNNI3
I1
I0
tp7044
bS'RAD'
p7045
tp7046
Rp7047
sS'AORESZ6_7'
p7048
g2
(g3
(S'S3'
p7049
I0
I1
tp7050
Rp7051
(I3
S'|'
p7052
NNNI3
I1
I0
tp7053
bS'RAD'
p7054
tp7055
Rp7056
sS'AORESZ6_4'
p7057
g2
(g3
(S'S3'
p7058
I0
I1
tp7059
Rp7060
(I3
S'|'
p7061
NNNI3
I1
I0
tp7062
bS'RAD'
p7063
tp7064
Rp7065
sS'AOADBCH1A_NBG'
p7066
g2
(g3
(S'S3'
p7067
I0
I1
tp7068
Rp7069
(I3
S'|'
p7070
NNNI3
I1
I0
tp7071
bS'DEG'
p7072
tp7073
Rp7074
sS'AORESZ6_2'
p7075
g2
(g3
(S'S3'
p7076
I0
I1
tp7077
Rp7078
(I3
S'|'
p7079
NNNI3
I1
I0
tp7080
bS'RAD'
p7081
tp7082
Rp7083
sS'AORESZ6_3'
p7084
g2
(g3
(S'S3'
p7085
I0
I1
tp7086
Rp7087
(I3
S'|'
p7088
NNNI3
I1
I0
tp7089
bS'RAD'
p7090
tp7091
Rp7092
sS'CTSA5V'
p7093
g2
(g3
(S'S1'
p7094
I0
I1
tp7095
Rp7096
(I3
S'|'
p7097
NNNI1
I1
I0
tp7098
bg45
tp7099
Rp7100
sS'AORESZ6_1'
p7101
g2
(g3
(S'S3'
p7102
I0
I1
tp7103
Rp7104
(I3
S'|'
p7105
NNNI3
I1
I0
tp7106
bS'RAD'
p7107
tp7108
Rp7109
sS'4RT570T'
p7110
g2
(g3
(S'S4'
p7111
I0
I1
tp7112
Rp7113
(I3
S'|'
p7114
NNNI4
I1
I0
tp7115
bS'DEGF'
p7116
tp7117
Rp7118
sS'3FABRAAT'
p7119
g2
(g3
(S'S4'
p7120
I0
I1
tp7121
Rp7122
(I3
S'|'
p7123
NNNI4
I1
I0
tp7124
bS'DEGC'
p7125
tp7126
Rp7127
sS'TASPPCM'
p7128
g2
(g3
(S'S4'
p7129
I0
I1
tp7130
Rp7131
(I3
S'|'
p7132
NNNI4
I1
I0
tp7133
bS'DEGF'
p7134
tp7135
Rp7136
sS'ELBI'
p7137
g2
(g3
(S'S3'
p7138
I0
I1
tp7139
Rp7140
(I3
S'|'
p7141
NNNI3
I1
I0
tp7142
bS'AMP'
p7143
tp7144
Rp7145
sS'1CBBT'
p7146
g2
(g3
(S'S4'
p7147
I0
I1
tp7148
Rp7149
(I3
S'|'
p7150
NNNI4
I1
I0
tp7151
bS'DEGC'
p7152
tp7153
Rp7154
sS'AORESZ6_8'
p7155
g2
(g3
(S'S3'
p7156
I0
I1
tp7157
Rp7158
(I3
S'|'
p7159
NNNI3
I1
I0
tp7160
bS'RAD'
p7161
tp7162
Rp7163
sS'TMP_FEP0_ACTEL'
p7164
g282
sS'AOSARES2'
p7165
g2
(g3
(S'S3'
p7166
I0
I1
tp7167
Rp7168
(I3
S'|'
p7169
NNNI3
I1
I0
tp7170
bS'DEG'
p7171
tp7172
Rp7173
sS'AORESY5_1'
p7174
g2
(g3
(S'S3'
p7175
I0
I1
tp7176
Rp7177
(I3
S'|'
p7178
NNNI3
I1
I0
tp7179
bS'RAD'
p7180
tp7181
Rp7182
sS'AOSARES1'
p7183
g2
(g3
(S'S3'
p7184
I0
I1
tp7185
Rp7186
(I3
S'|'
p7187
NNNI3
I1
I0
tp7188
bS'DEG'
p7189
tp7190
Rp7191
sS'4RT591T'
p7192
g2
(g3
(S'S4'
p7193
I0
I1
tp7194
Rp7195
(I3
S'|'
p7196
NNNI4
I1
I0
tp7197
bS'DEGF'
p7198
tp7199
Rp7200
sS'TEP_PCU'
p7201
g2
(g3
(S'S4'
p7202
I0
I1
tp7203
Rp7204
(I3
S'|'
p7205
NNNI4
I1
I0
tp7206
bS'DEGF'
p7207
tp7208
Rp7209
sS'1DEP0BVO'
p7210
g2
(g3
(S'S1'
p7211
I0
I1
tp7212
Rp7213
(I3
S'|'
p7214
NNNI1
I1
I0
tp7215
bg45
tp7216
Rp7217
sS'4PRTAV'
p7218
g2
(g3
(S'S3'
p7219
I0
I1
tp7220
Rp7221
(I3
S'|'
p7222
NNNI3
I1
I0
tp7223
bS'VDC'
p7224
tp7225
Rp7226
sS'TMZP_MY'
p7227
g2
(g3
(S'S4'
p7228
I0
I1
tp7229
Rp7230
(I3
S'|'
p7231
NNNI4
I1
I0
tp7232
bS'DEGF'
p7233
tp7234
Rp7235
sS'AOCMDRT1'
p7236
g2
(g3
(S'S5'
p7237
I0
I1
tp7238
Rp7239
(I3
S'|'
p7240
NNNI5
I1
I0
tp7241
bS'RADPS'
p7242
tp7243
Rp7244
sS'CPCA15V'
p7245
g2
(g3
(S'S1'
p7246
I0
I1
tp7247
Rp7248
(I3
S'|'
p7249
NNNI1
I1
I0
tp7250
bg45
tp7251
Rp7252
sS'TMYHNG'
p7253
g2
(g3
(S'S4'
p7254
I0
I1
tp7255
Rp7256
(I3
S'|'
p7257
NNNI4
I1
I0
tp7258
bS'DEGF'
p7259
tp7260
Rp7261
sS'PLAEV3BT'
p7262
g2
(g3
(S'S4'
p7263
I0
I1
tp7264
Rp7265
(I3
S'|'
p7266
NNNI4
I1
I0
tp7267
bS'DEGF'
p7268
tp7269
Rp7270
sS'1DEICBCU'
p7271
g2
(g3
(S'S3'
p7272
I0
I1
tp7273
Rp7274
(I3
S'|'
p7275
NNNI3
I1
I0
tp7276
bS'AMP'
p7277
tp7278
Rp7279
sS'POLAEV4AT'
p7280
g2
(g3
(S'S4'
p7281
I0
I1
tp7282
Rp7283
(I3
S'|'
p7284
NNNI4
I1
I0
tp7285
bS'DEGF'
p7286
tp7287
Rp7288
sS'PLINE12T'
p7289
g2
(g3
(S'S4'
p7290
I0
I1
tp7291
Rp7292
(I3
S'|'
p7293
NNNI4
I1
I0
tp7294
bS'DEGF'
p7295
tp7296
Rp7297
sS'AIRU2VFT'
p7298
g2
(g3
(S'S4'
p7299
I0
I1
tp7300
Rp7301
(I3
S'|'
p7302
NNNI4
I1
I0
tp7303
bS'DEGF'
p7304
tp7305
Rp7306
sS'EOESAT1C'
p7307
g2
(g3
(S'S4'
p7308
I0
I1
tp7309
Rp7310
(I3
S'|'
p7311
NNNI4
I1
I0
tp7312
bS'DEGF'
p7313
tp7314
Rp7315
sS'C28VMONB'
p7316
g2
(g3
(S'S1'
p7317
I0
I1
tp7318
Rp7319
(I3
S'|'
p7320
NNNI1
I1
I0
tp7321
bg45
tp7322
Rp7323
sS'AOADBCH2A_NBG'
p7324
g2
(g3
(S'S3'
p7325
I0
I1
tp7326
Rp7327
(I3
S'|'
p7328
NNNI3
I1
I0
tp7329
bS'DEG'
p7330
tp7331
Rp7332
sS'AOADACH2A_PCAD'
p7333
g2
(g3
(S'S3'
p7334
I0
I1
tp7335
Rp7336
(I3
S'|'
p7337
NNNI3
I1
I0
tp7338
bS'DEG'
p7339
tp7340
Rp7341
sS'3TSPZDET'
p7342
g2
(g3
(S'S4'
p7343
I0
I1
tp7344
Rp7345
(I3
S'|'
p7346
NNNI4
I1
I0
tp7347
bS'DEGC'
p7348
tp7349
Rp7350
sS'AORWINT5'
p7351
g2
(g3
(S'S4'
p7352
I0
I1
tp7353
Rp7354
(I3
S'|'
p7355
NNNI4
I1
I0
tp7356
bS'MSEC'
p7357
tp7358
Rp7359
sS'TPYSADA'
p7360
g2
(g3
(S'S4'
p7361
I0
I1
tp7362
Rp7363
(I3
S'|'
p7364
NNNI4
I1
I0
tp7365
bS'DEGF'
p7366
tp7367
Rp7368
sS'EORTDMN15D'
p7369
g2
(g3
(S'S4'
p7370
I0
I1
tp7371
Rp7372
(I3
S'|'
p7373
NNNI4
I1
I0
tp7374
bS'DEGF'
p7375
tp7376
Rp7377
sS'PLAED4DT'
p7378
g2
(g3
(S'S4'
p7379
I0
I1
tp7380
Rp7381
(I3
S'|'
p7382
NNNI4
I1
I0
tp7383
bS'DEGF'
p7384
tp7385
Rp7386
sS'PHETANKP'
p7387
g2
(g3
(S'S4'
p7388
I0
I1
tp7389
Rp7390
(I3
S'|'
p7391
NNNI4
I1
I0
tp7392
bS'PSIA'
p7393
tp7394
Rp7395
sS'PLINE08T'
p7396
g2
(g3
(S'S4'
p7397
I0
I1
tp7398
Rp7399
(I3
S'|'
p7400
NNNI4
I1
I0
tp7401
bS'DEGF'
p7402
tp7403
Rp7404
sS'POLINE01T'
p7405
g2
(g3
(S'S4'
p7406
I0
I1
tp7407
Rp7408
(I3
S'|'
p7409
NNNI4
I1
I0
tp7410
bS'DEGF'
p7411
tp7412
Rp7413
sS'TPC_FSSE'
p7414
g2
(g3
(S'S4'
p7415
I0
I1
tp7416
Rp7417
(I3
S'|'
p7418
NNNI4
I1
I0
tp7419
bS'DEGF'
p7420
tp7421
Rp7422
sS'AFLC12BI'
p7423
g2
(g3
(S'S4'
p7424
I0
I1
tp7425
Rp7426
(I3
S'|'
p7427
NNNI4
I1
I0
tp7428
bS'MAMP'
p7429
tp7430
Rp7431
sS'CIUA5V'
p7432
g2
(g3
(S'S1'
p7433
I0
I1
tp7434
Rp7435
(I3
S'|'
p7436
NNNI1
I1
I0
tp7437
bg45
tp7438
Rp7439
sS'AFLC14AI'
p7440
g2
(g3
(S'S4'
p7441
I0
I1
tp7442
Rp7443
(I3
S'|'
p7444
NNNI4
I1
I0
tp7445
bS'MAMP'
p7446
tp7447
Rp7448
sS'TSCIUSF1'
p7449
g2
(g3
(S'S4'
p7450
I0
I1
tp7451
Rp7452
(I3
S'|'
p7453
NNNI4
I1
I0
tp7454
bS'DEGF'
p7455
tp7456
Rp7457
sS'PFTANKOP'
p7458
g2
(g3
(S'S4'
p7459
I0
I1
tp7460
Rp7461
(I3
S'|'
p7462
NNNI4
I1
I0
tp7463
bS'PSIA'
p7464
tp7465
Rp7466
sS'AOMANANG'
p7467
g2
(g3
(S'S3'
p7468
I0
I1
tp7469
Rp7470
(I3
S'|'
p7471
NNNI3
I1
I0
tp7472
bS'RAD'
p7473
tp7474
Rp7475
sS'3TTRALCT'
p7476
g2
(g3
(S'S4'
p7477
I0
I1
tp7478
Rp7479
(I3
S'|'
p7480
NNNI4
I1
I0
tp7481
bS'DEGC'
p7482
tp7483
Rp7484
sS'2P15VBVL'
p7485
g2
(g3
(S'S3'
p7486
I0
I1
tp7487
Rp7488
(I3
S'|'
p7489
NNNI3
I1
I0
tp7490
bS'VDC'
p7491
tp7492
Rp7493
sS'AORESZ4'
p7494
g2
(g3
(S'S3'
p7495
I0
I1
tp7496
Rp7497
(I3
S'|'
p7498
NNNI3
I1
I0
tp7499
bS'RAD'
p7500
tp7501
Rp7502
sS'AORESZ3'
p7503
g2
(g3
(S'S3'
p7504
I0
I1
tp7505
Rp7506
(I3
S'|'
p7507
NNNI3
I1
I0
tp7508
bS'RAD'
p7509
tp7510
Rp7511
sS'POM2THV1T'
p7512
g2
(g3
(S'S4'
p7513
I0
I1
tp7514
Rp7515
(I3
S'|'
p7516
NNNI4
I1
I0
tp7517
bS'DEGF'
p7518
tp7519
Rp7520
sS'AORESZ0'
p7521
g2
(g3
(S'S3'
p7522
I0
I1
tp7523
Rp7524
(I3
S'|'
p7525
NNNI3
I1
I0
tp7526
bS'RAD'
p7527
tp7528
Rp7529
sS'AORWNTQ4'
p7530
g2
(g3
(S'S4'
p7531
I0
I1
tp7532
Rp7533
(I3
S'|'
p7534
NNNI4
I1
I0
tp7535
bS'FTLB'
p7536
tp7537
Rp7538
sS'AORWNTQ5'
p7539
g2
(g3
(S'S4'
p7540
I0
I1
tp7541
Rp7542
(I3
S'|'
p7543
NNNI4
I1
I0
tp7544
bS'FTLB'
p7545
tp7546
Rp7547
sS'AORWNTQ6'
p7548
g2
(g3
(S'S4'
p7549
I0
I1
tp7550
Rp7551
(I3
S'|'
p7552
NNNI4
I1
I0
tp7553
bS'FTLB'
p7554
tp7555
Rp7556
sS'TMP_FEP1_MONG'
p7557
g282
sS'AORWMC6_1'
p7558
g2
(g3
(S'S7'
p7559
I0
I1
tp7560
Rp7561
(I3
S'|'
p7562
NNNI7
I1
I0
tp7563
bS'FTLBSEC'
p7564
tp7565
Rp7566
sS'AORWNTQ1'
p7567
g2
(g3
(S'S4'
p7568
I0
I1
tp7569
Rp7570
(I3
S'|'
p7571
NNNI4
I1
I0
tp7572
bS'FTLB'
p7573
tp7574
Rp7575
sS'AORWNTQ2'
p7576
g2
(g3
(S'S4'
p7577
I0
I1
tp7578
Rp7579
(I3
S'|'
p7580
NNNI4
I1
I0
tp7581
bS'FTLB'
p7582
tp7583
Rp7584
sS'AORWNTQ3'
p7585
g2
(g3
(S'S4'
p7586
I0
I1
tp7587
Rp7588
(I3
S'|'
p7589
NNNI4
I1
I0
tp7590
bS'FTLB'
p7591
tp7592
Rp7593
sS'AOSPBCS4B'
p7594
g2
(g3
(S'S4'
p7595
I0
I1
tp7596
Rp7597
(I3
S'|'
p7598
NNNI4
I1
I0
tp7599
bS'MAMP'
p7600
tp7601
Rp7602
sS'4RT567T'
p7603
g2
(g3
(S'S4'
p7604
I0
I1
tp7605
Rp7606
(I3
S'|'
p7607
NNNI4
I1
I0
tp7608
bS'DEGF'
p7609
tp7610
Rp7611
sS'4PRT1BT'
p7612
g2
(g3
(S'S4'
p7613
I0
I1
tp7614
Rp7615
(I3
S'|'
p7616
NNNI4
I1
I0
tp7617
bS'DEGF'
p7618
tp7619
Rp7620
sS'TRSPOTPC'
p7621
g2
(g3
(S'S4'
p7622
I0
I1
tp7623
Rp7624
(I3
S'|'
p7625
NNNI4
I1
I0
tp7626
bS'DEGF'
p7627
tp7628
Rp7629
sS'TCM_OBC'
p7630
g2
(g3
(S'S4'
p7631
I0
I1
tp7632
Rp7633
(I3
S'|'
p7634
NNNI4
I1
I0
tp7635
bS'DEGF'
p7636
tp7637
Rp7638
sS'AORWMC1'
p7639
g2
(g3
(S'S7'
p7640
I0
I1
tp7641
Rp7642
(I3
S'|'
p7643
NNNI7
I1
I0
tp7644
bS'FTLBSEC'
p7645
tp7646
Rp7647
sS'AORWMC4'
p7648
g2
(g3
(S'S7'
p7649
I0
I1
tp7650
Rp7651
(I3
S'|'
p7652
NNNI7
I1
I0
tp7653
bS'FTLBSEC'
p7654
tp7655
Rp7656
sS'AORWMC5'
p7657
g2
(g3
(S'S7'
p7658
I0
I1
tp7659
Rp7660
(I3
S'|'
p7661
NNNI7
I1
I0
tp7662
bS'FTLBSEC'
p7663
tp7664
Rp7665
sS'TB1T2'
p7666
g2
(g3
(S'S4'
p7667
I0
I1
tp7668
Rp7669
(I3
S'|'
p7670
NNNI4
I1
I0
tp7671
bS'DEGF'
p7672
tp7673
Rp7674
sS'PM1THV2T'
p7675
g2
(g3
(S'S4'
p7676
I0
I1
tp7677
Rp7678
(I3
S'|'
p7679
NNNI4
I1
I0
tp7680
bS'DEGF'
p7681
tp7682
Rp7683
sS'EB3DI'
p7684
g2
(g3
(S'S3'
p7685
I0
I1
tp7686
Rp7687
(I3
S'|'
p7688
NNNI3
I1
I0
tp7689
bS'AMP'
p7690
tp7691
Rp7692
sS'AOSCPOS1'
p7693
g2
(g3
(S'S2'
p7694
I0
I1
tp7695
Rp7696
(I3
S'|'
p7697
NNNI2
I1
I0
tp7698
bS'KM'
p7699
tp7700
Rp7701
sS'AOSCPOS2'
p7702
g2
(g3
(S'S2'
p7703
I0
I1
tp7704
Rp7705
(I3
S'|'
p7706
NNNI2
I1
I0
tp7707
bS'KM'
p7708
tp7709
Rp7710
sS'4RT569T'
p7711
g2
(g3
(S'S4'
p7712
I0
I1
tp7713
Rp7714
(I3
S'|'
p7715
NNNI4
I1
I0
tp7716
bS'DEGF'
p7717
tp7718
Rp7719
sS'4RT588T'
p7720
g2
(g3
(S'S4'
p7721
I0
I1
tp7722
Rp7723
(I3
S'|'
p7724
NNNI4
I1
I0
tp7725
bS'DEGF'
p7726
tp7727
Rp7728
sS'PCM01T'
p7729
g2
(g3
(S'S4'
p7730
I0
I1
tp7731
Rp7732
(I3
S'|'
p7733
NNNI4
I1
I0
tp7734
bS'DEGF'
p7735
tp7736
Rp7737
sS'4RT596T'
p7738
g2
(g3
(S'S4'
p7739
I0
I1
tp7740
Rp7741
(I3
S'|'
p7742
NNNI4
I1
I0
tp7743
bS'DEGF'
p7744
tp7745
Rp7746
sS'AI1AX1X'
p7747
g2
(g3
(S'S5'
p7748
I0
I1
tp7749
Rp7750
(I3
S'|'
p7751
NNNI5
I1
I0
tp7752
bS'DEGPS'
p7753
tp7754
Rp7755
sS'AI1AX1Y'
p7756
g2
(g3
(S'S5'
p7757
I0
I1
tp7758
Rp7759
(I3
S'|'
p7760
NNNI5
I1
I0
tp7761
bS'DEGPS'
p7762
tp7763
Rp7764
sS'OOBTHR53'
p7765
g2
(g3
(S'S4'
p7766
I0
I1
tp7767
Rp7768
(I3
S'|'
p7769
NNNI4
I1
I0
tp7770
bS'DEGF'
p7771
tp7772
Rp7773
sS'OOBTHR52'
p7774
g2
(g3
(S'S4'
p7775
I0
I1
tp7776
Rp7777
(I3
S'|'
p7778
NNNI4
I1
I0
tp7779
bS'DEGF'
p7780
tp7781
Rp7782
sS'OOBTHR55'
p7783
g2
(g3
(S'S4'
p7784
I0
I1
tp7785
Rp7786
(I3
S'|'
p7787
NNNI4
I1
I0
tp7788
bS'DEGF'
p7789
tp7790
Rp7791
sS'EORTDMN13D'
p7792
g2
(g3
(S'S4'
p7793
I0
I1
tp7794
Rp7795
(I3
S'|'
p7796
NNNI4
I1
I0
tp7797
bS'DEGF'
p7798
tp7799
Rp7800
sS'OOBTHR57'
p7801
g2
(g3
(S'S4'
p7802
I0
I1
tp7803
Rp7804
(I3
S'|'
p7805
NNNI4
I1
I0
tp7806
bS'DEGF'
p7807
tp7808
Rp7809
sS'OOBTHR56'
p7810
g2
(g3
(S'S4'
p7811
I0
I1
tp7812
Rp7813
(I3
S'|'
p7814
NNNI4
I1
I0
tp7815
bS'DEGF'
p7816
tp7817
Rp7818
sS'OOBTHR59'
p7819
g2
(g3
(S'S4'
p7820
I0
I1
tp7821
Rp7822
(I3
S'|'
p7823
NNNI4
I1
I0
tp7824
bS'DEGF'
p7825
tp7826
Rp7827
sS'OOBTHR58'
p7828
g2
(g3
(S'S4'
p7829
I0
I1
tp7830
Rp7831
(I3
S'|'
p7832
NNNI4
I1
I0
tp7833
bS'DEGF'
p7834
tp7835
Rp7836
sS'1SSMYT'
p7837
g2
(g3
(S'S4'
p7838
I0
I1
tp7839
Rp7840
(I3
S'|'
p7841
NNNI4
I1
I0
tp7842
bS'DEGC'
p7843
tp7844
Rp7845
sS'CTXBV'
p7846
g2
(g3
(S'S1'
p7847
I0
I1
tp7848
Rp7849
(I3
S'|'
p7850
NNNI1
I1
I0
tp7851
bg45
tp7852
Rp7853
sS'4PRT2BT'
p7854
g2
(g3
(S'S4'
p7855
I0
I1
tp7856
Rp7857
(I3
S'|'
p7858
NNNI4
I1
I0
tp7859
bS'DEGF'
p7860
tp7861
Rp7862
sS'ARWA6BT'
p7863
g2
(g3
(S'S4'
p7864
I0
I1
tp7865
Rp7866
(I3
S'|'
p7867
NNNI4
I1
I0
tp7868
bS'DEGF'
p7869
tp7870
Rp7871
sS'4RT575T'
p7872
g2
(g3
(S'S4'
p7873
I0
I1
tp7874
Rp7875
(I3
S'|'
p7876
NNNI4
I1
I0
tp7877
bS'DEGF'
p7878
tp7879
Rp7880
sS'CPA1BPT'
p7881
g2
(g3
(S'S4'
p7882
I0
I1
tp7883
Rp7884
(I3
S'|'
p7885
NNNI4
I1
I0
tp7886
bS'DEGF'
p7887
tp7888
Rp7889
sS'PM4THV2T'
p7890
g2
(g3
(S'S4'
p7891
I0
I1
tp7892
Rp7893
(I3
S'|'
p7894
NNNI4
I1
I0
tp7895
bS'DEGF'
p7896
tp7897
Rp7898
sS'TPC_PAN'
p7899
g2
(g3
(S'S4'
p7900
I0
I1
tp7901
Rp7902
(I3
S'|'
p7903
NNNI4
I1
I0
tp7904
bS'DEGF'
p7905
tp7906
Rp7907
sS'2PMT1T'
p7908
g2
(g3
(S'S4'
p7909
I0
I1
tp7910
Rp7911
(I3
S'|'
p7912
NNNI4
I1
I0
tp7913
bS'DEGC'
p7914
tp7915
Rp7916
sS'CIUA15V'
p7917
g2
(g3
(S'S1'
p7918
I0
I1
tp7919
Rp7920
(I3
S'|'
p7921
NNNI1
I1
I0
tp7922
bg45
tp7923
Rp7924
sS'1DPAMZT'
p7925
g2
(g3
(S'S4'
p7926
I0
I1
tp7927
Rp7928
(I3
S'|'
p7929
NNNI4
I1
I0
tp7930
bS'DEGC'
p7931
tp7932
Rp7933
sS'EIACVBV'
p7934
g2
(g3
(S'S1'
p7935
I0
I1
tp7936
Rp7937
(I3
S'|'
p7938
NNNI1
I1
I0
tp7939
bg45
tp7940
Rp7941
sS'4PRTBV'
p7942
g2
(g3
(S'S3'
p7943
I0
I1
tp7944
Rp7945
(I3
S'|'
p7946
NNNI3
I1
I0
tp7947
bS'VDC'
p7948
tp7949
Rp7950
sS'4RT703T'
p7951
g2
(g3
(S'S4'
p7952
I0
I1
tp7953
Rp7954
(I3
S'|'
p7955
NNNI4
I1
I0
tp7956
bS'DEGF'
p7957
tp7958
Rp7959
sS'1DAHHBVO'
p7960
g2
(g3
(S'S1'
p7961
I0
I1
tp7962
Rp7963
(I3
S'|'
p7964
NNNI1
I1
I0
tp7965
bg45
tp7966
Rp7967
sS'1DEP1AVO'
p7968
g2
(g3
(S'S1'
p7969
I0
I1
tp7970
Rp7971
(I3
S'|'
p7972
NNNI1
I1
I0
tp7973
bg45
tp7974
Rp7975
sS'1VAHOBT'
p7976
g2
(g3
(S'S4'
p7977
I0
I1
tp7978
Rp7979
(I3
S'|'
p7980
NNNI4
I1
I0
tp7981
bS'DEGC'
p7982
tp7983
Rp7984
sS'1MAHOBT'
p7985
g2
(g3
(S'S4'
p7986
I0
I1
tp7987
Rp7988
(I3
S'|'
p7989
NNNI4
I1
I0
tp7990
bS'DEGC'
p7991
tp7992
Rp7993
sS'CXPNAIT'
p7994
g2
(g3
(S'S4'
p7995
I0
I1
tp7996
Rp7997
(I3
S'|'
p7998
NNNI4
I1
I0
tp7999
bS'DEGF'
p8000
tp8001
Rp8002
sS'4ALL1AT'
p8003
g2
(g3
(S'S4'
p8004
I0
I1
tp8005
Rp8006
(I3
S'|'
p8007
NNNI4
I1
I0
tp8008
bS'DEGF'
p8009
tp8010
Rp8011
sS'CRXBLS'
p8012
g2
(g3
(S'S3'
p8013
I0
I1
tp8014
Rp8015
(I3
S'|'
p8016
NNNI3
I1
I0
tp8017
bS'KHZ'
p8018
tp8019
Rp8020
sS'PMTANK1T'
p8021
g2
(g3
(S'S4'
p8022
I0
I1
tp8023
Rp8024
(I3
S'|'
p8025
NNNI4
I1
I0
tp8026
bS'DEGF'
p8027
tp8028
Rp8029
sS'OHRTHR49'
p8030
g2
(g3
(S'S4'
p8031
I0
I1
tp8032
Rp8033
(I3
S'|'
p8034
NNNI4
I1
I0
tp8035
bS'DEGF'
p8036
tp8037
Rp8038
sS'POLINE12T'
p8039
g2
(g3
(S'S4'
p8040
I0
I1
tp8041
Rp8042
(I3
S'|'
p8043
NNNI4
I1
I0
tp8044
bS'DEGF'
p8045
tp8046
Rp8047
sS'EOEB3DIC'
p8048
g2
(g3
(S'S3'
p8049
I0
I1
tp8050
Rp8051
(I3
S'|'
p8052
NNNI3
I1
I0
tp8053
bS'AMP'
p8054
tp8055
Rp8056
sS'OHRTHR45'
p8057
g2
(g3
(S'S4'
p8058
I0
I1
tp8059
Rp8060
(I3
S'|'
p8061
NNNI4
I1
I0
tp8062
bS'DEGF'
p8063
tp8064
Rp8065
sS'OHRTHR44'
p8066
g2
(g3
(S'S4'
p8067
I0
I1
tp8068
Rp8069
(I3
S'|'
p8070
NNNI4
I1
I0
tp8071
bS'DEGF'
p8072
tp8073
Rp8074
sS'OHRTHR47'
p8075
g2
(g3
(S'S4'
p8076
I0
I1
tp8077
Rp8078
(I3
S'|'
p8079
NNNI4
I1
I0
tp8080
bS'DEGF'
p8081
tp8082
Rp8083
sS'OHRTHR46'
p8084
g2
(g3
(S'S4'
p8085
I0
I1
tp8086
Rp8087
(I3
S'|'
p8088
NNNI4
I1
I0
tp8089
bS'DEGF'
p8090
tp8091
Rp8092
sS'AOADACH1A_NBG'
p8093
g2
(g3
(S'S3'
p8094
I0
I1
tp8095
Rp8096
(I3
S'|'
p8097
NNNI3
I1
I0
tp8098
bS'DEG'
p8099
tp8100
Rp8101
sS'OHRTHR40'
p8102
g2
(g3
(S'S4'
p8103
I0
I1
tp8104
Rp8105
(I3
S'|'
p8106
NNNI4
I1
I0
tp8107
bS'DEGF'
p8108
tp8109
Rp8110
sS'OHRTHR43'
p8111
g2
(g3
(S'S4'
p8112
I0
I1
tp8113
Rp8114
(I3
S'|'
p8115
NNNI4
I1
I0
tp8116
bS'DEGF'
p8117
tp8118
Rp8119
sS'OHRTHR42'
p8120
g2
(g3
(S'S4'
p8121
I0
I1
tp8122
Rp8123
(I3
S'|'
p8124
NNNI4
I1
I0
tp8125
bS'DEGF'
p8126
tp8127
Rp8128
sS'AWD2TQI'
p8129
g2
(g3
(S'S3'
p8130
I0
I1
tp8131
Rp8132
(I3
S'|'
p8133
NNNI3
I1
I0
tp8134
bS'AMP'
p8135
tp8136
Rp8137
sS'4LPOSARO'
p8138
g2
(g3
(S'S3'
p8139
I0
I1
tp8140
Rp8141
(I3
S'|'
p8142
NNNI3
I1
I0
tp8143
bS'DEG'
p8144
tp8145
Rp8146
sS'PCM03T'
p8147
g2
(g3
(S'S4'
p8148
I0
I1
tp8149
Rp8150
(I3
S'|'
p8151
NNNI4
I1
I0
tp8152
bS'DEGF'
p8153
tp8154
Rp8155
sS'EOEB1DIC'
p8156
g2
(g3
(S'S3'
p8157
I0
I1
tp8158
Rp8159
(I3
S'|'
p8160
NNNI3
I1
I0
tp8161
bS'AMP'
p8162
tp8163
Rp8164
sS'TMP_FEP0_MONG'
p8165
g282
sS'TASPPCU'
p8166
g2
(g3
(S'S4'
p8167
I0
I1
tp8168
Rp8169
(I3
S'|'
p8170
NNNI4
I1
I0
tp8171
bS'DEGF'
p8172
tp8173
Rp8174
sS'PCM04T'
p8175
g2
(g3
(S'S4'
p8176
I0
I1
tp8177
Rp8178
(I3
S'|'
p8179
NNNI4
I1
I0
tp8180
bS'DEGF'
p8181
tp8182
Rp8183
sS'4RT708T'
p8184
g2
(g3
(S'S4'
p8185
I0
I1
tp8186
Rp8187
(I3
S'|'
p8188
NNNI4
I1
I0
tp8189
bS'DEGF'
p8190
tp8191
Rp8192
sS'OOBAGRD6'
p8193
g2
(g3
(S'S4'
p8194
I0
I1
tp8195
Rp8196
(I3
S'|'
p8197
NNNI4
I1
I0
tp8198
bS'DEGF'
p8199
tp8200
Rp8201
sS'TB1T3'
p8202
g2
(g3
(S'S4'
p8203
I0
I1
tp8204
Rp8205
(I3
S'|'
p8206
NNNI4
I1
I0
tp8207
bS'DEGF'
p8208
tp8209
Rp8210
sS'TEP_EIA'
p8211
g2
(g3
(S'S4'
p8212
I0
I1
tp8213
Rp8214
(I3
S'|'
p8215
NNNI4
I1
I0
tp8216
bS'DEGF'
p8217
tp8218
Rp8219
sS'TB1T1'
p8220
g2
(g3
(S'S4'
p8221
I0
I1
tp8222
Rp8223
(I3
S'|'
p8224
NNNI4
I1
I0
tp8225
bS'DEGF'
p8226
tp8227
Rp8228
sS'OOBAGRD3'
p8229
g2
(g3
(S'S4'
p8230
I0
I1
tp8231
Rp8232
(I3
S'|'
p8233
NNNI4
I1
I0
tp8234
bS'DEGF'
p8235
tp8236
Rp8237
sS'PLAED1FT'
p8238
g2
(g3
(S'S4'
p8239
I0
I1
tp8240
Rp8241
(I3
S'|'
p8242
NNNI4
I1
I0
tp8243
bS'DEGF'
p8244
tp8245
Rp8246
sS'EB3CI'
p8247
g2
(g3
(S'S3'
p8248
I0
I1
tp8249
Rp8250
(I3
S'|'
p8251
NNNI3
I1
I0
tp8252
bS'AMP'
p8253
tp8254
Rp8255
sS'AORESZ1_1'
p8256
g2
(g3
(S'S3'
p8257
I0
I1
tp8258
Rp8259
(I3
S'|'
p8260
NNNI3
I1
I0
tp8261
bS'RAD'
p8262
tp8263
Rp8264
sS'TATECDPT'
p8265
g2
(g3
(S'S4'
p8266
I0
I1
tp8267
Rp8268
(I3
S'|'
p8269
NNNI4
I1
I0
tp8270
bS'DEGF'
p8271
tp8272
Rp8273
sS'4RT581T'
p8274
g2
(g3
(S'S4'
p8275
I0
I1
tp8276
Rp8277
(I3
S'|'
p8278
NNNI4
I1
I0
tp8279
bS'DEGF'
p8280
tp8281
Rp8282
sS'1HOPRBPR'
p8283
g2
(g3
(S'S4'
p8284
I0
I1
tp8285
Rp8286
(I3
S'|'
p8287
NNNI4
I1
I0
tp8288
bS'TORR'
p8289
tp8290
Rp8291
sS'1CRBT'
p8292
g2
(g3
(S'S4'
p8293
I0
I1
tp8294
Rp8295
(I3
S'|'
p8296
NNNI4
I1
I0
tp8297
bS'DEGC'
p8298
tp8299
Rp8300
sS'OHRTHR26'
p8301
g2
(g3
(S'S4'
p8302
I0
I1
tp8303
Rp8304
(I3
S'|'
p8305
NNNI4
I1
I0
tp8306
bS'DEGF'
p8307
tp8308
Rp8309
sS'AWD6TQI'
p8310
g2
(g3
(S'S3'
p8311
I0
I1
tp8312
Rp8313
(I3
S'|'
p8314
NNNI3
I1
I0
tp8315
bS'AMP'
p8316
tp8317
Rp8318
s.