(dp1
S'1DEAMZT'
p2
S'DEGC'
p3
sS'PLINE16T'
p4
g3
sS'EORTDMN18D'
p5
g3
sS'TFSPPCM'
p6
g3
sS'OHRTHR38'
p7
g3
sS'OHRTHR39'
p8
g3
sS'TFSPPCP'
p9
g3
sS'TFSPPCU'
p10
g3
sS'OHRTHR30'
p11
g3
sS'OHRTHR31'
p12
g3
sS'OHRTHR33'
p13
g3
sS'OHRTHR34'
p14
g3
sS'OHRTHR35'
p15
g3
sS'POM1THV2T'
p16
g3
sS'OHRTHR37'
p17
g3
sS'EORTDMN11D'
p18
g3
sS'TEPHIN'
p19
g3
sS'3TTHRC1T'
p20
g3
sS'4RT562T'
p21
g3
sS'4PRT1AT'
p22
g3
sS'4RT710T'
p23
g3
sS'TB2T1'
p24
g3
sS'TB2T3'
p25
g3
sS'TB2T2'
p26
g3
sS'PLINE06T'
p27
g3
sS'PLAED3DT'
p28
g3
sS'POR2TV02T'
p29
g3
sS'PXTANK2T'
p30
g3
sS'3TSMYDPT'
p31
g3
sS'PR1TV02T'
p32
g3
sS'3TTACS1T'
p33
g3
sS'PHOFP1T'
p34
g3
sS'PR4TV01T'
p35
g3
sS'PLAED2AT'
p36
g3
sS'OOBTHR33'
p37
g3
sS'OOBTHR19'
p38
g3
sS'OOBTHR18'
p39
g3
sS'OOBTHR15'
p40
g3
sS'OOBTHR14'
p41
g3
sS'OOBTHR17'
p42
g3
sS'OOBTHR11'
p43
g3
sS'OOBTHR10'
p44
g3
sS'OOBTHR13'
p45
g3
sS'OOBTHR12'
p46
g3
sS'4HLL1AT'
p47
g3
sS'AACCCDRT'
p48
g3
sS'TMYSADA'
p49
g3
sS'AACH2T'
p50
g3
sS'3TSMXSPT'
p51
g3
sS'PMFP01T'
p52
g3
sS'4RT584T'
p53
g3
sS'PLINE15T'
p54
g3
sS'OHRTHR36'
p55
g3
sS'PLAED3IT'
p56
g3
sS'4RT592T'
p57
g3
sS'AIRU1BT'
p58
g3
sS'TCM_SSR2'
p59
g3
sS'TCM_SSR1'
p60
g3
sS'PFTANK2T'
p61
g3
sS'POLINE04T'
p62
g3
sS'5EPHINT'
p63
g3
sS'PLAEV3AT'
p64
g3
sS'2DCENTRT'
p65
g3
sS'OOBTHR60'
p66
g3
sS'OOBTHR61'
p67
g3
sS'OOBTHR62'
p68
g3
sS'OOBTHR63'
p69
g3
sS'PLINE11T'
p70
g3
sS'4RT576T'
p71
g3
sS'AAOTH2MT'
p72
g3
sS'TCYLPCP'
p73
g3
sS'PLAED1BT'
p74
g3
sS'TCYLPCM'
p75
g3
sS'POLINE16T'
p76
g3
sS'2UVLSPXT'
p77
g3
sS'3FARALAT'
p78
g3
sS'4HLL2AT'
p79
g3
sS'TCM_PA2'
p80
g3
sS'3FAPYZAT'
p81
g3
sS'OHRTHR08'
p82
g3
sS'PLAED3GT'
p83
g3
sS'3TTACS2T'
p84
g3
sS'TCM_CTU'
p85
g3
sS'4HFSPBT'
p86
g3
sS'PHETANKT'
p87
g3
sS'PFDM101T'
p88
g3
sS'4LFSPAT'
p89
g3
sS'EORTDMN23D'
p90
g3
sS'PLINE02T'
p91
g3
sS'4ALL1AT'
p92
g3
sS'TPCM_RW5'
p93
g3
sS'OHRTHR57'
p94
g3
sS'PLAEV2AT'
p95
g3
sS'OOBTHR41'
p96
g3
sS'TCM_PA1'
p97
g3
sS'TRSPRWCM'
p98
g3
sS'AAOTAPMT'
p99
g3
sS'PLAED2DT'
p100
g3
sS'TMZP_PY'
p101
g3
sS'POR2TV01T'
p102
g3
sS'1DPAMYT'
p103
g3
sS'1DACTBT'
p104
g3
sS'4RT556T'
p105
g3
sS'PM4THV1T'
p106
g3
sS'3FABRCAT'
p107
g3
sS'TRSPMTPC'
p108
g3
sS'AIRU1G1T'
p109
g3
sS'PR2TV02T'
p110
g3
sS'1VAHCBT'
p111
g3
sS'5EIOT'
p112
g3
sS'CXPNAIT'
p113
g3
sS'TEIO'
p114
g3
sS'PFDM202T'
p115
g3
sS'AACBPRT'
p116
g3
sS'PLAED1AT'
p117
g3
sS'TPCM_RW4'
p118
g3
sS'4RT580T'
p119
g3
sS'TAPE1PST'
p120
g3
sS'4RT558T'
p121
g3
sS'OOBTHR24'
p122
g3
sS'OOBTHR25'
p123
g3
sS'OOBTHR26'
p124
g3
sS'OOBTHR27'
p125
g3
sS'OOBTHR20'
p126
g3
sS'OOBTHR21'
p127
g3
sS'OOBTHR22'
p128
g3
sS'OOBTHR23'
p129
g3
sS'PR1TV01T'
p130
g3
sS'OOBTHR28'
p131
g3
sS'OOBTHR29'
p132
g3
sS'EORTDMN16D'
p133
g3
sS'2FHTRMZT'
p134
g3
sS'PLAED4ET'
p135
g3
sS'4RT561T'
p136
g3
sS'4LLL2AT'
p137
g3
sS'4ALL1BT'
p138
g3
sS'4RT711T'
p139
g3
sS'AAOTALT'
p140
g3
sS'EORTDMN26D'
p141
g3
sS'PLAED3CT'
p142
g3
sS'PLINE07T'
p143
g3
sS'PLAEV2BT'
p144
g3
sS'3TSPYFET'
p145
g3
sS'4RT598T'
p146
g3
sS'POLAEV1AT'
p147
g3
sS'2CONDMXT'
p148
g3
sS'PR4TV02T'
p149
g3
sS'4RT594T'
p150
g3
sS'4RT587T'
p151
g3
sS'TAPEA2T'
p152
g3
sS'POR1TV02T'
p153
g3
sS'OHRTHR29'
p154
g3
sS'PLAED1HT'
p155
g3
sS'1VAHCAT'
p156
g3
sS'OHRTHR23'
p157
g3
sS'OHRTHR22'
p158
g3
sS'OHRTHR21'
p159
g3
sS'OHRTHR20'
p160
g3
sS'OHRTHR27'
p161
g3
sS'OHRTHR26'
p162
g3
sS'OHRTHR25'
p163
g3
sS'POM2THV2T'
p164
g3
sS'TCNR_BRM'
p165
g3
sS'TCM_IFU'
p166
g3
sS'TCYLFMZP'
p167
g3
sS'TCYLFMZM'
p168
g3
sS'4RT597T'
p169
g3
sS'TEP_RCTU'
p170
g3
sS'4RT702T'
p171
g3
sS'1VAHOAT'
p172
g3
sS'AACH1T'
p173
g3
sS'4PRT2AT'
p174
g3
sS'POLINE07T'
p175
g3
sS'TPC_ESE'
p176
g3
sS'PLINE10T'
p177
g3
sS'2FRADPYT'
p178
g3
sS'PCM01T'
p179
g3
sS'TPYSADA'
p180
g3
sS'PLAED4FT'
p181
g3
sS'4LLL2BT'
p182
g3
sS'4HLL2BT'
p183
g3
sS'TFSPCMM'
p184
g3
sS'EORTDMN19D'
p185
g3
sS'4HFSPAT'
p186
g3
sS'3TTRALAT'
p187
g3
sS'TFSPCMP'
p188
g3
sS'POM1THV1T'
p189
g3
sS'PLAED4AT'
p190
g3
sS'3TTHRC2T'
p191
g3
sS'EORTDMN12D'
p192
g3
sS'TPC_RCTU'
p193
g3
sS'4RT565T'
p194
g3
sS'EORTDMN22D'
p195
g3
sS'PM3THV1T'
p196
g3
sS'PLINE03T'
p197
g3
sS'4RT701T'
p198
g3
sS'4ALL2BT'
p199
g3
sS'PLAED1ET'
p200
g3
sS'4PRT4AT'
p201
g3
sS'PLAED2ET'
p202
g3
sS'3TTBRGBT'
p203
g3
sS'4RT557T'
p204
g3
sS'POR1TV01T'
p205
g3
sS'EORTDMN25D'
p206
g3
sS'PLAED2CT'
p207
g3
sS'4RT577T'
p208
g3
sS'4PRT3BT'
p209
g3
sS'PMTANK3T'
p210
g3
sS'PLAED1DT'
p211
g3
sS'ARWA3BT'
p212
g3
sS'TESH2'
p213
g3
sS'OHRTHR62'
p214
g3
sS'OHRTHR61'
p215
g3
sS'OHRTHR60'
p216
g3
sS'1OAHBT'
p217
g3
sS'PLAED3HT'
p218
g3
sS'4RT583T'
p219
g3
sS'4RT593T'
p220
g3
sS'TATECDRT'
p221
g3
sS'4RT559T'
p222
g3
sS'TSCTSF1'
p223
g3
sS'TSCTSF2'
p224
g3
sS'TSCTSF3'
p225
g3
sS'TSCTSF4'
p226
g3
sS'TSCTSF5'
p227
g3
sS'TSCTSF6'
p228
g3
sS'4LLL1BT'
p229
g3
sS'TCM_RFAS'
p230
g3
sS'PLINE14T'
p231
g3
sS'TESH1'
p232
g3
sS'CXPNBIT'
p233
g3
sS'1MAHCAT'
p234
g3
sS'PR3TV02T'
p235
g3
sS'3TSPZSPT'
p236
g3
sS'EORTDMN17D'
p237
g3
sS'PLAED4BT'
p238
g3
sS'4RT560T'
p239
g3
sS'POLINE03T'
p240
g3
sS'OHRTHR11'
p241
g3
sS'TFSSBKT1'
p242
g3
sS'TFSSBKT2'
p243
g3
sS'TRSPRWBB'
p244
g3
sS'TRSPRWBC'
p245
g3
sS'PLINE08T'
p246
g3
sS'PLAED3FT'
p247
g3
sS'TSCIUSF1'
p248
g3
sS'TSCIUSF2'
p249
g3
sS'TSCIUSF5'
p250
g3
sS'TSCIUSF8'
p251
g3
sS'4RT569T'
p252
g3
sS'3TTACS3T'
p253
g3
sS'PFDM102T'
p254
g3
sS'OHRTHR63'
p255
g3
sS'TCYLAFT4'
p256
g3
sS'3BTU_BPT'
p257
g3
sS'4RT586T'
p258
g3
sS'OOBTHR37'
p259
g3
sS'OOBTHR36'
p260
g3
sS'OOBTHR35'
p261
g3
sS'OOBTHR34'
p262
g3
sS'CUSOBIT'
p263
g3
sS'TAPEA1T'
p264
g3
sS'OOBTHR31'
p265
g3
sS'OOBTHR30'
p266
g3
sS'OOBTHR39'
p267
g3
sS'OOBTHR38'
p268
g3
sS'AIRU2G2T'
p269
g3
sS'AIRU1G2T'
p270
g3
sS'TPC_CEA'
p271
g3
sS'PM2THV2T'
p272
g3
sS'TSAMYT'
p273
g3
sS'4RT590T'
p274
g3
sS'TEP_PSU2'
p275
g3
sS'TPZLGABM'
p276
g3
sS'1OAHAT'
p277
g3
sS'TEP_PSU1'
p278
g3
sS'ARWA4BT'
p279
g3
sS'PLAEV4AT'
p280
g3
sS'AIRU2G1T'
p281
g3
sS'TFSPRWC'
p282
g3
sS'TB3T1'
p283
g3
sS'TB3T2'
p284
g3
sS'TB3T3'
p285
g3
sS'1PIN1AT'
p286
g3
sS'PLAEV1BT'
p287
g3
sS'PFDM201T'
p288
g3
sS'TPCP_RW3'
p289
g3
sS'1PDEABT'
p290
g3
sS'PLAED2HT'
p291
g3
sS'PR2TV01T'
p292
g3
sS'3FLCABPT'
p293
g3
sS'OHRTHR18'
p294
g3
sS'TEP_PPAN'
p295
g3
sS'OHRTHR17'
p296
g3
sS'OHRTHR14'
p297
g3
sS'OHRTHR15'
p298
g3
sS'OHRTHR12'
p299
g3
sS'OHRTHR13'
p300
g3
sS'OHRTHR10'
p301
g3
sS'POLAEV1BT'
p302
g3
sS'3TTHRC3T'
p303
g3
sS'AIRU2BT'
p304
g3
sS'PM1THV1T'
p305
g3
sS'EORTDMN13D'
p306
g3
sS'4RT564T'
p307
g3
sS'4RT704T'
p308
g3
sS'EORTDMN21D'
p309
g3
sS'PM3THV2T'
p310
g3
sS'EORTDMN29D'
p311
g3
sS'PLINE04T'
p312
g3
sS'PLAED3BT'
p313
g3
sS'OHRTHR19'
p314
g3
sS'4OAVHRMT'
p315
g3
sS'EORTDMN28D'
p316
g3
sS'PFFP01T'
p317
g3
sS'4RT578T'
p318
g3
sS'4LFSPBT'
p319
g3
sS'1WRAT'
p320
g3
sS'PLAED1GT'
p321
g3
sS'4PRT3AT'
p322
g3
sS'PMTANK2T'
p323
g3
sS'AACBPPT'
p324
g3
sS'1PDEAAT'
p325
g3
sS'PCM02T'
p326
g3
sS'3FAMYZAT'
p327
g3
sS'AACCCDPT'
p328
g3
sS'4OAVOBAT'
p329
g3
sS'PLAEV1AT'
p330
g3
sS'TPC_WDA'
p331
g3
sS'4PRT5BT'
p332
g3
sS'4RT709T'
p333
g3
sS'TCM_TX2'
p334
g3
sS'TCM_TX1'
p335
g3
sS'TMZP_CNT'
p336
g3
sS'4RT582T'
p337
g3
sS'4PRT2BT'
p338
g3
sS'3RCTUBPT'
p339
g3
sS'OOBTHR49'
p340
g3
sS'OOBTHR46'
p341
g3
sS'OOBTHR47'
p342
g3
sS'OOBTHR44'
p343
g3
sS'OOBTHR45'
p344
g3
sS'OOBTHR42'
p345
g3
sS'OOBTHR43'
p346
g3
sS'OOBTHR40'
p347
g3
sS'4PRT5AT'
p348
g3
sS'PLAED1IT'
p349
g3
sS'PLAED2IT'
p350
g3
sS'EORTDMN14D'
p351
g3
sS'ARWA1BT'
p352
g3
sS'PLAEV4BT'
p353
g3
sS'PLAED4GT'
p354
g3
sS'POLINE06T'
p355
g3
sS'PLAED2GT'
p356
g3
sS'OHRTHR58'
p357
g3
sS'OHRTHR59'
p358
g3
sS'OHRTHR52'
p359
g3
sS'OHRTHR53'
p360
g3
sS'OHRTHR50'
p361
g3
sS'OHRTHR51'
p362
g3
sS'OHRTHR56'
p363
g3
sS'2CEAHVPT'
p364
g3
sS'OHRTHR54'
p365
g3
sS'OHRTHR55'
p366
g3
sS'TCYZ_RW1'
p367
g3
sS'3TSMXCET'
p368
g3
sS'TCYZ_RW6'
p369
g3
sS'PLINE09T'
p370
g3
sS'PLAED3ET'
p371
g3
sS'TSAPYT'
p372
g3
sS'PXTANK1T'
p373
g3
sS'4RT568T'
p374
g3
sS'TCYLAFT1'
p375
g3
sS'TOXTSUPN'
p376
g3
sS'4RT589T'
p377
g3
sS'TCYLRWC'
p378
g3
sS'4RT595T'
p379
g3
sS'TCYLAFT5'
p380
g3
sS'4RT700T'
p381
g3
sS'4LLL1AT'
p382
g3
sS'1CBAT'
p383
g3
sS'CPA2BPT'
p384
g3
sS'PLAED4IT'
p385
g3
sS'4ALL2AT'
p386
g3
sS'PLAED2FT'
p387
g3
sS'TCYLAFT6'
p388
g3
sS'2PMT2T'
p389
g3
sS'ARWA2BT'
p390
g3
sS'1MAHOAT'
p391
g3
sS'EORTDMN24D'
p392
g3
sS'3TTVALVT'
p393
g3
sS'PXDM02T'
p394
g3
sS'CUSOAIT'
p395
g3
sS'OHRMGRD6'
p396
g3
sS'POLINE05T'
p397
g3
sS'OHRMGRD3'
p398
g3
sS'TRSPOTEP'
p399
g3
sS'TRSPOTEX'
p400
g3
sS'TFUTSUPN'
p401
g3
sS'1CRAT'
p402
g3
sS'TASPRWC'
p403
g3
sS'1SSPYT'
p404
g3
sS'PLAED1CT'
p405
g3
sS'OHRTHR24'
p406
g3
sS'PLAED4HT'
p407
g3
sS'2DTSTATT'
p408
g3
sS'OOBTHR08'
p409
g3
sS'OOBTHR09'
p410
g3
sS'AAOTASMT'
p411
g3
sS'OOBTHR02'
p412
g3
sS'OOBTHR03'
p413
g3
sS'TCYLAFT3'
p414
g3
sS'TCYLAFT2'
p415
g3
sS'OOBTHR06'
p416
g3
sS'OOBTHR07'
p417
g3
sS'OOBTHR04'
p418
g3
sS'OOBTHR05'
p419
g3
sS'EOESAT2C'
p420
g3
sS'PR3TV01T'
p421
g3
sS'TBOLTCUT'
p422
g3
sS'1MAHCBT'
p423
g3
sS'PLAED4CT'
p424
g3
sS'POLINE02T'
p425
g3
sS'4RT563T'
p426
g3
sS'POLAEV2BT'
p427
g3
sS'POLAEV4AT'
p428
g3
sS'4RT707T'
p429
g3
sS'PLINE05T'
p430
g3
sS'PLAED3AT'
p431
g3
sS'TAPE2PST'
p432
g3
sS'4PRT4BT'
p433
g3
sS'4RT555T'
p434
g3
sS'TPC_DEA'
p435
g3
sS'TCM_PAN'
p436
g3
sS'ARWA5BT'
p437
g3
sS'OHRTHR45'
p438
g3
sS'PXDM01T'
p439
g3
sS'2CHTRPZT'
p440
g3
sS'4RT579T'
p441
g3
sS'TCM_USO'
p442
g3
sS'PLINE13T'
p443
g3
sS'AVACMON'
p444
g3
sS'TMZLGABM'
p445
g3
sS'4RT585T'
p446
g3
sS'PLAED2BT'
p447
g3
sS'OHRTHR03'
p448
g3
sS'OHRTHR02'
p449
g3
sS'OHRTHR05'
p450
g3
sS'OHRTHR04'
p451
g3
sS'OHRTHR07'
p452
g3
sS'OHRTHR06'
p453
g3
sS'OHRTHR09'
p454
g3
sS'1WRBT'
p455
g3
sS'AIRU1VFT'
p456
g3
sS'TCYLCMM'
p457
g3
sS'4RT570T'
p458
g3
sS'3FABRAAT'
p459
g3
sS'4RT705T'
p460
g3
sS'1CBBT'
p461
g3
sS'PM2THV1T'
p462
g3
sS'4RT591T'
p463
g3
sS'TEP_PCU'
p464
g3
sS'TMZP_MY'
p465
g3
sS'4HLL1BT'
p466
g3
sS'TMYHNG'
p467
g3
sS'PLAEV3BT'
p468
g3
sS'PLINE12T'
p469
g3
sS'AIRU2VFT'
p470
g3
sS'EOESAT1C'
p471
g3
sS'3TSPZDET'
p472
g3
sS'EORTDMN15D'
p473
g3
sS'PLAED4DT'
p474
g3
sS'POLINE01T'
p475
g3
sS'PFTANK1T'
p476
g3
sS'TPC_PAN'
p477
g3
sS'3TTRALCT'
p478
g3
sS'PCM04T'
p479
g3
sS'4RT567T'
p480
g3
sS'4PRT1BT'
p481
g3
sS'TRSPOTPC'
p482
g3
sS'TCM_OBC'
p483
g3
sS'TPCP_RW2'
p484
g3
sS'TB1T2'
p485
g3
sS'PM1THV2T'
p486
g3
sS'PLINE01T'
p487
g3
sS'4RT588T'
p488
g3
sS'4RT596T'
p489
g3
sS'OOBTHR51'
p490
g3
sS'OOBTHR50'
p491
g3
sS'OOBTHR53'
p492
g3
sS'OOBTHR52'
p493
g3
sS'OOBTHR55'
p494
g3
sS'OOBTHR54'
p495
g3
sS'OOBTHR57'
p496
g3
sS'OOBTHR56'
p497
g3
sS'OOBTHR59'
p498
g3
sS'OOBTHR58'
p499
g3
sS'1SSMYT'
p500
g3
sS'ARWA6BT'
p501
g3
sS'4RT575T'
p502
g3
sS'CPA1BPT'
p503
g3
sS'PM4THV2T'
p504
g3
sS'2PMT1T'
p505
g3
sS'1DPAMZT'
p506
g3
sS'EORTDMN27D'
p507
g3
sS'4RT703T'
p508
g3
sS'1VAHOBT'
p509
g3
sS'1MAHOBT'
p510
g3
sS'4RT706T'
p511
g3
sS'PMTANK1T'
p512
g3
sS'OHRTHR49'
p513
g3
sS'POLINE12T'
p514
g3
sS'TASPPCM'
p515
g3
sS'TEP_BPAN'
p516
g3
sS'OHRTHR44'
p517
g3
sS'OHRTHR47'
p518
g3
sS'OHRTHR46'
p519
g3
sS'OHRTHR41'
p520
g3
sS'OHRTHR40'
p521
g3
sS'OHRTHR43'
p522
g3
sS'OHRTHR42'
p523
g3
sS'PCM03T'
p524
g3
sS'TASPPCP'
p525
g3
sS'TASPPCU'
p526
g3
sS'POM2THV1T'
p527
g3
sS'4RT708T'
p528
g3
sS'OOBAGRD6'
p529
g3
sS'TB1T3'
p530
g3
sS'TEP_EIA'
p531
g3
sS'TB1T1'
p532
g3
sS'OOBAGRD3'
p533
g3
sS'PLAED1FT'
p534
g3
sS'TATECDPT'
p535
g3
sS'4RT581T'
p536
g3
sS'TPC_FSSE'
p537
g3
sS'1CRBT'
p538
g3
s.