(dp1
S'AORWPI4B'
p2
S'ms'
p3
sS'1DEAMZT'
p4
S'K'
sS'4RT709T'
p5
S'K'
sS'PLINE16T'
p6
S'K'
sS'EORTDMN18D'
p7
S'K'
sS'AOSUNER2'
p8
S'rad'
p9
sS'TFSPPCM'
p10
S'K'
sS'EB1CI'
p11
S'A'
sS'OHRTHR38'
p12
S'K'
sS'OHRTHR39'
p13
S'K'
sS'TFSPPCP'
p14
S'K'
sS'ASPEFSW3B'
p15
S'deg'
p16
sS'CUSOAOVN'
p17
S'W'
sS'OHRTHR30'
p18
S'K'
sS'OHRTHR31'
p19
S'K'
sS'OHRTHR33'
p20
S'K'
sS'1DPP0BVO'
p21
S'V'
sS'OHRTHR35'
p22
S'K'
sS'POM1THV2T'
p23
S'K'
sS'OHRTHR37'
p24
S'K'
sS'EORTDMN11D'
p25
S'K'
sS'AFLC11BI'
p26
S'mA'
p27
sS'AORWMC3_1'
p28
S'J*s'
p29
sS'POINT_MOONLIMBANG'
p30
S'deg'
p31
sS'TEPHIN'
p32
S'K'
sS'3TTHRC1T'
p33
S'K'
sS'PXDM01T'
p34
S'K'
sS'4RT562T'
p35
S'K'
sS'AFLCA2BI'
p36
S'mA'
p37
sS'4RT710T'
p38
S'K'
sS'ASPEB5CV'
p39
S'V'
sS'TMP_FEP0_RAM'
p40
S'K'
sS'TPC_PAN'
p41
S'K'
sS'AOZABR'
p42
S'rad'
p43
sS'AORESZ5_1'
p44
S'rad'
p45
sS'TB2T3'
p46
S'K'
sS'TB2T2'
p47
S'K'
sS'PLINE06T'
p48
S'K'
sS'AOADBCH1A_PCAD'
p49
S'deg'
p50
sS'AORWPI3B'
p51
S'ms'
p52
sS'POR2TV02T'
p53
S'K'
sS'1DAHAVO'
p54
S'V'
sS'PXTANK2T'
p55
S'K'
sS'3TSMYDPT'
p56
S'K'
sS'PR1TV02T'
p57
S'K'
sS'3TTACS1T'
p58
S'K'
sS'AORESY2_1'
p59
S'rad'
p60
sS'PHOFP1T'
p61
S'K'
sS'PR4TV01T'
p62
S'K'
sS'AORTERR2'
p63
S'rad/s'
p64
sS'CUSOA28V'
p65
S'V'
sS'PLAED2AT'
p66
S'K'
sS'AVACMON'
p67
S'K'
sS'OOBTHR33'
p68
S'K'
sS'SUN_EARTHLIMBANG'
p69
S'deg'
p70
sS'ES1P5CV'
p71
S'V'
sS'OOBTHR19'
p72
S'K'
sS'OOBTHR18'
p73
S'K'
sS'PFTANKIP'
p74
S'kPa'
p75
sS'POR1TV01T'
p76
S'K'
sS'OOBTHR14'
p77
S'K'
sS'OOBTHR17'
p78
S'K'
sS'OOBTHR11'
p79
S'K'
sS'OOBTHR10'
p80
S'K'
sS'ECNV2V'
p81
S'V'
sS'OOBTHR12'
p82
S'K'
sS'AGWS1V'
p83
S'V'
sS'4HLL2BT'
p84
S'K'
sS'EOEB1CIC'
p85
S'A'
sS'TB3T1'
p86
S'K'
sS'4HLL1AT'
p87
S'K'
sS'AACCCDRT'
p88
S'K'
sS'ESAMYI'
p89
S'A'
sS'4RT581T'
p90
S'K'
sS'TMYSADA'
p91
S'K'
sS'1HOPRAPR'
p92
S'kPa'
p93
sS'OHRTHR34'
p94
S'K'
sS'AFLCA5AI'
p95
S'mA'
p96
sS'3TSMXSPT'
p97
S'K'
sS'PMFP01T'
p98
S'K'
sS'CVEER'
p99
S'V'
sS'CVEEP'
p100
S'V'
sS'PLINE15T'
p101
S'K'
sS'OHRTHR36'
p102
S'K'
sS'PLAED3IT'
p103
S'K'
sS'4RT592T'
p104
S'K'
sS'PLAED4AT'
p105
S'K'
sS'AIRU1BT'
p106
S'K'
sS'PR2TV01T'
p107
S'K'
sS'TCM_SSR1'
p108
S'K'
sS'PFTANK2T'
p109
S'K'
sS'POLINE04T'
p110
S'K'
sS'5EPHINT'
p111
S'K'
sS'4VRMOBV'
p112
S'V'
sS'PLAEV3AT'
p113
S'K'
sS'AFLCA1AI'
p114
S'mA'
p115
sS'2DCENTRT'
p116
S'K'
sS'OOBTHR60'
p117
S'K'
sS'OOBTHR61'
p118
S'K'
sS'OOBTHR62'
p119
S'K'
sS'OOBTHR63'
p120
S'K'
sS'PLINE11T'
p121
S'K'
sS'EPA15V'
p122
S'V'
sS'AOALPANG'
p123
S'deg'
p124
sS'TRSPMTPC'
p125
S'K'
sS'AOSPACS2B'
p126
S'mA'
p127
sS'4RT584T'
p128
S'K'
sS'AODVTIME'
p129
S's'
sS'AODITHR3'
p130
S'rad'
p131
sS'AAOTH2MT'
p132
S'K'
sS'AODITHR1'
p133
S'rad'
p134
sS'PLAED1BT'
p135
S'K'
sS'3TTRALAT'
p136
S'K'
sS'AFLC12AI'
p137
S'mA'
p138
sS'AOSACMD2'
p139
S'rad'
p140
sS'POLINE16T'
p141
S'K'
sS'POINT_MOONCENTANG'
p142
S'deg'
p143
sS'AORESY1_1'
p144
S'rad'
p145
sS'EPB15V'
p146
S'V'
sS'2UVLSPXT'
p147
S'K'
sS'3FARALAT'
p148
S'K'
sS'TMP_FEP0_FB'
p149
S'K'
sS'4HLL2AT'
p150
S'K'
sS'TCM_PA2'
p151
S'K'
sS'ACPA5CV'
p152
S'V'
sS'4PRT5AT'
p153
S'K'
sS'TMP_FEP1_RAM'
p154
S'K'
sS'3FAPYZAT'
p155
S'K'
sS'OHRTHR08'
p156
S'K'
sS'TFUTSUPN'
p157
S'K'
sS'PLAED3GT'
p158
S'K'
sS'AORATE1'
p159
S'rad/s'
p160
sS'AORATE3'
p161
S'rad/s'
p162
sS'AORATE2'
p163
S'rad/s'
p164
sS'EORTDMN12D'
p165
S'K'
sS'4RT598T'
p166
S'K'
sS'EOECNV3C'
p167
S'V'
sS'3TTACS2T'
p168
S'K'
sS'TCM_CTU'
p169
S'K'
sS'ESAPYI'
p170
S'A'
sS'4HFSPBT'
p171
S'K'
sS'EEPB5V'
p172
S'V'
sS'4MP28BV'
p173
S'V'
sS'PFDM101T'
p174
S'K'
sS'PLAED3DT'
p175
S'K'
sS'4LFSPAT'
p176
S'K'
sS'EORTDMN23D'
p177
S'K'
sS'AWD3CV5V'
p178
S'V'
sS'PLINE02T'
p179
S'K'
sS'4ALL1AT'
p180
S'K'
sS'TPCM_RW5'
p181
S'K'
sS'2CEAHVPT'
p182
S'K'
sS'PLAEV2AT'
p183
S'K'
sS'AORESZ6_5'
p184
S'rad'
p185
sS'AWD3TQI'
p186
S'A'
sS'TRSPRWCM'
p187
S'K'
sS'AOSUNER3'
p188
S'rad'
p189
sS'CTXAV'
p190
S'V'
sS'AAOTAPMT'
p191
S'K'
sS'PLAED2DT'
p192
S'K'
sS'TMZP_PY'
p193
S'K'
sS'POR2TV01T'
p194
S'K'
sS'4PRT1AT'
p195
S'K'
sS'PFTANK1T'
p196
S'K'
sS'1DPAMYT'
p197
S'K'
sS'1DACTBT'
p198
S'K'
sS'4RT556T'
p199
S'K'
sS'AFLCA4BI'
p200
S'mA'
p201
sS'PM4THV1T'
p202
S'K'
sS'CSITA15V'
p203
S'V'
sS'DEAP6VOLTB'
p204
S'V'
sS'AFLC13AI'
p205
S'mA'
p206
sS'AORWBTQ1'
p207
S'J'
sS'AORWBTQ2'
p208
S'J'
sS'AORWBTQ3'
p209
S'J'
sS'AORWBTQ4'
p210
S'J'
sS'AORWBTQ5'
p211
S'J'
sS'AORWBTQ6'
p212
S'J'
sS'AWD6CV5V'
p213
S'V'
sS'3FABRCAT'
p214
S'K'
sS'AWD4CV5V'
p215
S'V'
sS'4RT576T'
p216
S'K'
sS'AWD1TQI'
p217
S'A'
sS'AHKNATPR'
p218
S'V'
sS'TCYZ_RW6'
p219
S'K'
sS'PR2TV02T'
p220
S'K'
sS'DEAM15VOLTB'
p221
S'V'
sS'DEAM15VOLTA'
p222
S'V'
sS'2P05VAVL'
p223
S'V'
sS'1VAHCBT'
p224
S'K'
sS'PM2THV1T'
p225
S'K'
sS'PLINE09T'
p226
S'K'
sS'1DPP0AVO'
p227
S'V'
sS'5EIOT'
p228
S'K'
sS'CPCB5V'
p229
S'V'
sS'PLAED1IT'
p230
S'K'
sS'DEAP15VOLTA'
p231
S'V'
sS'CPCA5V'
p232
S'V'
sS'CXPNAIT'
p233
S'K'
sS'TEIO'
p234
S'K'
sS'AORWMC2_1'
p235
S'J*s'
p236
sS'POINT_SUNLIMBANG'
p237
S'deg'
p238
sS'AOSARES1'
p239
S'deg'
p240
sS'AACBPRT'
p241
S'K'
sS'PLAED1AT'
p242
S'K'
sS'TPCM_RW4'
p243
S'K'
sS'4RT580T'
p244
S'K'
sS'4VRMHBV'
p245
S'V'
sS'PHETANKT'
p246
S'K'
sS'TAPE1PST'
p247
S'K'
sS'AOCSSI2'
p248
S'mA'
p249
sS'AOSRERR3'
p250
S'rad/s'
p251
sS'OOBTHR24'
p252
S'K'
sS'OOBTHR25'
p253
S'K'
sS'OOBTHR26'
p254
S'K'
sS'OOBTHR27'
p255
S'K'
sS'OOBTHR20'
p256
S'K'
sS'OOBTHR21'
p257
S'K'
sS'OOBTHR22'
p258
S'K'
sS'OOBTHR23'
p259
S'K'
sS'PR1TV01T'
p260
S'K'
sS'AVD2CV5V'
p261
S'V'
sS'OOBTHR28'
p262
S'K'
sS'OOBTHR29'
p263
S'K'
sS'AIOBP5CV'
p264
S'V'
sS'EORTDMN16D'
p265
S'K'
sS'2FHTRMZT'
p266
S'K'
sS'AOSAANG1'
p267
S'rad'
p268
sS'AOSAANG2'
p269
S'rad'
p270
sS'4RT577T'
p271
S'K'
sS'TCYLCMM'
p272
S'K'
sS'TMP_FEP1_PCB'
p273
S'K'
sS'4RT561T'
p274
S'K'
sS'EOEBCC_LOW'
p275
S'A'
sS'OHRTHR57'
p276
S'K'
sS'AOMANTIM'
p277
S's'
sS'CTUB5V'
p278
S'V'
sS'AWD4TQI'
p279
S'A'
sS'4LLL2AT'
p280
S'K'
sS'AWD5CV5V'
p281
S'V'
sS'CRXBV'
p282
S'V'
sS'4ALL1BT'
p283
S'K'
sS'CPCB15V'
p284
S'V'
sS'4RT711T'
p285
S'K'
sS'AAOTALT'
p286
S'K'
sS'AGWS2V'
p287
S'V'
sS'EORTDMN26D'
p288
S'K'
sS'EB1V'
p289
S'V'
sS'AOIRERL1'
p290
S'rad'
p291
sS'AOIRERL2'
p292
S'rad'
p293
sS'AOIRERL3'
p294
S'rad'
p295
sS'PLINE07T'
p296
S'K'
sS'PLAEV2BT'
p297
S'K'
sS'AOSCVEL1'
p298
S'km/s'
p299
sS'AOSCVEL3'
p300
S'km/s'
p301
sS'AOSCVEL2'
p302
S'km/s'
p303
sS'1DE28AVO'
p304
S'V'
sS'EOEB3DIC'
p305
S'A'
sS'AFLC13BI'
p306
S'mA'
p307
sS'PR4TV02T'
p308
S'K'
sS'4RT563T'
p309
S'K'
sS'AOGBIAS1'
p310
S'rad/s'
p311
sS'AOGBIAS2'
p312
S'rad/s'
p313
sS'AOGBIAS3'
p314
S'rad/s'
p315
sS'1DEN1AVO'
p316
S'V'
sS'1DEN0AVO'
p317
S'V'
sS'4LPOSBRO'
p318
S'deg'
p319
sS'TMP_FEP1_FB'
p320
S'K'
sS'1DPICBCU'
p321
S'A'
sS'1DP28AVO'
p322
S'V'
sS'PLINE03T'
p323
S'K'
sS'4CSDHAV'
p324
S'V'
sS'4RT587T'
p325
S'K'
sS'AI1AX2Y'
p326
S'deg/s'
p327
sS'AI1AX2X'
p328
S'deg/s'
p329
sS'AOSYMOM2'
p330
S'J*s'
p331
sS'AORWCMD5'
p332
S'J'
sS'POR1TV02T'
p333
S'K'
sS'OHRTHR29'
p334
S'K'
sS'AORWCMD6'
p335
S'J'
sS'AORWCMD1'
p336
S'J'
sS'AORWCMD3'
p337
S'J'
sS'AORWCMD2'
p338
S'J'
sS'OHRTHR23'
p339
S'K'
sS'OHRTHR22'
p340
S'K'
sS'OHRTHR21'
p341
S'K'
sS'OHRTHR20'
p342
S'K'
sS'OHRTHR27'
p343
S'K'
sS'OHRTHR26'
p344
S'K'
sS'OHRTHR25'
p345
S'K'
sS'OHRTHR24'
p346
S'K'
sS'4IN15BV'
p347
S'V'
sS'4RT594T'
p348
S'K'
sS'TCNR_BRM'
p349
S'K'
sS'TCM_IFU'
p350
S'K'
sS'TCYLFMZP'
p351
S'K'
sS'4RT569T'
p352
S'K'
sS'TCYLFMZM'
p353
S'K'
sS'4RT597T'
p354
S'K'
sS'TEP_RCTU'
p355
S'K'
sS'4RT702T'
p356
S'K'
sS'ASPEFSW1B'
p357
S'deg'
p358
sS'1VAHOAT'
p359
S'K'
sS'AACH1T'
p360
S'K'
sS'4PRT2AT'
p361
S'K'
sS'POLINE07T'
p362
S'K'
sS'TPC_ESE'
p363
S'K'
sS'AFLCA9AI'
p364
S'mA'
p365
sS'CTSB5V'
p366
S'V'
sS'AFLCA1BI'
p367
S'mA'
p368
sS'AOADACH1A_PCAD'
p369
S'deg'
p370
sS'4VRMHAV'
p371
S'V'
sS'4MP5AV'
p372
S'V'
sS'PLINE10T'
p373
S'K'
sS'TPC_RCTU'
p374
S'K'
sS'TCM_PA1'
p375
S'K'
sS'AOBETANG'
p376
S'deg'
p377
sS'2FRADPYT'
p378
S'K'
sS'1DE28BVO'
p379
S'V'
sS'C28VMONB'
p380
S'V'
sS'4RT595T'
p381
S'K'
sS'PLAED4FT'
p382
S'K'
sS'AOADBCH2A_NBG'
p383
S'deg'
p384
sS'4LLL2BT'
p385
S'K'
sS'1DEP1BVO'
p386
S'V'
sS'AOSPACS3B'
p387
S'mA'
p388
sS'PLAEV4BT'
p389
S'K'
sS'ES2P5CV'
p390
S'V'
sS'AORWPI5B'
p391
S'ms'
p392
sS'4PRT4AT'
p393
S'K'
sS'CUSOBOVN'
p394
S'W'
sS'TFSPCMM'
p395
S'K'
sS'EORTDMN19D'
p396
S'K'
sS'4HFSPAT'
p397
S'K'
sS'4MP5BV'
p398
S'V'
sS'AOINTTIM'
p399
S's'
sS'TFSPCMP'
p400
S'K'
sS'POM1THV1T'
p401
S'K'
sS'AOCMDRT1'
p402
S'rad/s'
p403
sS'AOACZAN5'
p404
S'arcsec'
p405
sS'AOACZAN4'
p406
S'arcsec'
p407
sS'AOACZAN7'
p408
S'arcsec'
p409
sS'AOACZAN6'
p410
S'arcsec'
p411
sS'AOACZAN1'
p412
S'arcsec'
p413
sS'AOACZAN0'
p414
S'arcsec'
p415
sS'AOACZAN3'
p416
S'arcsec'
p417
sS'AOACZAN2'
p418
S'arcsec'
p419
sS'3TTHRC2T'
p420
S'K'
sS'TCYLAFT4'
p421
S'K'
sS'CRXALS'
p422
S'kHz'
p423
sS'AOYABR'
p424
S'rad'
p425
sS'AOSRERR1'
p426
S'rad/s'
p427
sS'AOSRERR2'
p428
S'rad/s'
p429
sS'TIME'
p430
S's'
sS'PLAED2GT'
p431
S'K'
sS'POINT_SUNCENTANG'
p432
S'deg'
p433
sS'CXO5VOBB'
p434
S'V'
sS'AOSAEST1'
p435
S'rad'
p436
sS'1DAHACU'
p437
S'A'
sS'CXO5VOBA'
p438
S'V'
sS'EORTDMN22D'
p439
S'K'
sS'PM3THV1T'
p440
S'K'
sS'1DEP2BVO'
p441
S'V'
sS'AOETIMEX'
p442
S's'
sS'2CONDMXT'
p443
S'K'
sS'AORWINT5'
p444
S'ms'
p445
sS'1DEN0BVO'
p446
S'V'
sS'4IP15BV'
p447
S'V'
sS'4ALL2BT'
p448
S'K'
sS'4RT557T'
p449
S'K'
sS'CIUB5V'
p450
S'V'
sS'4ALL2AT'
p451
S'K'
sS'EOESAC1C'
p452
S'A'
sS'CTUA15V'
p453
S'V'
sS'AOADACH2A_NBG'
p454
S'deg'
p455
sS'AFLC10BI'
p456
S'mA'
p457
sS'PLAED2ET'
p458
S'K'
sS'CSSR1CAV'
p459
S'V'
sS'TMP_BEP_OSC'
p460
S'K'
sS'EOEB2DIC'
p461
S'A'
sS'3TTBRGBT'
p462
S'K'
sS'EOEBCC'
p463
S'A'
sS'AORWINT2'
p464
S'ms'
p465
sS'AORWINT3'
p466
S'ms'
p467
sS'AORWINT4'
p468
S'ms'
p469
sS'1DACTAT'
p470
S'deg'
p471
sS'AORWINT6'
p472
S'ms'
p473
sS'AFLCA4AI'
p474
S'mA'
p475
sS'OOBTHR15'
p476
S'K'
sS'4SP51V'
p477
S'V'
sS'EORTDMN25D'
p478
S'K'
sS'PLAED2CT'
p479
S'K'
sS'EOEB1VC'
p480
S'V'
sS'C10VREFB'
p481
S'V'
sS'C10VREFA'
p482
S'V'
sS'EOEB2VC'
p483
S'V'
sS'4PRT3BT'
p484
S'K'
sS'AWD1CV5V'
p485
S'V'
sS'PMTANK3T'
p486
S'K'
sS'AFLCA8BI'
p487
S'mA'
p488
sS'PLAED1DT'
p489
S'K'
sS'ARWA3BT'
p490
S'K'
sS'AOACINTT'
p491
S'ms'
p492
sS'POLAEV1AT'
p493
S'K'
sS'OHRTHR63'
p494
S'K'
sS'OOBTHR13'
p495
S'K'
sS'OHRTHR61'
p496
S'K'
sS'EOEB3CIC'
p497
S'A'
sS'AOSYMOM3'
p498
S'J*s'
p499
sS'EOESAC2C'
p500
S'A'
sS'AOSYMOM1'
p501
S'J*s'
p502
sS'4RT701T'
p503
S'K'
sS'AFLCA2AI'
p504
S'mA'
p505
sS'1OAHBT'
p506
S'K'
sS'TCYLAFT1'
p507
S'K'
sS'1DAHBCU'
p508
S'A'
sS'PMTANKP'
p509
S'kPa'
p510
sS'AFLCA5BI'
p511
S'mA'
p512
sS'ECNV3V'
p513
S'V'
sS'POINT_RAMVECTORANG'
p514
S'deg'
p515
sS'4RT583T'
p516
S'K'
sS'AIOAP5CV'
p517
S'V'
sS'TFSPRWC'
p518
S'K'
sS'4RT593T'
p519
S'K'
sS'TATECDRT'
p520
S'K'
sS'4RT559T'
p521
S'K'
sS'TSCTSF1'
p522
S'K'
sS'TSCTSF2'
p523
S'K'
sS'TSCTSF3'
p524
S'K'
sS'TSCTSF4'
p525
S'K'
sS'TSCTSF5'
p526
S'K'
sS'4PRT5BT'
p527
S'K'
sS'AFLCA6BI'
p528
S'mA'
p529
sS'TCM_RFAS'
p530
S'K'
sS'PLAED4ET'
p531
S'K'
sS'PLINE14T'
p532
S'K'
sS'TESH1'
p533
S'K'
sS'1DEICACU'
p534
S'A'
sS'CXPNBIT'
p535
S'K'
sS'1MAHCAT'
p536
S'K'
sS'PR3TV02T'
p537
S'K'
sS'3TSPZSPT'
p538
S'K'
sS'1DEP3BVO'
p539
S'V'
sS'AOAVGDTQ'
p540
S'J'
sS'EORTDMN17D'
p541
S'K'
sS'PLAED4BT'
p542
S'K'
sS'ADE1P5CV'
p543
S'V'
sS'TFSPPCU'
p544
S'K'
sS'4RT560T'
p545
S'K'
sS'AOMANANG'
p546
S'rad'
p547
sS'POLINE03T'
p548
S'K'
sS'OHRTHR11'
p549
S'K'
sS'AFLCA7AI'
p550
S'mA'
p551
sS'EB2DI'
p552
S'A'
sS'TFSSBKT2'
p553
S'K'
sS'TRSPRWBB'
p554
S'K'
sS'TRSPRWBC'
p555
S'K'
sS'AOSACMD1'
p556
S'rad'
p557
sS'AORWNTQ3'
p558
S'J'
sS'AFLCA3BI'
p559
S'mA'
p560
sS'FPTEMP_12'
p561
S'K'
sS'AORWPI1B'
p562
S'ms'
p563
sS'EB1DI'
p564
S'A'
sS'PLAED3FT'
p565
S'K'
sS'AFLCA3AI'
p566
S'mA'
p567
sS'AFSSPC1V'
p568
S'V'
sS'TSCIUSF2'
p569
S'K'
sS'TSCIUSF5'
p570
S'K'
sS'AVD1CV5V'
p571
S'V'
sS'DEAP6VOLTA'
p572
S'V'
sS'TSCIUSF8'
p573
S'K'
sS'AACH2T'
p574
S'K'
sS'ADE2P5CV'
p575
S'V'
sS'TASPPCP'
p576
S'K'
sS'3TTACS3T'
p577
S'K'
sS'CTSA15V'
p578
S'V'
sS'PFDM102T'
p579
S'K'
sS'PFDM202T'
p580
S'K'
sS'OHRTHR62'
p581
S'K'
sS'4RT586T'
p582
S'K'
sS'TEP_PSU1'
p583
S'K'
sS'OHRTHR60'
p584
S'K'
sS'OOBTHR37'
p585
S'K'
sS'OOBTHR36'
p586
S'K'
sS'OOBTHR35'
p587
S'K'
sS'OOBTHR34'
p588
S'K'
sS'CUSOBIT'
p589
S'K'
sS'TAPEA1T'
p590
S'K'
sS'OOBTHR31'
p591
S'K'
sS'OOBTHR30'
p592
S'K'
sS'OOBTHR39'
p593
S'K'
sS'OOBTHR38'
p594
S'K'
sS'2P24VBVL'
p595
S'V'
sS'AIRU2G2T'
p596
S'K'
sS'POINT_EARTHCENTANG'
p597
S'deg'
p598
sS'3FABRAAT'
p599
S'K'
sS'1DEP3AVO'
p600
S'V'
sS'AIRU1G2T'
p601
S'K'
sS'TPC_CEA'
p602
S'K'
sS'AIRU1G2I'
p603
S'mA'
p604
sS'PM2THV2T'
p605
S'K'
sS'TSAMYT'
p606
S'K'
sS'AVACMONV'
p607
S'V'
sS'4RT590T'
p608
S'K'
sS'TEP_PSU2'
p609
S'K'
sS'TPZLGABM'
p610
S'K'
sS'1OAHAT'
p611
S'K'
sS'2P05VBVL'
p612
S'V'
sS'ASPEFSW4B'
p613
S'deg'
p614
sS'ARWA4BT'
p615
S'K'
sS'PLAEV4AT'
p616
S'K'
sS'4CSDHBV'
p617
S'V'
sS'AOMANRT'
p618
S'rad/s'
p619
sS'AOCSSI1'
p620
S'mA'
p621
sS'AOCSSI3'
p622
S'mA'
p623
sS'AIRU2G1T'
p624
S'K'
sS'AOCSSI4'
p625
S'mA'
p626
sS'AIRU2G1I'
p627
S'mA'
p628
sS'CTUB15V'
p629
S'V'
sS'1VAHCAT'
p630
S'K'
sS'TB3T2'
p631
S'K'
sS'TB3T3'
p632
S'K'
sS'DEAM6VOLTB'
p633
S'V'
sS'PLAED3CT'
p634
S'K'
sS'1PIN1AT'
p635
S'K'
sS'1DP28BVO'
p636
S'V'
sS'AOFFTQ1'
p637
S'J'
sS'PLAEV1BT'
p638
S'K'
sS'AOFFTQ2'
p639
S'J'
sS'PFDM201T'
p640
S'K'
sS'TPCP_RW3'
p641
S'K'
sS'AOFFTQ3'
p642
S'J'
sS'AI2AX1Y'
p643
S'deg/s'
p644
sS'1PDEABT'
p645
S'K'
sS'TPCP_RW2'
p646
S'K'
sS'PLAED2HT'
p647
S'K'
sS'AOADBCH2A_PCAD'
p648
S'deg'
p649
sS'4RT704T'
p650
S'K'
sS'AORWPI6B'
p651
S'ms'
p652
sS'TCM_PAN'
p653
S'K'
sS'TCM_SSR2'
p654
S'K'
sS'SUN_EARTHCENTANG'
p655
S'deg'
p656
sS'EOECNV1C'
p657
S'V'
sS'AFLCABH'
p658
S'V'
sS'3FLCABPT'
p659
S'K'
sS'OHRTHR18'
p660
S'K'
sS'OHRTHR19'
p661
S'K'
sS'OHRTHR17'
p662
S'K'
sS'OHRTHR14'
p663
S'K'
sS'OHRTHR15'
p664
S'K'
sS'OHRTHR12'
p665
S'K'
sS'OHRTHR13'
p666
S'K'
sS'OHRTHR10'
p667
S'K'
sS'POLAEV1BT'
p668
S'K'
sS'4PRTBV'
p669
S'V'
sS'CIUB15V'
p670
S'V'
sS'3TTHRC3T'
p671
S'K'
sS'PLAED3HT'
p672
S'K'
sS'AIRU2BT'
p673
S'K'
sS'AORWSPD1'
p674
S'rad/s'
p675
sS'AORWSPD2'
p676
S'rad/s'
p677
sS'AORWSPD3'
p678
S'rad/s'
p679
sS'AORWSPD4'
p680
S'rad/s'
p681
sS'AORWSPD5'
p682
S'rad/s'
p683
sS'AORWSPD6'
p684
S'rad/s'
p685
sS'PM1THV1T'
p686
S'K'
sS'AOCMDRT2'
p687
S'rad/s'
p688
sS'AOCMDRT3'
p689
S'rad/s'
p690
sS'AI2AX2X'
p691
S'deg/s'
p692
sS'EORTDMN13D'
p693
S'K'
sS'4RT564T'
p694
S'K'
sS'EORTDMN21D'
p695
S'K'
sS'PMTANK1T'
p696
S'K'
sS'4SP52V'
p697
S'V'
sS'1DEN1BVO'
p698
S'V'
sS'PM3THV2T'
p699
S'K'
sS'EORTDMN29D'
p700
S'K'
sS'PLINE04T'
p701
S'K'
sS'PLAED3BT'
p702
S'K'
sS'AI2AX2Y'
p703
S'deg/s'
p704
sS'TB2T1'
p705
S'K'
sS'PXTANKOP'
p706
S'kPa'
p707
sS'4OAVHRMT'
p708
S'K'
sS'EORTDMN28D'
p709
S'K'
sS'PFFP01T'
p710
S'K'
sS'2N15VAVL'
p711
S'V'
sS'2N15VBVL'
p712
S'V'
sS'4LFSPBT'
p713
S'K'
sS'AOSPBCS2B'
p714
S'mA'
p715
sS'1DEP0AVO'
p716
S'V'
sS'4CSDOAV'
p717
S'V'
sS'TEP_BPAN'
p718
S'K'
sS'1WRAT'
p719
S'K'
sS'PLAED1GT'
p720
S'K'
sS'TASPRWC'
p721
S'K'
sS'AORESY6_1'
p722
S'rad'
p723
sS'PLINE01T'
p724
S'K'
sS'AFLCA8AI'
p725
S'mA'
p726
sS'AACBPPT'
p727
S'K'
sS'4HPOSBRO'
p728
S'deg'
p729
sS'AORTERR3'
p730
S'rad/s'
p731
sS'1PDEAAT'
p732
S'K'
sS'PCM02T'
p733
S'K'
sS'3FAMYZAT'
p734
S'K'
sS'AACCCDPT'
p735
S'K'
sS'4OAVOBAT'
p736
S'K'
sS'PLAEV1AT'
p737
S'K'
sS'TPC_WDA'
p738
S'K'
sS'TSCTSF6'
p739
S'K'
sS'AOSPBCS3B'
p740
S'mA'
p741
sS'TCM_TX2'
p742
S'K'
sS'TCM_TX1'
p743
S'K'
sS'CTUA5V'
p744
S'V'
sS'4LLL1BT'
p745
S'K'
sS'TMZP_CNT'
p746
S'K'
sS'4RT582T'
p747
S'K'
sS'TMP_BEP_PCB'
p748
S'K'
sS'AHKNATRD'
p749
S'V'
sS'EOEB3VC'
p750
S'V'
sS'DPA5VHKB'
p751
S'V'
sS'AFLCA6AI'
p752
S'mA'
p753
sS'4CSDOBV'
p754
S'V'
sS'AFLCA9BI'
p755
S'mA'
p756
sS'1DEP2AVO'
p757
S'V'
sS'3RCTUBPT'
p758
S'K'
sS'TMP_FEP0_ACTEL'
p759
S'K'
sS'OOBTHR49'
p760
S'K'
sS'OOBTHR46'
p761
S'K'
sS'OOBTHR47'
p762
S'K'
sS'OOBTHR44'
p763
S'K'
sS'OOBTHR45'
p764
S'K'
sS'OOBTHR42'
p765
S'K'
sS'OOBTHR43'
p766
S'K'
sS'OOBTHR40'
p767
S'K'
sS'OOBTHR41'
p768
S'K'
sS'AI1AX1X'
p769
S'deg/s'
p770
sS'PLAED2IT'
p771
S'K'
sS'DEA24VOLTA'
p772
S'V'
sS'AI1AX1Y'
p773
S'deg/s'
p774
sS'4HLL1BT'
p775
S'K'
sS'AWD2CV5V'
p776
S'V'
sS'EORTDMN14D'
p777
S'K'
sS'ARWA1BT'
p778
S'K'
sS'AFLCA7BI'
p779
S'mA'
p780
sS'AORWNTQ1'
p781
S'J'
sS'PLAED4GT'
p782
S'K'
sS'AFLC14BI'
p783
S'mA'
p784
sS'POLINE06T'
p785
S'K'
sS'AOSPACS4B'
p786
S'mA'
p787
sS'OHRTHR58'
p788
S'K'
sS'OHRTHR59'
p789
S'K'
sS'OHRTHR52'
p790
S'K'
sS'OHRTHR53'
p791
S'K'
sS'OHRTHR50'
p792
S'K'
sS'OHRTHR51'
p793
S'K'
sS'OHRTHR56'
p794
S'K'
sS'2P15VAVL'
p795
S'V'
sS'OHRTHR54'
p796
S'K'
sS'OHRTHR55'
p797
S'K'
sS'AORWPI2B'
p798
S'ms'
p799
sS'TCYZ_RW1'
p800
S'K'
sS'AI2AX1X'
p801
S'deg/s'
p802
sS'3TSMXCET'
p803
S'K'
sS'AODITHR2'
p804
S'rad'
p805
sS'DPA5VHKA'
p806
S'V'
sS'ARWA2BT'
p807
S'K'
sS'PLAED3ET'
p808
S'K'
sS'TSAPYT'
p809
S'K'
sS'CPA1V'
p810
S'V'
sS'ASPEA5CV'
p811
S'V'
sS'4IP15AV'
p812
S'V'
sS'PXTANK1T'
p813
S'K'
sS'4RT568T'
p814
S'K'
sS'ACPB5CV'
p815
S'V'
sS'OOBTHR02'
p816
S'K'
sS'1DPICACU'
p817
S'A'
sS'TCYLPCM'
p818
S'K'
sS'TOXTSUPN'
p819
S'K'
sS'AOSPBCS1B'
p820
S'mA'
p821
sS'4RT589T'
p822
S'K'
sS'ASPEFSW2B'
p823
S'deg'
p824
sS'TCYLRWC'
p825
S'K'
sS'AORWMOM2'
p826
S'J*s'
p827
sS'TCYLAFT5'
p828
S'K'
sS'AORWMOM1'
p829
S'J*s'
p830
sS'4RT700T'
p831
S'K'
sS'4LLL1AT'
p832
S'K'
sS'1CBAT'
p833
S'K'
sS'CPA2BPT'
p834
S'K'
sS'PLAED4IT'
p835
S'K'
sS'EB3DI'
p836
S'A'
sS'PLAED2FT'
p837
S'K'
sS'TCYLAFT6'
p838
S'K'
sS'TAPEA2T'
p839
S'K'
sS'AFLC10AI'
p840
S'mA'
p841
sS'AORWCMD4'
p842
S'J'
sS'2PMT2T'
p843
S'K'
sS'EIACVAV'
p844
S'V'
sS'EB3V'
p845
S'V'
sS'PLAED1HT'
p846
S'K'
sS'1MAHOAT'
p847
S'K'
sS'EORTDMN24D'
p848
S'K'
sS'3TTVALVT'
p849
S'K'
sS'PXDM02T'
p850
S'K'
sS'AOCMDAC1'
p851
S'rad/s**2'
p852
sS'CUSOAIT'
p853
S'K'
sS'4HPOSARO'
p854
S'deg'
p855
sS'OHRMGRD6'
p856
S'deltaK'
p857
sS'POLINE05T'
p858
S'K'
sS'OHRMGRD3'
p859
g857
sS'DEA28VOLTA'
p860
S'V'
sS'EOEB3V'
p861
S'V'
sS'DEA28VOLTB'
p862
S'V'
sS'4IN15AV'
p863
S'V'
sS'CIUA15V'
p864
S'V'
sS'AOTQCMD1'
p865
S'J'
sS'AOTQCMD3'
p866
S'J'
sS'AOTQCMD2'
p867
S'J'
sS'TRSPOTEP'
p868
S'K'
sS'AIRU2G2I'
p869
S'mA'
p870
sS'AOCMDAC2'
p871
S'rad/s**2'
p872
sS'TRSPOTEX'
p873
S'K'
sS'AORTERR1'
p874
S'rad/s'
p875
sS'4PRT3AT'
p876
S'K'
sS'AOSPACS1B'
p877
S'mA'
p878
sS'EOEBC'
p879
S'A'
sS'TB1T1'
p880
S'K'
sS'AFLCAAH'
p881
S'V'
sS'1CRAT'
p882
S'K'
sS'AFSSPC2V'
p883
S'V'
sS'PMTANK2T'
p884
S'K'
sS'4RT558T'
p885
S'K'
sS'AOACYAN1'
p886
S'arcsec'
p887
sS'TMP_FEP0_PCB'
p888
S'K'
sS'1SSPYT'
p889
S'K'
sS'AFLC11AI'
p890
S'mA'
p891
sS'PLAED1CT'
p892
S'K'
sS'DEA24VOLTB'
p893
S'V'
sS'AOCMDAC3'
p894
S'rad/s**2'
p895
sS'POM2THV2T'
p896
S'K'
sS'PLAED4HT'
p897
S'K'
sS'2DTSTATT'
p898
S'K'
sS'OOBTHR08'
p899
S'K'
sS'OOBTHR09'
p900
S'K'
sS'AAOTASMT'
p901
S'K'
sS'CSITA5V'
p902
S'V'
sS'OOBTHR03'
p903
S'K'
sS'TCYLAFT3'
p904
S'K'
sS'TCYLAFT2'
p905
S'K'
sS'OOBTHR06'
p906
S'K'
sS'OOBTHR07'
p907
S'K'
sS'OOBTHR04'
p908
S'K'
sS'OOBTHR05'
p909
S'K'
sS'EOESAT2C'
p910
S'K'
sS'GND_1'
p911
S'V'
sS'PR3TV01T'
p912
S'K'
sS'TBOLTCUT'
p913
S'K'
sS'AOACYAN4'
p914
S'arcsec'
p915
sS'AOACYAN5'
p916
S'arcsec'
p917
sS'AOACYAN6'
p918
S'arcsec'
p919
sS'AOACYAN7'
p920
S'arcsec'
p921
sS'AOACYAN0'
p922
S'arcsec'
p923
sS'1MAHCBT'
p924
S'K'
sS'AOACYAN2'
p925
S'arcsec'
p926
sS'AOACYAN3'
p927
S'arcsec'
p928
sS'TFSSBKT1'
p929
S'K'
sS'PLAED4CT'
p930
S'K'
sS'CUSOB28V'
p931
S'V'
sS'AORESY7'
p932
S'rad'
p933
sS'AORESY4'
p934
S'rad'
p935
sS'CSITB5V'
p936
S'V'
sS'AORESY3'
p937
S'rad'
p938
sS'AORESY0'
p939
S'rad'
p940
sS'CSITB15V'
p941
S'V'
sS'EB2CI'
p942
S'A'
sS'TEP_PPAN'
p943
S'K'
sS'AORESZ2_1'
p944
S'rad'
p945
sS'1DAHBVO'
p946
S'V'
sS'4RT565T'
p947
S'K'
sS'POLAEV2BT'
p948
S'K'
sS'PLAED1ET'
p949
S'K'
sS'POLAEV4AT'
p950
S'K'
sS'CSSR2CBV'
p951
S'V'
sS'4RT707T'
p952
S'K'
sS'PLINE05T'
p953
S'K'
sS'PLAED3AT'
p954
S'K'
sS'TAPE2PST'
p955
S'K'
sS'4IP5BV'
p956
S'V'
sS'4PRT4BT'
p957
S'K'
sS'1DAHHAVO'
p958
S'V'
sS'3TSPYFET'
p959
S'K'
sS'POLINE02T'
p960
S'K'
sS'TMP_FEP1_ACTEL'
p961
S'K'
sS'4RT555T'
p962
S'K'
sS'TPC_DEA'
p963
S'K'
sS'PXTANKIP'
p964
S'kPa'
p965
sS'AORWINT1'
p966
S'ms'
p967
sS'GND_2'
p968
S'V'
sS'ARWA5BT'
p969
S'K'
sS'ELBI_LOW'
p970
S'A'
sS'2CHTRPZT'
p971
S'K'
sS'4RT579T'
p972
S'K'
sS'TCM_USO'
p973
S'K'
sS'PLINE13T'
p974
S'K'
sS'AOATTER1'
p975
S'rad'
p976
sS'AOATTER2'
p977
S'rad'
p978
sS'AOATTER3'
p979
S'rad'
p980
sS'TMZLGABM'
p981
S'K'
sS'2P24VAVL'
p982
S'V'
sS'AWD5TQI'
p983
S'A'
sS'AOADACH1A_NBG'
p984
S'deg'
p985
sS'ECNV1V'
p986
S'V'
sS'EEPA5V'
p987
S'V'
sS'4RT585T'
p988
S'K'
sS'PLAED2BT'
p989
S'K'
sS'OHRTHR03'
p990
S'K'
sS'OHRTHR02'
p991
S'K'
sS'OHRTHR05'
p992
S'K'
sS'OHRTHR04'
p993
S'K'
sS'OHRTHR07'
p994
S'K'
sS'OHRTHR06'
p995
S'K'
sS'OHRTHR09'
p996
S'K'
sS'1WRBT'
p997
S'K'
sS'AIRU1VFT'
p998
S'K'
sS'AORESZ6_6'
p999
S'rad'
p1000
sS'AORESZ6_7'
p1001
S'rad'
p1002
sS'AORESZ6_4'
p1003
S'rad'
p1004
sS'AOADBCH1A_NBG'
p1005
S'deg'
p1006
sS'AORESZ6_2'
p1007
S'rad'
p1008
sS'AORESZ6_3'
p1009
S'rad'
p1010
sS'CTSA5V'
p1011
S'V'
sS'AORESZ6_1'
p1012
S'rad'
p1013
sS'4RT570T'
p1014
S'K'
sS'AIRU1G1T'
p1015
S'K'
sS'4RT705T'
p1016
S'K'
sS'ELBI'
p1017
S'A'
sS'1CBBT'
p1018
S'K'
sS'AORESZ6_8'
p1019
S'rad'
p1020
sS'3BTU_BPT'
p1021
S'K'
sS'AOSARES2'
p1022
S'deg'
p1023
sS'AORESY5_1'
p1024
S'rad'
p1025
sS'DEAP15VOLTB'
p1026
S'V'
sS'ELBV'
p1027
S'V'
sS'4RT591T'
p1028
S'K'
sS'TEP_PCU'
p1029
S'K'
sS'1DEP0BVO'
p1030
S'V'
sS'4PRTAV'
p1031
S'V'
sS'TMZP_MY'
p1032
S'K'
sS'CTSB15V'
p1033
S'V'
sS'CPCA15V'
p1034
S'V'
sS'TMYHNG'
p1035
S'K'
sS'SIM_Y'
p1036
S'mm'
p1037
sS'PLAEV3BT'
p1038
S'K'
sS'SIM_Z'
p1039
S'mm'
p1040
sS'1DEICBCU'
p1041
S'A'
sS'DPAGNDREF1'
p1042
S'V'
sS'FPTEMP_11'
p1043
S'K'
sS'DPAGNDREF2'
p1044
S'V'
sS'PLINE12T'
p1045
S'K'
sS'AIRU2VFT'
p1046
S'K'
sS'EOESAT1C'
p1047
S'K'
sS'CRXAV'
p1048
S'V'
sS'C28VMONA'
p1049
S'V'
sS'AOADACH2A_PCAD'
p1050
S'deg'
p1051
sS'3TSPZDET'
p1052
S'K'
sS'TPYSADA'
p1053
S'K'
sS'EORTDMN15D'
p1054
S'K'
sS'AIRU1G1I'
p1055
S'mA'
p1056
sS'PLAED4DT'
p1057
S'K'
sS'PHETANKP'
p1058
S'kPa'
p1059
sS'PLINE08T'
p1060
S'K'
sS'POLINE01T'
p1061
S'K'
sS'TPC_FSSE'
p1062
S'K'
sS'AFLC12BI'
p1063
S'mA'
p1064
sS'CIUA5V'
p1065
S'V'
sS'AFLC14AI'
p1066
S'mA'
p1067
sS'TSCIUSF1'
p1068
S'K'
sS'PFTANKOP'
p1069
S'kPa'
p1070
sS'AORESZ7'
p1071
S'rad'
p1072
sS'3TTRALCT'
p1073
S'K'
sS'2P15VBVL'
p1074
S'V'
sS'AORESZ4'
p1075
S'rad'
p1076
sS'AORESZ3'
p1077
S'rad'
p1078
sS'PCM04T'
p1079
S'K'
sS'AORESZ0'
p1080
S'rad'
p1081
sS'AORWNTQ4'
p1082
S'J'
sS'AORWNTQ5'
p1083
S'J'
sS'AORWNTQ6'
p1084
S'J'
sS'TMP_FEP1_MONG'
p1085
S'K'
sS'AORWMC6_1'
p1086
S'J*s'
p1087
sS'EOECNV2C'
p1088
S'V'
sS'AORWNTQ2'
p1089
S'J'
sS'CPA2V'
p1090
S'V'
sS'DEAM6VOLTA'
p1091
S'V'
sS'DIST_SATEARTH'
p1092
S'm'
sS'AOSPBCS4B'
p1093
S'mA'
p1094
sS'4RT567T'
p1095
S'K'
sS'4PRT1BT'
p1096
S'K'
sS'TRSPOTPC'
p1097
S'K'
sS'TCM_OBC'
p1098
S'K'
sS'AORWMC1'
p1099
S'J*s'
p1100
sS'4RT578T'
p1101
S'K'
sS'AORWMC4'
p1102
S'J*s'
p1103
sS'AORWMC5'
p1104
S'J*s'
p1105
sS'TCYLPCP'
p1106
S'K'
sS'PM1THV2T'
p1107
S'K'
sS'TB1T2'
p1108
S'K'
sS'AOSCPOS1'
p1109
S'km'
p1110
sS'AOSCPOS2'
p1111
S'km'
p1112
sS'AOSCPOS3'
p1113
S'km'
p1114
sS'4RT588T'
p1115
S'K'
sS'PCM01T'
p1116
S'K'
sS'4RT596T'
p1117
S'K'
sS'OOBTHR51'
p1118
S'K'
sS'OOBTHR50'
p1119
S'K'
sS'OOBTHR53'
p1120
S'K'
sS'OOBTHR52'
p1121
S'K'
sS'OOBTHR55'
p1122
S'K'
sS'OOBTHR54'
p1123
S'K'
sS'OOBTHR57'
p1124
S'K'
sS'OOBTHR56'
p1125
S'K'
sS'OOBTHR59'
p1126
S'K'
sS'OOBTHR58'
p1127
S'K'
sS'SIM_X'
p1128
S'mm'
p1129
sS'1SSMYT'
p1130
S'K'
sS'CTXBV'
p1131
S'V'
sS'4PRT2BT'
p1132
S'K'
sS'ARWA6BT'
p1133
S'K'
sS'4RT575T'
p1134
S'K'
sS'CPA1BPT'
p1135
S'K'
sS'PM4THV2T'
p1136
S'K'
sS'4IP5AV'
p1137
S'V'
sS'4VRMOAV'
p1138
S'V'
sS'2PMT1T'
p1139
S'K'
sS'EB2V'
p1140
S'V'
sS'1DPAMZT'
p1141
S'K'
sS'EIACVBV'
p1142
S'V'
sS'EORTDMN27D'
p1143
S'K'
sS'4RT703T'
p1144
S'K'
sS'1DAHHBVO'
p1145
S'V'
sS'1DEP1AVO'
p1146
S'V'
sS'1VAHOBT'
p1147
S'K'
sS'1MAHOBT'
p1148
S'K'
sS'4RT706T'
p1149
S'K'
sS'CRXBLS'
p1150
S'kHz'
p1151
sS'AOSAEST2'
p1152
S'rad'
p1153
sS'OHRTHR49'
p1154
S'K'
sS'POLINE12T'
p1155
S'K'
sS'TASPPCM'
p1156
S'K'
sS'OHRTHR45'
p1157
S'K'
sS'OHRTHR44'
p1158
S'K'
sS'OHRTHR47'
p1159
S'K'
sS'OHRTHR46'
p1160
S'K'
sS'OHRTHR41'
p1161
S'K'
sS'OHRTHR40'
p1162
S'K'
sS'OHRTHR43'
p1163
S'K'
sS'OHRTHR42'
p1164
S'K'
sS'AWD2TQI'
p1165
S'A'
sS'4LPOSARO'
p1166
S'deg'
p1167
sS'PCM03T'
p1168
S'K'
sS'EOEB1DIC'
p1169
S'A'
sS'POINT_EARTHLIMBANG'
p1170
S'deg'
p1171
sS'TMP_FEP0_MONG'
p1172
S'K'
sS'TASPPCU'
p1173
S'K'
sS'POM2THV1T'
p1174
S'K'
sS'4RT708T'
p1175
S'K'
sS'OOBAGRD6'
p1176
g857
sS'TB1T3'
p1177
S'K'
sS'TEP_EIA'
p1178
S'K'
sS'TESH2'
p1179
S'K'
sS'OOBAGRD3'
p1180
g857
sS'PLAED1FT'
p1181
S'K'
sS'EB3CI'
p1182
S'A'
sS'AORESZ1_1'
p1183
S'rad'
p1184
sS'TATECDPT'
p1185
S'K'
sS'AOSUNER1'
p1186
S'rad'
p1187
sS'4MP28AV'
p1188
S'V'
sS'1HOPRBPR'
p1189
S'kPa'
p1190
sS'1CRBT'
p1191
S'K'
sS'AWD6TQI'
p1192
S'A'
s.