(dp0
S'AORWPI4B'
p1
cnumpy.core.multiarray
scalar
p2
(cnumpy
dtype
p3
(S'S4'
p4
I0
I1
tp5
Rp6
(I3
S'|'
p7
NNNI4
I1
I0
tp8
bS'MSEC'
p9
tp10
Rp11
sS'1DEAMZT'
p12
g2
(g3
(S'S4'
p13
I0
I1
tp14
Rp15
(I3
S'|'
p16
NNNI4
I1
I0
tp17
bS'DEGC'
p18
tp19
Rp20
sS'PLINE16T'
p21
g2
(g3
(S'S4'
p22
I0
I1
tp23
Rp24
(I3
S'|'
p25
NNNI4
I1
I0
tp26
bS'DEGF'
p27
tp28
Rp29
sS'EORTDMN18D'
p30
g2
(g3
(S'S4'
p31
I0
I1
tp32
Rp33
(I3
S'|'
p34
NNNI4
I1
I0
tp35
bS'DEGF'
p36
tp37
Rp38
sS'CTXAV'
p39
g2
(g3
(S'S1'
p40
I0
I1
tp41
Rp42
(I3
S'|'
p43
NNNI1
I1
I0
tp44
bS'V'
p45
tp46
Rp47
sS'TFSPPCM'
p48
g2
(g3
(S'S4'
p49
I0
I1
tp50
Rp51
(I3
S'|'
p52
NNNI4
I1
I0
tp53
bS'DEGF'
p54
tp55
Rp56
sS'EB1CI'
p57
g2
(g3
(S'S3'
p58
I0
I1
tp59
Rp60
(I3
S'|'
p61
NNNI3
I1
I0
tp62
bS'AMP'
p63
tp64
Rp65
sS'OHRTHR38'
p66
g2
(g3
(S'S4'
p67
I0
I1
tp68
Rp69
(I3
S'|'
p70
NNNI4
I1
I0
tp71
bS'DEGF'
p72
tp73
Rp74
sS'OHRTHR39'
p75
g2
(g3
(S'S4'
p76
I0
I1
tp77
Rp78
(I3
S'|'
p79
NNNI4
I1
I0
tp80
bS'DEGF'
p81
tp82
Rp83
sS'TFSPPCP'
p84
g2
(g3
(S'S4'
p85
I0
I1
tp86
Rp87
(I3
S'|'
p88
NNNI4
I1
I0
tp89
bS'DEGF'
p90
tp91
Rp92
sS'ASPEFSW3B'
p93
g2
(g3
(S'S3'
p94
I0
I1
tp95
Rp96
(I3
S'|'
p97
NNNI3
I1
I0
tp98
bS'DEG'
p99
tp100
Rp101
sS'CUSOAOVN'
p102
g2
(g3
(S'S1'
p103
I0
I1
tp104
Rp105
(I3
S'|'
p106
NNNI1
I1
I0
tp107
bS'W'
p108
tp109
Rp110
sS'OHRTHR30'
p111
g2
(g3
(S'S4'
p112
I0
I1
tp113
Rp114
(I3
S'|'
p115
NNNI4
I1
I0
tp116
bS'DEGF'
p117
tp118
Rp119
sS'OHRTHR31'
p120
g2
(g3
(S'S4'
p121
I0
I1
tp122
Rp123
(I3
S'|'
p124
NNNI4
I1
I0
tp125
bS'DEGF'
p126
tp127
Rp128
sS'OHRTHR33'
p129
g2
(g3
(S'S4'
p130
I0
I1
tp131
Rp132
(I3
S'|'
p133
NNNI4
I1
I0
tp134
bS'DEGF'
p135
tp136
Rp137
sS'1DPP0BVO'
p138
g2
(g3
(S'S1'
p139
I0
I1
tp140
Rp141
(I3
S'|'
p142
NNNI1
I1
I0
tp143
bg45
tp144
Rp145
sS'OHRTHR35'
p146
g2
(g3
(S'S4'
p147
I0
I1
tp148
Rp149
(I3
S'|'
p150
NNNI4
I1
I0
tp151
bS'DEGF'
p152
tp153
Rp154
sS'OHRTHR36'
p155
g2
(g3
(S'S4'
p156
I0
I1
tp157
Rp158
(I3
S'|'
p159
NNNI4
I1
I0
tp160
bS'DEGF'
p161
tp162
Rp163
sS'OHRTHR37'
p164
g2
(g3
(S'S4'
p165
I0
I1
tp166
Rp167
(I3
S'|'
p168
NNNI4
I1
I0
tp169
bS'DEGF'
p170
tp171
Rp172
sS'EORTDMN11D'
p173
g2
(g3
(S'S4'
p174
I0
I1
tp175
Rp176
(I3
S'|'
p177
NNNI4
I1
I0
tp178
bS'DEGF'
p179
tp180
Rp181
sS'AFLC11BI'
p182
g2
(g3
(S'S4'
p183
I0
I1
tp184
Rp185
(I3
S'|'
p186
NNNI4
I1
I0
tp187
bS'MAMP'
p188
tp189
Rp190
sS'AORWMC3_1'
p191
g2
(g3
(S'S7'
p192
I0
I1
tp193
Rp194
(I3
S'|'
p195
NNNI7
I1
I0
tp196
bS'FTLBSEC'
p197
tp198
Rp199
sS'PLAED2FT'
p200
g2
(g3
(S'S4'
p201
I0
I1
tp202
Rp203
(I3
S'|'
p204
NNNI4
I1
I0
tp205
bS'DEGF'
p206
tp207
Rp208
sS'TEPHIN'
p209
g2
(g3
(S'S4'
p210
I0
I1
tp211
Rp212
(I3
S'|'
p213
NNNI4
I1
I0
tp214
bS'DEGF'
p215
tp216
Rp217
sS'3TTHRC1T'
p218
g2
(g3
(S'S4'
p219
I0
I1
tp220
Rp221
(I3
S'|'
p222
NNNI4
I1
I0
tp223
bS'DEGC'
p224
tp225
Rp226
sS'PXDM01T'
p227
g2
(g3
(S'S4'
p228
I0
I1
tp229
Rp230
(I3
S'|'
p231
NNNI4
I1
I0
tp232
bS'DEGF'
p233
tp234
Rp235
sS'4RT562T'
p236
g2
(g3
(S'S4'
p237
I0
I1
tp238
Rp239
(I3
S'|'
p240
NNNI4
I1
I0
tp241
bS'DEGF'
p242
tp243
Rp244
sS'4PRT1AT'
p245
g2
(g3
(S'S4'
p246
I0
I1
tp247
Rp248
(I3
S'|'
p249
NNNI4
I1
I0
tp250
bS'DEGF'
p251
tp252
Rp253
sS'TMZP_PY'
p254
g2
(g3
(S'S4'
p255
I0
I1
tp256
Rp257
(I3
S'|'
p258
NNNI4
I1
I0
tp259
bS'DEGF'
p260
tp261
Rp262
sS'4RT710T'
p263
g2
(g3
(S'S4'
p264
I0
I1
tp265
Rp266
(I3
S'|'
p267
NNNI4
I1
I0
tp268
bS'DEGF'
p269
tp270
Rp271
sS'POR2TV01T'
p272
g2
(g3
(S'S4'
p273
I0
I1
tp274
Rp275
(I3
S'|'
p276
NNNI4
I1
I0
tp277
bS'DEGF'
p278
tp279
Rp280
sS'AOZABR'
p281
g2
(g3
(S'S3'
p282
I0
I1
tp283
Rp284
(I3
S'|'
p285
NNNI3
I1
I0
tp286
bS'RAD'
p287
tp288
Rp289
sS'AORESZ5_1'
p290
g2
(g3
(S'S3'
p291
I0
I1
tp292
Rp293
(I3
S'|'
p294
NNNI3
I1
I0
tp295
bS'RAD'
p296
tp297
Rp298
sS'TB2T3'
p299
g2
(g3
(S'S4'
p300
I0
I1
tp301
Rp302
(I3
S'|'
p303
NNNI4
I1
I0
tp304
bS'DEGF'
p305
tp306
Rp307
sS'TB2T2'
p308
g2
(g3
(S'S4'
p309
I0
I1
tp310
Rp311
(I3
S'|'
p312
NNNI4
I1
I0
tp313
bS'DEGF'
p314
tp315
Rp316
sS'PLINE06T'
p317
g2
(g3
(S'S4'
p318
I0
I1
tp319
Rp320
(I3
S'|'
p321
NNNI4
I1
I0
tp322
bS'DEGF'
p323
tp324
Rp325
sS'AOADBCH1A_PCAD'
p326
g2
(g3
(S'S3'
p327
I0
I1
tp328
Rp329
(I3
S'|'
p330
NNNI3
I1
I0
tp331
bS'DEG'
p332
tp333
Rp334
sS'AORWPI3B'
p335
g2
(g3
(S'S4'
p336
I0
I1
tp337
Rp338
(I3
S'|'
p339
NNNI4
I1
I0
tp340
bS'MSEC'
p341
tp342
Rp343
sS'POR2TV02T'
p344
g2
(g3
(S'S4'
p345
I0
I1
tp346
Rp347
(I3
S'|'
p348
NNNI4
I1
I0
tp349
bS'DEGF'
p350
tp351
Rp352
sS'1DAHAVO'
p353
g2
(g3
(S'S1'
p354
I0
I1
tp355
Rp356
(I3
S'|'
p357
NNNI1
I1
I0
tp358
bg45
tp359
Rp360
sS'PXTANK2T'
p361
g2
(g3
(S'S4'
p362
I0
I1
tp363
Rp364
(I3
S'|'
p365
NNNI4
I1
I0
tp366
bS'DEGF'
p367
tp368
Rp369
sS'3TSMYDPT'
p370
g2
(g3
(S'S4'
p371
I0
I1
tp372
Rp373
(I3
S'|'
p374
NNNI4
I1
I0
tp375
bS'DEGC'
p376
tp377
Rp378
sS'PR1TV02T'
p379
g2
(g3
(S'S4'
p380
I0
I1
tp381
Rp382
(I3
S'|'
p383
NNNI4
I1
I0
tp384
bS'DEGF'
p385
tp386
Rp387
sS'3TTACS1T'
p388
g2
(g3
(S'S4'
p389
I0
I1
tp390
Rp391
(I3
S'|'
p392
NNNI4
I1
I0
tp393
bS'DEGC'
p394
tp395
Rp396
sS'AORESY2_1'
p397
g2
(g3
(S'S3'
p398
I0
I1
tp399
Rp400
(I3
S'|'
p401
NNNI3
I1
I0
tp402
bS'RAD'
p403
tp404
Rp405
sS'PHOFP1T'
p406
g2
(g3
(S'S4'
p407
I0
I1
tp408
Rp409
(I3
S'|'
p410
NNNI4
I1
I0
tp411
bS'DEGF'
p412
tp413
Rp414
sS'4MP5AV'
p415
g2
(g3
(S'S3'
p416
I0
I1
tp417
Rp418
(I3
S'|'
p419
NNNI3
I1
I0
tp420
bS'VDC'
p421
tp422
Rp423
sS'AORTERR2'
p424
g2
(g3
(S'S5'
p425
I0
I1
tp426
Rp427
(I3
S'|'
p428
NNNI5
I1
I0
tp429
bS'RADPS'
p430
tp431
Rp432
sS'CUSOA28V'
p433
g2
(g3
(S'S1'
p434
I0
I1
tp435
Rp436
(I3
S'|'
p437
NNNI1
I1
I0
tp438
bg45
tp439
Rp440
sS'OOBTHR34'
p441
g2
(g3
(S'S4'
p442
I0
I1
tp443
Rp444
(I3
S'|'
p445
NNNI4
I1
I0
tp446
bS'DEGF'
p447
tp448
Rp449
sS'AVACMON'
p450
g2
(g3
(S'S4'
p451
I0
I1
tp452
Rp453
(I3
S'|'
p454
NNNI4
I1
I0
tp455
bS'DEGC'
p456
tp457
Rp458
sS'EOECNV2C'
p459
g2
(g3
(S'S1'
p460
I0
I1
tp461
Rp462
(I3
S'|'
p463
NNNI1
I1
I0
tp464
bg45
tp465
Rp466
sS'OOBTHR33'
p467
g2
(g3
(S'S4'
p468
I0
I1
tp469
Rp470
(I3
S'|'
p471
NNNI4
I1
I0
tp472
bS'DEGF'
p473
tp474
Rp475
sS'ES1P5CV'
p476
g2
(g3
(S'S1'
p477
I0
I1
tp478
Rp479
(I3
S'|'
p480
NNNI1
I1
I0
tp481
bg45
tp482
Rp483
sS'EOESAC1C'
p484
g2
(g3
(S'S3'
p485
I0
I1
tp486
Rp487
(I3
S'|'
p488
NNNI3
I1
I0
tp489
bS'AMP'
p490
tp491
Rp492
sS'OOBTHR18'
p493
g2
(g3
(S'S4'
p494
I0
I1
tp495
Rp496
(I3
S'|'
p497
NNNI4
I1
I0
tp498
bS'DEGF'
p499
tp500
Rp501
sS'PFTANKIP'
p502
g2
(g3
(S'S4'
p503
I0
I1
tp504
Rp505
(I3
S'|'
p506
NNNI4
I1
I0
tp507
bS'PSIA'
p508
tp509
Rp510
sS'OOBTHR15'
p511
g2
(g3
(S'S4'
p512
I0
I1
tp513
Rp514
(I3
S'|'
p515
NNNI4
I1
I0
tp516
bS'DEGF'
p517
tp518
Rp519
sS'OOBTHR14'
p520
g2
(g3
(S'S4'
p521
I0
I1
tp522
Rp523
(I3
S'|'
p524
NNNI4
I1
I0
tp525
bS'DEGF'
p526
tp527
Rp528
sS'OOBTHR17'
p529
g2
(g3
(S'S4'
p530
I0
I1
tp531
Rp532
(I3
S'|'
p533
NNNI4
I1
I0
tp534
bS'DEGF'
p535
tp536
Rp537
sS'OOBTHR30'
p538
g2
(g3
(S'S4'
p539
I0
I1
tp540
Rp541
(I3
S'|'
p542
NNNI4
I1
I0
tp543
bS'DEGF'
p544
tp545
Rp546
sS'OOBTHR11'
p547
g2
(g3
(S'S4'
p548
I0
I1
tp549
Rp550
(I3
S'|'
p551
NNNI4
I1
I0
tp552
bS'DEGF'
p553
tp554
Rp555
sS'OOBTHR10'
p556
g2
(g3
(S'S4'
p557
I0
I1
tp558
Rp559
(I3
S'|'
p560
NNNI4
I1
I0
tp561
bS'DEGF'
p562
tp563
Rp564
sS'ECNV2V'
p565
g2
(g3
(S'S1'
p566
I0
I1
tp567
Rp568
(I3
S'|'
p569
NNNI1
I1
I0
tp570
bg45
tp571
Rp572
sS'OOBTHR12'
p573
g2
(g3
(S'S4'
p574
I0
I1
tp575
Rp576
(I3
S'|'
p577
NNNI4
I1
I0
tp578
bS'DEGF'
p579
tp580
Rp581
sS'EOEB3CIC'
p582
g2
(g3
(S'S3'
p583
I0
I1
tp584
Rp585
(I3
S'|'
p586
NNNI3
I1
I0
tp587
bS'AMP'
p588
tp589
Rp590
sS'CUSOBOVN'
p591
g2
(g3
(S'S1'
p592
I0
I1
tp593
Rp594
(I3
S'|'
p595
NNNI1
I1
I0
tp596
bg108
tp597
Rp598
sS'EOEB1CIC'
p599
g2
(g3
(S'S3'
p600
I0
I1
tp601
Rp602
(I3
S'|'
p603
NNNI3
I1
I0
tp604
bS'AMP'
p605
tp606
Rp607
sS'TB3T1'
p608
g2
(g3
(S'S4'
p609
I0
I1
tp610
Rp611
(I3
S'|'
p612
NNNI4
I1
I0
tp613
bS'DEGF'
p614
tp615
Rp616
sS'4HLL1AT'
p617
g2
(g3
(S'S4'
p618
I0
I1
tp619
Rp620
(I3
S'|'
p621
NNNI4
I1
I0
tp622
bS'DEGF'
p623
tp624
Rp625
sS'AOSCPOS3'
p626
g2
(g3
(S'S2'
p627
I0
I1
tp628
Rp629
(I3
S'|'
p630
NNNI2
I1
I0
tp631
bS'KM'
p632
tp633
Rp634
sS'AACCCDRT'
p635
g2
(g3
(S'S4'
p636
I0
I1
tp637
Rp638
(I3
S'|'
p639
NNNI4
I1
I0
tp640
bS'DEGF'
p641
tp642
Rp643
sS'ESAMYI'
p644
g2
(g3
(S'S3'
p645
I0
I1
tp646
Rp647
(I3
S'|'
p648
NNNI3
I1
I0
tp649
bS'AMP'
p650
tp651
Rp652
sS'TMYSADA'
p653
g2
(g3
(S'S4'
p654
I0
I1
tp655
Rp656
(I3
S'|'
p657
NNNI4
I1
I0
tp658
bS'DEGF'
p659
tp660
Rp661
sS'AACH2T'
p662
g2
(g3
(S'S4'
p663
I0
I1
tp664
Rp665
(I3
S'|'
p666
NNNI4
I1
I0
tp667
bS'DEGF'
p668
tp669
Rp670
sS'OHRTHR34'
p671
g2
(g3
(S'S4'
p672
I0
I1
tp673
Rp674
(I3
S'|'
p675
NNNI4
I1
I0
tp676
bS'DEGF'
p677
tp678
Rp679
sS'AFLCA5AI'
p680
g2
(g3
(S'S4'
p681
I0
I1
tp682
Rp683
(I3
S'|'
p684
NNNI4
I1
I0
tp685
bS'MAMP'
p686
tp687
Rp688
sS'3TSMXSPT'
p689
g2
(g3
(S'S4'
p690
I0
I1
tp691
Rp692
(I3
S'|'
p693
NNNI4
I1
I0
tp694
bS'DEGC'
p695
tp696
Rp697
sS'AORESY3'
p698
g2
(g3
(S'S3'
p699
I0
I1
tp700
Rp701
(I3
S'|'
p702
NNNI3
I1
I0
tp703
bS'RAD'
p704
tp705
Rp706
sS'CVEER'
p707
g2
(g3
(S'S1'
p708
I0
I1
tp709
Rp710
(I3
S'|'
p711
NNNI1
I1
I0
tp712
bg45
tp713
Rp714
sS'4RT584T'
p715
g2
(g3
(S'S4'
p716
I0
I1
tp717
Rp718
(I3
S'|'
p719
NNNI4
I1
I0
tp720
bS'DEGF'
p721
tp722
Rp723
sS'OOBTHR13'
p724
g2
(g3
(S'S4'
p725
I0
I1
tp726
Rp727
(I3
S'|'
p728
NNNI4
I1
I0
tp729
bS'DEGF'
p730
tp731
Rp732
sS'2P05VBVL'
p733
g2
(g3
(S'S3'
p734
I0
I1
tp735
Rp736
(I3
S'|'
p737
NNNI3
I1
I0
tp738
bS'VDC'
p739
tp740
Rp741
sS'PLAED3IT'
p742
g2
(g3
(S'S4'
p743
I0
I1
tp744
Rp745
(I3
S'|'
p746
NNNI4
I1
I0
tp747
bS'DEGF'
p748
tp749
Rp750
sS'EORTDMN22D'
p751
g2
(g3
(S'S4'
p752
I0
I1
tp753
Rp754
(I3
S'|'
p755
NNNI4
I1
I0
tp756
bS'DEGF'
p757
tp758
Rp759
sS'4RT592T'
p760
g2
(g3
(S'S4'
p761
I0
I1
tp762
Rp763
(I3
S'|'
p764
NNNI4
I1
I0
tp765
bS'DEGF'
p766
tp767
Rp768
sS'PLAED4AT'
p769
g2
(g3
(S'S4'
p770
I0
I1
tp771
Rp772
(I3
S'|'
p773
NNNI4
I1
I0
tp774
bS'DEGF'
p775
tp776
Rp777
sS'AIRU1BT'
p778
g2
(g3
(S'S4'
p779
I0
I1
tp780
Rp781
(I3
S'|'
p782
NNNI4
I1
I0
tp783
bS'DEGF'
p784
tp785
Rp786
sS'PR2TV01T'
p787
g2
(g3
(S'S4'
p788
I0
I1
tp789
Rp790
(I3
S'|'
p791
NNNI4
I1
I0
tp792
bS'DEGF'
p793
tp794
Rp795
sS'TCM_SSR1'
p796
g2
(g3
(S'S4'
p797
I0
I1
tp798
Rp799
(I3
S'|'
p800
NNNI4
I1
I0
tp801
bS'DEGF'
p802
tp803
Rp804
sS'PFTANK2T'
p805
g2
(g3
(S'S4'
p806
I0
I1
tp807
Rp808
(I3
S'|'
p809
NNNI4
I1
I0
tp810
bS'DEGF'
p811
tp812
Rp813
sS'POLINE04T'
p814
g2
(g3
(S'S4'
p815
I0
I1
tp816
Rp817
(I3
S'|'
p818
NNNI4
I1
I0
tp819
bS'DEGF'
p820
tp821
Rp822
sS'5EPHINT'
p823
g2
(g3
(S'S4'
p824
I0
I1
tp825
Rp826
(I3
S'|'
p827
NNNI4
I1
I0
tp828
bS'DEGC'
p829
tp830
Rp831
sS'4VRMOBV'
p832
g2
(g3
(S'S3'
p833
I0
I1
tp834
Rp835
(I3
S'|'
p836
NNNI3
I1
I0
tp837
bS'VDC'
p838
tp839
Rp840
sS'PLAEV3AT'
p841
g2
(g3
(S'S4'
p842
I0
I1
tp843
Rp844
(I3
S'|'
p845
NNNI4
I1
I0
tp846
bS'DEGF'
p847
tp848
Rp849
sS'AFLCA1AI'
p850
g2
(g3
(S'S4'
p851
I0
I1
tp852
Rp853
(I3
S'|'
p854
NNNI4
I1
I0
tp855
bS'MAMP'
p856
tp857
Rp858
sS'2DCENTRT'
p859
g2
(g3
(S'S4'
p860
I0
I1
tp861
Rp862
(I3
S'|'
p863
NNNI4
I1
I0
tp864
bS'DEGC'
p865
tp866
Rp867
sS'OOBTHR60'
p868
g2
(g3
(S'S4'
p869
I0
I1
tp870
Rp871
(I3
S'|'
p872
NNNI4
I1
I0
tp873
bS'DEGF'
p874
tp875
Rp876
sS'OOBTHR61'
p877
g2
(g3
(S'S4'
p878
I0
I1
tp879
Rp880
(I3
S'|'
p881
NNNI4
I1
I0
tp882
bS'DEGF'
p883
tp884
Rp885
sS'OOBTHR62'
p886
g2
(g3
(S'S4'
p887
I0
I1
tp888
Rp889
(I3
S'|'
p890
NNNI4
I1
I0
tp891
bS'DEGF'
p892
tp893
Rp894
sS'OOBTHR63'
p895
g2
(g3
(S'S4'
p896
I0
I1
tp897
Rp898
(I3
S'|'
p899
NNNI4
I1
I0
tp900
bS'DEGF'
p901
tp902
Rp903
sS'PLINE11T'
p904
g2
(g3
(S'S4'
p905
I0
I1
tp906
Rp907
(I3
S'|'
p908
NNNI4
I1
I0
tp909
bS'DEGF'
p910
tp911
Rp912
sS'EPA15V'
p913
g2
(g3
(S'S1'
p914
I0
I1
tp915
Rp916
(I3
S'|'
p917
NNNI1
I1
I0
tp918
bg45
tp919
Rp920
sS'AOALPANG'
p921
g2
(g3
(S'S3'
p922
I0
I1
tp923
Rp924
(I3
S'|'
p925
NNNI3
I1
I0
tp926
bS'DEG'
p927
tp928
Rp929
sS'TRSPMTPC'
p930
g2
(g3
(S'S4'
p931
I0
I1
tp932
Rp933
(I3
S'|'
p934
NNNI4
I1
I0
tp935
bS'DEGF'
p936
tp937
Rp938
sS'AOSPACS2B'
p939
g2
(g3
(S'S4'
p940
I0
I1
tp941
Rp942
(I3
S'|'
p943
NNNI4
I1
I0
tp944
bS'MAMP'
p945
tp946
Rp947
sS'AODVTIME'
p948
g2
(g3
(S'S3'
p949
I0
I1
tp950
Rp951
(I3
S'|'
p952
NNNI3
I1
I0
tp953
bS'SEC'
p954
tp955
Rp956
sS'AODITHR3'
p957
g2
(g3
(S'S3'
p958
I0
I1
tp959
Rp960
(I3
S'|'
p961
NNNI3
I1
I0
tp962
bS'RAD'
p963
tp964
Rp965
sS'AODITHR2'
p966
g2
(g3
(S'S3'
p967
I0
I1
tp968
Rp969
(I3
S'|'
p970
NNNI3
I1
I0
tp971
bS'RAD'
p972
tp973
Rp974
sS'AODITHR1'
p975
g2
(g3
(S'S3'
p976
I0
I1
tp977
Rp978
(I3
S'|'
p979
NNNI3
I1
I0
tp980
bS'RAD'
p981
tp982
Rp983
sS'PLAED1BT'
p984
g2
(g3
(S'S4'
p985
I0
I1
tp986
Rp987
(I3
S'|'
p988
NNNI4
I1
I0
tp989
bS'DEGF'
p990
tp991
Rp992
sS'TCYLPCM'
p993
g2
(g3
(S'S4'
p994
I0
I1
tp995
Rp996
(I3
S'|'
p997
NNNI4
I1
I0
tp998
bS'DEGF'
p999
tp1000
Rp1001
sS'AFLC12AI'
p1002
g2
(g3
(S'S4'
p1003
I0
I1
tp1004
Rp1005
(I3
S'|'
p1006
NNNI4
I1
I0
tp1007
bS'MAMP'
p1008
tp1009
Rp1010
sS'AOSACMD2'
p1011
g2
(g3
(S'S3'
p1012
I0
I1
tp1013
Rp1014
(I3
S'|'
p1015
NNNI3
I1
I0
tp1016
bS'RAD'
p1017
tp1018
Rp1019
sS'AOADACH1A_PCAD'
p1020
g2
(g3
(S'S3'
p1021
I0
I1
tp1022
Rp1023
(I3
S'|'
p1024
NNNI3
I1
I0
tp1025
bS'DEG'
p1026
tp1027
Rp1028
sS'OOBTHR31'
p1029
g2
(g3
(S'S4'
p1030
I0
I1
tp1031
Rp1032
(I3
S'|'
p1033
NNNI4
I1
I0
tp1034
bS'DEGF'
p1035
tp1036
Rp1037
sS'OHRTHR04'
p1038
g2
(g3
(S'S4'
p1039
I0
I1
tp1040
Rp1041
(I3
S'|'
p1042
NNNI4
I1
I0
tp1043
bS'DEGF'
p1044
tp1045
Rp1046
sS'OOBTHR46'
p1047
g2
(g3
(S'S4'
p1048
I0
I1
tp1049
Rp1050
(I3
S'|'
p1051
NNNI4
I1
I0
tp1052
bS'DEGF'
p1053
tp1054
Rp1055
sS'EPB15V'
p1056
g2
(g3
(S'S1'
p1057
I0
I1
tp1058
Rp1059
(I3
S'|'
p1060
NNNI1
I1
I0
tp1061
bg45
tp1062
Rp1063
sS'2UVLSPXT'
p1064
g2
(g3
(S'S4'
p1065
I0
I1
tp1066
Rp1067
(I3
S'|'
p1068
NNNI4
I1
I0
tp1069
bS'DEGC'
p1070
tp1071
Rp1072
sS'3FARALAT'
p1073
g2
(g3
(S'S4'
p1074
I0
I1
tp1075
Rp1076
(I3
S'|'
p1077
NNNI4
I1
I0
tp1078
bS'DEGC'
p1079
tp1080
Rp1081
sS'4HLL2AT'
p1082
g2
(g3
(S'S4'
p1083
I0
I1
tp1084
Rp1085
(I3
S'|'
p1086
NNNI4
I1
I0
tp1087
bS'DEGF'
p1088
tp1089
Rp1090
sS'TCM_PA2'
p1091
g2
(g3
(S'S4'
p1092
I0
I1
tp1093
Rp1094
(I3
S'|'
p1095
NNNI4
I1
I0
tp1096
bS'DEGF'
p1097
tp1098
Rp1099
sS'OHRTHR58'
p1100
g2
(g3
(S'S4'
p1101
I0
I1
tp1102
Rp1103
(I3
S'|'
p1104
NNNI4
I1
I0
tp1105
bS'DEGF'
p1106
tp1107
Rp1108
sS'3FAPYZAT'
p1109
g2
(g3
(S'S4'
p1110
I0
I1
tp1111
Rp1112
(I3
S'|'
p1113
NNNI4
I1
I0
tp1114
bS'DEGC'
p1115
tp1116
Rp1117
sS'OHRTHR08'
p1118
g2
(g3
(S'S4'
p1119
I0
I1
tp1120
Rp1121
(I3
S'|'
p1122
NNNI4
I1
I0
tp1123
bS'DEGF'
p1124
tp1125
Rp1126
sS'AOSCVEL3'
p1127
g2
(g3
(S'S4'
p1128
I0
I1
tp1129
Rp1130
(I3
S'|'
p1131
NNNI4
I1
I0
tp1132
bS'KMPS'
p1133
tp1134
Rp1135
sS'PLAED3GT'
p1136
g2
(g3
(S'S4'
p1137
I0
I1
tp1138
Rp1139
(I3
S'|'
p1140
NNNI4
I1
I0
tp1141
bS'DEGF'
p1142
tp1143
Rp1144
sS'AORATE1'
p1145
g2
(g3
(S'S5'
p1146
I0
I1
tp1147
Rp1148
(I3
S'|'
p1149
NNNI5
I1
I0
tp1150
bS'RADPS'
p1151
tp1152
Rp1153
sS'AORATE3'
p1154
g2
(g3
(S'S5'
p1155
I0
I1
tp1156
Rp1157
(I3
S'|'
p1158
NNNI5
I1
I0
tp1159
bS'RADPS'
p1160
tp1161
Rp1162
sS'AORATE2'
p1163
g2
(g3
(S'S5'
p1164
I0
I1
tp1165
Rp1166
(I3
S'|'
p1167
NNNI5
I1
I0
tp1168
bS'RADPS'
p1169
tp1170
Rp1171
sS'CRXAV'
p1172
g2
(g3
(S'S1'
p1173
I0
I1
tp1174
Rp1175
(I3
S'|'
p1176
NNNI1
I1
I0
tp1177
bg45
tp1178
Rp1179
sS'EORTDMN12D'
p1180
g2
(g3
(S'S4'
p1181
I0
I1
tp1182
Rp1183
(I3
S'|'
p1184
NNNI4
I1
I0
tp1185
bS'DEGF'
p1186
tp1187
Rp1188
sS'EOECNV3C'
p1189
g2
(g3
(S'S1'
p1190
I0
I1
tp1191
Rp1192
(I3
S'|'
p1193
NNNI1
I1
I0
tp1194
bg45
tp1195
Rp1196
sS'3TTACS2T'
p1197
g2
(g3
(S'S4'
p1198
I0
I1
tp1199
Rp1200
(I3
S'|'
p1201
NNNI4
I1
I0
tp1202
bS'DEGC'
p1203
tp1204
Rp1205
sS'TCM_CTU'
p1206
g2
(g3
(S'S4'
p1207
I0
I1
tp1208
Rp1209
(I3
S'|'
p1210
NNNI4
I1
I0
tp1211
bS'DEGF'
p1212
tp1213
Rp1214
sS'ESAPYI'
p1215
g2
(g3
(S'S3'
p1216
I0
I1
tp1217
Rp1218
(I3
S'|'
p1219
NNNI3
I1
I0
tp1220
bS'AMP'
p1221
tp1222
Rp1223
sS'4HFSPBT'
p1224
g2
(g3
(S'S4'
p1225
I0
I1
tp1226
Rp1227
(I3
S'|'
p1228
NNNI4
I1
I0
tp1229
bS'DEGF'
p1230
tp1231
Rp1232
sS'EEPB5V'
p1233
g2
(g3
(S'S1'
p1234
I0
I1
tp1235
Rp1236
(I3
S'|'
p1237
NNNI1
I1
I0
tp1238
bg45
tp1239
Rp1240
sS'AOSCVEL2'
p1241
g2
(g3
(S'S4'
p1242
I0
I1
tp1243
Rp1244
(I3
S'|'
p1245
NNNI4
I1
I0
tp1246
bS'KMPS'
p1247
tp1248
Rp1249
sS'TSAMYT'
p1250
g2
(g3
(S'S4'
p1251
I0
I1
tp1252
Rp1253
(I3
S'|'
p1254
NNNI4
I1
I0
tp1255
bS'DEGF'
p1256
tp1257
Rp1258
sS'4MP28BV'
p1259
g2
(g3
(S'S3'
p1260
I0
I1
tp1261
Rp1262
(I3
S'|'
p1263
NNNI3
I1
I0
tp1264
bS'VDC'
p1265
tp1266
Rp1267
sS'PFDM101T'
p1268
g2
(g3
(S'S4'
p1269
I0
I1
tp1270
Rp1271
(I3
S'|'
p1272
NNNI4
I1
I0
tp1273
bS'DEGF'
p1274
tp1275
Rp1276
sS'PLAED3DT'
p1277
g2
(g3
(S'S4'
p1278
I0
I1
tp1279
Rp1280
(I3
S'|'
p1281
NNNI4
I1
I0
tp1282
bS'DEGF'
p1283
tp1284
Rp1285
sS'OHRTHR51'
p1286
g2
(g3
(S'S4'
p1287
I0
I1
tp1288
Rp1289
(I3
S'|'
p1290
NNNI4
I1
I0
tp1291
bS'DEGF'
p1292
tp1293
Rp1294
sS'EORTDMN23D'
p1295
g2
(g3
(S'S4'
p1296
I0
I1
tp1297
Rp1298
(I3
S'|'
p1299
NNNI4
I1
I0
tp1300
bS'DEGF'
p1301
tp1302
Rp1303
sS'AWD3CV5V'
p1304
g2
(g3
(S'S1'
p1305
I0
I1
tp1306
Rp1307
(I3
S'|'
p1308
NNNI1
I1
I0
tp1309
bg45
tp1310
Rp1311
sS'PLINE02T'
p1312
g2
(g3
(S'S4'
p1313
I0
I1
tp1314
Rp1315
(I3
S'|'
p1316
NNNI4
I1
I0
tp1317
bS'DEGF'
p1318
tp1319
Rp1320
sS'4RT706T'
p1321
g2
(g3
(S'S4'
p1322
I0
I1
tp1323
Rp1324
(I3
S'|'
p1325
NNNI4
I1
I0
tp1326
bS'DEGF'
p1327
tp1328
Rp1329
sS'TPCM_RW5'
p1330
g2
(g3
(S'S4'
p1331
I0
I1
tp1332
Rp1333
(I3
S'|'
p1334
NNNI4
I1
I0
tp1335
bS'DEGF'
p1336
tp1337
Rp1338
sS'2CEAHVPT'
p1339
g2
(g3
(S'S4'
p1340
I0
I1
tp1341
Rp1342
(I3
S'|'
p1343
NNNI4
I1
I0
tp1344
bS'DEGC'
p1345
tp1346
Rp1347
sS'PLAEV2AT'
p1348
g2
(g3
(S'S4'
p1349
I0
I1
tp1350
Rp1351
(I3
S'|'
p1352
NNNI4
I1
I0
tp1353
bS'DEGF'
p1354
tp1355
Rp1356
sS'EOEB2DIC'
p1357
g2
(g3
(S'S3'
p1358
I0
I1
tp1359
Rp1360
(I3
S'|'
p1361
NNNI3
I1
I0
tp1362
bS'AMP'
p1363
tp1364
Rp1365
sS'AORESZ6_5'
p1366
g2
(g3
(S'S3'
p1367
I0
I1
tp1368
Rp1369
(I3
S'|'
p1370
NNNI3
I1
I0
tp1371
bS'RAD'
p1372
tp1373
Rp1374
sS'AOSUNER1'
p1375
g2
(g3
(S'S3'
p1376
I0
I1
tp1377
Rp1378
(I3
S'|'
p1379
NNNI3
I1
I0
tp1380
bS'RAD'
p1381
tp1382
Rp1383
sS'TRSPRWCM'
p1384
g2
(g3
(S'S4'
p1385
I0
I1
tp1386
Rp1387
(I3
S'|'
p1388
NNNI4
I1
I0
tp1389
bS'DEGF'
p1390
tp1391
Rp1392
sS'AOSUNER3'
p1393
g2
(g3
(S'S3'
p1394
I0
I1
tp1395
Rp1396
(I3
S'|'
p1397
NNNI3
I1
I0
tp1398
bS'RAD'
p1399
tp1400
Rp1401
sS'AOSUNER2'
p1402
g2
(g3
(S'S3'
p1403
I0
I1
tp1404
Rp1405
(I3
S'|'
p1406
NNNI3
I1
I0
tp1407
bS'RAD'
p1408
tp1409
Rp1410
sS'OHRTHR55'
p1411
g2
(g3
(S'S4'
p1412
I0
I1
tp1413
Rp1414
(I3
S'|'
p1415
NNNI4
I1
I0
tp1416
bS'DEGF'
p1417
tp1418
Rp1419
sS'PLAED2DT'
p1420
g2
(g3
(S'S4'
p1421
I0
I1
tp1422
Rp1423
(I3
S'|'
p1424
NNNI4
I1
I0
tp1425
bS'DEGF'
p1426
tp1427
Rp1428
sS'AORESY6_1'
p1429
g2
(g3
(S'S3'
p1430
I0
I1
tp1431
Rp1432
(I3
S'|'
p1433
NNNI3
I1
I0
tp1434
bS'RAD'
p1435
tp1436
Rp1437
sS'TESH2'
p1438
g2
(g3
(S'S4'
p1439
I0
I1
tp1440
Rp1441
(I3
S'|'
p1442
NNNI4
I1
I0
tp1443
bS'DEGF'
p1444
tp1445
Rp1446
sS'PFTANK1T'
p1447
g2
(g3
(S'S4'
p1448
I0
I1
tp1449
Rp1450
(I3
S'|'
p1451
NNNI4
I1
I0
tp1452
bS'DEGF'
p1453
tp1454
Rp1455
sS'1DPAMYT'
p1456
g2
(g3
(S'S4'
p1457
I0
I1
tp1458
Rp1459
(I3
S'|'
p1460
NNNI4
I1
I0
tp1461
bS'DEGC'
p1462
tp1463
Rp1464
sS'1DACTBT'
p1465
g2
(g3
(S'S4'
p1466
I0
I1
tp1467
Rp1468
(I3
S'|'
p1469
NNNI4
I1
I0
tp1470
bS'DEGC'
p1471
tp1472
Rp1473
sS'4RT556T'
p1474
g2
(g3
(S'S4'
p1475
I0
I1
tp1476
Rp1477
(I3
S'|'
p1478
NNNI4
I1
I0
tp1479
bS'DEGF'
p1480
tp1481
Rp1482
sS'AFLCA4BI'
p1483
g2
(g3
(S'S4'
p1484
I0
I1
tp1485
Rp1486
(I3
S'|'
p1487
NNNI4
I1
I0
tp1488
bS'MAMP'
p1489
tp1490
Rp1491
sS'PM4THV1T'
p1492
g2
(g3
(S'S4'
p1493
I0
I1
tp1494
Rp1495
(I3
S'|'
p1496
NNNI4
I1
I0
tp1497
bS'DEGF'
p1498
tp1499
Rp1500
sS'CSITA15V'
p1501
g2
(g3
(S'S1'
p1502
I0
I1
tp1503
Rp1504
(I3
S'|'
p1505
NNNI1
I1
I0
tp1506
bg45
tp1507
Rp1508
sS'AFLC13AI'
p1509
g2
(g3
(S'S4'
p1510
I0
I1
tp1511
Rp1512
(I3
S'|'
p1513
NNNI4
I1
I0
tp1514
bS'MAMP'
p1515
tp1516
Rp1517
sS'AORWBTQ1'
p1518
g2
(g3
(S'S4'
p1519
I0
I1
tp1520
Rp1521
(I3
S'|'
p1522
NNNI4
I1
I0
tp1523
bS'FTLB'
p1524
tp1525
Rp1526
sS'AORWBTQ2'
p1527
g2
(g3
(S'S4'
p1528
I0
I1
tp1529
Rp1530
(I3
S'|'
p1531
NNNI4
I1
I0
tp1532
bS'FTLB'
p1533
tp1534
Rp1535
sS'AORWBTQ3'
p1536
g2
(g3
(S'S4'
p1537
I0
I1
tp1538
Rp1539
(I3
S'|'
p1540
NNNI4
I1
I0
tp1541
bS'FTLB'
p1542
tp1543
Rp1544
sS'AORWBTQ4'
p1545
g2
(g3
(S'S4'
p1546
I0
I1
tp1547
Rp1548
(I3
S'|'
p1549
NNNI4
I1
I0
tp1550
bS'FTLB'
p1551
tp1552
Rp1553
sS'AGWS1V'
p1554
g2
(g3
(S'S1'
p1555
I0
I1
tp1556
Rp1557
(I3
S'|'
p1558
NNNI1
I1
I0
tp1559
bg45
tp1560
Rp1561
sS'AORWBTQ6'
p1562
g2
(g3
(S'S4'
p1563
I0
I1
tp1564
Rp1565
(I3
S'|'
p1566
NNNI4
I1
I0
tp1567
bS'FTLB'
p1568
tp1569
Rp1570
sS'AWD6CV5V'
p1571
g2
(g3
(S'S1'
p1572
I0
I1
tp1573
Rp1574
(I3
S'|'
p1575
NNNI1
I1
I0
tp1576
bg45
tp1577
Rp1578
sS'3FABRCAT'
p1579
g2
(g3
(S'S4'
p1580
I0
I1
tp1581
Rp1582
(I3
S'|'
p1583
NNNI4
I1
I0
tp1584
bS'DEGC'
p1585
tp1586
Rp1587
sS'AWD4CV5V'
p1588
g2
(g3
(S'S1'
p1589
I0
I1
tp1590
Rp1591
(I3
S'|'
p1592
NNNI1
I1
I0
tp1593
bg45
tp1594
Rp1595
sS'4RT576T'
p1596
g2
(g3
(S'S4'
p1597
I0
I1
tp1598
Rp1599
(I3
S'|'
p1600
NNNI4
I1
I0
tp1601
bS'DEGF'
p1602
tp1603
Rp1604
sS'AIRU1G1T'
p1605
g2
(g3
(S'S4'
p1606
I0
I1
tp1607
Rp1608
(I3
S'|'
p1609
NNNI4
I1
I0
tp1610
bS'DEGF'
p1611
tp1612
Rp1613
sS'PR2TV02T'
p1614
g2
(g3
(S'S4'
p1615
I0
I1
tp1616
Rp1617
(I3
S'|'
p1618
NNNI4
I1
I0
tp1619
bS'DEGF'
p1620
tp1621
Rp1622
sS'2P05VAVL'
p1623
g2
(g3
(S'S3'
p1624
I0
I1
tp1625
Rp1626
(I3
S'|'
p1627
NNNI3
I1
I0
tp1628
bS'VDC'
p1629
tp1630
Rp1631
sS'PLAEV4AT'
p1632
g2
(g3
(S'S4'
p1633
I0
I1
tp1634
Rp1635
(I3
S'|'
p1636
NNNI4
I1
I0
tp1637
bS'DEGF'
p1638
tp1639
Rp1640
sS'1VAHCBT'
p1641
g2
(g3
(S'S4'
p1642
I0
I1
tp1643
Rp1644
(I3
S'|'
p1645
NNNI4
I1
I0
tp1646
bS'DEGC'
p1647
tp1648
Rp1649
sS'PM2THV1T'
p1650
g2
(g3
(S'S4'
p1651
I0
I1
tp1652
Rp1653
(I3
S'|'
p1654
NNNI4
I1
I0
tp1655
bS'DEGF'
p1656
tp1657
Rp1658
sS'PLINE09T'
p1659
g2
(g3
(S'S4'
p1660
I0
I1
tp1661
Rp1662
(I3
S'|'
p1663
NNNI4
I1
I0
tp1664
bS'DEGF'
p1665
tp1666
Rp1667
sS'1DPP0AVO'
p1668
g2
(g3
(S'S1'
p1669
I0
I1
tp1670
Rp1671
(I3
S'|'
p1672
NNNI1
I1
I0
tp1673
bg45
tp1674
Rp1675
sS'5EIOT'
p1676
g2
(g3
(S'S4'
p1677
I0
I1
tp1678
Rp1679
(I3
S'|'
p1680
NNNI4
I1
I0
tp1681
bS'DEGC'
p1682
tp1683
Rp1684
sS'CPCB5V'
p1685
g2
(g3
(S'S1'
p1686
I0
I1
tp1687
Rp1688
(I3
S'|'
p1689
NNNI1
I1
I0
tp1690
bg45
tp1691
Rp1692
sS'PLAED1IT'
p1693
g2
(g3
(S'S4'
p1694
I0
I1
tp1695
Rp1696
(I3
S'|'
p1697
NNNI4
I1
I0
tp1698
bS'DEGF'
p1699
tp1700
Rp1701
sS'CPCA5V'
p1702
g2
(g3
(S'S1'
p1703
I0
I1
tp1704
Rp1705
(I3
S'|'
p1706
NNNI1
I1
I0
tp1707
bg45
tp1708
Rp1709
sS'AFLCA2BI'
p1710
g2
(g3
(S'S4'
p1711
I0
I1
tp1712
Rp1713
(I3
S'|'
p1714
NNNI4
I1
I0
tp1715
bS'MAMP'
p1716
tp1717
Rp1718
sS'TEIO'
p1719
g2
(g3
(S'S4'
p1720
I0
I1
tp1721
Rp1722
(I3
S'|'
p1723
NNNI4
I1
I0
tp1724
bS'DEGF'
p1725
tp1726
Rp1727
sS'AORWMC2_1'
p1728
g2
(g3
(S'S7'
p1729
I0
I1
tp1730
Rp1731
(I3
S'|'
p1732
NNNI7
I1
I0
tp1733
bS'FTLBSEC'
p1734
tp1735
Rp1736
sS'ELBV'
p1737
g2
(g3
(S'S1'
p1738
I0
I1
tp1739
Rp1740
(I3
S'|'
p1741
NNNI1
I1
I0
tp1742
bg45
tp1743
Rp1744
sS'AACBPRT'
p1745
g2
(g3
(S'S4'
p1746
I0
I1
tp1747
Rp1748
(I3
S'|'
p1749
NNNI4
I1
I0
tp1750
bS'DEGF'
p1751
tp1752
Rp1753
sS'PLAED1AT'
p1754
g2
(g3
(S'S4'
p1755
I0
I1
tp1756
Rp1757
(I3
S'|'
p1758
NNNI4
I1
I0
tp1759
bS'DEGF'
p1760
tp1761
Rp1762
sS'POM2THV2T'
p1763
g2
(g3
(S'S4'
p1764
I0
I1
tp1765
Rp1766
(I3
S'|'
p1767
NNNI4
I1
I0
tp1768
bS'DEGF'
p1769
tp1770
Rp1771
sS'TPCM_RW4'
p1772
g2
(g3
(S'S4'
p1773
I0
I1
tp1774
Rp1775
(I3
S'|'
p1776
NNNI4
I1
I0
tp1777
bS'DEGF'
p1778
tp1779
Rp1780
sS'4RT580T'
p1781
g2
(g3
(S'S4'
p1782
I0
I1
tp1783
Rp1784
(I3
S'|'
p1785
NNNI4
I1
I0
tp1786
bS'DEGF'
p1787
tp1788
Rp1789
sS'4VRMHBV'
p1790
g2
(g3
(S'S3'
p1791
I0
I1
tp1792
Rp1793
(I3
S'|'
p1794
NNNI3
I1
I0
tp1795
bS'VDC'
p1796
tp1797
Rp1798
sS'PHETANKT'
p1799
g2
(g3
(S'S4'
p1800
I0
I1
tp1801
Rp1802
(I3
S'|'
p1803
NNNI4
I1
I0
tp1804
bS'DEGF'
p1805
tp1806
Rp1807
sS'TAPE1PST'
p1808
g2
(g3
(S'S4'
p1809
I0
I1
tp1810
Rp1811
(I3
S'|'
p1812
NNNI4
I1
I0
tp1813
bS'DEGF'
p1814
tp1815
Rp1816
sS'4RT558T'
p1817
g2
(g3
(S'S4'
p1818
I0
I1
tp1819
Rp1820
(I3
S'|'
p1821
NNNI4
I1
I0
tp1822
bS'DEGF'
p1823
tp1824
Rp1825
sS'POM1THV2T'
p1826
g2
(g3
(S'S4'
p1827
I0
I1
tp1828
Rp1829
(I3
S'|'
p1830
NNNI4
I1
I0
tp1831
bS'DEGF'
p1832
tp1833
Rp1834
sS'AIRU1G1I'
p1835
g2
(g3
(S'S4'
p1836
I0
I1
tp1837
Rp1838
(I3
S'|'
p1839
NNNI4
I1
I0
tp1840
bS'MAMP'
p1841
tp1842
Rp1843
sS'OOBTHR24'
p1844
g2
(g3
(S'S4'
p1845
I0
I1
tp1846
Rp1847
(I3
S'|'
p1848
NNNI4
I1
I0
tp1849
bS'DEGF'
p1850
tp1851
Rp1852
sS'OOBTHR25'
p1853
g2
(g3
(S'S4'
p1854
I0
I1
tp1855
Rp1856
(I3
S'|'
p1857
NNNI4
I1
I0
tp1858
bS'DEGF'
p1859
tp1860
Rp1861
sS'OOBTHR26'
p1862
g2
(g3
(S'S4'
p1863
I0
I1
tp1864
Rp1865
(I3
S'|'
p1866
NNNI4
I1
I0
tp1867
bS'DEGF'
p1868
tp1869
Rp1870
sS'CRXALS'
p1871
g2
(g3
(S'S3'
p1872
I0
I1
tp1873
Rp1874
(I3
S'|'
p1875
NNNI3
I1
I0
tp1876
bS'KHZ'
p1877
tp1878
Rp1879
sS'OOBTHR20'
p1880
g2
(g3
(S'S4'
p1881
I0
I1
tp1882
Rp1883
(I3
S'|'
p1884
NNNI4
I1
I0
tp1885
bS'DEGF'
p1886
tp1887
Rp1888
sS'OOBTHR21'
p1889
g2
(g3
(S'S4'
p1890
I0
I1
tp1891
Rp1892
(I3
S'|'
p1893
NNNI4
I1
I0
tp1894
bS'DEGF'
p1895
tp1896
Rp1897
sS'OOBTHR22'
p1898
g2
(g3
(S'S4'
p1899
I0
I1
tp1900
Rp1901
(I3
S'|'
p1902
NNNI4
I1
I0
tp1903
bS'DEGF'
p1904
tp1905
Rp1906
sS'OOBTHR23'
p1907
g2
(g3
(S'S4'
p1908
I0
I1
tp1909
Rp1910
(I3
S'|'
p1911
NNNI4
I1
I0
tp1912
bS'DEGF'
p1913
tp1914
Rp1915
sS'OHRTHR03'
p1916
g2
(g3
(S'S4'
p1917
I0
I1
tp1918
Rp1919
(I3
S'|'
p1920
NNNI4
I1
I0
tp1921
bS'DEGF'
p1922
tp1923
Rp1924
sS'AVD2CV5V'
p1925
g2
(g3
(S'S1'
p1926
I0
I1
tp1927
Rp1928
(I3
S'|'
p1929
NNNI1
I1
I0
tp1930
bg45
tp1931
Rp1932
sS'OOBTHR28'
p1933
g2
(g3
(S'S4'
p1934
I0
I1
tp1935
Rp1936
(I3
S'|'
p1937
NNNI4
I1
I0
tp1938
bS'DEGF'
p1939
tp1940
Rp1941
sS'OOBTHR29'
p1942
g2
(g3
(S'S4'
p1943
I0
I1
tp1944
Rp1945
(I3
S'|'
p1946
NNNI4
I1
I0
tp1947
bS'DEGF'
p1948
tp1949
Rp1950
sS'TB2T1'
p1951
g2
(g3
(S'S4'
p1952
I0
I1
tp1953
Rp1954
(I3
S'|'
p1955
NNNI4
I1
I0
tp1956
bS'DEGF'
p1957
tp1958
Rp1959
sS'EORTDMN16D'
p1960
g2
(g3
(S'S4'
p1961
I0
I1
tp1962
Rp1963
(I3
S'|'
p1964
NNNI4
I1
I0
tp1965
bS'DEGF'
p1966
tp1967
Rp1968
sS'2FHTRMZT'
p1969
g2
(g3
(S'S4'
p1970
I0
I1
tp1971
Rp1972
(I3
S'|'
p1973
NNNI4
I1
I0
tp1974
bS'DEGC'
p1975
tp1976
Rp1977
sS'AOSAANG1'
p1978
g2
(g3
(S'S3'
p1979
I0
I1
tp1980
Rp1981
(I3
S'|'
p1982
NNNI3
I1
I0
tp1983
bS'RAD'
p1984
tp1985
Rp1986
sS'AOSAANG2'
p1987
g2
(g3
(S'S3'
p1988
I0
I1
tp1989
Rp1990
(I3
S'|'
p1991
NNNI3
I1
I0
tp1992
bS'RAD'
p1993
tp1994
Rp1995
sS'CTSB15V'
p1996
g2
(g3
(S'S1'
p1997
I0
I1
tp1998
Rp1999
(I3
S'|'
p2000
NNNI1
I1
I0
tp2001
bg45
tp2002
Rp2003
sS'TCYLCMM'
p2004
g2
(g3
(S'S4'
p2005
I0
I1
tp2006
Rp2007
(I3
S'|'
p2008
NNNI4
I1
I0
tp2009
bS'DEGF'
p2010
tp2011
Rp2012
sS'AOCSSI2'
p2013
g2
(g3
(S'S4'
p2014
I0
I1
tp2015
Rp2016
(I3
S'|'
p2017
NNNI4
I1
I0
tp2018
bS'MAMP'
p2019
tp2020
Rp2021
sS'4RT561T'
p2022
g2
(g3
(S'S4'
p2023
I0
I1
tp2024
Rp2025
(I3
S'|'
p2026
NNNI4
I1
I0
tp2027
bS'DEGF'
p2028
tp2029
Rp2030
sS'AOSAEST2'
p2031
g2
(g3
(S'S3'
p2032
I0
I1
tp2033
Rp2034
(I3
S'|'
p2035
NNNI3
I1
I0
tp2036
bS'RAD'
p2037
tp2038
Rp2039
sS'OHRTHR57'
p2040
g2
(g3
(S'S4'
p2041
I0
I1
tp2042
Rp2043
(I3
S'|'
p2044
NNNI4
I1
I0
tp2045
bS'DEGF'
p2046
tp2047
Rp2048
sS'AOMANTIM'
p2049
g2
(g3
(S'S3'
p2050
I0
I1
tp2051
Rp2052
(I3
S'|'
p2053
NNNI3
I1
I0
tp2054
bS'SEC'
p2055
tp2056
Rp2057
sS'CTUB5V'
p2058
g2
(g3
(S'S1'
p2059
I0
I1
tp2060
Rp2061
(I3
S'|'
p2062
NNNI1
I1
I0
tp2063
bg45
tp2064
Rp2065
sS'AWD4TQI'
p2066
g2
(g3
(S'S3'
p2067
I0
I1
tp2068
Rp2069
(I3
S'|'
p2070
NNNI3
I1
I0
tp2071
bS'AMP'
p2072
tp2073
Rp2074
sS'4LLL2AT'
p2075
g2
(g3
(S'S4'
p2076
I0
I1
tp2077
Rp2078
(I3
S'|'
p2079
NNNI4
I1
I0
tp2080
bS'DEGF'
p2081
tp2082
Rp2083
sS'AWD5CV5V'
p2084
g2
(g3
(S'S1'
p2085
I0
I1
tp2086
Rp2087
(I3
S'|'
p2088
NNNI1
I1
I0
tp2089
bg45
tp2090
Rp2091
sS'4ALL1BT'
p2092
g2
(g3
(S'S4'
p2093
I0
I1
tp2094
Rp2095
(I3
S'|'
p2096
NNNI4
I1
I0
tp2097
bS'DEGF'
p2098
tp2099
Rp2100
sS'CPCB15V'
p2101
g2
(g3
(S'S1'
p2102
I0
I1
tp2103
Rp2104
(I3
S'|'
p2105
NNNI1
I1
I0
tp2106
bg45
tp2107
Rp2108
sS'4RT711T'
p2109
g2
(g3
(S'S4'
p2110
I0
I1
tp2111
Rp2112
(I3
S'|'
p2113
NNNI4
I1
I0
tp2114
bS'DEGF'
p2115
tp2116
Rp2117
sS'AAOTALT'
p2118
g2
(g3
(S'S4'
p2119
I0
I1
tp2120
Rp2121
(I3
S'|'
p2122
NNNI4
I1
I0
tp2123
bS'DEGF'
p2124
tp2125
Rp2126
sS'AGWS2V'
p2127
g2
(g3
(S'S1'
p2128
I0
I1
tp2129
Rp2130
(I3
S'|'
p2131
NNNI1
I1
I0
tp2132
bg45
tp2133
Rp2134
sS'EORTDMN26D'
p2135
g2
(g3
(S'S4'
p2136
I0
I1
tp2137
Rp2138
(I3
S'|'
p2139
NNNI4
I1
I0
tp2140
bS'DEGF'
p2141
tp2142
Rp2143
sS'EB1V'
p2144
g2
(g3
(S'S1'
p2145
I0
I1
tp2146
Rp2147
(I3
S'|'
p2148
NNNI1
I1
I0
tp2149
bg45
tp2150
Rp2151
sS'AOFFTQ1'
p2152
g2
(g3
(S'S4'
p2153
I0
I1
tp2154
Rp2155
(I3
S'|'
p2156
NNNI4
I1
I0
tp2157
bS'FTLB'
p2158
tp2159
Rp2160
sS'AOFFTQ2'
p2161
g2
(g3
(S'S4'
p2162
I0
I1
tp2163
Rp2164
(I3
S'|'
p2165
NNNI4
I1
I0
tp2166
bS'FTLB'
p2167
tp2168
Rp2169
sS'AOFFTQ3'
p2170
g2
(g3
(S'S4'
p2171
I0
I1
tp2172
Rp2173
(I3
S'|'
p2174
NNNI4
I1
I0
tp2175
bS'FTLB'
p2176
tp2177
Rp2178
sS'OHRTHR05'
p2179
g2
(g3
(S'S4'
p2180
I0
I1
tp2181
Rp2182
(I3
S'|'
p2183
NNNI4
I1
I0
tp2184
bS'DEGF'
p2185
tp2186
Rp2187
sS'PLINE07T'
p2188
g2
(g3
(S'S4'
p2189
I0
I1
tp2190
Rp2191
(I3
S'|'
p2192
NNNI4
I1
I0
tp2193
bS'DEGF'
p2194
tp2195
Rp2196
sS'PLAEV2BT'
p2197
g2
(g3
(S'S4'
p2198
I0
I1
tp2199
Rp2200
(I3
S'|'
p2201
NNNI4
I1
I0
tp2202
bS'DEGF'
p2203
tp2204
Rp2205
sS'AOSCVEL1'
p2206
g2
(g3
(S'S4'
p2207
I0
I1
tp2208
Rp2209
(I3
S'|'
p2210
NNNI4
I1
I0
tp2211
bS'KMPS'
p2212
tp2213
Rp2214
sS'3TSPYFET'
p2215
g2
(g3
(S'S4'
p2216
I0
I1
tp2217
Rp2218
(I3
S'|'
p2219
NNNI4
I1
I0
tp2220
bS'DEGC'
p2221
tp2222
Rp2223
sS'4RT598T'
p2224
g2
(g3
(S'S4'
p2225
I0
I1
tp2226
Rp2227
(I3
S'|'
p2228
NNNI4
I1
I0
tp2229
bS'DEGF'
p2230
tp2231
Rp2232
sS'1DE28AVO'
p2233
g2
(g3
(S'S1'
p2234
I0
I1
tp2235
Rp2236
(I3
S'|'
p2237
NNNI1
I1
I0
tp2238
bg45
tp2239
Rp2240
sS'2N15VBVL'
p2241
g2
(g3
(S'S3'
p2242
I0
I1
tp2243
Rp2244
(I3
S'|'
p2245
NNNI3
I1
I0
tp2246
bS'VDC'
p2247
tp2248
Rp2249
sS'AFLC13BI'
p2250
g2
(g3
(S'S4'
p2251
I0
I1
tp2252
Rp2253
(I3
S'|'
p2254
NNNI4
I1
I0
tp2255
bS'MAMP'
p2256
tp2257
Rp2258
sS'PR4TV02T'
p2259
g2
(g3
(S'S4'
p2260
I0
I1
tp2261
Rp2262
(I3
S'|'
p2263
NNNI4
I1
I0
tp2264
bS'DEGF'
p2265
tp2266
Rp2267
sS'AOGBIAS1'
p2268
g2
(g3
(S'S5'
p2269
I0
I1
tp2270
Rp2271
(I3
S'|'
p2272
NNNI5
I1
I0
tp2273
bS'RADPS'
p2274
tp2275
Rp2276
sS'AOGBIAS2'
p2277
g2
(g3
(S'S5'
p2278
I0
I1
tp2279
Rp2280
(I3
S'|'
p2281
NNNI5
I1
I0
tp2282
bS'RADPS'
p2283
tp2284
Rp2285
sS'AOGBIAS3'
p2286
g2
(g3
(S'S5'
p2287
I0
I1
tp2288
Rp2289
(I3
S'|'
p2290
NNNI5
I1
I0
tp2291
bS'RADPS'
p2292
tp2293
Rp2294
sS'1DEN1AVO'
p2295
g2
(g3
(S'S1'
p2296
I0
I1
tp2297
Rp2298
(I3
S'|'
p2299
NNNI1
I1
I0
tp2300
bg45
tp2301
Rp2302
sS'1DEN0AVO'
p2303
g2
(g3
(S'S1'
p2304
I0
I1
tp2305
Rp2306
(I3
S'|'
p2307
NNNI1
I1
I0
tp2308
bg45
tp2309
Rp2310
sS'1DEP2BVO'
p2311
g2
(g3
(S'S1'
p2312
I0
I1
tp2313
Rp2314
(I3
S'|'
p2315
NNNI1
I1
I0
tp2316
bg45
tp2317
Rp2318
sS'1DPICBCU'
p2319
g2
(g3
(S'S3'
p2320
I0
I1
tp2321
Rp2322
(I3
S'|'
p2323
NNNI3
I1
I0
tp2324
bS'AMP'
p2325
tp2326
Rp2327
sS'1DP28AVO'
p2328
g2
(g3
(S'S1'
p2329
I0
I1
tp2330
Rp2331
(I3
S'|'
p2332
NNNI1
I1
I0
tp2333
bg45
tp2334
Rp2335
sS'2CONDMXT'
p2336
g2
(g3
(S'S4'
p2337
I0
I1
tp2338
Rp2339
(I3
S'|'
p2340
NNNI4
I1
I0
tp2341
bS'DEGC'
p2342
tp2343
Rp2344
sS'4CSDHAV'
p2345
g2
(g3
(S'S3'
p2346
I0
I1
tp2347
Rp2348
(I3
S'|'
p2349
NNNI3
I1
I0
tp2350
bS'VDC'
p2351
tp2352
Rp2353
sS'4RT587T'
p2354
g2
(g3
(S'S4'
p2355
I0
I1
tp2356
Rp2357
(I3
S'|'
p2358
NNNI4
I1
I0
tp2359
bS'DEGF'
p2360
tp2361
Rp2362
sS'AI1AX2Y'
p2363
g2
(g3
(S'S5'
p2364
I0
I1
tp2365
Rp2366
(I3
S'|'
p2367
NNNI5
I1
I0
tp2368
bS'DEGPS'
p2369
tp2370
Rp2371
sS'AI1AX2X'
p2372
g2
(g3
(S'S5'
p2373
I0
I1
tp2374
Rp2375
(I3
S'|'
p2376
NNNI5
I1
I0
tp2377
bS'DEGPS'
p2378
tp2379
Rp2380
sS'TEP_PPAN'
p2381
g2
(g3
(S'S4'
p2382
I0
I1
tp2383
Rp2384
(I3
S'|'
p2385
NNNI4
I1
I0
tp2386
bS'DEGF'
p2387
tp2388
Rp2389
sS'AORWCMD5'
p2390
g2
(g3
(S'S4'
p2391
I0
I1
tp2392
Rp2393
(I3
S'|'
p2394
NNNI4
I1
I0
tp2395
bS'FTLB'
p2396
tp2397
Rp2398
sS'AORWCMD4'
p2399
g2
(g3
(S'S4'
p2400
I0
I1
tp2401
Rp2402
(I3
S'|'
p2403
NNNI4
I1
I0
tp2404
bS'FTLB'
p2405
tp2406
Rp2407
sS'OHRTHR29'
p2408
g2
(g3
(S'S4'
p2409
I0
I1
tp2410
Rp2411
(I3
S'|'
p2412
NNNI4
I1
I0
tp2413
bS'DEGF'
p2414
tp2415
Rp2416
sS'AORWCMD6'
p2417
g2
(g3
(S'S4'
p2418
I0
I1
tp2419
Rp2420
(I3
S'|'
p2421
NNNI4
I1
I0
tp2422
bS'FTLB'
p2423
tp2424
Rp2425
sS'AORWCMD1'
p2426
g2
(g3
(S'S4'
p2427
I0
I1
tp2428
Rp2429
(I3
S'|'
p2430
NNNI4
I1
I0
tp2431
bS'FTLB'
p2432
tp2433
Rp2434
sS'AORWCMD3'
p2435
g2
(g3
(S'S4'
p2436
I0
I1
tp2437
Rp2438
(I3
S'|'
p2439
NNNI4
I1
I0
tp2440
bS'FTLB'
p2441
tp2442
Rp2443
sS'AORWCMD2'
p2444
g2
(g3
(S'S4'
p2445
I0
I1
tp2446
Rp2447
(I3
S'|'
p2448
NNNI4
I1
I0
tp2449
bS'FTLB'
p2450
tp2451
Rp2452
sS'OHRTHR23'
p2453
g2
(g3
(S'S4'
p2454
I0
I1
tp2455
Rp2456
(I3
S'|'
p2457
NNNI4
I1
I0
tp2458
bS'DEGF'
p2459
tp2460
Rp2461
sS'OHRTHR22'
p2462
g2
(g3
(S'S4'
p2463
I0
I1
tp2464
Rp2465
(I3
S'|'
p2466
NNNI4
I1
I0
tp2467
bS'DEGF'
p2468
tp2469
Rp2470
sS'OHRTHR21'
p2471
g2
(g3
(S'S4'
p2472
I0
I1
tp2473
Rp2474
(I3
S'|'
p2475
NNNI4
I1
I0
tp2476
bS'DEGF'
p2477
tp2478
Rp2479
sS'OHRTHR20'
p2480
g2
(g3
(S'S4'
p2481
I0
I1
tp2482
Rp2483
(I3
S'|'
p2484
NNNI4
I1
I0
tp2485
bS'DEGF'
p2486
tp2487
Rp2488
sS'OHRTHR27'
p2489
g2
(g3
(S'S4'
p2490
I0
I1
tp2491
Rp2492
(I3
S'|'
p2493
NNNI4
I1
I0
tp2494
bS'DEGF'
p2495
tp2496
Rp2497
sS'AOCMDAC1'
p2498
g2
(g3
(S'S5'
p2499
I0
I1
tp2500
Rp2501
(I3
S'|'
p2502
NNNI5
I1
I0
tp2503
bS'RADSS'
p2504
tp2505
Rp2506
sS'AOCMDAC2'
p2507
g2
(g3
(S'S5'
p2508
I0
I1
tp2509
Rp2510
(I3
S'|'
p2511
NNNI5
I1
I0
tp2512
bS'RADSS'
p2513
tp2514
Rp2515
sS'AOCMDAC3'
p2516
g2
(g3
(S'S5'
p2517
I0
I1
tp2518
Rp2519
(I3
S'|'
p2520
NNNI5
I1
I0
tp2521
bS'RADSS'
p2522
tp2523
Rp2524
sS'4IN15BV'
p2525
g2
(g3
(S'S3'
p2526
I0
I1
tp2527
Rp2528
(I3
S'|'
p2529
NNNI3
I1
I0
tp2530
bS'VDC'
p2531
tp2532
Rp2533
sS'TCNR_BRM'
p2534
g2
(g3
(S'S4'
p2535
I0
I1
tp2536
Rp2537
(I3
S'|'
p2538
NNNI4
I1
I0
tp2539
bS'DEGF'
p2540
tp2541
Rp2542
sS'TCM_IFU'
p2543
g2
(g3
(S'S4'
p2544
I0
I1
tp2545
Rp2546
(I3
S'|'
p2547
NNNI4
I1
I0
tp2548
bS'DEGF'
p2549
tp2550
Rp2551
sS'TCYLFMZP'
p2552
g2
(g3
(S'S4'
p2553
I0
I1
tp2554
Rp2555
(I3
S'|'
p2556
NNNI4
I1
I0
tp2557
bS'DEGF'
p2558
tp2559
Rp2560
sS'EOEB1VC'
p2561
g2
(g3
(S'S1'
p2562
I0
I1
tp2563
Rp2564
(I3
S'|'
p2565
NNNI1
I1
I0
tp2566
bg45
tp2567
Rp2568
sS'TCYLFMZM'
p2569
g2
(g3
(S'S4'
p2570
I0
I1
tp2571
Rp2572
(I3
S'|'
p2573
NNNI4
I1
I0
tp2574
bS'DEGF'
p2575
tp2576
Rp2577
sS'4RT597T'
p2578
g2
(g3
(S'S4'
p2579
I0
I1
tp2580
Rp2581
(I3
S'|'
p2582
NNNI4
I1
I0
tp2583
bS'DEGF'
p2584
tp2585
Rp2586
sS'TEP_RCTU'
p2587
g2
(g3
(S'S4'
p2588
I0
I1
tp2589
Rp2590
(I3
S'|'
p2591
NNNI4
I1
I0
tp2592
bS'DEGF'
p2593
tp2594
Rp2595
sS'4RT702T'
p2596
g2
(g3
(S'S4'
p2597
I0
I1
tp2598
Rp2599
(I3
S'|'
p2600
NNNI4
I1
I0
tp2601
bS'DEGF'
p2602
tp2603
Rp2604
sS'AOSPBCS1B'
p2605
g2
(g3
(S'S4'
p2606
I0
I1
tp2607
Rp2608
(I3
S'|'
p2609
NNNI4
I1
I0
tp2610
bS'MAMP'
p2611
tp2612
Rp2613
sS'1VAHOAT'
p2614
g2
(g3
(S'S4'
p2615
I0
I1
tp2616
Rp2617
(I3
S'|'
p2618
NNNI4
I1
I0
tp2619
bS'DEGC'
p2620
tp2621
Rp2622
sS'AACH1T'
p2623
g2
(g3
(S'S4'
p2624
I0
I1
tp2625
Rp2626
(I3
S'|'
p2627
NNNI4
I1
I0
tp2628
bS'DEGF'
p2629
tp2630
Rp2631
sS'4PRT2AT'
p2632
g2
(g3
(S'S4'
p2633
I0
I1
tp2634
Rp2635
(I3
S'|'
p2636
NNNI4
I1
I0
tp2637
bS'DEGF'
p2638
tp2639
Rp2640
sS'POLINE07T'
p2641
g2
(g3
(S'S4'
p2642
I0
I1
tp2643
Rp2644
(I3
S'|'
p2645
NNNI4
I1
I0
tp2646
bS'DEGF'
p2647
tp2648
Rp2649
sS'TPC_ESE'
p2650
g2
(g3
(S'S4'
p2651
I0
I1
tp2652
Rp2653
(I3
S'|'
p2654
NNNI4
I1
I0
tp2655
bS'DEGF'
p2656
tp2657
Rp2658
sS'EB3V'
p2659
g2
(g3
(S'S1'
p2660
I0
I1
tp2661
Rp2662
(I3
S'|'
p2663
NNNI1
I1
I0
tp2664
bg45
tp2665
Rp2666
sS'AFLCA9AI'
p2667
g2
(g3
(S'S4'
p2668
I0
I1
tp2669
Rp2670
(I3
S'|'
p2671
NNNI4
I1
I0
tp2672
bS'MAMP'
p2673
tp2674
Rp2675
sS'CTSB5V'
p2676
g2
(g3
(S'S1'
p2677
I0
I1
tp2678
Rp2679
(I3
S'|'
p2680
NNNI1
I1
I0
tp2681
bg45
tp2682
Rp2683
sS'AFLCA1BI'
p2684
g2
(g3
(S'S4'
p2685
I0
I1
tp2686
Rp2687
(I3
S'|'
p2688
NNNI4
I1
I0
tp2689
bS'MAMP'
p2690
tp2691
Rp2692
sS'4VRMHAV'
p2693
g2
(g3
(S'S3'
p2694
I0
I1
tp2695
Rp2696
(I3
S'|'
p2697
NNNI3
I1
I0
tp2698
bS'VDC'
p2699
tp2700
Rp2701
sS'PR4TV01T'
p2702
g2
(g3
(S'S4'
p2703
I0
I1
tp2704
Rp2705
(I3
S'|'
p2706
NNNI4
I1
I0
tp2707
bS'DEGF'
p2708
tp2709
Rp2710
sS'PLINE10T'
p2711
g2
(g3
(S'S4'
p2712
I0
I1
tp2713
Rp2714
(I3
S'|'
p2715
NNNI4
I1
I0
tp2716
bS'DEGF'
p2717
tp2718
Rp2719
sS'TPC_RCTU'
p2720
g2
(g3
(S'S4'
p2721
I0
I1
tp2722
Rp2723
(I3
S'|'
p2724
NNNI4
I1
I0
tp2725
bS'DEGF'
p2726
tp2727
Rp2728
sS'TCM_PA1'
p2729
g2
(g3
(S'S4'
p2730
I0
I1
tp2731
Rp2732
(I3
S'|'
p2733
NNNI4
I1
I0
tp2734
bS'DEGF'
p2735
tp2736
Rp2737
sS'EORTDMN27D'
p2738
g2
(g3
(S'S4'
p2739
I0
I1
tp2740
Rp2741
(I3
S'|'
p2742
NNNI4
I1
I0
tp2743
bS'DEGF'
p2744
tp2745
Rp2746
sS'AOBETANG'
p2747
g2
(g3
(S'S3'
p2748
I0
I1
tp2749
Rp2750
(I3
S'|'
p2751
NNNI3
I1
I0
tp2752
bS'DEG'
p2753
tp2754
Rp2755
sS'PLINE03T'
p2756
g2
(g3
(S'S4'
p2757
I0
I1
tp2758
Rp2759
(I3
S'|'
p2760
NNNI4
I1
I0
tp2761
bS'DEGF'
p2762
tp2763
Rp2764
sS'2FRADPYT'
p2765
g2
(g3
(S'S4'
p2766
I0
I1
tp2767
Rp2768
(I3
S'|'
p2769
NNNI4
I1
I0
tp2770
bS'DEGC'
p2771
tp2772
Rp2773
sS'1DE28BVO'
p2774
g2
(g3
(S'S1'
p2775
I0
I1
tp2776
Rp2777
(I3
S'|'
p2778
NNNI1
I1
I0
tp2779
bg45
tp2780
Rp2781
sS'4CSDHBV'
p2782
g2
(g3
(S'S3'
p2783
I0
I1
tp2784
Rp2785
(I3
S'|'
p2786
NNNI3
I1
I0
tp2787
bS'VDC'
p2788
tp2789
Rp2790
sS'AORWMOM2'
p2791
g2
(g3
(S'S7'
p2792
I0
I1
tp2793
Rp2794
(I3
S'|'
p2795
NNNI7
I1
I0
tp2796
bS'FTLBSEC'
p2797
tp2798
Rp2799
sS'PLAED4FT'
p2800
g2
(g3
(S'S4'
p2801
I0
I1
tp2802
Rp2803
(I3
S'|'
p2804
NNNI4
I1
I0
tp2805
bS'DEGF'
p2806
tp2807
Rp2808
sS'C28VMONA'
p2809
g2
(g3
(S'S1'
p2810
I0
I1
tp2811
Rp2812
(I3
S'|'
p2813
NNNI1
I1
I0
tp2814
bg45
tp2815
Rp2816
sS'4LLL2BT'
p2817
g2
(g3
(S'S4'
p2818
I0
I1
tp2819
Rp2820
(I3
S'|'
p2821
NNNI4
I1
I0
tp2822
bS'DEGF'
p2823
tp2824
Rp2825
sS'1DEP1BVO'
p2826
g2
(g3
(S'S1'
p2827
I0
I1
tp2828
Rp2829
(I3
S'|'
p2830
NNNI1
I1
I0
tp2831
bg45
tp2832
Rp2833
sS'AOSPACS3B'
p2834
g2
(g3
(S'S4'
p2835
I0
I1
tp2836
Rp2837
(I3
S'|'
p2838
NNNI4
I1
I0
tp2839
bS'MAMP'
p2840
tp2841
Rp2842
sS'PLAEV4BT'
p2843
g2
(g3
(S'S4'
p2844
I0
I1
tp2845
Rp2846
(I3
S'|'
p2847
NNNI4
I1
I0
tp2848
bS'DEGF'
p2849
tp2850
Rp2851
sS'ES2P5CV'
p2852
g2
(g3
(S'S1'
p2853
I0
I1
tp2854
Rp2855
(I3
S'|'
p2856
NNNI1
I1
I0
tp2857
bg45
tp2858
Rp2859
sS'AORWPI5B'
p2860
g2
(g3
(S'S4'
p2861
I0
I1
tp2862
Rp2863
(I3
S'|'
p2864
NNNI4
I1
I0
tp2865
bS'MSEC'
p2866
tp2867
Rp2868
sS'4HLL2BT'
p2869
g2
(g3
(S'S4'
p2870
I0
I1
tp2871
Rp2872
(I3
S'|'
p2873
NNNI4
I1
I0
tp2874
bS'DEGF'
p2875
tp2876
Rp2877
sS'TFSPCMM'
p2878
g2
(g3
(S'S4'
p2879
I0
I1
tp2880
Rp2881
(I3
S'|'
p2882
NNNI4
I1
I0
tp2883
bS'DEGF'
p2884
tp2885
Rp2886
sS'EORTDMN19D'
p2887
g2
(g3
(S'S4'
p2888
I0
I1
tp2889
Rp2890
(I3
S'|'
p2891
NNNI4
I1
I0
tp2892
bS'DEGF'
p2893
tp2894
Rp2895
sS'4HFSPAT'
p2896
g2
(g3
(S'S4'
p2897
I0
I1
tp2898
Rp2899
(I3
S'|'
p2900
NNNI4
I1
I0
tp2901
bS'DEGF'
p2902
tp2903
Rp2904
sS'4MP5BV'
p2905
g2
(g3
(S'S3'
p2906
I0
I1
tp2907
Rp2908
(I3
S'|'
p2909
NNNI3
I1
I0
tp2910
bS'VDC'
p2911
tp2912
Rp2913
sS'3TTRALAT'
p2914
g2
(g3
(S'S4'
p2915
I0
I1
tp2916
Rp2917
(I3
S'|'
p2918
NNNI4
I1
I0
tp2919
bS'DEGC'
p2920
tp2921
Rp2922
sS'TFSPCMP'
p2923
g2
(g3
(S'S4'
p2924
I0
I1
tp2925
Rp2926
(I3
S'|'
p2927
NNNI4
I1
I0
tp2928
bS'DEGF'
p2929
tp2930
Rp2931
sS'POM1THV1T'
p2932
g2
(g3
(S'S4'
p2933
I0
I1
tp2934
Rp2935
(I3
S'|'
p2936
NNNI4
I1
I0
tp2937
bS'DEGF'
p2938
tp2939
Rp2940
sS'AOACZAN5'
p2941
g2
(g3
(S'S4'
p2942
I0
I1
tp2943
Rp2944
(I3
S'|'
p2945
NNNI4
I1
I0
tp2946
bS'ASEC'
p2947
tp2948
Rp2949
sS'AOACZAN4'
p2950
g2
(g3
(S'S4'
p2951
I0
I1
tp2952
Rp2953
(I3
S'|'
p2954
NNNI4
I1
I0
tp2955
bS'ASEC'
p2956
tp2957
Rp2958
sS'AOACZAN7'
p2959
g2
(g3
(S'S4'
p2960
I0
I1
tp2961
Rp2962
(I3
S'|'
p2963
NNNI4
I1
I0
tp2964
bS'ASEC'
p2965
tp2966
Rp2967
sS'AOACZAN6'
p2968
g2
(g3
(S'S4'
p2969
I0
I1
tp2970
Rp2971
(I3
S'|'
p2972
NNNI4
I1
I0
tp2973
bS'ASEC'
p2974
tp2975
Rp2976
sS'AOACZAN1'
p2977
g2
(g3
(S'S4'
p2978
I0
I1
tp2979
Rp2980
(I3
S'|'
p2981
NNNI4
I1
I0
tp2982
bS'ASEC'
p2983
tp2984
Rp2985
sS'AOACZAN0'
p2986
g2
(g3
(S'S4'
p2987
I0
I1
tp2988
Rp2989
(I3
S'|'
p2990
NNNI4
I1
I0
tp2991
bS'ASEC'
p2992
tp2993
Rp2994
sS'AOACZAN3'
p2995
g2
(g3
(S'S4'
p2996
I0
I1
tp2997
Rp2998
(I3
S'|'
p2999
NNNI4
I1
I0
tp3000
bS'ASEC'
p3001
tp3002
Rp3003
sS'AOACZAN2'
p3004
g2
(g3
(S'S4'
p3005
I0
I1
tp3006
Rp3007
(I3
S'|'
p3008
NNNI4
I1
I0
tp3009
bS'ASEC'
p3010
tp3011
Rp3012
sS'3TTHRC2T'
p3013
g2
(g3
(S'S4'
p3014
I0
I1
tp3015
Rp3016
(I3
S'|'
p3017
NNNI4
I1
I0
tp3018
bS'DEGC'
p3019
tp3020
Rp3021
sS'EOEBCC'
p3022
g2
(g3
(S'S3'
p3023
I0
I1
tp3024
Rp3025
(I3
S'|'
p3026
NNNI3
I1
I0
tp3027
bS'AMP'
p3028
tp3029
Rp3030
sS'TCYLAFT4'
p3031
g2
(g3
(S'S4'
p3032
I0
I1
tp3033
Rp3034
(I3
S'|'
p3035
NNNI4
I1
I0
tp3036
bS'DEGF'
p3037
tp3038
Rp3039
sS'OOBTHR27'
p3040
g2
(g3
(S'S4'
p3041
I0
I1
tp3042
Rp3043
(I3
S'|'
p3044
NNNI4
I1
I0
tp3045
bS'DEGF'
p3046
tp3047
Rp3048
sS'AOYABR'
p3049
g2
(g3
(S'S3'
p3050
I0
I1
tp3051
Rp3052
(I3
S'|'
p3053
NNNI3
I1
I0
tp3054
bS'RAD'
p3055
tp3056
Rp3057
sS'AOSRERR1'
p3058
g2
(g3
(S'S5'
p3059
I0
I1
tp3060
Rp3061
(I3
S'|'
p3062
NNNI5
I1
I0
tp3063
bS'RADPS'
p3064
tp3065
Rp3066
sS'AOSRERR2'
p3067
g2
(g3
(S'S5'
p3068
I0
I1
tp3069
Rp3070
(I3
S'|'
p3071
NNNI5
I1
I0
tp3072
bS'RADPS'
p3073
tp3074
Rp3075
sS'AOSRERR3'
p3076
g2
(g3
(S'S5'
p3077
I0
I1
tp3078
Rp3079
(I3
S'|'
p3080
NNNI5
I1
I0
tp3081
bS'RADPS'
p3082
tp3083
Rp3084
sS'PLAED2GT'
p3085
g2
(g3
(S'S4'
p3086
I0
I1
tp3087
Rp3088
(I3
S'|'
p3089
NNNI4
I1
I0
tp3090
bS'DEGF'
p3091
tp3092
Rp3093
sS'POLINE16T'
p3094
g2
(g3
(S'S4'
p3095
I0
I1
tp3096
Rp3097
(I3
S'|'
p3098
NNNI4
I1
I0
tp3099
bS'DEGF'
p3100
tp3101
Rp3102
sS'CXO5VOBB'
p3103
g2
(g3
(S'S1'
p3104
I0
I1
tp3105
Rp3106
(I3
S'|'
p3107
NNNI1
I1
I0
tp3108
bg45
tp3109
Rp3110
sS'AOSAEST1'
p3111
g2
(g3
(S'S3'
p3112
I0
I1
tp3113
Rp3114
(I3
S'|'
p3115
NNNI3
I1
I0
tp3116
bS'RAD'
p3117
tp3118
Rp3119
sS'1DAHACU'
p3120
g2
(g3
(S'S3'
p3121
I0
I1
tp3122
Rp3123
(I3
S'|'
p3124
NNNI3
I1
I0
tp3125
bS'AMP'
p3126
tp3127
Rp3128
sS'4RT565T'
p3129
g2
(g3
(S'S4'
p3130
I0
I1
tp3131
Rp3132
(I3
S'|'
p3133
NNNI4
I1
I0
tp3134
bS'DEGF'
p3135
tp3136
Rp3137
sS'AORWINT3'
p3138
g2
(g3
(S'S4'
p3139
I0
I1
tp3140
Rp3141
(I3
S'|'
p3142
NNNI4
I1
I0
tp3143
bS'MSEC'
p3144
tp3145
Rp3146
sS'PM3THV1T'
p3147
g2
(g3
(S'S4'
p3148
I0
I1
tp3149
Rp3150
(I3
S'|'
p3151
NNNI4
I1
I0
tp3152
bS'DEGF'
p3153
tp3154
Rp3155
sS'4LPOSBRO'
p3156
g2
(g3
(S'S3'
p3157
I0
I1
tp3158
Rp3159
(I3
S'|'
p3160
NNNI3
I1
I0
tp3161
bS'DEG'
p3162
tp3163
Rp3164
sS'AOETIMEX'
p3165
g2
(g3
(S'S3'
p3166
I0
I1
tp3167
Rp3168
(I3
S'|'
p3169
NNNI3
I1
I0
tp3170
bS'SEC'
p3171
tp3172
Rp3173
sS'4RT594T'
p3174
g2
(g3
(S'S4'
p3175
I0
I1
tp3176
Rp3177
(I3
S'|'
p3178
NNNI4
I1
I0
tp3179
bS'DEGF'
p3180
tp3181
Rp3182
sS'4RT701T'
p3183
g2
(g3
(S'S4'
p3184
I0
I1
tp3185
Rp3186
(I3
S'|'
p3187
NNNI4
I1
I0
tp3188
bS'DEGF'
p3189
tp3190
Rp3191
sS'1DEN0BVO'
p3192
g2
(g3
(S'S1'
p3193
I0
I1
tp3194
Rp3195
(I3
S'|'
p3196
NNNI1
I1
I0
tp3197
bg45
tp3198
Rp3199
sS'4IP15BV'
p3200
g2
(g3
(S'S3'
p3201
I0
I1
tp3202
Rp3203
(I3
S'|'
p3204
NNNI3
I1
I0
tp3205
bS'VDC'
p3206
tp3207
Rp3208
sS'4ALL2BT'
p3209
g2
(g3
(S'S4'
p3210
I0
I1
tp3211
Rp3212
(I3
S'|'
p3213
NNNI4
I1
I0
tp3214
bS'DEGF'
p3215
tp3216
Rp3217
sS'AORWINT6'
p3218
g2
(g3
(S'S4'
p3219
I0
I1
tp3220
Rp3221
(I3
S'|'
p3222
NNNI4
I1
I0
tp3223
bS'MSEC'
p3224
tp3225
Rp3226
sS'CIUB5V'
p3227
g2
(g3
(S'S1'
p3228
I0
I1
tp3229
Rp3230
(I3
S'|'
p3231
NNNI1
I1
I0
tp3232
bg45
tp3233
Rp3234
sS'OOBTHR19'
p3235
g2
(g3
(S'S4'
p3236
I0
I1
tp3237
Rp3238
(I3
S'|'
p3239
NNNI4
I1
I0
tp3240
bS'DEGF'
p3241
tp3242
Rp3243
sS'CTUA15V'
p3244
g2
(g3
(S'S1'
p3245
I0
I1
tp3246
Rp3247
(I3
S'|'
p3248
NNNI1
I1
I0
tp3249
bg45
tp3250
Rp3251
sS'AOADACH2A_NBG'
p3252
g2
(g3
(S'S3'
p3253
I0
I1
tp3254
Rp3255
(I3
S'|'
p3256
NNNI3
I1
I0
tp3257
bS'DEG'
p3258
tp3259
Rp3260
sS'AFLC10BI'
p3261
g2
(g3
(S'S4'
p3262
I0
I1
tp3263
Rp3264
(I3
S'|'
p3265
NNNI4
I1
I0
tp3266
bS'MAMP'
p3267
tp3268
Rp3269
sS'PLAED2ET'
p3270
g2
(g3
(S'S4'
p3271
I0
I1
tp3272
Rp3273
(I3
S'|'
p3274
NNNI4
I1
I0
tp3275
bS'DEGF'
p3276
tp3277
Rp3278
sS'CSSR1CAV'
p3279
g2
(g3
(S'S1'
p3280
I0
I1
tp3281
Rp3282
(I3
S'|'
p3283
NNNI1
I1
I0
tp3284
bg45
tp3285
Rp3286
sS'AOINTTIM'
p3287
g2
(g3
(S'S3'
p3288
I0
I1
tp3289
Rp3290
(I3
S'|'
p3291
NNNI3
I1
I0
tp3292
bS'SEC'
p3293
tp3294
Rp3295
sS'3TTBRGBT'
p3296
g2
(g3
(S'S4'
p3297
I0
I1
tp3298
Rp3299
(I3
S'|'
p3300
NNNI4
I1
I0
tp3301
bS'DEGC'
p3302
tp3303
Rp3304
sS'AORWINT1'
p3305
g2
(g3
(S'S4'
p3306
I0
I1
tp3307
Rp3308
(I3
S'|'
p3309
NNNI4
I1
I0
tp3310
bS'MSEC'
p3311
tp3312
Rp3313
sS'AORWINT2'
p3314
g2
(g3
(S'S4'
p3315
I0
I1
tp3316
Rp3317
(I3
S'|'
p3318
NNNI4
I1
I0
tp3319
bS'MSEC'
p3320
tp3321
Rp3322
sS'4IP5AV'
p3323
g2
(g3
(S'S3'
p3324
I0
I1
tp3325
Rp3326
(I3
S'|'
p3327
NNNI3
I1
I0
tp3328
bS'VDC'
p3329
tp3330
Rp3331
sS'AORWINT4'
p3332
g2
(g3
(S'S4'
p3333
I0
I1
tp3334
Rp3335
(I3
S'|'
p3336
NNNI4
I1
I0
tp3337
bS'MSEC'
p3338
tp3339
Rp3340
sS'1DACTAT'
p3341
g2
(g3
(S'S3'
p3342
I0
I1
tp3343
Rp3344
(I3
S'|'
p3345
NNNI3
I1
I0
tp3346
bS'DEG'
p3347
tp3348
Rp3349
sS'4RT557T'
p3350
g2
(g3
(S'S4'
p3351
I0
I1
tp3352
Rp3353
(I3
S'|'
p3354
NNNI4
I1
I0
tp3355
bS'DEGF'
p3356
tp3357
Rp3358
sS'AFLCA4AI'
p3359
g2
(g3
(S'S4'
p3360
I0
I1
tp3361
Rp3362
(I3
S'|'
p3363
NNNI4
I1
I0
tp3364
bS'MAMP'
p3365
tp3366
Rp3367
sS'POR1TV01T'
p3368
g2
(g3
(S'S4'
p3369
I0
I1
tp3370
Rp3371
(I3
S'|'
p3372
NNNI4
I1
I0
tp3373
bS'DEGF'
p3374
tp3375
Rp3376
sS'4SP51V'
p3377
g2
(g3
(S'S3'
p3378
I0
I1
tp3379
Rp3380
(I3
S'|'
p3381
NNNI3
I1
I0
tp3382
bS'VDC'
p3383
tp3384
Rp3385
sS'EORTDMN25D'
p3386
g2
(g3
(S'S4'
p3387
I0
I1
tp3388
Rp3389
(I3
S'|'
p3390
NNNI4
I1
I0
tp3391
bS'DEGF'
p3392
tp3393
Rp3394
sS'PLAED2CT'
p3395
g2
(g3
(S'S4'
p3396
I0
I1
tp3397
Rp3398
(I3
S'|'
p3399
NNNI4
I1
I0
tp3400
bS'DEGF'
p3401
tp3402
Rp3403
sS'4RT577T'
p3404
g2
(g3
(S'S4'
p3405
I0
I1
tp3406
Rp3407
(I3
S'|'
p3408
NNNI4
I1
I0
tp3409
bS'DEGF'
p3410
tp3411
Rp3412
sS'4IN15AV'
p3413
g2
(g3
(S'S3'
p3414
I0
I1
tp3415
Rp3416
(I3
S'|'
p3417
NNNI3
I1
I0
tp3418
bS'VDC'
p3419
tp3420
Rp3421
sS'C10VREFA'
p3422
g2
(g3
(S'S3'
p3423
I0
I1
tp3424
Rp3425
(I3
S'|'
p3426
NNNI3
I1
I0
tp3427
bS'VDC'
p3428
tp3429
Rp3430
sS'EOEB2VC'
p3431
g2
(g3
(S'S1'
p3432
I0
I1
tp3433
Rp3434
(I3
S'|'
p3435
NNNI1
I1
I0
tp3436
bg45
tp3437
Rp3438
sS'4PRT3BT'
p3439
g2
(g3
(S'S4'
p3440
I0
I1
tp3441
Rp3442
(I3
S'|'
p3443
NNNI4
I1
I0
tp3444
bS'DEGF'
p3445
tp3446
Rp3447
sS'AWD1CV5V'
p3448
g2
(g3
(S'S1'
p3449
I0
I1
tp3450
Rp3451
(I3
S'|'
p3452
NNNI1
I1
I0
tp3453
bg45
tp3454
Rp3455
sS'PMTANK3T'
p3456
g2
(g3
(S'S4'
p3457
I0
I1
tp3458
Rp3459
(I3
S'|'
p3460
NNNI4
I1
I0
tp3461
bS'DEGF'
p3462
tp3463
Rp3464
sS'AFLCA8BI'
p3465
g2
(g3
(S'S4'
p3466
I0
I1
tp3467
Rp3468
(I3
S'|'
p3469
NNNI4
I1
I0
tp3470
bS'MAMP'
p3471
tp3472
Rp3473
sS'PLAED1DT'
p3474
g2
(g3
(S'S4'
p3475
I0
I1
tp3476
Rp3477
(I3
S'|'
p3478
NNNI4
I1
I0
tp3479
bS'DEGF'
p3480
tp3481
Rp3482
sS'ARWA3BT'
p3483
g2
(g3
(S'S4'
p3484
I0
I1
tp3485
Rp3486
(I3
S'|'
p3487
NNNI4
I1
I0
tp3488
bS'DEGF'
p3489
tp3490
Rp3491
sS'AOACINTT'
p3492
g2
(g3
(S'S4'
p3493
I0
I1
tp3494
Rp3495
(I3
S'|'
p3496
NNNI4
I1
I0
tp3497
bS'MSEC'
p3498
tp3499
Rp3500
sS'POLAEV1AT'
p3501
g2
(g3
(S'S4'
p3502
I0
I1
tp3503
Rp3504
(I3
S'|'
p3505
NNNI4
I1
I0
tp3506
bS'DEGF'
p3507
tp3508
Rp3509
sS'OHRTHR63'
p3510
g2
(g3
(S'S4'
p3511
I0
I1
tp3512
Rp3513
(I3
S'|'
p3514
NNNI4
I1
I0
tp3515
bS'DEGF'
p3516
tp3517
Rp3518
sS'3BTU_BPT'
p3519
g2
(g3
(S'S4'
p3520
I0
I1
tp3521
Rp3522
(I3
S'|'
p3523
NNNI4
I1
I0
tp3524
bS'DEGC'
p3525
tp3526
Rp3527
sS'OHRTHR61'
p3528
g2
(g3
(S'S4'
p3529
I0
I1
tp3530
Rp3531
(I3
S'|'
p3532
NNNI4
I1
I0
tp3533
bS'DEGF'
p3534
tp3535
Rp3536
sS'C10VREFB'
p3537
g2
(g3
(S'S3'
p3538
I0
I1
tp3539
Rp3540
(I3
S'|'
p3541
NNNI3
I1
I0
tp3542
bS'VDC'
p3543
tp3544
Rp3545
sS'AOSYMOM3'
p3546
g2
(g3
(S'S7'
p3547
I0
I1
tp3548
Rp3549
(I3
S'|'
p3550
NNNI7
I1
I0
tp3551
bS'FTLBSEC'
p3552
tp3553
Rp3554
sS'AOSYMOM2'
p3555
g2
(g3
(S'S7'
p3556
I0
I1
tp3557
Rp3558
(I3
S'|'
p3559
NNNI7
I1
I0
tp3560
bS'FTLBSEC'
p3561
tp3562
Rp3563
sS'AOSYMOM1'
p3564
g2
(g3
(S'S7'
p3565
I0
I1
tp3566
Rp3567
(I3
S'|'
p3568
NNNI7
I1
I0
tp3569
bS'FTLBSEC'
p3570
tp3571
Rp3572
sS'EOEBCC_LOW'
p3573
g2
(g3
(S'S3'
p3574
I0
I1
tp3575
Rp3576
(I3
S'|'
p3577
NNNI3
I1
I0
tp3578
bS'AMP'
p3579
tp3580
Rp3581
sS'AFLCA2AI'
p3582
g2
(g3
(S'S4'
p3583
I0
I1
tp3584
Rp3585
(I3
S'|'
p3586
NNNI4
I1
I0
tp3587
bS'MAMP'
p3588
tp3589
Rp3590
sS'1OAHBT'
p3591
g2
(g3
(S'S4'
p3592
I0
I1
tp3593
Rp3594
(I3
S'|'
p3595
NNNI4
I1
I0
tp3596
bS'DEGC'
p3597
tp3598
Rp3599
sS'TCYLAFT1'
p3600
g2
(g3
(S'S4'
p3601
I0
I1
tp3602
Rp3603
(I3
S'|'
p3604
NNNI4
I1
I0
tp3605
bS'DEGF'
p3606
tp3607
Rp3608
sS'1DAHBCU'
p3609
g2
(g3
(S'S3'
p3610
I0
I1
tp3611
Rp3612
(I3
S'|'
p3613
NNNI3
I1
I0
tp3614
bS'AMP'
p3615
tp3616
Rp3617
sS'PLAEV1AT'
p3618
g2
(g3
(S'S4'
p3619
I0
I1
tp3620
Rp3621
(I3
S'|'
p3622
NNNI4
I1
I0
tp3623
bS'DEGF'
p3624
tp3625
Rp3626
sS'PMFP01T'
p3627
g2
(g3
(S'S4'
p3628
I0
I1
tp3629
Rp3630
(I3
S'|'
p3631
NNNI4
I1
I0
tp3632
bS'DEGF'
p3633
tp3634
Rp3635
sS'AFLCA5BI'
p3636
g2
(g3
(S'S4'
p3637
I0
I1
tp3638
Rp3639
(I3
S'|'
p3640
NNNI4
I1
I0
tp3641
bS'MAMP'
p3642
tp3643
Rp3644
sS'ECNV3V'
p3645
g2
(g3
(S'S1'
p3646
I0
I1
tp3647
Rp3648
(I3
S'|'
p3649
NNNI1
I1
I0
tp3650
bg45
tp3651
Rp3652
sS'PLINE15T'
p3653
g2
(g3
(S'S4'
p3654
I0
I1
tp3655
Rp3656
(I3
S'|'
p3657
NNNI4
I1
I0
tp3658
bS'DEGF'
p3659
tp3660
Rp3661
sS'4RT583T'
p3662
g2
(g3
(S'S4'
p3663
I0
I1
tp3664
Rp3665
(I3
S'|'
p3666
NNNI4
I1
I0
tp3667
bS'DEGF'
p3668
tp3669
Rp3670
sS'AIOAP5CV'
p3671
g2
(g3
(S'S1'
p3672
I0
I1
tp3673
Rp3674
(I3
S'|'
p3675
NNNI1
I1
I0
tp3676
bg45
tp3677
Rp3678
sS'TFSPRWC'
p3679
g2
(g3
(S'S4'
p3680
I0
I1
tp3681
Rp3682
(I3
S'|'
p3683
NNNI4
I1
I0
tp3684
bS'DEGF'
p3685
tp3686
Rp3687
sS'4RT593T'
p3688
g2
(g3
(S'S4'
p3689
I0
I1
tp3690
Rp3691
(I3
S'|'
p3692
NNNI4
I1
I0
tp3693
bS'DEGF'
p3694
tp3695
Rp3696
sS'TATECDRT'
p3697
g2
(g3
(S'S4'
p3698
I0
I1
tp3699
Rp3700
(I3
S'|'
p3701
NNNI4
I1
I0
tp3702
bS'DEGF'
p3703
tp3704
Rp3705
sS'4RT559T'
p3706
g2
(g3
(S'S4'
p3707
I0
I1
tp3708
Rp3709
(I3
S'|'
p3710
NNNI4
I1
I0
tp3711
bS'DEGF'
p3712
tp3713
Rp3714
sS'TSCTSF1'
p3715
g2
(g3
(S'S4'
p3716
I0
I1
tp3717
Rp3718
(I3
S'|'
p3719
NNNI4
I1
I0
tp3720
bS'DEGF'
p3721
tp3722
Rp3723
sS'TSCTSF2'
p3724
g2
(g3
(S'S4'
p3725
I0
I1
tp3726
Rp3727
(I3
S'|'
p3728
NNNI4
I1
I0
tp3729
bS'DEGF'
p3730
tp3731
Rp3732
sS'TSCTSF3'
p3733
g2
(g3
(S'S4'
p3734
I0
I1
tp3735
Rp3736
(I3
S'|'
p3737
NNNI4
I1
I0
tp3738
bS'DEGF'
p3739
tp3740
Rp3741
sS'TSCTSF4'
p3742
g2
(g3
(S'S4'
p3743
I0
I1
tp3744
Rp3745
(I3
S'|'
p3746
NNNI4
I1
I0
tp3747
bS'DEGF'
p3748
tp3749
Rp3750
sS'TSCTSF5'
p3751
g2
(g3
(S'S4'
p3752
I0
I1
tp3753
Rp3754
(I3
S'|'
p3755
NNNI4
I1
I0
tp3756
bS'DEGF'
p3757
tp3758
Rp3759
sS'4PRT5BT'
p3760
g2
(g3
(S'S4'
p3761
I0
I1
tp3762
Rp3763
(I3
S'|'
p3764
NNNI4
I1
I0
tp3765
bS'DEGF'
p3766
tp3767
Rp3768
sS'AFLCA6BI'
p3769
g2
(g3
(S'S4'
p3770
I0
I1
tp3771
Rp3772
(I3
S'|'
p3773
NNNI4
I1
I0
tp3774
bS'MAMP'
p3775
tp3776
Rp3777
sS'TCM_RFAS'
p3778
g2
(g3
(S'S4'
p3779
I0
I1
tp3780
Rp3781
(I3
S'|'
p3782
NNNI4
I1
I0
tp3783
bS'DEGF'
p3784
tp3785
Rp3786
sS'PLAED4ET'
p3787
g2
(g3
(S'S4'
p3788
I0
I1
tp3789
Rp3790
(I3
S'|'
p3791
NNNI4
I1
I0
tp3792
bS'DEGF'
p3793
tp3794
Rp3795
sS'PLINE14T'
p3796
g2
(g3
(S'S4'
p3797
I0
I1
tp3798
Rp3799
(I3
S'|'
p3800
NNNI4
I1
I0
tp3801
bS'DEGF'
p3802
tp3803
Rp3804
sS'TESH1'
p3805
g2
(g3
(S'S4'
p3806
I0
I1
tp3807
Rp3808
(I3
S'|'
p3809
NNNI4
I1
I0
tp3810
bS'DEGF'
p3811
tp3812
Rp3813
sS'1DEICACU'
p3814
g2
(g3
(S'S3'
p3815
I0
I1
tp3816
Rp3817
(I3
S'|'
p3818
NNNI3
I1
I0
tp3819
bS'AMP'
p3820
tp3821
Rp3822
sS'CXPNBIT'
p3823
g2
(g3
(S'S4'
p3824
I0
I1
tp3825
Rp3826
(I3
S'|'
p3827
NNNI4
I1
I0
tp3828
bS'DEGF'
p3829
tp3830
Rp3831
sS'1MAHCAT'
p3832
g2
(g3
(S'S4'
p3833
I0
I1
tp3834
Rp3835
(I3
S'|'
p3836
NNNI4
I1
I0
tp3837
bS'DEGC'
p3838
tp3839
Rp3840
sS'PR3TV02T'
p3841
g2
(g3
(S'S4'
p3842
I0
I1
tp3843
Rp3844
(I3
S'|'
p3845
NNNI4
I1
I0
tp3846
bS'DEGF'
p3847
tp3848
Rp3849
sS'3TSPZSPT'
p3850
g2
(g3
(S'S4'
p3851
I0
I1
tp3852
Rp3853
(I3
S'|'
p3854
NNNI4
I1
I0
tp3855
bS'DEGC'
p3856
tp3857
Rp3858
sS'1DEP3BVO'
p3859
g2
(g3
(S'S1'
p3860
I0
I1
tp3861
Rp3862
(I3
S'|'
p3863
NNNI1
I1
I0
tp3864
bg45
tp3865
Rp3866
sS'AOAVGDTQ'
p3867
g2
(g3
(S'S4'
p3868
I0
I1
tp3869
Rp3870
(I3
S'|'
p3871
NNNI4
I1
I0
tp3872
bS'FTLB'
p3873
tp3874
Rp3875
sS'CXO5VOBA'
p3876
g2
(g3
(S'S1'
p3877
I0
I1
tp3878
Rp3879
(I3
S'|'
p3880
NNNI1
I1
I0
tp3881
bg45
tp3882
Rp3883
sS'EORTDMN17D'
p3884
g2
(g3
(S'S4'
p3885
I0
I1
tp3886
Rp3887
(I3
S'|'
p3888
NNNI4
I1
I0
tp3889
bS'DEGF'
p3890
tp3891
Rp3892
sS'PLAED4BT'
p3893
g2
(g3
(S'S4'
p3894
I0
I1
tp3895
Rp3896
(I3
S'|'
p3897
NNNI4
I1
I0
tp3898
bS'DEGF'
p3899
tp3900
Rp3901
sS'ADE1P5CV'
p3902
g2
(g3
(S'S1'
p3903
I0
I1
tp3904
Rp3905
(I3
S'|'
p3906
NNNI1
I1
I0
tp3907
bg45
tp3908
Rp3909
sS'TFSPPCU'
p3910
g2
(g3
(S'S4'
p3911
I0
I1
tp3912
Rp3913
(I3
S'|'
p3914
NNNI4
I1
I0
tp3915
bS'DEGF'
p3916
tp3917
Rp3918
sS'4RT560T'
p3919
g2
(g3
(S'S4'
p3920
I0
I1
tp3921
Rp3922
(I3
S'|'
p3923
NNNI4
I1
I0
tp3924
bS'DEGF'
p3925
tp3926
Rp3927
sS'AORESZ7'
p3928
g2
(g3
(S'S3'
p3929
I0
I1
tp3930
Rp3931
(I3
S'|'
p3932
NNNI3
I1
I0
tp3933
bS'RAD'
p3934
tp3935
Rp3936
sS'POLINE03T'
p3937
g2
(g3
(S'S4'
p3938
I0
I1
tp3939
Rp3940
(I3
S'|'
p3941
NNNI4
I1
I0
tp3942
bS'DEGF'
p3943
tp3944
Rp3945
sS'POLAEV1BT'
p3946
g2
(g3
(S'S4'
p3947
I0
I1
tp3948
Rp3949
(I3
S'|'
p3950
NNNI4
I1
I0
tp3951
bS'DEGF'
p3952
tp3953
Rp3954
sS'AFLCA7AI'
p3955
g2
(g3
(S'S4'
p3956
I0
I1
tp3957
Rp3958
(I3
S'|'
p3959
NNNI4
I1
I0
tp3960
bS'MAMP'
p3961
tp3962
Rp3963
sS'EB2DI'
p3964
g2
(g3
(S'S3'
p3965
I0
I1
tp3966
Rp3967
(I3
S'|'
p3968
NNNI3
I1
I0
tp3969
bS'AMP'
p3970
tp3971
Rp3972
sS'TFSSBKT2'
p3973
g2
(g3
(S'S4'
p3974
I0
I1
tp3975
Rp3976
(I3
S'|'
p3977
NNNI4
I1
I0
tp3978
bS'DEGF'
p3979
tp3980
Rp3981
sS'TRSPRWBB'
p3982
g2
(g3
(S'S4'
p3983
I0
I1
tp3984
Rp3985
(I3
S'|'
p3986
NNNI4
I1
I0
tp3987
bS'DEGF'
p3988
tp3989
Rp3990
sS'TRSPRWBC'
p3991
g2
(g3
(S'S4'
p3992
I0
I1
tp3993
Rp3994
(I3
S'|'
p3995
NNNI4
I1
I0
tp3996
bS'DEGF'
p3997
tp3998
Rp3999
sS'AORWPI1B'
p4000
g2
(g3
(S'S4'
p4001
I0
I1
tp4002
Rp4003
(I3
S'|'
p4004
NNNI4
I1
I0
tp4005
bS'MSEC'
p4006
tp4007
Rp4008
sS'EB1DI'
p4009
g2
(g3
(S'S3'
p4010
I0
I1
tp4011
Rp4012
(I3
S'|'
p4013
NNNI3
I1
I0
tp4014
bS'AMP'
p4015
tp4016
Rp4017
sS'PLAED3FT'
p4018
g2
(g3
(S'S4'
p4019
I0
I1
tp4020
Rp4021
(I3
S'|'
p4022
NNNI4
I1
I0
tp4023
bS'DEGF'
p4024
tp4025
Rp4026
sS'AFLCA3AI'
p4027
g2
(g3
(S'S4'
p4028
I0
I1
tp4029
Rp4030
(I3
S'|'
p4031
NNNI4
I1
I0
tp4032
bS'MAMP'
p4033
tp4034
Rp4035
sS'AFSSPC1V'
p4036
g2
(g3
(S'S1'
p4037
I0
I1
tp4038
Rp4039
(I3
S'|'
p4040
NNNI1
I1
I0
tp4041
bg45
tp4042
Rp4043
sS'TSCIUSF2'
p4044
g2
(g3
(S'S4'
p4045
I0
I1
tp4046
Rp4047
(I3
S'|'
p4048
NNNI4
I1
I0
tp4049
bS'DEGF'
p4050
tp4051
Rp4052
sS'TSCIUSF5'
p4053
g2
(g3
(S'S4'
p4054
I0
I1
tp4055
Rp4056
(I3
S'|'
p4057
NNNI4
I1
I0
tp4058
bS'DEGF'
p4059
tp4060
Rp4061
sS'AVD1CV5V'
p4062
g2
(g3
(S'S1'
p4063
I0
I1
tp4064
Rp4065
(I3
S'|'
p4066
NNNI1
I1
I0
tp4067
bg45
tp4068
Rp4069
sS'TSCIUSF8'
p4070
g2
(g3
(S'S4'
p4071
I0
I1
tp4072
Rp4073
(I3
S'|'
p4074
NNNI4
I1
I0
tp4075
bS'DEGF'
p4076
tp4077
Rp4078
sS'1HOPRAPR'
p4079
g2
(g3
(S'S4'
p4080
I0
I1
tp4081
Rp4082
(I3
S'|'
p4083
NNNI4
I1
I0
tp4084
bS'TORR'
p4085
tp4086
Rp4087
sS'ADE2P5CV'
p4088
g2
(g3
(S'S1'
p4089
I0
I1
tp4090
Rp4091
(I3
S'|'
p4092
NNNI1
I1
I0
tp4093
bg45
tp4094
Rp4095
sS'TASPPCP'
p4096
g2
(g3
(S'S4'
p4097
I0
I1
tp4098
Rp4099
(I3
S'|'
p4100
NNNI4
I1
I0
tp4101
bS'DEGF'
p4102
tp4103
Rp4104
sS'3TTACS3T'
p4105
g2
(g3
(S'S4'
p4106
I0
I1
tp4107
Rp4108
(I3
S'|'
p4109
NNNI4
I1
I0
tp4110
bS'DEGC'
p4111
tp4112
Rp4113
sS'CTSA15V'
p4114
g2
(g3
(S'S1'
p4115
I0
I1
tp4116
Rp4117
(I3
S'|'
p4118
NNNI1
I1
I0
tp4119
bg45
tp4120
Rp4121
sS'PFDM102T'
p4122
g2
(g3
(S'S4'
p4123
I0
I1
tp4124
Rp4125
(I3
S'|'
p4126
NNNI4
I1
I0
tp4127
bS'DEGF'
p4128
tp4129
Rp4130
sS'PFDM202T'
p4131
g2
(g3
(S'S4'
p4132
I0
I1
tp4133
Rp4134
(I3
S'|'
p4135
NNNI4
I1
I0
tp4136
bS'DEGF'
p4137
tp4138
Rp4139
sS'4MP28AV'
p4140
g2
(g3
(S'S3'
p4141
I0
I1
tp4142
Rp4143
(I3
S'|'
p4144
NNNI3
I1
I0
tp4145
bS'VDC'
p4146
tp4147
Rp4148
sS'4RT586T'
p4149
g2
(g3
(S'S4'
p4150
I0
I1
tp4151
Rp4152
(I3
S'|'
p4153
NNNI4
I1
I0
tp4154
bS'DEGF'
p4155
tp4156
Rp4157
sS'TEP_PSU1'
p4158
g2
(g3
(S'S4'
p4159
I0
I1
tp4160
Rp4161
(I3
S'|'
p4162
NNNI4
I1
I0
tp4163
bS'DEGF'
p4164
tp4165
Rp4166
sS'CPA2V'
p4167
g2
(g3
(S'S1'
p4168
I0
I1
tp4169
Rp4170
(I3
S'|'
p4171
NNNI1
I1
I0
tp4172
bg45
tp4173
Rp4174
sS'OOBTHR37'
p4175
g2
(g3
(S'S4'
p4176
I0
I1
tp4177
Rp4178
(I3
S'|'
p4179
NNNI4
I1
I0
tp4180
bS'DEGF'
p4181
tp4182
Rp4183
sS'OOBTHR36'
p4184
g2
(g3
(S'S4'
p4185
I0
I1
tp4186
Rp4187
(I3
S'|'
p4188
NNNI4
I1
I0
tp4189
bS'DEGF'
p4190
tp4191
Rp4192
sS'OOBTHR35'
p4193
g2
(g3
(S'S4'
p4194
I0
I1
tp4195
Rp4196
(I3
S'|'
p4197
NNNI4
I1
I0
tp4198
bS'DEGF'
p4199
tp4200
Rp4201
sS'4RT705T'
p4202
g2
(g3
(S'S4'
p4203
I0
I1
tp4204
Rp4205
(I3
S'|'
p4206
NNNI4
I1
I0
tp4207
bS'DEGF'
p4208
tp4209
Rp4210
sS'CUSOBIT'
p4211
g2
(g3
(S'S4'
p4212
I0
I1
tp4213
Rp4214
(I3
S'|'
p4215
NNNI4
I1
I0
tp4216
bS'DEGF'
p4217
tp4218
Rp4219
sS'TAPEA1T'
p4220
g2
(g3
(S'S4'
p4221
I0
I1
tp4222
Rp4223
(I3
S'|'
p4224
NNNI4
I1
I0
tp4225
bS'DEGF'
p4226
tp4227
Rp4228
sS'AOSPBCS3B'
p4229
g2
(g3
(S'S4'
p4230
I0
I1
tp4231
Rp4232
(I3
S'|'
p4233
NNNI4
I1
I0
tp4234
bS'MAMP'
p4235
tp4236
Rp4237
sS'EOESAC2C'
p4238
g2
(g3
(S'S3'
p4239
I0
I1
tp4240
Rp4241
(I3
S'|'
p4242
NNNI3
I1
I0
tp4243
bS'AMP'
p4244
tp4245
Rp4246
sS'OOBTHR39'
p4247
g2
(g3
(S'S4'
p4248
I0
I1
tp4249
Rp4250
(I3
S'|'
p4251
NNNI4
I1
I0
tp4252
bS'DEGF'
p4253
tp4254
Rp4255
sS'OOBTHR38'
p4256
g2
(g3
(S'S4'
p4257
I0
I1
tp4258
Rp4259
(I3
S'|'
p4260
NNNI4
I1
I0
tp4261
bS'DEGF'
p4262
tp4263
Rp4264
sS'2P24VBVL'
p4265
g2
(g3
(S'S3'
p4266
I0
I1
tp4267
Rp4268
(I3
S'|'
p4269
NNNI3
I1
I0
tp4270
bS'VDC'
p4271
tp4272
Rp4273
sS'AIRU2G2T'
p4274
g2
(g3
(S'S4'
p4275
I0
I1
tp4276
Rp4277
(I3
S'|'
p4278
NNNI4
I1
I0
tp4279
bS'DEGF'
p4280
tp4281
Rp4282
sS'AWD3TQI'
p4283
g2
(g3
(S'S3'
p4284
I0
I1
tp4285
Rp4286
(I3
S'|'
p4287
NNNI3
I1
I0
tp4288
bS'AMP'
p4289
tp4290
Rp4291
sS'1DEP3AVO'
p4292
g2
(g3
(S'S1'
p4293
I0
I1
tp4294
Rp4295
(I3
S'|'
p4296
NNNI1
I1
I0
tp4297
bg45
tp4298
Rp4299
sS'AIRU1G2T'
p4300
g2
(g3
(S'S4'
p4301
I0
I1
tp4302
Rp4303
(I3
S'|'
p4304
NNNI4
I1
I0
tp4305
bS'DEGF'
p4306
tp4307
Rp4308
sS'TPC_CEA'
p4309
g2
(g3
(S'S4'
p4310
I0
I1
tp4311
Rp4312
(I3
S'|'
p4313
NNNI4
I1
I0
tp4314
bS'DEGF'
p4315
tp4316
Rp4317
sS'AIRU1G2I'
p4318
g2
(g3
(S'S4'
p4319
I0
I1
tp4320
Rp4321
(I3
S'|'
p4322
NNNI4
I1
I0
tp4323
bS'MAMP'
p4324
tp4325
Rp4326
sS'PM2THV2T'
p4327
g2
(g3
(S'S4'
p4328
I0
I1
tp4329
Rp4330
(I3
S'|'
p4331
NNNI4
I1
I0
tp4332
bS'DEGF'
p4333
tp4334
Rp4335
sS'OOBTHR08'
p4336
g2
(g3
(S'S4'
p4337
I0
I1
tp4338
Rp4339
(I3
S'|'
p4340
NNNI4
I1
I0
tp4341
bS'DEGF'
p4342
tp4343
Rp4344
sS'AVACMONV'
p4345
g2
(g3
(S'S1'
p4346
I0
I1
tp4347
Rp4348
(I3
S'|'
p4349
NNNI1
I1
I0
tp4350
bg45
tp4351
Rp4352
sS'4RT590T'
p4353
g2
(g3
(S'S4'
p4354
I0
I1
tp4355
Rp4356
(I3
S'|'
p4357
NNNI4
I1
I0
tp4358
bS'DEGF'
p4359
tp4360
Rp4361
sS'TEP_PSU2'
p4362
g2
(g3
(S'S4'
p4363
I0
I1
tp4364
Rp4365
(I3
S'|'
p4366
NNNI4
I1
I0
tp4367
bS'DEGF'
p4368
tp4369
Rp4370
sS'TPZLGABM'
p4371
g2
(g3
(S'S4'
p4372
I0
I1
tp4373
Rp4374
(I3
S'|'
p4375
NNNI4
I1
I0
tp4376
bS'DEGF'
p4377
tp4378
Rp4379
sS'1OAHAT'
p4380
g2
(g3
(S'S4'
p4381
I0
I1
tp4382
Rp4383
(I3
S'|'
p4384
NNNI4
I1
I0
tp4385
bS'DEGC'
p4386
tp4387
Rp4388
sS'AHKNATPR'
p4389
g2
(g3
(S'S1'
p4390
I0
I1
tp4391
Rp4392
(I3
S'|'
p4393
NNNI1
I1
I0
tp4394
bg45
tp4395
Rp4396
sS'ASPEFSW4B'
p4397
g2
(g3
(S'S3'
p4398
I0
I1
tp4399
Rp4400
(I3
S'|'
p4401
NNNI3
I1
I0
tp4402
bS'DEG'
p4403
tp4404
Rp4405
sS'ARWA4BT'
p4406
g2
(g3
(S'S4'
p4407
I0
I1
tp4408
Rp4409
(I3
S'|'
p4410
NNNI4
I1
I0
tp4411
bS'DEGF'
p4412
tp4413
Rp4414
sS'PLAED4IT'
p4415
g2
(g3
(S'S4'
p4416
I0
I1
tp4417
Rp4418
(I3
S'|'
p4419
NNNI4
I1
I0
tp4420
bS'DEGF'
p4421
tp4422
Rp4423
sS'AOMANRT'
p4424
g2
(g3
(S'S5'
p4425
I0
I1
tp4426
Rp4427
(I3
S'|'
p4428
NNNI5
I1
I0
tp4429
bS'RADPS'
p4430
tp4431
Rp4432
sS'AOCSSI1'
p4433
g2
(g3
(S'S4'
p4434
I0
I1
tp4435
Rp4436
(I3
S'|'
p4437
NNNI4
I1
I0
tp4438
bS'MAMP'
p4439
tp4440
Rp4441
sS'AOCSSI3'
p4442
g2
(g3
(S'S4'
p4443
I0
I1
tp4444
Rp4445
(I3
S'|'
p4446
NNNI4
I1
I0
tp4447
bS'MAMP'
p4448
tp4449
Rp4450
sS'AIRU2G1T'
p4451
g2
(g3
(S'S4'
p4452
I0
I1
tp4453
Rp4454
(I3
S'|'
p4455
NNNI4
I1
I0
tp4456
bS'DEGF'
p4457
tp4458
Rp4459
sS'AOCSSI4'
p4460
g2
(g3
(S'S4'
p4461
I0
I1
tp4462
Rp4463
(I3
S'|'
p4464
NNNI4
I1
I0
tp4465
bS'MAMP'
p4466
tp4467
Rp4468
sS'AIRU2G1I'
p4469
g2
(g3
(S'S4'
p4470
I0
I1
tp4471
Rp4472
(I3
S'|'
p4473
NNNI4
I1
I0
tp4474
bS'MAMP'
p4475
tp4476
Rp4477
sS'CTUB15V'
p4478
g2
(g3
(S'S1'
p4479
I0
I1
tp4480
Rp4481
(I3
S'|'
p4482
NNNI1
I1
I0
tp4483
bg45
tp4484
Rp4485
sS'1VAHCAT'
p4486
g2
(g3
(S'S4'
p4487
I0
I1
tp4488
Rp4489
(I3
S'|'
p4490
NNNI4
I1
I0
tp4491
bS'DEGC'
p4492
tp4493
Rp4494
sS'TB3T2'
p4495
g2
(g3
(S'S4'
p4496
I0
I1
tp4497
Rp4498
(I3
S'|'
p4499
NNNI4
I1
I0
tp4500
bS'DEGF'
p4501
tp4502
Rp4503
sS'TB3T3'
p4504
g2
(g3
(S'S4'
p4505
I0
I1
tp4506
Rp4507
(I3
S'|'
p4508
NNNI4
I1
I0
tp4509
bS'DEGF'
p4510
tp4511
Rp4512
sS'PLAED3CT'
p4513
g2
(g3
(S'S4'
p4514
I0
I1
tp4515
Rp4516
(I3
S'|'
p4517
NNNI4
I1
I0
tp4518
bS'DEGF'
p4519
tp4520
Rp4521
sS'1PIN1AT'
p4522
g2
(g3
(S'S4'
p4523
I0
I1
tp4524
Rp4525
(I3
S'|'
p4526
NNNI4
I1
I0
tp4527
bS'DEGC'
p4528
tp4529
Rp4530
sS'1DP28BVO'
p4531
g2
(g3
(S'S1'
p4532
I0
I1
tp4533
Rp4534
(I3
S'|'
p4535
NNNI1
I1
I0
tp4536
bg45
tp4537
Rp4538
sS'AOIRERL1'
p4539
g2
(g3
(S'S3'
p4540
I0
I1
tp4541
Rp4542
(I3
S'|'
p4543
NNNI3
I1
I0
tp4544
bS'RAD'
p4545
tp4546
Rp4547
sS'PLAEV1BT'
p4548
g2
(g3
(S'S4'
p4549
I0
I1
tp4550
Rp4551
(I3
S'|'
p4552
NNNI4
I1
I0
tp4553
bS'DEGF'
p4554
tp4555
Rp4556
sS'AOIRERL2'
p4557
g2
(g3
(S'S3'
p4558
I0
I1
tp4559
Rp4560
(I3
S'|'
p4561
NNNI3
I1
I0
tp4562
bS'RAD'
p4563
tp4564
Rp4565
sS'PFDM201T'
p4566
g2
(g3
(S'S4'
p4567
I0
I1
tp4568
Rp4569
(I3
S'|'
p4570
NNNI4
I1
I0
tp4571
bS'DEGF'
p4572
tp4573
Rp4574
sS'TPCP_RW3'
p4575
g2
(g3
(S'S4'
p4576
I0
I1
tp4577
Rp4578
(I3
S'|'
p4579
NNNI4
I1
I0
tp4580
bS'DEGF'
p4581
tp4582
Rp4583
sS'AOIRERL3'
p4584
g2
(g3
(S'S3'
p4585
I0
I1
tp4586
Rp4587
(I3
S'|'
p4588
NNNI3
I1
I0
tp4589
bS'RAD'
p4590
tp4591
Rp4592
sS'1PDEABT'
p4593
g2
(g3
(S'S4'
p4594
I0
I1
tp4595
Rp4596
(I3
S'|'
p4597
NNNI4
I1
I0
tp4598
bS'DEGC'
p4599
tp4600
Rp4601
sS'TPCP_RW2'
p4602
g2
(g3
(S'S4'
p4603
I0
I1
tp4604
Rp4605
(I3
S'|'
p4606
NNNI4
I1
I0
tp4607
bS'DEGF'
p4608
tp4609
Rp4610
sS'PLAED2HT'
p4611
g2
(g3
(S'S4'
p4612
I0
I1
tp4613
Rp4614
(I3
S'|'
p4615
NNNI4
I1
I0
tp4616
bS'DEGF'
p4617
tp4618
Rp4619
sS'AOADBCH2A_PCAD'
p4620
g2
(g3
(S'S3'
p4621
I0
I1
tp4622
Rp4623
(I3
S'|'
p4624
NNNI3
I1
I0
tp4625
bS'DEG'
p4626
tp4627
Rp4628
sS'TRSPOTEP'
p4629
g2
(g3
(S'S4'
p4630
I0
I1
tp4631
Rp4632
(I3
S'|'
p4633
NNNI4
I1
I0
tp4634
bS'DEGF'
p4635
tp4636
Rp4637
sS'AORWPI6B'
p4638
g2
(g3
(S'S4'
p4639
I0
I1
tp4640
Rp4641
(I3
S'|'
p4642
NNNI4
I1
I0
tp4643
bS'MSEC'
p4644
tp4645
Rp4646
sS'TCM_PAN'
p4647
g2
(g3
(S'S4'
p4648
I0
I1
tp4649
Rp4650
(I3
S'|'
p4651
NNNI4
I1
I0
tp4652
bS'DEGF'
p4653
tp4654
Rp4655
sS'TCM_SSR2'
p4656
g2
(g3
(S'S4'
p4657
I0
I1
tp4658
Rp4659
(I3
S'|'
p4660
NNNI4
I1
I0
tp4661
bS'DEGF'
p4662
tp4663
Rp4664
sS'PMTANKP'
p4665
g2
(g3
(S'S4'
p4666
I0
I1
tp4667
Rp4668
(I3
S'|'
p4669
NNNI4
I1
I0
tp4670
bS'PSIA'
p4671
tp4672
Rp4673
sS'EOECNV1C'
p4674
g2
(g3
(S'S1'
p4675
I0
I1
tp4676
Rp4677
(I3
S'|'
p4678
NNNI1
I1
I0
tp4679
bg45
tp4680
Rp4681
sS'AFLCABH'
p4682
g2
(g3
(S'S1'
p4683
I0
I1
tp4684
Rp4685
(I3
S'|'
p4686
NNNI1
I1
I0
tp4687
bg45
tp4688
Rp4689
sS'3FLCABPT'
p4690
g2
(g3
(S'S4'
p4691
I0
I1
tp4692
Rp4693
(I3
S'|'
p4694
NNNI4
I1
I0
tp4695
bS'DEGC'
p4696
tp4697
Rp4698
sS'OHRTHR18'
p4699
g2
(g3
(S'S4'
p4700
I0
I1
tp4701
Rp4702
(I3
S'|'
p4703
NNNI4
I1
I0
tp4704
bS'DEGF'
p4705
tp4706
Rp4707
sS'OHRTHR19'
p4708
g2
(g3
(S'S4'
p4709
I0
I1
tp4710
Rp4711
(I3
S'|'
p4712
NNNI4
I1
I0
tp4713
bS'DEGF'
p4714
tp4715
Rp4716
sS'AFLCA3BI'
p4717
g2
(g3
(S'S4'
p4718
I0
I1
tp4719
Rp4720
(I3
S'|'
p4721
NNNI4
I1
I0
tp4722
bS'MAMP'
p4723
tp4724
Rp4725
sS'OHRTHR14'
p4726
g2
(g3
(S'S4'
p4727
I0
I1
tp4728
Rp4729
(I3
S'|'
p4730
NNNI4
I1
I0
tp4731
bS'DEGF'
p4732
tp4733
Rp4734
sS'OHRTHR15'
p4735
g2
(g3
(S'S4'
p4736
I0
I1
tp4737
Rp4738
(I3
S'|'
p4739
NNNI4
I1
I0
tp4740
bS'DEGF'
p4741
tp4742
Rp4743
sS'OHRTHR12'
p4744
g2
(g3
(S'S4'
p4745
I0
I1
tp4746
Rp4747
(I3
S'|'
p4748
NNNI4
I1
I0
tp4749
bS'DEGF'
p4750
tp4751
Rp4752
sS'OHRTHR13'
p4753
g2
(g3
(S'S4'
p4754
I0
I1
tp4755
Rp4756
(I3
S'|'
p4757
NNNI4
I1
I0
tp4758
bS'DEGF'
p4759
tp4760
Rp4761
sS'OHRTHR10'
p4762
g2
(g3
(S'S4'
p4763
I0
I1
tp4764
Rp4765
(I3
S'|'
p4766
NNNI4
I1
I0
tp4767
bS'DEGF'
p4768
tp4769
Rp4770
sS'OHRTHR11'
p4771
g2
(g3
(S'S4'
p4772
I0
I1
tp4773
Rp4774
(I3
S'|'
p4775
NNNI4
I1
I0
tp4776
bS'DEGF'
p4777
tp4778
Rp4779
sS'CIUB15V'
p4780
g2
(g3
(S'S1'
p4781
I0
I1
tp4782
Rp4783
(I3
S'|'
p4784
NNNI1
I1
I0
tp4785
bg45
tp4786
Rp4787
sS'3TTHRC3T'
p4788
g2
(g3
(S'S4'
p4789
I0
I1
tp4790
Rp4791
(I3
S'|'
p4792
NNNI4
I1
I0
tp4793
bS'DEGC'
p4794
tp4795
Rp4796
sS'PLAED3HT'
p4797
g2
(g3
(S'S4'
p4798
I0
I1
tp4799
Rp4800
(I3
S'|'
p4801
NNNI4
I1
I0
tp4802
bS'DEGF'
p4803
tp4804
Rp4805
sS'AIRU2BT'
p4806
g2
(g3
(S'S4'
p4807
I0
I1
tp4808
Rp4809
(I3
S'|'
p4810
NNNI4
I1
I0
tp4811
bS'DEGF'
p4812
tp4813
Rp4814
sS'AORWSPD1'
p4815
g2
(g3
(S'S5'
p4816
I0
I1
tp4817
Rp4818
(I3
S'|'
p4819
NNNI5
I1
I0
tp4820
bS'RADPS'
p4821
tp4822
Rp4823
sS'AORWSPD2'
p4824
g2
(g3
(S'S5'
p4825
I0
I1
tp4826
Rp4827
(I3
S'|'
p4828
NNNI5
I1
I0
tp4829
bS'RADPS'
p4830
tp4831
Rp4832
sS'AORWSPD3'
p4833
g2
(g3
(S'S5'
p4834
I0
I1
tp4835
Rp4836
(I3
S'|'
p4837
NNNI5
I1
I0
tp4838
bS'RADPS'
p4839
tp4840
Rp4841
sS'AORWSPD4'
p4842
g2
(g3
(S'S5'
p4843
I0
I1
tp4844
Rp4845
(I3
S'|'
p4846
NNNI5
I1
I0
tp4847
bS'RADPS'
p4848
tp4849
Rp4850
sS'AORWSPD5'
p4851
g2
(g3
(S'S5'
p4852
I0
I1
tp4853
Rp4854
(I3
S'|'
p4855
NNNI5
I1
I0
tp4856
bS'RADPS'
p4857
tp4858
Rp4859
sS'AORWSPD6'
p4860
g2
(g3
(S'S5'
p4861
I0
I1
tp4862
Rp4863
(I3
S'|'
p4864
NNNI5
I1
I0
tp4865
bS'RADPS'
p4866
tp4867
Rp4868
sS'PM1THV1T'
p4869
g2
(g3
(S'S4'
p4870
I0
I1
tp4871
Rp4872
(I3
S'|'
p4873
NNNI4
I1
I0
tp4874
bS'DEGF'
p4875
tp4876
Rp4877
sS'AOCMDRT2'
p4878
g2
(g3
(S'S5'
p4879
I0
I1
tp4880
Rp4881
(I3
S'|'
p4882
NNNI5
I1
I0
tp4883
bS'RADPS'
p4884
tp4885
Rp4886
sS'AOCMDRT3'
p4887
g2
(g3
(S'S5'
p4888
I0
I1
tp4889
Rp4890
(I3
S'|'
p4891
NNNI5
I1
I0
tp4892
bS'RADPS'
p4893
tp4894
Rp4895
sS'AI2AX2X'
p4896
g2
(g3
(S'S5'
p4897
I0
I1
tp4898
Rp4899
(I3
S'|'
p4900
NNNI5
I1
I0
tp4901
bS'DEGPS'
p4902
tp4903
Rp4904
sS'AI2AX2Y'
p4905
g2
(g3
(S'S5'
p4906
I0
I1
tp4907
Rp4908
(I3
S'|'
p4909
NNNI5
I1
I0
tp4910
bS'DEGPS'
p4911
tp4912
Rp4913
sS'4RT564T'
p4914
g2
(g3
(S'S4'
p4915
I0
I1
tp4916
Rp4917
(I3
S'|'
p4918
NNNI4
I1
I0
tp4919
bS'DEGF'
p4920
tp4921
Rp4922
sS'EORTDMN21D'
p4923
g2
(g3
(S'S4'
p4924
I0
I1
tp4925
Rp4926
(I3
S'|'
p4927
NNNI4
I1
I0
tp4928
bS'DEGF'
p4929
tp4930
Rp4931
sS'4RT704T'
p4932
g2
(g3
(S'S4'
p4933
I0
I1
tp4934
Rp4935
(I3
S'|'
p4936
NNNI4
I1
I0
tp4937
bS'DEGF'
p4938
tp4939
Rp4940
sS'PM3THV2T'
p4941
g2
(g3
(S'S4'
p4942
I0
I1
tp4943
Rp4944
(I3
S'|'
p4945
NNNI4
I1
I0
tp4946
bS'DEGF'
p4947
tp4948
Rp4949
sS'1DEN1BVO'
p4950
g2
(g3
(S'S1'
p4951
I0
I1
tp4952
Rp4953
(I3
S'|'
p4954
NNNI1
I1
I0
tp4955
bg45
tp4956
Rp4957
sS'4SP52V'
p4958
g2
(g3
(S'S3'
p4959
I0
I1
tp4960
Rp4961
(I3
S'|'
p4962
NNNI3
I1
I0
tp4963
bS'VDC'
p4964
tp4965
Rp4966
sS'EORTDMN29D'
p4967
g2
(g3
(S'S4'
p4968
I0
I1
tp4969
Rp4970
(I3
S'|'
p4971
NNNI4
I1
I0
tp4972
bS'DEGF'
p4973
tp4974
Rp4975
sS'PLINE04T'
p4976
g2
(g3
(S'S4'
p4977
I0
I1
tp4978
Rp4979
(I3
S'|'
p4980
NNNI4
I1
I0
tp4981
bS'DEGF'
p4982
tp4983
Rp4984
sS'PLAED3BT'
p4985
g2
(g3
(S'S4'
p4986
I0
I1
tp4987
Rp4988
(I3
S'|'
p4989
NNNI4
I1
I0
tp4990
bS'DEGF'
p4991
tp4992
Rp4993
sS'AIOBP5CV'
p4994
g2
(g3
(S'S1'
p4995
I0
I1
tp4996
Rp4997
(I3
S'|'
p4998
NNNI1
I1
I0
tp4999
bg45
tp5000
Rp5001
sS'PXTANKOP'
p5002
g2
(g3
(S'S4'
p5003
I0
I1
tp5004
Rp5005
(I3
S'|'
p5006
NNNI4
I1
I0
tp5007
bS'PSIA'
p5008
tp5009
Rp5010
sS'4OAVHRMT'
p5011
g2
(g3
(S'S4'
p5012
I0
I1
tp5013
Rp5014
(I3
S'|'
p5015
NNNI4
I1
I0
tp5016
bS'DEGF'
p5017
tp5018
Rp5019
sS'EORTDMN28D'
p5020
g2
(g3
(S'S4'
p5021
I0
I1
tp5022
Rp5023
(I3
S'|'
p5024
NNNI4
I1
I0
tp5025
bS'DEGF'
p5026
tp5027
Rp5028
sS'PFFP01T'
p5029
g2
(g3
(S'S4'
p5030
I0
I1
tp5031
Rp5032
(I3
S'|'
p5033
NNNI4
I1
I0
tp5034
bS'DEGF'
p5035
tp5036
Rp5037
sS'2N15VAVL'
p5038
g2
(g3
(S'S3'
p5039
I0
I1
tp5040
Rp5041
(I3
S'|'
p5042
NNNI3
I1
I0
tp5043
bS'VDC'
p5044
tp5045
Rp5046
sS'4RT578T'
p5047
g2
(g3
(S'S4'
p5048
I0
I1
tp5049
Rp5050
(I3
S'|'
p5051
NNNI4
I1
I0
tp5052
bS'DEGF'
p5053
tp5054
Rp5055
sS'4LFSPBT'
p5056
g2
(g3
(S'S4'
p5057
I0
I1
tp5058
Rp5059
(I3
S'|'
p5060
NNNI4
I1
I0
tp5061
bS'DEGF'
p5062
tp5063
Rp5064
sS'AOSPBCS2B'
p5065
g2
(g3
(S'S4'
p5066
I0
I1
tp5067
Rp5068
(I3
S'|'
p5069
NNNI4
I1
I0
tp5070
bS'MAMP'
p5071
tp5072
Rp5073
sS'1DEP0AVO'
p5074
g2
(g3
(S'S1'
p5075
I0
I1
tp5076
Rp5077
(I3
S'|'
p5078
NNNI1
I1
I0
tp5079
bg45
tp5080
Rp5081
sS'4CSDOAV'
p5082
g2
(g3
(S'S3'
p5083
I0
I1
tp5084
Rp5085
(I3
S'|'
p5086
NNNI3
I1
I0
tp5087
bS'VDC'
p5088
tp5089
Rp5090
sS'TEP_BPAN'
p5091
g2
(g3
(S'S4'
p5092
I0
I1
tp5093
Rp5094
(I3
S'|'
p5095
NNNI4
I1
I0
tp5096
bS'DEGF'
p5097
tp5098
Rp5099
sS'1WRAT'
p5100
g2
(g3
(S'S4'
p5101
I0
I1
tp5102
Rp5103
(I3
S'|'
p5104
NNNI4
I1
I0
tp5105
bS'DEGC'
p5106
tp5107
Rp5108
sS'PLAED1GT'
p5109
g2
(g3
(S'S4'
p5110
I0
I1
tp5111
Rp5112
(I3
S'|'
p5113
NNNI4
I1
I0
tp5114
bS'DEGF'
p5115
tp5116
Rp5117
sS'TASPRWC'
p5118
g2
(g3
(S'S4'
p5119
I0
I1
tp5120
Rp5121
(I3
S'|'
p5122
NNNI4
I1
I0
tp5123
bS'DEGF'
p5124
tp5125
Rp5126
sS'4PRT3AT'
p5127
g2
(g3
(S'S4'
p5128
I0
I1
tp5129
Rp5130
(I3
S'|'
p5131
NNNI4
I1
I0
tp5132
bS'DEGF'
p5133
tp5134
Rp5135
sS'PLINE01T'
p5136
g2
(g3
(S'S4'
p5137
I0
I1
tp5138
Rp5139
(I3
S'|'
p5140
NNNI4
I1
I0
tp5141
bS'DEGF'
p5142
tp5143
Rp5144
sS'AFLCA8AI'
p5145
g2
(g3
(S'S4'
p5146
I0
I1
tp5147
Rp5148
(I3
S'|'
p5149
NNNI4
I1
I0
tp5150
bS'MAMP'
p5151
tp5152
Rp5153
sS'AACBPPT'
p5154
g2
(g3
(S'S4'
p5155
I0
I1
tp5156
Rp5157
(I3
S'|'
p5158
NNNI4
I1
I0
tp5159
bS'DEGF'
p5160
tp5161
Rp5162
sS'4HPOSBRO'
p5163
g2
(g3
(S'S3'
p5164
I0
I1
tp5165
Rp5166
(I3
S'|'
p5167
NNNI3
I1
I0
tp5168
bS'DEG'
p5169
tp5170
Rp5171
sS'AORTERR3'
p5172
g2
(g3
(S'S5'
p5173
I0
I1
tp5174
Rp5175
(I3
S'|'
p5176
NNNI5
I1
I0
tp5177
bS'RADPS'
p5178
tp5179
Rp5180
sS'1PDEAAT'
p5181
g2
(g3
(S'S4'
p5182
I0
I1
tp5183
Rp5184
(I3
S'|'
p5185
NNNI4
I1
I0
tp5186
bS'DEGC'
p5187
tp5188
Rp5189
sS'PCM02T'
p5190
g2
(g3
(S'S4'
p5191
I0
I1
tp5192
Rp5193
(I3
S'|'
p5194
NNNI4
I1
I0
tp5195
bS'DEGF'
p5196
tp5197
Rp5198
sS'TCYLPCP'
p5199
g2
(g3
(S'S4'
p5200
I0
I1
tp5201
Rp5202
(I3
S'|'
p5203
NNNI4
I1
I0
tp5204
bS'DEGF'
p5205
tp5206
Rp5207
sS'3FAMYZAT'
p5208
g2
(g3
(S'S4'
p5209
I0
I1
tp5210
Rp5211
(I3
S'|'
p5212
NNNI4
I1
I0
tp5213
bS'DEGC'
p5214
tp5215
Rp5216
sS'AACCCDPT'
p5217
g2
(g3
(S'S4'
p5218
I0
I1
tp5219
Rp5220
(I3
S'|'
p5221
NNNI4
I1
I0
tp5222
bS'DEGF'
p5223
tp5224
Rp5225
sS'OHRTHR17'
p5226
g2
(g3
(S'S4'
p5227
I0
I1
tp5228
Rp5229
(I3
S'|'
p5230
NNNI4
I1
I0
tp5231
bS'DEGF'
p5232
tp5233
Rp5234
sS'OOBTHR41'
p5235
g2
(g3
(S'S4'
p5236
I0
I1
tp5237
Rp5238
(I3
S'|'
p5239
NNNI4
I1
I0
tp5240
bS'DEGF'
p5241
tp5242
Rp5243
sS'4OAVOBAT'
p5244
g2
(g3
(S'S4'
p5245
I0
I1
tp5246
Rp5247
(I3
S'|'
p5248
NNNI4
I1
I0
tp5249
bS'DEGF'
p5250
tp5251
Rp5252
sS'OOBTHR51'
p5253
g2
(g3
(S'S4'
p5254
I0
I1
tp5255
Rp5256
(I3
S'|'
p5257
NNNI4
I1
I0
tp5258
bS'DEGF'
p5259
tp5260
Rp5261
sS'TPC_WDA'
p5262
g2
(g3
(S'S4'
p5263
I0
I1
tp5264
Rp5265
(I3
S'|'
p5266
NNNI4
I1
I0
tp5267
bS'DEGF'
p5268
tp5269
Rp5270
sS'TSCTSF6'
p5271
g2
(g3
(S'S4'
p5272
I0
I1
tp5273
Rp5274
(I3
S'|'
p5275
NNNI4
I1
I0
tp5276
bS'DEGF'
p5277
tp5278
Rp5279
sS'4RT709T'
p5280
g2
(g3
(S'S4'
p5281
I0
I1
tp5282
Rp5283
(I3
S'|'
p5284
NNNI4
I1
I0
tp5285
bS'DEGF'
p5286
tp5287
Rp5288
sS'AWD1TQI'
p5289
g2
(g3
(S'S3'
p5290
I0
I1
tp5291
Rp5292
(I3
S'|'
p5293
NNNI3
I1
I0
tp5294
bS'AMP'
p5295
tp5296
Rp5297
sS'TCM_TX2'
p5298
g2
(g3
(S'S4'
p5299
I0
I1
tp5300
Rp5301
(I3
S'|'
p5302
NNNI4
I1
I0
tp5303
bS'DEGF'
p5304
tp5305
Rp5306
sS'TCM_TX1'
p5307
g2
(g3
(S'S4'
p5308
I0
I1
tp5309
Rp5310
(I3
S'|'
p5311
NNNI4
I1
I0
tp5312
bS'DEGF'
p5313
tp5314
Rp5315
sS'CTUA5V'
p5316
g2
(g3
(S'S1'
p5317
I0
I1
tp5318
Rp5319
(I3
S'|'
p5320
NNNI1
I1
I0
tp5321
bg45
tp5322
Rp5323
sS'4LLL1BT'
p5324
g2
(g3
(S'S4'
p5325
I0
I1
tp5326
Rp5327
(I3
S'|'
p5328
NNNI4
I1
I0
tp5329
bS'DEGF'
p5330
tp5331
Rp5332
sS'TMZP_CNT'
p5333
g2
(g3
(S'S4'
p5334
I0
I1
tp5335
Rp5336
(I3
S'|'
p5337
NNNI4
I1
I0
tp5338
bS'DEGF'
p5339
tp5340
Rp5341
sS'4RT582T'
p5342
g2
(g3
(S'S4'
p5343
I0
I1
tp5344
Rp5345
(I3
S'|'
p5346
NNNI4
I1
I0
tp5347
bS'DEGF'
p5348
tp5349
Rp5350
sS'AHKNATRD'
p5351
g2
(g3
(S'S1'
p5352
I0
I1
tp5353
Rp5354
(I3
S'|'
p5355
NNNI1
I1
I0
tp5356
bg45
tp5357
Rp5358
sS'EOEB3VC'
p5359
g2
(g3
(S'S1'
p5360
I0
I1
tp5361
Rp5362
(I3
S'|'
p5363
NNNI1
I1
I0
tp5364
bg45
tp5365
Rp5366
sS'OOBTHR50'
p5367
g2
(g3
(S'S4'
p5368
I0
I1
tp5369
Rp5370
(I3
S'|'
p5371
NNNI4
I1
I0
tp5372
bS'DEGF'
p5373
tp5374
Rp5375
sS'AFLCA6AI'
p5376
g2
(g3
(S'S4'
p5377
I0
I1
tp5378
Rp5379
(I3
S'|'
p5380
NNNI4
I1
I0
tp5381
bS'MAMP'
p5382
tp5383
Rp5384
sS'4CSDOBV'
p5385
g2
(g3
(S'S3'
p5386
I0
I1
tp5387
Rp5388
(I3
S'|'
p5389
NNNI3
I1
I0
tp5390
bS'VDC'
p5391
tp5392
Rp5393
sS'AFLCA9BI'
p5394
g2
(g3
(S'S4'
p5395
I0
I1
tp5396
Rp5397
(I3
S'|'
p5398
NNNI4
I1
I0
tp5399
bS'MAMP'
p5400
tp5401
Rp5402
sS'1DEP2AVO'
p5403
g2
(g3
(S'S1'
p5404
I0
I1
tp5405
Rp5406
(I3
S'|'
p5407
NNNI1
I1
I0
tp5408
bg45
tp5409
Rp5410
sS'3RCTUBPT'
p5411
g2
(g3
(S'S4'
p5412
I0
I1
tp5413
Rp5414
(I3
S'|'
p5415
NNNI4
I1
I0
tp5416
bS'DEGC'
p5417
tp5418
Rp5419
sS'OHRTHR62'
p5420
g2
(g3
(S'S4'
p5421
I0
I1
tp5422
Rp5423
(I3
S'|'
p5424
NNNI4
I1
I0
tp5425
bS'DEGF'
p5426
tp5427
Rp5428
sS'OOBTHR49'
p5429
g2
(g3
(S'S4'
p5430
I0
I1
tp5431
Rp5432
(I3
S'|'
p5433
NNNI4
I1
I0
tp5434
bS'DEGF'
p5435
tp5436
Rp5437
sS'CRXBV'
p5438
g2
(g3
(S'S1'
p5439
I0
I1
tp5440
Rp5441
(I3
S'|'
p5442
NNNI1
I1
I0
tp5443
bg45
tp5444
Rp5445
sS'OOBTHR47'
p5446
g2
(g3
(S'S4'
p5447
I0
I1
tp5448
Rp5449
(I3
S'|'
p5450
NNNI4
I1
I0
tp5451
bS'DEGF'
p5452
tp5453
Rp5454
sS'OOBTHR44'
p5455
g2
(g3
(S'S4'
p5456
I0
I1
tp5457
Rp5458
(I3
S'|'
p5459
NNNI4
I1
I0
tp5460
bS'DEGF'
p5461
tp5462
Rp5463
sS'OOBTHR45'
p5464
g2
(g3
(S'S4'
p5465
I0
I1
tp5466
Rp5467
(I3
S'|'
p5468
NNNI4
I1
I0
tp5469
bS'DEGF'
p5470
tp5471
Rp5472
sS'OOBTHR42'
p5473
g2
(g3
(S'S4'
p5474
I0
I1
tp5475
Rp5476
(I3
S'|'
p5477
NNNI4
I1
I0
tp5478
bS'DEGF'
p5479
tp5480
Rp5481
sS'OOBTHR43'
p5482
g2
(g3
(S'S4'
p5483
I0
I1
tp5484
Rp5485
(I3
S'|'
p5486
NNNI4
I1
I0
tp5487
bS'DEGF'
p5488
tp5489
Rp5490
sS'OOBTHR40'
p5491
g2
(g3
(S'S4'
p5492
I0
I1
tp5493
Rp5494
(I3
S'|'
p5495
NNNI4
I1
I0
tp5496
bS'DEGF'
p5497
tp5498
Rp5499
sS'4PRT5AT'
p5500
g2
(g3
(S'S4'
p5501
I0
I1
tp5502
Rp5503
(I3
S'|'
p5504
NNNI4
I1
I0
tp5505
bS'DEGF'
p5506
tp5507
Rp5508
sS'ASPEB5CV'
p5509
g2
(g3
(S'S1'
p5510
I0
I1
tp5511
Rp5512
(I3
S'|'
p5513
NNNI1
I1
I0
tp5514
bg45
tp5515
Rp5516
sS'PLAED2IT'
p5517
g2
(g3
(S'S4'
p5518
I0
I1
tp5519
Rp5520
(I3
S'|'
p5521
NNNI4
I1
I0
tp5522
bS'DEGF'
p5523
tp5524
Rp5525
sS'CVEEP'
p5526
g2
(g3
(S'S1'
p5527
I0
I1
tp5528
Rp5529
(I3
S'|'
p5530
NNNI1
I1
I0
tp5531
bg45
tp5532
Rp5533
sS'AWD2CV5V'
p5534
g2
(g3
(S'S1'
p5535
I0
I1
tp5536
Rp5537
(I3
S'|'
p5538
NNNI1
I1
I0
tp5539
bg45
tp5540
Rp5541
sS'EORTDMN14D'
p5542
g2
(g3
(S'S4'
p5543
I0
I1
tp5544
Rp5545
(I3
S'|'
p5546
NNNI4
I1
I0
tp5547
bS'DEGF'
p5548
tp5549
Rp5550
sS'OHRMGRD3'
p5551
g2
(g3
(S'S4'
p5552
I0
I1
tp5553
Rp5554
(I3
S'|'
p5555
NNNI4
I1
I0
tp5556
bS'DEGF'
p5557
tp5558
Rp5559
sS'ARWA1BT'
p5560
g2
(g3
(S'S4'
p5561
I0
I1
tp5562
Rp5563
(I3
S'|'
p5564
NNNI4
I1
I0
tp5565
bS'DEGF'
p5566
tp5567
Rp5568
sS'AFLCA7BI'
p5569
g2
(g3
(S'S4'
p5570
I0
I1
tp5571
Rp5572
(I3
S'|'
p5573
NNNI4
I1
I0
tp5574
bS'MAMP'
p5575
tp5576
Rp5577
sS'PLAED4GT'
p5578
g2
(g3
(S'S4'
p5579
I0
I1
tp5580
Rp5581
(I3
S'|'
p5582
NNNI4
I1
I0
tp5583
bS'DEGF'
p5584
tp5585
Rp5586
sS'AFLC14BI'
p5587
g2
(g3
(S'S4'
p5588
I0
I1
tp5589
Rp5590
(I3
S'|'
p5591
NNNI4
I1
I0
tp5592
bS'MAMP'
p5593
tp5594
Rp5595
sS'POLINE06T'
p5596
g2
(g3
(S'S4'
p5597
I0
I1
tp5598
Rp5599
(I3
S'|'
p5600
NNNI4
I1
I0
tp5601
bS'DEGF'
p5602
tp5603
Rp5604
sS'AOSPACS4B'
p5605
g2
(g3
(S'S4'
p5606
I0
I1
tp5607
Rp5608
(I3
S'|'
p5609
NNNI4
I1
I0
tp5610
bS'MAMP'
p5611
tp5612
Rp5613
sS'ACPA5CV'
p5614
g2
(g3
(S'S1'
p5615
I0
I1
tp5616
Rp5617
(I3
S'|'
p5618
NNNI1
I1
I0
tp5619
bg45
tp5620
Rp5621
sS'OHRTHR59'
p5622
g2
(g3
(S'S4'
p5623
I0
I1
tp5624
Rp5625
(I3
S'|'
p5626
NNNI4
I1
I0
tp5627
bS'DEGF'
p5628
tp5629
Rp5630
sS'OHRTHR52'
p5631
g2
(g3
(S'S4'
p5632
I0
I1
tp5633
Rp5634
(I3
S'|'
p5635
NNNI4
I1
I0
tp5636
bS'DEGF'
p5637
tp5638
Rp5639
sS'OHRTHR53'
p5640
g2
(g3
(S'S4'
p5641
I0
I1
tp5642
Rp5643
(I3
S'|'
p5644
NNNI4
I1
I0
tp5645
bS'DEGF'
p5646
tp5647
Rp5648
sS'OHRTHR50'
p5649
g2
(g3
(S'S4'
p5650
I0
I1
tp5651
Rp5652
(I3
S'|'
p5653
NNNI4
I1
I0
tp5654
bS'DEGF'
p5655
tp5656
Rp5657
sS'4LFSPAT'
p5658
g2
(g3
(S'S4'
p5659
I0
I1
tp5660
Rp5661
(I3
S'|'
p5662
NNNI4
I1
I0
tp5663
bS'DEGF'
p5664
tp5665
Rp5666
sS'OHRTHR56'
p5667
g2
(g3
(S'S4'
p5668
I0
I1
tp5669
Rp5670
(I3
S'|'
p5671
NNNI4
I1
I0
tp5672
bS'DEGF'
p5673
tp5674
Rp5675
sS'2P15VAVL'
p5676
g2
(g3
(S'S3'
p5677
I0
I1
tp5678
Rp5679
(I3
S'|'
p5680
NNNI3
I1
I0
tp5681
bS'VDC'
p5682
tp5683
Rp5684
sS'OHRTHR54'
p5685
g2
(g3
(S'S4'
p5686
I0
I1
tp5687
Rp5688
(I3
S'|'
p5689
NNNI4
I1
I0
tp5690
bS'DEGF'
p5691
tp5692
Rp5693
sS'AAOTAPMT'
p5694
g2
(g3
(S'S4'
p5695
I0
I1
tp5696
Rp5697
(I3
S'|'
p5698
NNNI4
I1
I0
tp5699
bS'DEGF'
p5700
tp5701
Rp5702
sS'AORWPI2B'
p5703
g2
(g3
(S'S4'
p5704
I0
I1
tp5705
Rp5706
(I3
S'|'
p5707
NNNI4
I1
I0
tp5708
bS'MSEC'
p5709
tp5710
Rp5711
sS'TCYZ_RW1'
p5712
g2
(g3
(S'S4'
p5713
I0
I1
tp5714
Rp5715
(I3
S'|'
p5716
NNNI4
I1
I0
tp5717
bS'DEGF'
p5718
tp5719
Rp5720
sS'OHRTHR60'
p5721
g2
(g3
(S'S4'
p5722
I0
I1
tp5723
Rp5724
(I3
S'|'
p5725
NNNI4
I1
I0
tp5726
bS'DEGF'
p5727
tp5728
Rp5729
sS'OOBTHR09'
p5730
g2
(g3
(S'S4'
p5731
I0
I1
tp5732
Rp5733
(I3
S'|'
p5734
NNNI4
I1
I0
tp5735
bS'DEGF'
p5736
tp5737
Rp5738
sS'3TSMXCET'
p5739
g2
(g3
(S'S4'
p5740
I0
I1
tp5741
Rp5742
(I3
S'|'
p5743
NNNI4
I1
I0
tp5744
bS'DEGC'
p5745
tp5746
Rp5747
sS'TCYZ_RW6'
p5748
g2
(g3
(S'S4'
p5749
I0
I1
tp5750
Rp5751
(I3
S'|'
p5752
NNNI4
I1
I0
tp5753
bS'DEGF'
p5754
tp5755
Rp5756
sS'ARWA2BT'
p5757
g2
(g3
(S'S4'
p5758
I0
I1
tp5759
Rp5760
(I3
S'|'
p5761
NNNI4
I1
I0
tp5762
bS'DEGF'
p5763
tp5764
Rp5765
sS'PLAED3ET'
p5766
g2
(g3
(S'S4'
p5767
I0
I1
tp5768
Rp5769
(I3
S'|'
p5770
NNNI4
I1
I0
tp5771
bS'DEGF'
p5772
tp5773
Rp5774
sS'TSAPYT'
p5775
g2
(g3
(S'S4'
p5776
I0
I1
tp5777
Rp5778
(I3
S'|'
p5779
NNNI4
I1
I0
tp5780
bS'DEGF'
p5781
tp5782
Rp5783
sS'CPA1V'
p5784
g2
(g3
(S'S1'
p5785
I0
I1
tp5786
Rp5787
(I3
S'|'
p5788
NNNI1
I1
I0
tp5789
bg45
tp5790
Rp5791
sS'ASPEA5CV'
p5792
g2
(g3
(S'S1'
p5793
I0
I1
tp5794
Rp5795
(I3
S'|'
p5796
NNNI1
I1
I0
tp5797
bg45
tp5798
Rp5799
sS'PXTANK1T'
p5800
g2
(g3
(S'S4'
p5801
I0
I1
tp5802
Rp5803
(I3
S'|'
p5804
NNNI4
I1
I0
tp5805
bS'DEGF'
p5806
tp5807
Rp5808
sS'4RT568T'
p5809
g2
(g3
(S'S4'
p5810
I0
I1
tp5811
Rp5812
(I3
S'|'
p5813
NNNI4
I1
I0
tp5814
bS'DEGF'
p5815
tp5816
Rp5817
sS'ACPB5CV'
p5818
g2
(g3
(S'S1'
p5819
I0
I1
tp5820
Rp5821
(I3
S'|'
p5822
NNNI1
I1
I0
tp5823
bg45
tp5824
Rp5825
sS'OOBTHR02'
p5826
g2
(g3
(S'S4'
p5827
I0
I1
tp5828
Rp5829
(I3
S'|'
p5830
NNNI4
I1
I0
tp5831
bS'DEGF'
p5832
tp5833
Rp5834
sS'1DPICACU'
p5835
g2
(g3
(S'S3'
p5836
I0
I1
tp5837
Rp5838
(I3
S'|'
p5839
NNNI3
I1
I0
tp5840
bS'AMP'
p5841
tp5842
Rp5843
sS'OOBTHR03'
p5844
g2
(g3
(S'S4'
p5845
I0
I1
tp5846
Rp5847
(I3
S'|'
p5848
NNNI4
I1
I0
tp5849
bS'DEGF'
p5850
tp5851
Rp5852
sS'OOBTHR54'
p5853
g2
(g3
(S'S4'
p5854
I0
I1
tp5855
Rp5856
(I3
S'|'
p5857
NNNI4
I1
I0
tp5858
bS'DEGF'
p5859
tp5860
Rp5861
sS'TOXTSUPN'
p5862
g2
(g3
(S'S4'
p5863
I0
I1
tp5864
Rp5865
(I3
S'|'
p5866
NNNI4
I1
I0
tp5867
bS'DEGF'
p5868
tp5869
Rp5870
sS'AOSACMD1'
p5871
g2
(g3
(S'S3'
p5872
I0
I1
tp5873
Rp5874
(I3
S'|'
p5875
NNNI3
I1
I0
tp5876
bS'RAD'
p5877
tp5878
Rp5879
sS'4RT589T'
p5880
g2
(g3
(S'S4'
p5881
I0
I1
tp5882
Rp5883
(I3
S'|'
p5884
NNNI4
I1
I0
tp5885
bS'DEGF'
p5886
tp5887
Rp5888
sS'ASPEFSW2B'
p5889
g2
(g3
(S'S3'
p5890
I0
I1
tp5891
Rp5892
(I3
S'|'
p5893
NNNI3
I1
I0
tp5894
bS'DEG'
p5895
tp5896
Rp5897
sS'TCYLRWC'
p5898
g2
(g3
(S'S4'
p5899
I0
I1
tp5900
Rp5901
(I3
S'|'
p5902
NNNI4
I1
I0
tp5903
bS'DEGF'
p5904
tp5905
Rp5906
sS'4RT595T'
p5907
g2
(g3
(S'S4'
p5908
I0
I1
tp5909
Rp5910
(I3
S'|'
p5911
NNNI4
I1
I0
tp5912
bS'DEGF'
p5913
tp5914
Rp5915
sS'TCYLAFT5'
p5916
g2
(g3
(S'S4'
p5917
I0
I1
tp5918
Rp5919
(I3
S'|'
p5920
NNNI4
I1
I0
tp5921
bS'DEGF'
p5922
tp5923
Rp5924
sS'AORWMOM1'
p5925
g2
(g3
(S'S7'
p5926
I0
I1
tp5927
Rp5928
(I3
S'|'
p5929
NNNI7
I1
I0
tp5930
bS'FTLBSEC'
p5931
tp5932
Rp5933
sS'4RT700T'
p5934
g2
(g3
(S'S4'
p5935
I0
I1
tp5936
Rp5937
(I3
S'|'
p5938
NNNI4
I1
I0
tp5939
bS'DEGF'
p5940
tp5941
Rp5942
sS'OOBTHR07'
p5943
g2
(g3
(S'S4'
p5944
I0
I1
tp5945
Rp5946
(I3
S'|'
p5947
NNNI4
I1
I0
tp5948
bS'DEGF'
p5949
tp5950
Rp5951
sS'1CBAT'
p5952
g2
(g3
(S'S4'
p5953
I0
I1
tp5954
Rp5955
(I3
S'|'
p5956
NNNI4
I1
I0
tp5957
bS'DEGC'
p5958
tp5959
Rp5960
sS'CPA2BPT'
p5961
g2
(g3
(S'S4'
p5962
I0
I1
tp5963
Rp5964
(I3
S'|'
p5965
NNNI4
I1
I0
tp5966
bS'DEGF'
p5967
tp5968
Rp5969
sS'4IP15AV'
p5970
g2
(g3
(S'S3'
p5971
I0
I1
tp5972
Rp5973
(I3
S'|'
p5974
NNNI3
I1
I0
tp5975
bS'VDC'
p5976
tp5977
Rp5978
sS'4ALL2AT'
p5979
g2
(g3
(S'S4'
p5980
I0
I1
tp5981
Rp5982
(I3
S'|'
p5983
NNNI4
I1
I0
tp5984
bS'DEGF'
p5985
tp5986
Rp5987
sS'4PRT4AT'
p5988
g2
(g3
(S'S4'
p5989
I0
I1
tp5990
Rp5991
(I3
S'|'
p5992
NNNI4
I1
I0
tp5993
bS'DEGF'
p5994
tp5995
Rp5996
sS'TCYLAFT6'
p5997
g2
(g3
(S'S4'
p5998
I0
I1
tp5999
Rp6000
(I3
S'|'
p6001
NNNI4
I1
I0
tp6002
bS'DEGF'
p6003
tp6004
Rp6005
sS'PLAED2AT'
p6006
g2
(g3
(S'S4'
p6007
I0
I1
tp6008
Rp6009
(I3
S'|'
p6010
NNNI4
I1
I0
tp6011
bS'DEGF'
p6012
tp6013
Rp6014
sS'TAPEA2T'
p6015
g2
(g3
(S'S4'
p6016
I0
I1
tp6017
Rp6018
(I3
S'|'
p6019
NNNI4
I1
I0
tp6020
bS'DEGF'
p6021
tp6022
Rp6023
sS'AFLC10AI'
p6024
g2
(g3
(S'S4'
p6025
I0
I1
tp6026
Rp6027
(I3
S'|'
p6028
NNNI4
I1
I0
tp6029
bS'MAMP'
p6030
tp6031
Rp6032
sS'POR1TV02T'
p6033
g2
(g3
(S'S4'
p6034
I0
I1
tp6035
Rp6036
(I3
S'|'
p6037
NNNI4
I1
I0
tp6038
bS'DEGF'
p6039
tp6040
Rp6041
sS'2PMT2T'
p6042
g2
(g3
(S'S4'
p6043
I0
I1
tp6044
Rp6045
(I3
S'|'
p6046
NNNI4
I1
I0
tp6047
bS'DEGC'
p6048
tp6049
Rp6050
sS'EIACVAV'
p6051
g2
(g3
(S'S1'
p6052
I0
I1
tp6053
Rp6054
(I3
S'|'
p6055
NNNI1
I1
I0
tp6056
bg45
tp6057
Rp6058
sS'4IP5BV'
p6059
g2
(g3
(S'S3'
p6060
I0
I1
tp6061
Rp6062
(I3
S'|'
p6063
NNNI3
I1
I0
tp6064
bS'VDC'
p6065
tp6066
Rp6067
sS'PLAED1HT'
p6068
g2
(g3
(S'S4'
p6069
I0
I1
tp6070
Rp6071
(I3
S'|'
p6072
NNNI4
I1
I0
tp6073
bS'DEGF'
p6074
tp6075
Rp6076
sS'1MAHOAT'
p6077
g2
(g3
(S'S4'
p6078
I0
I1
tp6079
Rp6080
(I3
S'|'
p6081
NNNI4
I1
I0
tp6082
bS'DEGC'
p6083
tp6084
Rp6085
sS'EORTDMN24D'
p6086
g2
(g3
(S'S4'
p6087
I0
I1
tp6088
Rp6089
(I3
S'|'
p6090
NNNI4
I1
I0
tp6091
bS'DEGF'
p6092
tp6093
Rp6094
sS'3TTVALVT'
p6095
g2
(g3
(S'S4'
p6096
I0
I1
tp6097
Rp6098
(I3
S'|'
p6099
NNNI4
I1
I0
tp6100
bS'DEGC'
p6101
tp6102
Rp6103
sS'PXDM02T'
p6104
g2
(g3
(S'S4'
p6105
I0
I1
tp6106
Rp6107
(I3
S'|'
p6108
NNNI4
I1
I0
tp6109
bS'DEGF'
p6110
tp6111
Rp6112
sS'CUSOAIT'
p6113
g2
(g3
(S'S4'
p6114
I0
I1
tp6115
Rp6116
(I3
S'|'
p6117
NNNI4
I1
I0
tp6118
bS'DEGF'
p6119
tp6120
Rp6121
sS'4HPOSARO'
p6122
g2
(g3
(S'S3'
p6123
I0
I1
tp6124
Rp6125
(I3
S'|'
p6126
NNNI3
I1
I0
tp6127
bS'DEG'
p6128
tp6129
Rp6130
sS'OHRMGRD6'
p6131
g2
(g3
(S'S4'
p6132
I0
I1
tp6133
Rp6134
(I3
S'|'
p6135
NNNI4
I1
I0
tp6136
bS'DEGF'
p6137
tp6138
Rp6139
sS'POLINE05T'
p6140
g2
(g3
(S'S4'
p6141
I0
I1
tp6142
Rp6143
(I3
S'|'
p6144
NNNI4
I1
I0
tp6145
bS'DEGF'
p6146
tp6147
Rp6148
sS'4VRMOAV'
p6149
g2
(g3
(S'S3'
p6150
I0
I1
tp6151
Rp6152
(I3
S'|'
p6153
NNNI3
I1
I0
tp6154
bS'VDC'
p6155
tp6156
Rp6157
sS'EOEB3V'
p6158
g2
(g3
(S'S1'
p6159
I0
I1
tp6160
Rp6161
(I3
S'|'
p6162
NNNI1
I1
I0
tp6163
bg45
tp6164
Rp6165
sS'EB2V'
p6166
g2
(g3
(S'S1'
p6167
I0
I1
tp6168
Rp6169
(I3
S'|'
p6170
NNNI1
I1
I0
tp6171
bg45
tp6172
Rp6173
sS'AOTQCMD1'
p6174
g2
(g3
(S'S4'
p6175
I0
I1
tp6176
Rp6177
(I3
S'|'
p6178
NNNI4
I1
I0
tp6179
bS'FTLB'
p6180
tp6181
Rp6182
sS'AOTQCMD3'
p6183
g2
(g3
(S'S4'
p6184
I0
I1
tp6185
Rp6186
(I3
S'|'
p6187
NNNI4
I1
I0
tp6188
bS'FTLB'
p6189
tp6190
Rp6191
sS'AOTQCMD2'
p6192
g2
(g3
(S'S4'
p6193
I0
I1
tp6194
Rp6195
(I3
S'|'
p6196
NNNI4
I1
I0
tp6197
bS'FTLB'
p6198
tp6199
Rp6200
sS'OHRTHR25'
p6201
g2
(g3
(S'S4'
p6202
I0
I1
tp6203
Rp6204
(I3
S'|'
p6205
NNNI4
I1
I0
tp6206
bS'DEGF'
p6207
tp6208
Rp6209
sS'AIRU2G2I'
p6210
g2
(g3
(S'S4'
p6211
I0
I1
tp6212
Rp6213
(I3
S'|'
p6214
NNNI4
I1
I0
tp6215
bS'MAMP'
p6216
tp6217
Rp6218
sS'TRSPOTEX'
p6219
g2
(g3
(S'S4'
p6220
I0
I1
tp6221
Rp6222
(I3
S'|'
p6223
NNNI4
I1
I0
tp6224
bS'DEGF'
p6225
tp6226
Rp6227
sS'TFUTSUPN'
p6228
g2
(g3
(S'S4'
p6229
I0
I1
tp6230
Rp6231
(I3
S'|'
p6232
NNNI4
I1
I0
tp6233
bS'DEGF'
p6234
tp6235
Rp6236
sS'AOSPACS1B'
p6237
g2
(g3
(S'S4'
p6238
I0
I1
tp6239
Rp6240
(I3
S'|'
p6241
NNNI4
I1
I0
tp6242
bS'MAMP'
p6243
tp6244
Rp6245
sS'EOEBC'
p6246
g2
(g3
(S'S3'
p6247
I0
I1
tp6248
Rp6249
(I3
S'|'
p6250
NNNI3
I1
I0
tp6251
bS'AMP'
p6252
tp6253
Rp6254
sS'AOACYAN7'
p6255
g2
(g3
(S'S4'
p6256
I0
I1
tp6257
Rp6258
(I3
S'|'
p6259
NNNI4
I1
I0
tp6260
bS'ASEC'
p6261
tp6262
Rp6263
sS'1CRAT'
p6264
g2
(g3
(S'S4'
p6265
I0
I1
tp6266
Rp6267
(I3
S'|'
p6268
NNNI4
I1
I0
tp6269
bS'DEGC'
p6270
tp6271
Rp6272
sS'AOACYAN0'
p6273
g2
(g3
(S'S4'
p6274
I0
I1
tp6275
Rp6276
(I3
S'|'
p6277
NNNI4
I1
I0
tp6278
bS'ASEC'
p6279
tp6280
Rp6281
sS'PMTANK2T'
p6282
g2
(g3
(S'S4'
p6283
I0
I1
tp6284
Rp6285
(I3
S'|'
p6286
NNNI4
I1
I0
tp6287
bS'DEGF'
p6288
tp6289
Rp6290
sS'AOACYAN1'
p6291
g2
(g3
(S'S4'
p6292
I0
I1
tp6293
Rp6294
(I3
S'|'
p6295
NNNI4
I1
I0
tp6296
bS'ASEC'
p6297
tp6298
Rp6299
sS'1SSPYT'
p6300
g2
(g3
(S'S4'
p6301
I0
I1
tp6302
Rp6303
(I3
S'|'
p6304
NNNI4
I1
I0
tp6305
bS'DEGC'
p6306
tp6307
Rp6308
sS'AOACYAN2'
p6309
g2
(g3
(S'S4'
p6310
I0
I1
tp6311
Rp6312
(I3
S'|'
p6313
NNNI4
I1
I0
tp6314
bS'ASEC'
p6315
tp6316
Rp6317
sS'PLAED1CT'
p6318
g2
(g3
(S'S4'
p6319
I0
I1
tp6320
Rp6321
(I3
S'|'
p6322
NNNI4
I1
I0
tp6323
bS'DEGF'
p6324
tp6325
Rp6326
sS'OHRTHR24'
p6327
g2
(g3
(S'S4'
p6328
I0
I1
tp6329
Rp6330
(I3
S'|'
p6331
NNNI4
I1
I0
tp6332
bS'DEGF'
p6333
tp6334
Rp6335
sS'PLAED4HT'
p6336
g2
(g3
(S'S4'
p6337
I0
I1
tp6338
Rp6339
(I3
S'|'
p6340
NNNI4
I1
I0
tp6341
bS'DEGF'
p6342
tp6343
Rp6344
sS'2DTSTATT'
p6345
g2
(g3
(S'S4'
p6346
I0
I1
tp6347
Rp6348
(I3
S'|'
p6349
NNNI4
I1
I0
tp6350
bS'DEGC'
p6351
tp6352
Rp6353
sS'AI2AX1Y'
p6354
g2
(g3
(S'S5'
p6355
I0
I1
tp6356
Rp6357
(I3
S'|'
p6358
NNNI5
I1
I0
tp6359
bS'DEGPS'
p6360
tp6361
Rp6362
sS'AI2AX1X'
p6363
g2
(g3
(S'S5'
p6364
I0
I1
tp6365
Rp6366
(I3
S'|'
p6367
NNNI5
I1
I0
tp6368
bS'DEGPS'
p6369
tp6370
Rp6371
sS'AAOTASMT'
p6372
g2
(g3
(S'S4'
p6373
I0
I1
tp6374
Rp6375
(I3
S'|'
p6376
NNNI4
I1
I0
tp6377
bS'DEGF'
p6378
tp6379
Rp6380
sS'CSITA5V'
p6381
g2
(g3
(S'S1'
p6382
I0
I1
tp6383
Rp6384
(I3
S'|'
p6385
NNNI1
I1
I0
tp6386
bg45
tp6387
Rp6388
sS'AORTERR1'
p6389
g2
(g3
(S'S5'
p6390
I0
I1
tp6391
Rp6392
(I3
S'|'
p6393
NNNI5
I1
I0
tp6394
bS'RADPS'
p6395
tp6396
Rp6397
sS'TCYLAFT3'
p6398
g2
(g3
(S'S4'
p6399
I0
I1
tp6400
Rp6401
(I3
S'|'
p6402
NNNI4
I1
I0
tp6403
bS'DEGF'
p6404
tp6405
Rp6406
sS'TCYLAFT2'
p6407
g2
(g3
(S'S4'
p6408
I0
I1
tp6409
Rp6410
(I3
S'|'
p6411
NNNI4
I1
I0
tp6412
bS'DEGF'
p6413
tp6414
Rp6415
sS'OOBTHR06'
p6416
g2
(g3
(S'S4'
p6417
I0
I1
tp6418
Rp6419
(I3
S'|'
p6420
NNNI4
I1
I0
tp6421
bS'DEGF'
p6422
tp6423
Rp6424
sS'4LLL1AT'
p6425
g2
(g3
(S'S4'
p6426
I0
I1
tp6427
Rp6428
(I3
S'|'
p6429
NNNI4
I1
I0
tp6430
bS'DEGF'
p6431
tp6432
Rp6433
sS'OOBTHR04'
p6434
g2
(g3
(S'S4'
p6435
I0
I1
tp6436
Rp6437
(I3
S'|'
p6438
NNNI4
I1
I0
tp6439
bS'DEGF'
p6440
tp6441
Rp6442
sS'OOBTHR05'
p6443
g2
(g3
(S'S4'
p6444
I0
I1
tp6445
Rp6446
(I3
S'|'
p6447
NNNI4
I1
I0
tp6448
bS'DEGF'
p6449
tp6450
Rp6451
sS'EOESAT2C'
p6452
g2
(g3
(S'S4'
p6453
I0
I1
tp6454
Rp6455
(I3
S'|'
p6456
NNNI4
I1
I0
tp6457
bS'DEGF'
p6458
tp6459
Rp6460
sS'PR3TV01T'
p6461
g2
(g3
(S'S4'
p6462
I0
I1
tp6463
Rp6464
(I3
S'|'
p6465
NNNI4
I1
I0
tp6466
bS'DEGF'
p6467
tp6468
Rp6469
sS'TBOLTCUT'
p6470
g2
(g3
(S'S4'
p6471
I0
I1
tp6472
Rp6473
(I3
S'|'
p6474
NNNI4
I1
I0
tp6475
bS'DEGF'
p6476
tp6477
Rp6478
sS'AOACYAN4'
p6479
g2
(g3
(S'S4'
p6480
I0
I1
tp6481
Rp6482
(I3
S'|'
p6483
NNNI4
I1
I0
tp6484
bS'ASEC'
p6485
tp6486
Rp6487
sS'AOACYAN5'
p6488
g2
(g3
(S'S4'
p6489
I0
I1
tp6490
Rp6491
(I3
S'|'
p6492
NNNI4
I1
I0
tp6493
bS'ASEC'
p6494
tp6495
Rp6496
sS'AOACYAN6'
p6497
g2
(g3
(S'S4'
p6498
I0
I1
tp6499
Rp6500
(I3
S'|'
p6501
NNNI4
I1
I0
tp6502
bS'ASEC'
p6503
tp6504
Rp6505
sS'AFLCAAH'
p6506
g2
(g3
(S'S1'
p6507
I0
I1
tp6508
Rp6509
(I3
S'|'
p6510
NNNI1
I1
I0
tp6511
bg45
tp6512
Rp6513
sS'AFSSPC2V'
p6514
g2
(g3
(S'S1'
p6515
I0
I1
tp6516
Rp6517
(I3
S'|'
p6518
NNNI1
I1
I0
tp6519
bg45
tp6520
Rp6521
sS'1MAHCBT'
p6522
g2
(g3
(S'S4'
p6523
I0
I1
tp6524
Rp6525
(I3
S'|'
p6526
NNNI4
I1
I0
tp6527
bS'DEGC'
p6528
tp6529
Rp6530
sS'AFLC11AI'
p6531
g2
(g3
(S'S4'
p6532
I0
I1
tp6533
Rp6534
(I3
S'|'
p6535
NNNI4
I1
I0
tp6536
bS'MAMP'
p6537
tp6538
Rp6539
sS'AOACYAN3'
p6540
g2
(g3
(S'S4'
p6541
I0
I1
tp6542
Rp6543
(I3
S'|'
p6544
NNNI4
I1
I0
tp6545
bS'ASEC'
p6546
tp6547
Rp6548
sS'TFSSBKT1'
p6549
g2
(g3
(S'S4'
p6550
I0
I1
tp6551
Rp6552
(I3
S'|'
p6553
NNNI4
I1
I0
tp6554
bS'DEGF'
p6555
tp6556
Rp6557
sS'PLAED4CT'
p6558
g2
(g3
(S'S4'
p6559
I0
I1
tp6560
Rp6561
(I3
S'|'
p6562
NNNI4
I1
I0
tp6563
bS'DEGF'
p6564
tp6565
Rp6566
sS'CUSOB28V'
p6567
g2
(g3
(S'S1'
p6568
I0
I1
tp6569
Rp6570
(I3
S'|'
p6571
NNNI1
I1
I0
tp6572
bg45
tp6573
Rp6574
sS'AORESY7'
p6575
g2
(g3
(S'S3'
p6576
I0
I1
tp6577
Rp6578
(I3
S'|'
p6579
NNNI3
I1
I0
tp6580
bS'RAD'
p6581
tp6582
Rp6583
sS'AORESY4'
p6584
g2
(g3
(S'S3'
p6585
I0
I1
tp6586
Rp6587
(I3
S'|'
p6588
NNNI3
I1
I0
tp6589
bS'RAD'
p6590
tp6591
Rp6592
sS'CSITB5V'
p6593
g2
(g3
(S'S1'
p6594
I0
I1
tp6595
Rp6596
(I3
S'|'
p6597
NNNI1
I1
I0
tp6598
bg45
tp6599
Rp6600
sS'4RT563T'
p6601
g2
(g3
(S'S4'
p6602
I0
I1
tp6603
Rp6604
(I3
S'|'
p6605
NNNI4
I1
I0
tp6606
bS'DEGF'
p6607
tp6608
Rp6609
sS'AORESY0'
p6610
g2
(g3
(S'S3'
p6611
I0
I1
tp6612
Rp6613
(I3
S'|'
p6614
NNNI3
I1
I0
tp6615
bS'RAD'
p6616
tp6617
Rp6618
sS'CSITB15V'
p6619
g2
(g3
(S'S1'
p6620
I0
I1
tp6621
Rp6622
(I3
S'|'
p6623
NNNI1
I1
I0
tp6624
bg45
tp6625
Rp6626
sS'EB2CI'
p6627
g2
(g3
(S'S3'
p6628
I0
I1
tp6629
Rp6630
(I3
S'|'
p6631
NNNI3
I1
I0
tp6632
bS'AMP'
p6633
tp6634
Rp6635
sS'AORESZ2_1'
p6636
g2
(g3
(S'S3'
p6637
I0
I1
tp6638
Rp6639
(I3
S'|'
p6640
NNNI3
I1
I0
tp6641
bS'RAD'
p6642
tp6643
Rp6644
sS'1DAHBVO'
p6645
g2
(g3
(S'S1'
p6646
I0
I1
tp6647
Rp6648
(I3
S'|'
p6649
NNNI1
I1
I0
tp6650
bg45
tp6651
Rp6652
sS'POLAEV2BT'
p6653
g2
(g3
(S'S4'
p6654
I0
I1
tp6655
Rp6656
(I3
S'|'
p6657
NNNI4
I1
I0
tp6658
bS'DEGF'
p6659
tp6660
Rp6661
sS'PLAED1ET'
p6662
g2
(g3
(S'S4'
p6663
I0
I1
tp6664
Rp6665
(I3
S'|'
p6666
NNNI4
I1
I0
tp6667
bS'DEGF'
p6668
tp6669
Rp6670
sS'PR1TV01T'
p6671
g2
(g3
(S'S4'
p6672
I0
I1
tp6673
Rp6674
(I3
S'|'
p6675
NNNI4
I1
I0
tp6676
bS'DEGF'
p6677
tp6678
Rp6679
sS'CSSR2CBV'
p6680
g2
(g3
(S'S1'
p6681
I0
I1
tp6682
Rp6683
(I3
S'|'
p6684
NNNI1
I1
I0
tp6685
bg45
tp6686
Rp6687
sS'4RT707T'
p6688
g2
(g3
(S'S4'
p6689
I0
I1
tp6690
Rp6691
(I3
S'|'
p6692
NNNI4
I1
I0
tp6693
bS'DEGF'
p6694
tp6695
Rp6696
sS'PLINE05T'
p6697
g2
(g3
(S'S4'
p6698
I0
I1
tp6699
Rp6700
(I3
S'|'
p6701
NNNI4
I1
I0
tp6702
bS'DEGF'
p6703
tp6704
Rp6705
sS'PLAED3AT'
p6706
g2
(g3
(S'S4'
p6707
I0
I1
tp6708
Rp6709
(I3
S'|'
p6710
NNNI4
I1
I0
tp6711
bS'DEGF'
p6712
tp6713
Rp6714
sS'TAPE2PST'
p6715
g2
(g3
(S'S4'
p6716
I0
I1
tp6717
Rp6718
(I3
S'|'
p6719
NNNI4
I1
I0
tp6720
bS'DEGF'
p6721
tp6722
Rp6723
sS'4PRT4BT'
p6724
g2
(g3
(S'S4'
p6725
I0
I1
tp6726
Rp6727
(I3
S'|'
p6728
NNNI4
I1
I0
tp6729
bS'DEGF'
p6730
tp6731
Rp6732
sS'1DAHHAVO'
p6733
g2
(g3
(S'S1'
p6734
I0
I1
tp6735
Rp6736
(I3
S'|'
p6737
NNNI1
I1
I0
tp6738
bg45
tp6739
Rp6740
sS'ASPEFSW1B'
p6741
g2
(g3
(S'S3'
p6742
I0
I1
tp6743
Rp6744
(I3
S'|'
p6745
NNNI3
I1
I0
tp6746
bS'DEG'
p6747
tp6748
Rp6749
sS'POLINE02T'
p6750
g2
(g3
(S'S4'
p6751
I0
I1
tp6752
Rp6753
(I3
S'|'
p6754
NNNI4
I1
I0
tp6755
bS'DEGF'
p6756
tp6757
Rp6758
sS'4RT555T'
p6759
g2
(g3
(S'S4'
p6760
I0
I1
tp6761
Rp6762
(I3
S'|'
p6763
NNNI4
I1
I0
tp6764
bS'DEGF'
p6765
tp6766
Rp6767
sS'TPC_DEA'
p6768
g2
(g3
(S'S4'
p6769
I0
I1
tp6770
Rp6771
(I3
S'|'
p6772
NNNI4
I1
I0
tp6773
bS'DEGF'
p6774
tp6775
Rp6776
sS'PXTANKIP'
p6777
g2
(g3
(S'S4'
p6778
I0
I1
tp6779
Rp6780
(I3
S'|'
p6781
NNNI4
I1
I0
tp6782
bS'PSIA'
p6783
tp6784
Rp6785
sS'ARWA5BT'
p6786
g2
(g3
(S'S4'
p6787
I0
I1
tp6788
Rp6789
(I3
S'|'
p6790
NNNI4
I1
I0
tp6791
bS'DEGF'
p6792
tp6793
Rp6794
sS'ELBI_LOW'
p6795
g2
(g3
(S'S3'
p6796
I0
I1
tp6797
Rp6798
(I3
S'|'
p6799
NNNI3
I1
I0
tp6800
bS'AMP'
p6801
tp6802
Rp6803
sS'2CHTRPZT'
p6804
g2
(g3
(S'S4'
p6805
I0
I1
tp6806
Rp6807
(I3
S'|'
p6808
NNNI4
I1
I0
tp6809
bS'DEGC'
p6810
tp6811
Rp6812
sS'4RT579T'
p6813
g2
(g3
(S'S4'
p6814
I0
I1
tp6815
Rp6816
(I3
S'|'
p6817
NNNI4
I1
I0
tp6818
bS'DEGF'
p6819
tp6820
Rp6821
sS'TCM_USO'
p6822
g2
(g3
(S'S4'
p6823
I0
I1
tp6824
Rp6825
(I3
S'|'
p6826
NNNI4
I1
I0
tp6827
bS'DEGF'
p6828
tp6829
Rp6830
sS'PLINE13T'
p6831
g2
(g3
(S'S4'
p6832
I0
I1
tp6833
Rp6834
(I3
S'|'
p6835
NNNI4
I1
I0
tp6836
bS'DEGF'
p6837
tp6838
Rp6839
sS'AOATTER1'
p6840
g2
(g3
(S'S3'
p6841
I0
I1
tp6842
Rp6843
(I3
S'|'
p6844
NNNI3
I1
I0
tp6845
bS'RAD'
p6846
tp6847
Rp6848
sS'AOATTER2'
p6849
g2
(g3
(S'S3'
p6850
I0
I1
tp6851
Rp6852
(I3
S'|'
p6853
NNNI3
I1
I0
tp6854
bS'RAD'
p6855
tp6856
Rp6857
sS'AOATTER3'
p6858
g2
(g3
(S'S3'
p6859
I0
I1
tp6860
Rp6861
(I3
S'|'
p6862
NNNI3
I1
I0
tp6863
bS'RAD'
p6864
tp6865
Rp6866
sS'TMZLGABM'
p6867
g2
(g3
(S'S4'
p6868
I0
I1
tp6869
Rp6870
(I3
S'|'
p6871
NNNI4
I1
I0
tp6872
bS'DEGF'
p6873
tp6874
Rp6875
sS'2P24VAVL'
p6876
g2
(g3
(S'S3'
p6877
I0
I1
tp6878
Rp6879
(I3
S'|'
p6880
NNNI3
I1
I0
tp6881
bS'VDC'
p6882
tp6883
Rp6884
sS'AWD5TQI'
p6885
g2
(g3
(S'S3'
p6886
I0
I1
tp6887
Rp6888
(I3
S'|'
p6889
NNNI3
I1
I0
tp6890
bS'AMP'
p6891
tp6892
Rp6893
sS'AORWBTQ5'
p6894
g2
(g3
(S'S4'
p6895
I0
I1
tp6896
Rp6897
(I3
S'|'
p6898
NNNI4
I1
I0
tp6899
bS'FTLB'
p6900
tp6901
Rp6902
sS'OHRTHR41'
p6903
g2
(g3
(S'S4'
p6904
I0
I1
tp6905
Rp6906
(I3
S'|'
p6907
NNNI4
I1
I0
tp6908
bS'DEGF'
p6909
tp6910
Rp6911
sS'ECNV1V'
p6912
g2
(g3
(S'S1'
p6913
I0
I1
tp6914
Rp6915
(I3
S'|'
p6916
NNNI1
I1
I0
tp6917
bg45
tp6918
Rp6919
sS'EEPA5V'
p6920
g2
(g3
(S'S1'
p6921
I0
I1
tp6922
Rp6923
(I3
S'|'
p6924
NNNI1
I1
I0
tp6925
bg45
tp6926
Rp6927
sS'4RT585T'
p6928
g2
(g3
(S'S4'
p6929
I0
I1
tp6930
Rp6931
(I3
S'|'
p6932
NNNI4
I1
I0
tp6933
bS'DEGF'
p6934
tp6935
Rp6936
sS'PLAED2BT'
p6937
g2
(g3
(S'S4'
p6938
I0
I1
tp6939
Rp6940
(I3
S'|'
p6941
NNNI4
I1
I0
tp6942
bS'DEGF'
p6943
tp6944
Rp6945
sS'AAOTH2MT'
p6946
g2
(g3
(S'S4'
p6947
I0
I1
tp6948
Rp6949
(I3
S'|'
p6950
NNNI4
I1
I0
tp6951
bS'DEGF'
p6952
tp6953
Rp6954
sS'OHRTHR02'
p6955
g2
(g3
(S'S4'
p6956
I0
I1
tp6957
Rp6958
(I3
S'|'
p6959
NNNI4
I1
I0
tp6960
bS'DEGF'
p6961
tp6962
Rp6963
sS'4HLL1BT'
p6964
g2
(g3
(S'S4'
p6965
I0
I1
tp6966
Rp6967
(I3
S'|'
p6968
NNNI4
I1
I0
tp6969
bS'DEGF'
p6970
tp6971
Rp6972
sS'AORESY1_1'
p6973
g2
(g3
(S'S3'
p6974
I0
I1
tp6975
Rp6976
(I3
S'|'
p6977
NNNI3
I1
I0
tp6978
bS'RAD'
p6979
tp6980
Rp6981
sS'OHRTHR07'
p6982
g2
(g3
(S'S4'
p6983
I0
I1
tp6984
Rp6985
(I3
S'|'
p6986
NNNI4
I1
I0
tp6987
bS'DEGF'
p6988
tp6989
Rp6990
sS'OHRTHR06'
p6991
g2
(g3
(S'S4'
p6992
I0
I1
tp6993
Rp6994
(I3
S'|'
p6995
NNNI4
I1
I0
tp6996
bS'DEGF'
p6997
tp6998
Rp6999
sS'OHRTHR09'
p7000
g2
(g3
(S'S4'
p7001
I0
I1
tp7002
Rp7003
(I3
S'|'
p7004
NNNI4
I1
I0
tp7005
bS'DEGF'
p7006
tp7007
Rp7008
sS'1WRBT'
p7009
g2
(g3
(S'S4'
p7010
I0
I1
tp7011
Rp7012
(I3
S'|'
p7013
NNNI4
I1
I0
tp7014
bS'DEGC'
p7015
tp7016
Rp7017
sS'AIRU1VFT'
p7018
g2
(g3
(S'S4'
p7019
I0
I1
tp7020
Rp7021
(I3
S'|'
p7022
NNNI4
I1
I0
tp7023
bS'DEGF'
p7024
tp7025
Rp7026
sS'AORESZ6_6'
p7027
g2
(g3
(S'S3'
p7028
I0
I1
tp7029
Rp7030
(I3
S'|'
p7031
NNNI3
I1
I0
tp7032
bS'RAD'
p7033
tp7034
Rp7035
sS'AORESZ6_7'
p7036
g2
(g3
(S'S3'
p7037
I0
I1
tp7038
Rp7039
(I3
S'|'
p7040
NNNI3
I1
I0
tp7041
bS'RAD'
p7042
tp7043
Rp7044
sS'AORESZ6_4'
p7045
g2
(g3
(S'S3'
p7046
I0
I1
tp7047
Rp7048
(I3
S'|'
p7049
NNNI3
I1
I0
tp7050
bS'RAD'
p7051
tp7052
Rp7053
sS'AOADBCH1A_NBG'
p7054
g2
(g3
(S'S3'
p7055
I0
I1
tp7056
Rp7057
(I3
S'|'
p7058
NNNI3
I1
I0
tp7059
bS'DEG'
p7060
tp7061
Rp7062
sS'AORESZ6_2'
p7063
g2
(g3
(S'S3'
p7064
I0
I1
tp7065
Rp7066
(I3
S'|'
p7067
NNNI3
I1
I0
tp7068
bS'RAD'
p7069
tp7070
Rp7071
sS'AORESZ6_3'
p7072
g2
(g3
(S'S3'
p7073
I0
I1
tp7074
Rp7075
(I3
S'|'
p7076
NNNI3
I1
I0
tp7077
bS'RAD'
p7078
tp7079
Rp7080
sS'CTSA5V'
p7081
g2
(g3
(S'S1'
p7082
I0
I1
tp7083
Rp7084
(I3
S'|'
p7085
NNNI1
I1
I0
tp7086
bg45
tp7087
Rp7088
sS'AORESZ6_1'
p7089
g2
(g3
(S'S3'
p7090
I0
I1
tp7091
Rp7092
(I3
S'|'
p7093
NNNI3
I1
I0
tp7094
bS'RAD'
p7095
tp7096
Rp7097
sS'4RT570T'
p7098
g2
(g3
(S'S4'
p7099
I0
I1
tp7100
Rp7101
(I3
S'|'
p7102
NNNI4
I1
I0
tp7103
bS'DEGF'
p7104
tp7105
Rp7106
sS'3FABRAAT'
p7107
g2
(g3
(S'S4'
p7108
I0
I1
tp7109
Rp7110
(I3
S'|'
p7111
NNNI4
I1
I0
tp7112
bS'DEGC'
p7113
tp7114
Rp7115
sS'TASPPCM'
p7116
g2
(g3
(S'S4'
p7117
I0
I1
tp7118
Rp7119
(I3
S'|'
p7120
NNNI4
I1
I0
tp7121
bS'DEGF'
p7122
tp7123
Rp7124
sS'ELBI'
p7125
g2
(g3
(S'S3'
p7126
I0
I1
tp7127
Rp7128
(I3
S'|'
p7129
NNNI3
I1
I0
tp7130
bS'AMP'
p7131
tp7132
Rp7133
sS'1CBBT'
p7134
g2
(g3
(S'S4'
p7135
I0
I1
tp7136
Rp7137
(I3
S'|'
p7138
NNNI4
I1
I0
tp7139
bS'DEGC'
p7140
tp7141
Rp7142
sS'AORESZ6_8'
p7143
g2
(g3
(S'S3'
p7144
I0
I1
tp7145
Rp7146
(I3
S'|'
p7147
NNNI3
I1
I0
tp7148
bS'RAD'
p7149
tp7150
Rp7151
sS'AOSARES2'
p7152
g2
(g3
(S'S3'
p7153
I0
I1
tp7154
Rp7155
(I3
S'|'
p7156
NNNI3
I1
I0
tp7157
bS'DEG'
p7158
tp7159
Rp7160
sS'AORESY5_1'
p7161
g2
(g3
(S'S3'
p7162
I0
I1
tp7163
Rp7164
(I3
S'|'
p7165
NNNI3
I1
I0
tp7166
bS'RAD'
p7167
tp7168
Rp7169
sS'AOSARES1'
p7170
g2
(g3
(S'S3'
p7171
I0
I1
tp7172
Rp7173
(I3
S'|'
p7174
NNNI3
I1
I0
tp7175
bS'DEG'
p7176
tp7177
Rp7178
sS'4RT591T'
p7179
g2
(g3
(S'S4'
p7180
I0
I1
tp7181
Rp7182
(I3
S'|'
p7183
NNNI4
I1
I0
tp7184
bS'DEGF'
p7185
tp7186
Rp7187
sS'TEP_PCU'
p7188
g2
(g3
(S'S4'
p7189
I0
I1
tp7190
Rp7191
(I3
S'|'
p7192
NNNI4
I1
I0
tp7193
bS'DEGF'
p7194
tp7195
Rp7196
sS'1DEP0BVO'
p7197
g2
(g3
(S'S1'
p7198
I0
I1
tp7199
Rp7200
(I3
S'|'
p7201
NNNI1
I1
I0
tp7202
bg45
tp7203
Rp7204
sS'4PRTAV'
p7205
g2
(g3
(S'S3'
p7206
I0
I1
tp7207
Rp7208
(I3
S'|'
p7209
NNNI3
I1
I0
tp7210
bS'VDC'
p7211
tp7212
Rp7213
sS'TMZP_MY'
p7214
g2
(g3
(S'S4'
p7215
I0
I1
tp7216
Rp7217
(I3
S'|'
p7218
NNNI4
I1
I0
tp7219
bS'DEGF'
p7220
tp7221
Rp7222
sS'AOCMDRT1'
p7223
g2
(g3
(S'S5'
p7224
I0
I1
tp7225
Rp7226
(I3
S'|'
p7227
NNNI5
I1
I0
tp7228
bS'RADPS'
p7229
tp7230
Rp7231
sS'CPCA15V'
p7232
g2
(g3
(S'S1'
p7233
I0
I1
tp7234
Rp7235
(I3
S'|'
p7236
NNNI1
I1
I0
tp7237
bg45
tp7238
Rp7239
sS'TMYHNG'
p7240
g2
(g3
(S'S4'
p7241
I0
I1
tp7242
Rp7243
(I3
S'|'
p7244
NNNI4
I1
I0
tp7245
bS'DEGF'
p7246
tp7247
Rp7248
sS'PLAEV3BT'
p7249
g2
(g3
(S'S4'
p7250
I0
I1
tp7251
Rp7252
(I3
S'|'
p7253
NNNI4
I1
I0
tp7254
bS'DEGF'
p7255
tp7256
Rp7257
sS'1DEICBCU'
p7258
g2
(g3
(S'S3'
p7259
I0
I1
tp7260
Rp7261
(I3
S'|'
p7262
NNNI3
I1
I0
tp7263
bS'AMP'
p7264
tp7265
Rp7266
sS'POLAEV4AT'
p7267
g2
(g3
(S'S4'
p7268
I0
I1
tp7269
Rp7270
(I3
S'|'
p7271
NNNI4
I1
I0
tp7272
bS'DEGF'
p7273
tp7274
Rp7275
sS'PLINE12T'
p7276
g2
(g3
(S'S4'
p7277
I0
I1
tp7278
Rp7279
(I3
S'|'
p7280
NNNI4
I1
I0
tp7281
bS'DEGF'
p7282
tp7283
Rp7284
sS'AIRU2VFT'
p7285
g2
(g3
(S'S4'
p7286
I0
I1
tp7287
Rp7288
(I3
S'|'
p7289
NNNI4
I1
I0
tp7290
bS'DEGF'
p7291
tp7292
Rp7293
sS'EOESAT1C'
p7294
g2
(g3
(S'S4'
p7295
I0
I1
tp7296
Rp7297
(I3
S'|'
p7298
NNNI4
I1
I0
tp7299
bS'DEGF'
p7300
tp7301
Rp7302
sS'C28VMONB'
p7303
g2
(g3
(S'S1'
p7304
I0
I1
tp7305
Rp7306
(I3
S'|'
p7307
NNNI1
I1
I0
tp7308
bg45
tp7309
Rp7310
sS'AOADBCH2A_NBG'
p7311
g2
(g3
(S'S3'
p7312
I0
I1
tp7313
Rp7314
(I3
S'|'
p7315
NNNI3
I1
I0
tp7316
bS'DEG'
p7317
tp7318
Rp7319
sS'AOADACH2A_PCAD'
p7320
g2
(g3
(S'S3'
p7321
I0
I1
tp7322
Rp7323
(I3
S'|'
p7324
NNNI3
I1
I0
tp7325
bS'DEG'
p7326
tp7327
Rp7328
sS'3TSPZDET'
p7329
g2
(g3
(S'S4'
p7330
I0
I1
tp7331
Rp7332
(I3
S'|'
p7333
NNNI4
I1
I0
tp7334
bS'DEGC'
p7335
tp7336
Rp7337
sS'AORWINT5'
p7338
g2
(g3
(S'S4'
p7339
I0
I1
tp7340
Rp7341
(I3
S'|'
p7342
NNNI4
I1
I0
tp7343
bS'MSEC'
p7344
tp7345
Rp7346
sS'TPYSADA'
p7347
g2
(g3
(S'S4'
p7348
I0
I1
tp7349
Rp7350
(I3
S'|'
p7351
NNNI4
I1
I0
tp7352
bS'DEGF'
p7353
tp7354
Rp7355
sS'EORTDMN15D'
p7356
g2
(g3
(S'S4'
p7357
I0
I1
tp7358
Rp7359
(I3
S'|'
p7360
NNNI4
I1
I0
tp7361
bS'DEGF'
p7362
tp7363
Rp7364
sS'PLAED4DT'
p7365
g2
(g3
(S'S4'
p7366
I0
I1
tp7367
Rp7368
(I3
S'|'
p7369
NNNI4
I1
I0
tp7370
bS'DEGF'
p7371
tp7372
Rp7373
sS'PHETANKP'
p7374
g2
(g3
(S'S4'
p7375
I0
I1
tp7376
Rp7377
(I3
S'|'
p7378
NNNI4
I1
I0
tp7379
bS'PSIA'
p7380
tp7381
Rp7382
sS'PLINE08T'
p7383
g2
(g3
(S'S4'
p7384
I0
I1
tp7385
Rp7386
(I3
S'|'
p7387
NNNI4
I1
I0
tp7388
bS'DEGF'
p7389
tp7390
Rp7391
sS'POLINE01T'
p7392
g2
(g3
(S'S4'
p7393
I0
I1
tp7394
Rp7395
(I3
S'|'
p7396
NNNI4
I1
I0
tp7397
bS'DEGF'
p7398
tp7399
Rp7400
sS'TPC_FSSE'
p7401
g2
(g3
(S'S4'
p7402
I0
I1
tp7403
Rp7404
(I3
S'|'
p7405
NNNI4
I1
I0
tp7406
bS'DEGF'
p7407
tp7408
Rp7409
sS'AFLC12BI'
p7410
g2
(g3
(S'S4'
p7411
I0
I1
tp7412
Rp7413
(I3
S'|'
p7414
NNNI4
I1
I0
tp7415
bS'MAMP'
p7416
tp7417
Rp7418
sS'CIUA5V'
p7419
g2
(g3
(S'S1'
p7420
I0
I1
tp7421
Rp7422
(I3
S'|'
p7423
NNNI1
I1
I0
tp7424
bg45
tp7425
Rp7426
sS'AFLC14AI'
p7427
g2
(g3
(S'S4'
p7428
I0
I1
tp7429
Rp7430
(I3
S'|'
p7431
NNNI4
I1
I0
tp7432
bS'MAMP'
p7433
tp7434
Rp7435
sS'TSCIUSF1'
p7436
g2
(g3
(S'S4'
p7437
I0
I1
tp7438
Rp7439
(I3
S'|'
p7440
NNNI4
I1
I0
tp7441
bS'DEGF'
p7442
tp7443
Rp7444
sS'PFTANKOP'
p7445
g2
(g3
(S'S4'
p7446
I0
I1
tp7447
Rp7448
(I3
S'|'
p7449
NNNI4
I1
I0
tp7450
bS'PSIA'
p7451
tp7452
Rp7453
sS'AOMANANG'
p7454
g2
(g3
(S'S3'
p7455
I0
I1
tp7456
Rp7457
(I3
S'|'
p7458
NNNI3
I1
I0
tp7459
bS'RAD'
p7460
tp7461
Rp7462
sS'3TTRALCT'
p7463
g2
(g3
(S'S4'
p7464
I0
I1
tp7465
Rp7466
(I3
S'|'
p7467
NNNI4
I1
I0
tp7468
bS'DEGC'
p7469
tp7470
Rp7471
sS'2P15VBVL'
p7472
g2
(g3
(S'S3'
p7473
I0
I1
tp7474
Rp7475
(I3
S'|'
p7476
NNNI3
I1
I0
tp7477
bS'VDC'
p7478
tp7479
Rp7480
sS'AORESZ4'
p7481
g2
(g3
(S'S3'
p7482
I0
I1
tp7483
Rp7484
(I3
S'|'
p7485
NNNI3
I1
I0
tp7486
bS'RAD'
p7487
tp7488
Rp7489
sS'AORESZ3'
p7490
g2
(g3
(S'S3'
p7491
I0
I1
tp7492
Rp7493
(I3
S'|'
p7494
NNNI3
I1
I0
tp7495
bS'RAD'
p7496
tp7497
Rp7498
sS'POM2THV1T'
p7499
g2
(g3
(S'S4'
p7500
I0
I1
tp7501
Rp7502
(I3
S'|'
p7503
NNNI4
I1
I0
tp7504
bS'DEGF'
p7505
tp7506
Rp7507
sS'AORESZ0'
p7508
g2
(g3
(S'S3'
p7509
I0
I1
tp7510
Rp7511
(I3
S'|'
p7512
NNNI3
I1
I0
tp7513
bS'RAD'
p7514
tp7515
Rp7516
sS'AORWNTQ4'
p7517
g2
(g3
(S'S4'
p7518
I0
I1
tp7519
Rp7520
(I3
S'|'
p7521
NNNI4
I1
I0
tp7522
bS'FTLB'
p7523
tp7524
Rp7525
sS'AORWNTQ5'
p7526
g2
(g3
(S'S4'
p7527
I0
I1
tp7528
Rp7529
(I3
S'|'
p7530
NNNI4
I1
I0
tp7531
bS'FTLB'
p7532
tp7533
Rp7534
sS'AORWNTQ6'
p7535
g2
(g3
(S'S4'
p7536
I0
I1
tp7537
Rp7538
(I3
S'|'
p7539
NNNI4
I1
I0
tp7540
bS'FTLB'
p7541
tp7542
Rp7543
sS'AORWMC6_1'
p7544
g2
(g3
(S'S7'
p7545
I0
I1
tp7546
Rp7547
(I3
S'|'
p7548
NNNI7
I1
I0
tp7549
bS'FTLBSEC'
p7550
tp7551
Rp7552
sS'AORWNTQ1'
p7553
g2
(g3
(S'S4'
p7554
I0
I1
tp7555
Rp7556
(I3
S'|'
p7557
NNNI4
I1
I0
tp7558
bS'FTLB'
p7559
tp7560
Rp7561
sS'AORWNTQ2'
p7562
g2
(g3
(S'S4'
p7563
I0
I1
tp7564
Rp7565
(I3
S'|'
p7566
NNNI4
I1
I0
tp7567
bS'FTLB'
p7568
tp7569
Rp7570
sS'AORWNTQ3'
p7571
g2
(g3
(S'S4'
p7572
I0
I1
tp7573
Rp7574
(I3
S'|'
p7575
NNNI4
I1
I0
tp7576
bS'FTLB'
p7577
tp7578
Rp7579
sS'AOSPBCS4B'
p7580
g2
(g3
(S'S4'
p7581
I0
I1
tp7582
Rp7583
(I3
S'|'
p7584
NNNI4
I1
I0
tp7585
bS'MAMP'
p7586
tp7587
Rp7588
sS'4RT567T'
p7589
g2
(g3
(S'S4'
p7590
I0
I1
tp7591
Rp7592
(I3
S'|'
p7593
NNNI4
I1
I0
tp7594
bS'DEGF'
p7595
tp7596
Rp7597
sS'4PRT1BT'
p7598
g2
(g3
(S'S4'
p7599
I0
I1
tp7600
Rp7601
(I3
S'|'
p7602
NNNI4
I1
I0
tp7603
bS'DEGF'
p7604
tp7605
Rp7606
sS'TRSPOTPC'
p7607
g2
(g3
(S'S4'
p7608
I0
I1
tp7609
Rp7610
(I3
S'|'
p7611
NNNI4
I1
I0
tp7612
bS'DEGF'
p7613
tp7614
Rp7615
sS'TCM_OBC'
p7616
g2
(g3
(S'S4'
p7617
I0
I1
tp7618
Rp7619
(I3
S'|'
p7620
NNNI4
I1
I0
tp7621
bS'DEGF'
p7622
tp7623
Rp7624
sS'AORWMC1'
p7625
g2
(g3
(S'S7'
p7626
I0
I1
tp7627
Rp7628
(I3
S'|'
p7629
NNNI7
I1
I0
tp7630
bS'FTLBSEC'
p7631
tp7632
Rp7633
sS'AORWMC4'
p7634
g2
(g3
(S'S7'
p7635
I0
I1
tp7636
Rp7637
(I3
S'|'
p7638
NNNI7
I1
I0
tp7639
bS'FTLBSEC'
p7640
tp7641
Rp7642
sS'AORWMC5'
p7643
g2
(g3
(S'S7'
p7644
I0
I1
tp7645
Rp7646
(I3
S'|'
p7647
NNNI7
I1
I0
tp7648
bS'FTLBSEC'
p7649
tp7650
Rp7651
sS'TB1T2'
p7652
g2
(g3
(S'S4'
p7653
I0
I1
tp7654
Rp7655
(I3
S'|'
p7656
NNNI4
I1
I0
tp7657
bS'DEGF'
p7658
tp7659
Rp7660
sS'PM1THV2T'
p7661
g2
(g3
(S'S4'
p7662
I0
I1
tp7663
Rp7664
(I3
S'|'
p7665
NNNI4
I1
I0
tp7666
bS'DEGF'
p7667
tp7668
Rp7669
sS'EB3DI'
p7670
g2
(g3
(S'S3'
p7671
I0
I1
tp7672
Rp7673
(I3
S'|'
p7674
NNNI3
I1
I0
tp7675
bS'AMP'
p7676
tp7677
Rp7678
sS'AOSCPOS1'
p7679
g2
(g3
(S'S2'
p7680
I0
I1
tp7681
Rp7682
(I3
S'|'
p7683
NNNI2
I1
I0
tp7684
bS'KM'
p7685
tp7686
Rp7687
sS'AOSCPOS2'
p7688
g2
(g3
(S'S2'
p7689
I0
I1
tp7690
Rp7691
(I3
S'|'
p7692
NNNI2
I1
I0
tp7693
bS'KM'
p7694
tp7695
Rp7696
sS'4RT569T'
p7697
g2
(g3
(S'S4'
p7698
I0
I1
tp7699
Rp7700
(I3
S'|'
p7701
NNNI4
I1
I0
tp7702
bS'DEGF'
p7703
tp7704
Rp7705
sS'4RT588T'
p7706
g2
(g3
(S'S4'
p7707
I0
I1
tp7708
Rp7709
(I3
S'|'
p7710
NNNI4
I1
I0
tp7711
bS'DEGF'
p7712
tp7713
Rp7714
sS'PCM01T'
p7715
g2
(g3
(S'S4'
p7716
I0
I1
tp7717
Rp7718
(I3
S'|'
p7719
NNNI4
I1
I0
tp7720
bS'DEGF'
p7721
tp7722
Rp7723
sS'4RT596T'
p7724
g2
(g3
(S'S4'
p7725
I0
I1
tp7726
Rp7727
(I3
S'|'
p7728
NNNI4
I1
I0
tp7729
bS'DEGF'
p7730
tp7731
Rp7732
sS'AI1AX1X'
p7733
g2
(g3
(S'S5'
p7734
I0
I1
tp7735
Rp7736
(I3
S'|'
p7737
NNNI5
I1
I0
tp7738
bS'DEGPS'
p7739
tp7740
Rp7741
sS'AI1AX1Y'
p7742
g2
(g3
(S'S5'
p7743
I0
I1
tp7744
Rp7745
(I3
S'|'
p7746
NNNI5
I1
I0
tp7747
bS'DEGPS'
p7748
tp7749
Rp7750
sS'OOBTHR53'
p7751
g2
(g3
(S'S4'
p7752
I0
I1
tp7753
Rp7754
(I3
S'|'
p7755
NNNI4
I1
I0
tp7756
bS'DEGF'
p7757
tp7758
Rp7759
sS'OOBTHR52'
p7760
g2
(g3
(S'S4'
p7761
I0
I1
tp7762
Rp7763
(I3
S'|'
p7764
NNNI4
I1
I0
tp7765
bS'DEGF'
p7766
tp7767
Rp7768
sS'OOBTHR55'
p7769
g2
(g3
(S'S4'
p7770
I0
I1
tp7771
Rp7772
(I3
S'|'
p7773
NNNI4
I1
I0
tp7774
bS'DEGF'
p7775
tp7776
Rp7777
sS'EORTDMN13D'
p7778
g2
(g3
(S'S4'
p7779
I0
I1
tp7780
Rp7781
(I3
S'|'
p7782
NNNI4
I1
I0
tp7783
bS'DEGF'
p7784
tp7785
Rp7786
sS'OOBTHR57'
p7787
g2
(g3
(S'S4'
p7788
I0
I1
tp7789
Rp7790
(I3
S'|'
p7791
NNNI4
I1
I0
tp7792
bS'DEGF'
p7793
tp7794
Rp7795
sS'OOBTHR56'
p7796
g2
(g3
(S'S4'
p7797
I0
I1
tp7798
Rp7799
(I3
S'|'
p7800
NNNI4
I1
I0
tp7801
bS'DEGF'
p7802
tp7803
Rp7804
sS'OOBTHR59'
p7805
g2
(g3
(S'S4'
p7806
I0
I1
tp7807
Rp7808
(I3
S'|'
p7809
NNNI4
I1
I0
tp7810
bS'DEGF'
p7811
tp7812
Rp7813
sS'OOBTHR58'
p7814
g2
(g3
(S'S4'
p7815
I0
I1
tp7816
Rp7817
(I3
S'|'
p7818
NNNI4
I1
I0
tp7819
bS'DEGF'
p7820
tp7821
Rp7822
sS'1SSMYT'
p7823
g2
(g3
(S'S4'
p7824
I0
I1
tp7825
Rp7826
(I3
S'|'
p7827
NNNI4
I1
I0
tp7828
bS'DEGC'
p7829
tp7830
Rp7831
sS'CTXBV'
p7832
g2
(g3
(S'S1'
p7833
I0
I1
tp7834
Rp7835
(I3
S'|'
p7836
NNNI1
I1
I0
tp7837
bg45
tp7838
Rp7839
sS'4PRT2BT'
p7840
g2
(g3
(S'S4'
p7841
I0
I1
tp7842
Rp7843
(I3
S'|'
p7844
NNNI4
I1
I0
tp7845
bS'DEGF'
p7846
tp7847
Rp7848
sS'ARWA6BT'
p7849
g2
(g3
(S'S4'
p7850
I0
I1
tp7851
Rp7852
(I3
S'|'
p7853
NNNI4
I1
I0
tp7854
bS'DEGF'
p7855
tp7856
Rp7857
sS'4RT575T'
p7858
g2
(g3
(S'S4'
p7859
I0
I1
tp7860
Rp7861
(I3
S'|'
p7862
NNNI4
I1
I0
tp7863
bS'DEGF'
p7864
tp7865
Rp7866
sS'CPA1BPT'
p7867
g2
(g3
(S'S4'
p7868
I0
I1
tp7869
Rp7870
(I3
S'|'
p7871
NNNI4
I1
I0
tp7872
bS'DEGF'
p7873
tp7874
Rp7875
sS'PM4THV2T'
p7876
g2
(g3
(S'S4'
p7877
I0
I1
tp7878
Rp7879
(I3
S'|'
p7880
NNNI4
I1
I0
tp7881
bS'DEGF'
p7882
tp7883
Rp7884
sS'TPC_PAN'
p7885
g2
(g3
(S'S4'
p7886
I0
I1
tp7887
Rp7888
(I3
S'|'
p7889
NNNI4
I1
I0
tp7890
bS'DEGF'
p7891
tp7892
Rp7893
sS'2PMT1T'
p7894
g2
(g3
(S'S4'
p7895
I0
I1
tp7896
Rp7897
(I3
S'|'
p7898
NNNI4
I1
I0
tp7899
bS'DEGC'
p7900
tp7901
Rp7902
sS'CIUA15V'
p7903
g2
(g3
(S'S1'
p7904
I0
I1
tp7905
Rp7906
(I3
S'|'
p7907
NNNI1
I1
I0
tp7908
bg45
tp7909
Rp7910
sS'1DPAMZT'
p7911
g2
(g3
(S'S4'
p7912
I0
I1
tp7913
Rp7914
(I3
S'|'
p7915
NNNI4
I1
I0
tp7916
bS'DEGC'
p7917
tp7918
Rp7919
sS'EIACVBV'
p7920
g2
(g3
(S'S1'
p7921
I0
I1
tp7922
Rp7923
(I3
S'|'
p7924
NNNI1
I1
I0
tp7925
bg45
tp7926
Rp7927
sS'4PRTBV'
p7928
g2
(g3
(S'S3'
p7929
I0
I1
tp7930
Rp7931
(I3
S'|'
p7932
NNNI3
I1
I0
tp7933
bS'VDC'
p7934
tp7935
Rp7936
sS'4RT703T'
p7937
g2
(g3
(S'S4'
p7938
I0
I1
tp7939
Rp7940
(I3
S'|'
p7941
NNNI4
I1
I0
tp7942
bS'DEGF'
p7943
tp7944
Rp7945
sS'1DAHHBVO'
p7946
g2
(g3
(S'S1'
p7947
I0
I1
tp7948
Rp7949
(I3
S'|'
p7950
NNNI1
I1
I0
tp7951
bg45
tp7952
Rp7953
sS'1DEP1AVO'
p7954
g2
(g3
(S'S1'
p7955
I0
I1
tp7956
Rp7957
(I3
S'|'
p7958
NNNI1
I1
I0
tp7959
bg45
tp7960
Rp7961
sS'1VAHOBT'
p7962
g2
(g3
(S'S4'
p7963
I0
I1
tp7964
Rp7965
(I3
S'|'
p7966
NNNI4
I1
I0
tp7967
bS'DEGC'
p7968
tp7969
Rp7970
sS'1MAHOBT'
p7971
g2
(g3
(S'S4'
p7972
I0
I1
tp7973
Rp7974
(I3
S'|'
p7975
NNNI4
I1
I0
tp7976
bS'DEGC'
p7977
tp7978
Rp7979
sS'CXPNAIT'
p7980
g2
(g3
(S'S4'
p7981
I0
I1
tp7982
Rp7983
(I3
S'|'
p7984
NNNI4
I1
I0
tp7985
bS'DEGF'
p7986
tp7987
Rp7988
sS'4ALL1AT'
p7989
g2
(g3
(S'S4'
p7990
I0
I1
tp7991
Rp7992
(I3
S'|'
p7993
NNNI4
I1
I0
tp7994
bS'DEGF'
p7995
tp7996
Rp7997
sS'CRXBLS'
p7998
g2
(g3
(S'S3'
p7999
I0
I1
tp8000
Rp8001
(I3
S'|'
p8002
NNNI3
I1
I0
tp8003
bS'KHZ'
p8004
tp8005
Rp8006
sS'PMTANK1T'
p8007
g2
(g3
(S'S4'
p8008
I0
I1
tp8009
Rp8010
(I3
S'|'
p8011
NNNI4
I1
I0
tp8012
bS'DEGF'
p8013
tp8014
Rp8015
sS'OHRTHR49'
p8016
g2
(g3
(S'S4'
p8017
I0
I1
tp8018
Rp8019
(I3
S'|'
p8020
NNNI4
I1
I0
tp8021
bS'DEGF'
p8022
tp8023
Rp8024
sS'POLINE12T'
p8025
g2
(g3
(S'S4'
p8026
I0
I1
tp8027
Rp8028
(I3
S'|'
p8029
NNNI4
I1
I0
tp8030
bS'DEGF'
p8031
tp8032
Rp8033
sS'EOEB3DIC'
p8034
g2
(g3
(S'S3'
p8035
I0
I1
tp8036
Rp8037
(I3
S'|'
p8038
NNNI3
I1
I0
tp8039
bS'AMP'
p8040
tp8041
Rp8042
sS'OHRTHR45'
p8043
g2
(g3
(S'S4'
p8044
I0
I1
tp8045
Rp8046
(I3
S'|'
p8047
NNNI4
I1
I0
tp8048
bS'DEGF'
p8049
tp8050
Rp8051
sS'OHRTHR44'
p8052
g2
(g3
(S'S4'
p8053
I0
I1
tp8054
Rp8055
(I3
S'|'
p8056
NNNI4
I1
I0
tp8057
bS'DEGF'
p8058
tp8059
Rp8060
sS'OHRTHR47'
p8061
g2
(g3
(S'S4'
p8062
I0
I1
tp8063
Rp8064
(I3
S'|'
p8065
NNNI4
I1
I0
tp8066
bS'DEGF'
p8067
tp8068
Rp8069
sS'OHRTHR46'
p8070
g2
(g3
(S'S4'
p8071
I0
I1
tp8072
Rp8073
(I3
S'|'
p8074
NNNI4
I1
I0
tp8075
bS'DEGF'
p8076
tp8077
Rp8078
sS'AOADACH1A_NBG'
p8079
g2
(g3
(S'S3'
p8080
I0
I1
tp8081
Rp8082
(I3
S'|'
p8083
NNNI3
I1
I0
tp8084
bS'DEG'
p8085
tp8086
Rp8087
sS'OHRTHR40'
p8088
g2
(g3
(S'S4'
p8089
I0
I1
tp8090
Rp8091
(I3
S'|'
p8092
NNNI4
I1
I0
tp8093
bS'DEGF'
p8094
tp8095
Rp8096
sS'OHRTHR43'
p8097
g2
(g3
(S'S4'
p8098
I0
I1
tp8099
Rp8100
(I3
S'|'
p8101
NNNI4
I1
I0
tp8102
bS'DEGF'
p8103
tp8104
Rp8105
sS'OHRTHR42'
p8106
g2
(g3
(S'S4'
p8107
I0
I1
tp8108
Rp8109
(I3
S'|'
p8110
NNNI4
I1
I0
tp8111
bS'DEGF'
p8112
tp8113
Rp8114
sS'AWD2TQI'
p8115
g2
(g3
(S'S3'
p8116
I0
I1
tp8117
Rp8118
(I3
S'|'
p8119
NNNI3
I1
I0
tp8120
bS'AMP'
p8121
tp8122
Rp8123
sS'4LPOSARO'
p8124
g2
(g3
(S'S3'
p8125
I0
I1
tp8126
Rp8127
(I3
S'|'
p8128
NNNI3
I1
I0
tp8129
bS'DEG'
p8130
tp8131
Rp8132
sS'PCM03T'
p8133
g2
(g3
(S'S4'
p8134
I0
I1
tp8135
Rp8136
(I3
S'|'
p8137
NNNI4
I1
I0
tp8138
bS'DEGF'
p8139
tp8140
Rp8141
sS'EOEB1DIC'
p8142
g2
(g3
(S'S3'
p8143
I0
I1
tp8144
Rp8145
(I3
S'|'
p8146
NNNI3
I1
I0
tp8147
bS'AMP'
p8148
tp8149
Rp8150
sS'TASPPCU'
p8151
g2
(g3
(S'S4'
p8152
I0
I1
tp8153
Rp8154
(I3
S'|'
p8155
NNNI4
I1
I0
tp8156
bS'DEGF'
p8157
tp8158
Rp8159
sS'PCM04T'
p8160
g2
(g3
(S'S4'
p8161
I0
I1
tp8162
Rp8163
(I3
S'|'
p8164
NNNI4
I1
I0
tp8165
bS'DEGF'
p8166
tp8167
Rp8168
sS'4RT708T'
p8169
g2
(g3
(S'S4'
p8170
I0
I1
tp8171
Rp8172
(I3
S'|'
p8173
NNNI4
I1
I0
tp8174
bS'DEGF'
p8175
tp8176
Rp8177
sS'OOBAGRD6'
p8178
g2
(g3
(S'S4'
p8179
I0
I1
tp8180
Rp8181
(I3
S'|'
p8182
NNNI4
I1
I0
tp8183
bS'DEGF'
p8184
tp8185
Rp8186
sS'TB1T3'
p8187
g2
(g3
(S'S4'
p8188
I0
I1
tp8189
Rp8190
(I3
S'|'
p8191
NNNI4
I1
I0
tp8192
bS'DEGF'
p8193
tp8194
Rp8195
sS'TEP_EIA'
p8196
g2
(g3
(S'S4'
p8197
I0
I1
tp8198
Rp8199
(I3
S'|'
p8200
NNNI4
I1
I0
tp8201
bS'DEGF'
p8202
tp8203
Rp8204
sS'TB1T1'
p8205
g2
(g3
(S'S4'
p8206
I0
I1
tp8207
Rp8208
(I3
S'|'
p8209
NNNI4
I1
I0
tp8210
bS'DEGF'
p8211
tp8212
Rp8213
sS'OOBAGRD3'
p8214
g2
(g3
(S'S4'
p8215
I0
I1
tp8216
Rp8217
(I3
S'|'
p8218
NNNI4
I1
I0
tp8219
bS'DEGF'
p8220
tp8221
Rp8222
sS'PLAED1FT'
p8223
g2
(g3
(S'S4'
p8224
I0
I1
tp8225
Rp8226
(I3
S'|'
p8227
NNNI4
I1
I0
tp8228
bS'DEGF'
p8229
tp8230
Rp8231
sS'EB3CI'
p8232
g2
(g3
(S'S3'
p8233
I0
I1
tp8234
Rp8235
(I3
S'|'
p8236
NNNI3
I1
I0
tp8237
bS'AMP'
p8238
tp8239
Rp8240
sS'AORESZ1_1'
p8241
g2
(g3
(S'S3'
p8242
I0
I1
tp8243
Rp8244
(I3
S'|'
p8245
NNNI3
I1
I0
tp8246
bS'RAD'
p8247
tp8248
Rp8249
sS'TATECDPT'
p8250
g2
(g3
(S'S4'
p8251
I0
I1
tp8252
Rp8253
(I3
S'|'
p8254
NNNI4
I1
I0
tp8255
bS'DEGF'
p8256
tp8257
Rp8258
sS'4RT581T'
p8259
g2
(g3
(S'S4'
p8260
I0
I1
tp8261
Rp8262
(I3
S'|'
p8263
NNNI4
I1
I0
tp8264
bS'DEGF'
p8265
tp8266
Rp8267
sS'1HOPRBPR'
p8268
g2
(g3
(S'S4'
p8269
I0
I1
tp8270
Rp8271
(I3
S'|'
p8272
NNNI4
I1
I0
tp8273
bS'TORR'
p8274
tp8275
Rp8276
sS'1CRBT'
p8277
g2
(g3
(S'S4'
p8278
I0
I1
tp8279
Rp8280
(I3
S'|'
p8281
NNNI4
I1
I0
tp8282
bS'DEGC'
p8283
tp8284
Rp8285
sS'OHRTHR26'
p8286
g2
(g3
(S'S4'
p8287
I0
I1
tp8288
Rp8289
(I3
S'|'
p8290
NNNI4
I1
I0
tp8291
bS'DEGF'
p8292
tp8293
Rp8294
sS'AWD6TQI'
p8295
g2
(g3
(S'S3'
p8296
I0
I1
tp8297
Rp8298
(I3
S'|'
p8299
NNNI3
I1
I0
tp8300
bS'AMP'
p8301
tp8302
Rp8303
s.