(dp0
S'AORWPI4B'
p1
cnumpy.core.multiarray
scalar
p2
(cnumpy
dtype
p3
(S'S4'
p4
I0
I1
tp5
Rp6
(I3
S'|'
p7
NNNI4
I1
I0
tp8
bS'MSEC'
p9
tp10
Rp11
sS'1DEAMZT'
p12
g2
(g3
(S'S4'
p13
I0
I1
tp14
Rp15
(I3
S'|'
p16
NNNI4
I1
I0
tp17
bS'DEGC'
p18
tp19
Rp20
sS'PLINE16T'
p21
g2
(g3
(S'S4'
p22
I0
I1
tp23
Rp24
(I3
S'|'
p25
NNNI4
I1
I0
tp26
bS'DEGF'
p27
tp28
Rp29
sS'EORTDMN18D'
p30
g2
(g3
(S'S4'
p31
I0
I1
tp32
Rp33
(I3
S'|'
p34
NNNI4
I1
I0
tp35
bS'DEGF'
p36
tp37
Rp38
sS'CTXAV'
p39
g2
(g3
(S'S1'
p40
I0
I1
tp41
Rp42
(I3
S'|'
p43
NNNI1
I1
I0
tp44
bS'V'
p45
tp46
Rp47
sS'TFSPPCM'
p48
g2
(g3
(S'S4'
p49
I0
I1
tp50
Rp51
(I3
S'|'
p52
NNNI4
I1
I0
tp53
bS'DEGF'
p54
tp55
Rp56
sS'EB1CI'
p57
g2
(g3
(S'S3'
p58
I0
I1
tp59
Rp60
(I3
S'|'
p61
NNNI3
I1
I0
tp62
bS'AMP'
p63
tp64
Rp65
sS'OHRTHR38'
p66
g2
(g3
(S'S4'
p67
I0
I1
tp68
Rp69
(I3
S'|'
p70
NNNI4
I1
I0
tp71
bS'DEGF'
p72
tp73
Rp74
sS'OHRTHR39'
p75
g2
(g3
(S'S4'
p76
I0
I1
tp77
Rp78
(I3
S'|'
p79
NNNI4
I1
I0
tp80
bS'DEGF'
p81
tp82
Rp83
sS'TFSPPCP'
p84
g2
(g3
(S'S4'
p85
I0
I1
tp86
Rp87
(I3
S'|'
p88
NNNI4
I1
I0
tp89
bS'DEGF'
p90
tp91
Rp92
sS'ASPEFSW3B'
p93
g2
(g3
(S'S3'
p94
I0
I1
tp95
Rp96
(I3
S'|'
p97
NNNI3
I1
I0
tp98
bS'DEG'
p99
tp100
Rp101
sS'CUSOAOVN'
p102
g2
(g3
(S'S1'
p103
I0
I1
tp104
Rp105
(I3
S'|'
p106
NNNI1
I1
I0
tp107
bS'W'
p108
tp109
Rp110
sS'OHRTHR30'
p111
g2
(g3
(S'S4'
p112
I0
I1
tp113
Rp114
(I3
S'|'
p115
NNNI4
I1
I0
tp116
bS'DEGF'
p117
tp118
Rp119
sS'OHRTHR31'
p120
g2
(g3
(S'S4'
p121
I0
I1
tp122
Rp123
(I3
S'|'
p124
NNNI4
I1
I0
tp125
bS'DEGF'
p126
tp127
Rp128
sS'OHRTHR33'
p129
g2
(g3
(S'S4'
p130
I0
I1
tp131
Rp132
(I3
S'|'
p133
NNNI4
I1
I0
tp134
bS'DEGF'
p135
tp136
Rp137
sS'1DPP0BVO'
p138
g2
(g3
(S'S1'
p139
I0
I1
tp140
Rp141
(I3
S'|'
p142
NNNI1
I1
I0
tp143
bg45
tp144
Rp145
sS'OHRTHR35'
p146
g2
(g3
(S'S4'
p147
I0
I1
tp148
Rp149
(I3
S'|'
p150
NNNI4
I1
I0
tp151
bS'DEGF'
p152
tp153
Rp154
sS'OHRTHR36'
p155
g2
(g3
(S'S4'
p156
I0
I1
tp157
Rp158
(I3
S'|'
p159
NNNI4
I1
I0
tp160
bS'DEGF'
p161
tp162
Rp163
sS'OHRTHR37'
p164
g2
(g3
(S'S4'
p165
I0
I1
tp166
Rp167
(I3
S'|'
p168
NNNI4
I1
I0
tp169
bS'DEGF'
p170
tp171
Rp172
sS'EORTDMN11D'
p173
g2
(g3
(S'S4'
p174
I0
I1
tp175
Rp176
(I3
S'|'
p177
NNNI4
I1
I0
tp178
bS'DEGF'
p179
tp180
Rp181
sS'AFLC11BI'
p182
g2
(g3
(S'S4'
p183
I0
I1
tp184
Rp185
(I3
S'|'
p186
NNNI4
I1
I0
tp187
bS'MAMP'
p188
tp189
Rp190
sS'AORWMC3_1'
p191
g2
(g3
(S'S7'
p192
I0
I1
tp193
Rp194
(I3
S'|'
p195
NNNI7
I1
I0
tp196
bS'FTLBSEC'
p197
tp198
Rp199
sS'PLAED2FT'
p200
g2
(g3
(S'S4'
p201
I0
I1
tp202
Rp203
(I3
S'|'
p204
NNNI4
I1
I0
tp205
bS'DEGF'
p206
tp207
Rp208
sS'TEPHIN'
p209
g2
(g3
(S'S4'
p210
I0
I1
tp211
Rp212
(I3
S'|'
p213
NNNI4
I1
I0
tp214
bS'DEGF'
p215
tp216
Rp217
sS'3TTHRC1T'
p218
g2
(g3
(S'S4'
p219
I0
I1
tp220
Rp221
(I3
S'|'
p222
NNNI4
I1
I0
tp223
bS'DEGC'
p224
tp225
Rp226
sS'1PDEAAT'
p227
g2
(g3
(S'S4'
p228
I0
I1
tp229
Rp230
(I3
S'|'
p231
NNNI4
I1
I0
tp232
bS'DEGC'
p233
tp234
Rp235
sS'ELBI_LOW'
p236
g2
(g3
(S'S3'
p237
I0
I1
tp238
Rp239
(I3
S'|'
p240
NNNI3
I1
I0
tp241
bS'AMP'
p242
tp243
Rp244
sS'4RT562T'
p245
g2
(g3
(S'S4'
p246
I0
I1
tp247
Rp248
(I3
S'|'
p249
NNNI4
I1
I0
tp250
bS'DEGF'
p251
tp252
Rp253
sS'4PRT1AT'
p254
g2
(g3
(S'S4'
p255
I0
I1
tp256
Rp257
(I3
S'|'
p258
NNNI4
I1
I0
tp259
bS'DEGF'
p260
tp261
Rp262
sS'AORWMOM1'
p263
g2
(g3
(S'S7'
p264
I0
I1
tp265
Rp266
(I3
S'|'
p267
NNNI7
I1
I0
tp268
bS'FTLBSEC'
p269
tp270
Rp271
sS'TMZP_PY'
p272
g2
(g3
(S'S4'
p273
I0
I1
tp274
Rp275
(I3
S'|'
p276
NNNI4
I1
I0
tp277
bS'DEGF'
p278
tp279
Rp280
sS'4RT710T'
p281
g2
(g3
(S'S4'
p282
I0
I1
tp283
Rp284
(I3
S'|'
p285
NNNI4
I1
I0
tp286
bS'DEGF'
p287
tp288
Rp289
sS'ASPEB5CV'
p290
g2
(g3
(S'S1'
p291
I0
I1
tp292
Rp293
(I3
S'|'
p294
NNNI1
I1
I0
tp295
bg45
tp296
Rp297
sS'TMP_FEP0_RAM'
p298
S'DEGC'
p299
sS'AOZABR'
p300
g2
(g3
(S'S3'
p301
I0
I1
tp302
Rp303
(I3
S'|'
p304
NNNI3
I1
I0
tp305
bS'RAD'
p306
tp307
Rp308
sS'AORESZ5_1'
p309
g2
(g3
(S'S3'
p310
I0
I1
tp311
Rp312
(I3
S'|'
p313
NNNI3
I1
I0
tp314
bS'RAD'
p315
tp316
Rp317
sS'TB2T3'
p318
g2
(g3
(S'S4'
p319
I0
I1
tp320
Rp321
(I3
S'|'
p322
NNNI4
I1
I0
tp323
bS'DEGF'
p324
tp325
Rp326
sS'TB2T2'
p327
g2
(g3
(S'S4'
p328
I0
I1
tp329
Rp330
(I3
S'|'
p331
NNNI4
I1
I0
tp332
bS'DEGF'
p333
tp334
Rp335
sS'PLINE06T'
p336
g2
(g3
(S'S4'
p337
I0
I1
tp338
Rp339
(I3
S'|'
p340
NNNI4
I1
I0
tp341
bS'DEGF'
p342
tp343
Rp344
sS'AOADBCH1A_PCAD'
p345
g2
(g3
(S'S3'
p346
I0
I1
tp347
Rp348
(I3
S'|'
p349
NNNI3
I1
I0
tp350
bS'DEG'
p351
tp352
Rp353
sS'AORWPI3B'
p354
g2
(g3
(S'S4'
p355
I0
I1
tp356
Rp357
(I3
S'|'
p358
NNNI4
I1
I0
tp359
bS'MSEC'
p360
tp361
Rp362
sS'1DAHAVO'
p363
g2
(g3
(S'S1'
p364
I0
I1
tp365
Rp366
(I3
S'|'
p367
NNNI1
I1
I0
tp368
bg45
tp369
Rp370
sS'PXTANK2T'
p371
g2
(g3
(S'S4'
p372
I0
I1
tp373
Rp374
(I3
S'|'
p375
NNNI4
I1
I0
tp376
bS'DEGF'
p377
tp378
Rp379
sS'TPCP_RW3'
p380
g2
(g3
(S'S4'
p381
I0
I1
tp382
Rp383
(I3
S'|'
p384
NNNI4
I1
I0
tp385
bS'DEGF'
p386
tp387
Rp388
sS'3TSMYDPT'
p389
g2
(g3
(S'S4'
p390
I0
I1
tp391
Rp392
(I3
S'|'
p393
NNNI4
I1
I0
tp394
bS'DEGC'
p395
tp396
Rp397
sS'PR1TV02T'
p398
g2
(g3
(S'S4'
p399
I0
I1
tp400
Rp401
(I3
S'|'
p402
NNNI4
I1
I0
tp403
bS'DEGF'
p404
tp405
Rp406
sS'3TTACS1T'
p407
g2
(g3
(S'S4'
p408
I0
I1
tp409
Rp410
(I3
S'|'
p411
NNNI4
I1
I0
tp412
bS'DEGC'
p413
tp414
Rp415
sS'AORESY2_1'
p416
g2
(g3
(S'S3'
p417
I0
I1
tp418
Rp419
(I3
S'|'
p420
NNNI3
I1
I0
tp421
bS'RAD'
p422
tp423
Rp424
sS'PHOFP1T'
p425
g2
(g3
(S'S4'
p426
I0
I1
tp427
Rp428
(I3
S'|'
p429
NNNI4
I1
I0
tp430
bS'DEGF'
p431
tp432
Rp433
sS'4MP5AV'
p434
g2
(g3
(S'S3'
p435
I0
I1
tp436
Rp437
(I3
S'|'
p438
NNNI3
I1
I0
tp439
bS'VDC'
p440
tp441
Rp442
sS'AORTERR2'
p443
g2
(g3
(S'S5'
p444
I0
I1
tp445
Rp446
(I3
S'|'
p447
NNNI5
I1
I0
tp448
bS'RADPS'
p449
tp450
Rp451
sS'CUSOA28V'
p452
g2
(g3
(S'S1'
p453
I0
I1
tp454
Rp455
(I3
S'|'
p456
NNNI1
I1
I0
tp457
bg45
tp458
Rp459
sS'OOBTHR34'
p460
g2
(g3
(S'S4'
p461
I0
I1
tp462
Rp463
(I3
S'|'
p464
NNNI4
I1
I0
tp465
bS'DEGF'
p466
tp467
Rp468
sS'AVACMON'
p469
g2
(g3
(S'S4'
p470
I0
I1
tp471
Rp472
(I3
S'|'
p473
NNNI4
I1
I0
tp474
bS'DEGC'
p475
tp476
Rp477
sS'EOECNV2C'
p478
g2
(g3
(S'S1'
p479
I0
I1
tp480
Rp481
(I3
S'|'
p482
NNNI1
I1
I0
tp483
bg45
tp484
Rp485
sS'OOBTHR33'
p486
g2
(g3
(S'S4'
p487
I0
I1
tp488
Rp489
(I3
S'|'
p490
NNNI4
I1
I0
tp491
bS'DEGF'
p492
tp493
Rp494
sS'AOATTER3'
p495
g2
(g3
(S'S3'
p496
I0
I1
tp497
Rp498
(I3
S'|'
p499
NNNI3
I1
I0
tp500
bS'RAD'
p501
tp502
Rp503
sS'TAPEA1T'
p504
g2
(g3
(S'S4'
p505
I0
I1
tp506
Rp507
(I3
S'|'
p508
NNNI4
I1
I0
tp509
bS'DEGF'
p510
tp511
Rp512
sS'ES1P5CV'
p513
g2
(g3
(S'S1'
p514
I0
I1
tp515
Rp516
(I3
S'|'
p517
NNNI1
I1
I0
tp518
bg45
tp519
Rp520
sS'EOESAC1C'
p521
g2
(g3
(S'S3'
p522
I0
I1
tp523
Rp524
(I3
S'|'
p525
NNNI3
I1
I0
tp526
bS'AMP'
p527
tp528
Rp529
sS'OOBTHR18'
p530
g2
(g3
(S'S4'
p531
I0
I1
tp532
Rp533
(I3
S'|'
p534
NNNI4
I1
I0
tp535
bS'DEGF'
p536
tp537
Rp538
sS'PFTANKIP'
p539
g2
(g3
(S'S4'
p540
I0
I1
tp541
Rp542
(I3
S'|'
p543
NNNI4
I1
I0
tp544
bS'PSIA'
p545
tp546
Rp547
sS'CVEEP'
p548
g2
(g3
(S'S1'
p549
I0
I1
tp550
Rp551
(I3
S'|'
p552
NNNI1
I1
I0
tp553
bg45
tp554
Rp555
sS'OOBTHR14'
p556
g2
(g3
(S'S4'
p557
I0
I1
tp558
Rp559
(I3
S'|'
p560
NNNI4
I1
I0
tp561
bS'DEGF'
p562
tp563
Rp564
sS'OOBTHR17'
p565
g2
(g3
(S'S4'
p566
I0
I1
tp567
Rp568
(I3
S'|'
p569
NNNI4
I1
I0
tp570
bS'DEGF'
p571
tp572
Rp573
sS'OOBTHR30'
p574
g2
(g3
(S'S4'
p575
I0
I1
tp576
Rp577
(I3
S'|'
p578
NNNI4
I1
I0
tp579
bS'DEGF'
p580
tp581
Rp582
sS'OOBTHR11'
p583
g2
(g3
(S'S4'
p584
I0
I1
tp585
Rp586
(I3
S'|'
p587
NNNI4
I1
I0
tp588
bS'DEGF'
p589
tp590
Rp591
sS'OOBTHR10'
p592
g2
(g3
(S'S4'
p593
I0
I1
tp594
Rp595
(I3
S'|'
p596
NNNI4
I1
I0
tp597
bS'DEGF'
p598
tp599
Rp600
sS'ECNV2V'
p601
g2
(g3
(S'S1'
p602
I0
I1
tp603
Rp604
(I3
S'|'
p605
NNNI1
I1
I0
tp606
bg45
tp607
Rp608
sS'OOBTHR12'
p609
g2
(g3
(S'S4'
p610
I0
I1
tp611
Rp612
(I3
S'|'
p613
NNNI4
I1
I0
tp614
bS'DEGF'
p615
tp616
Rp617
sS'EOEB3CIC'
p618
g2
(g3
(S'S3'
p619
I0
I1
tp620
Rp621
(I3
S'|'
p622
NNNI3
I1
I0
tp623
bS'AMP'
p624
tp625
Rp626
sS'CUSOBOVN'
p627
g2
(g3
(S'S1'
p628
I0
I1
tp629
Rp630
(I3
S'|'
p631
NNNI1
I1
I0
tp632
bg108
tp633
Rp634
sS'EOEB1CIC'
p635
g2
(g3
(S'S3'
p636
I0
I1
tp637
Rp638
(I3
S'|'
p639
NNNI3
I1
I0
tp640
bS'AMP'
p641
tp642
Rp643
sS'TB3T1'
p644
g2
(g3
(S'S4'
p645
I0
I1
tp646
Rp647
(I3
S'|'
p648
NNNI4
I1
I0
tp649
bS'DEGF'
p650
tp651
Rp652
sS'4HLL1AT'
p653
g2
(g3
(S'S4'
p654
I0
I1
tp655
Rp656
(I3
S'|'
p657
NNNI4
I1
I0
tp658
bS'DEGF'
p659
tp660
Rp661
sS'AOSCPOS3'
p662
g2
(g3
(S'S2'
p663
I0
I1
tp664
Rp665
(I3
S'|'
p666
NNNI2
I1
I0
tp667
bS'KM'
p668
tp669
Rp670
sS'AACCCDRT'
p671
g2
(g3
(S'S4'
p672
I0
I1
tp673
Rp674
(I3
S'|'
p675
NNNI4
I1
I0
tp676
bS'DEGF'
p677
tp678
Rp679
sS'ESAMYI'
p680
g2
(g3
(S'S3'
p681
I0
I1
tp682
Rp683
(I3
S'|'
p684
NNNI3
I1
I0
tp685
bS'AMP'
p686
tp687
Rp688
sS'TMYSADA'
p689
g2
(g3
(S'S4'
p690
I0
I1
tp691
Rp692
(I3
S'|'
p693
NNNI4
I1
I0
tp694
bS'DEGF'
p695
tp696
Rp697
sS'AACH2T'
p698
g2
(g3
(S'S4'
p699
I0
I1
tp700
Rp701
(I3
S'|'
p702
NNNI4
I1
I0
tp703
bS'DEGF'
p704
tp705
Rp706
sS'OHRTHR34'
p707
g2
(g3
(S'S4'
p708
I0
I1
tp709
Rp710
(I3
S'|'
p711
NNNI4
I1
I0
tp712
bS'DEGF'
p713
tp714
Rp715
sS'AFLCA5AI'
p716
g2
(g3
(S'S4'
p717
I0
I1
tp718
Rp719
(I3
S'|'
p720
NNNI4
I1
I0
tp721
bS'MAMP'
p722
tp723
Rp724
sS'3TSMXSPT'
p725
g2
(g3
(S'S4'
p726
I0
I1
tp727
Rp728
(I3
S'|'
p729
NNNI4
I1
I0
tp730
bS'DEGC'
p731
tp732
Rp733
sS'AORESY3'
p734
g2
(g3
(S'S3'
p735
I0
I1
tp736
Rp737
(I3
S'|'
p738
NNNI3
I1
I0
tp739
bS'RAD'
p740
tp741
Rp742
sS'CVEER'
p743
g2
(g3
(S'S1'
p744
I0
I1
tp745
Rp746
(I3
S'|'
p747
NNNI1
I1
I0
tp748
bg45
tp749
Rp750
sS'4RT584T'
p751
g2
(g3
(S'S4'
p752
I0
I1
tp753
Rp754
(I3
S'|'
p755
NNNI4
I1
I0
tp756
bS'DEGF'
p757
tp758
Rp759
sS'OOBTHR13'
p760
g2
(g3
(S'S4'
p761
I0
I1
tp762
Rp763
(I3
S'|'
p764
NNNI4
I1
I0
tp765
bS'DEGF'
p766
tp767
Rp768
sS'2P05VBVL'
p769
g2
(g3
(S'S3'
p770
I0
I1
tp771
Rp772
(I3
S'|'
p773
NNNI3
I1
I0
tp774
bS'VDC'
p775
tp776
Rp777
sS'PLAED3IT'
p778
g2
(g3
(S'S4'
p779
I0
I1
tp780
Rp781
(I3
S'|'
p782
NNNI4
I1
I0
tp783
bS'DEGF'
p784
tp785
Rp786
sS'EORTDMN22D'
p787
g2
(g3
(S'S4'
p788
I0
I1
tp789
Rp790
(I3
S'|'
p791
NNNI4
I1
I0
tp792
bS'DEGF'
p793
tp794
Rp795
sS'4RT592T'
p796
g2
(g3
(S'S4'
p797
I0
I1
tp798
Rp799
(I3
S'|'
p800
NNNI4
I1
I0
tp801
bS'DEGF'
p802
tp803
Rp804
sS'61RCSTMR'
p805
g2
(g3
(S'S3'
p806
I0
I1
tp807
Rp808
(I3
S'|'
p809
NNNI3
I1
I0
tp810
bS'MIN'
p811
tp812
Rp813
sS'AIRU1BT'
p814
g2
(g3
(S'S4'
p815
I0
I1
tp816
Rp817
(I3
S'|'
p818
NNNI4
I1
I0
tp819
bS'DEGF'
p820
tp821
Rp822
sS'PR2TV01T'
p823
g2
(g3
(S'S4'
p824
I0
I1
tp825
Rp826
(I3
S'|'
p827
NNNI4
I1
I0
tp828
bS'DEGF'
p829
tp830
Rp831
sS'TCM_SSR1'
p832
g2
(g3
(S'S4'
p833
I0
I1
tp834
Rp835
(I3
S'|'
p836
NNNI4
I1
I0
tp837
bS'DEGF'
p838
tp839
Rp840
sS'6DRFTQC2'
p841
g2
(g3
(S'S4'
p842
I0
I1
tp843
Rp844
(I3
S'|'
p845
NNNI4
I1
I0
tp846
bS'FTLB'
p847
tp848
Rp849
sS'6DRFTQC3'
p850
g2
(g3
(S'S4'
p851
I0
I1
tp852
Rp853
(I3
S'|'
p854
NNNI4
I1
I0
tp855
bS'FTLB'
p856
tp857
Rp858
sS'6DRFTQC1'
p859
g2
(g3
(S'S4'
p860
I0
I1
tp861
Rp862
(I3
S'|'
p863
NNNI4
I1
I0
tp864
bS'FTLB'
p865
tp866
Rp867
sS'5EPHINT'
p868
g2
(g3
(S'S4'
p869
I0
I1
tp870
Rp871
(I3
S'|'
p872
NNNI4
I1
I0
tp873
bS'DEGC'
p874
tp875
Rp876
sS'4VRMOBV'
p877
g2
(g3
(S'S3'
p878
I0
I1
tp879
Rp880
(I3
S'|'
p881
NNNI3
I1
I0
tp882
bS'VDC'
p883
tp884
Rp885
sS'PLAEV3AT'
p886
g2
(g3
(S'S4'
p887
I0
I1
tp888
Rp889
(I3
S'|'
p890
NNNI4
I1
I0
tp891
bS'DEGF'
p892
tp893
Rp894
sS'AORESY0'
p895
g2
(g3
(S'S3'
p896
I0
I1
tp897
Rp898
(I3
S'|'
p899
NNNI3
I1
I0
tp900
bS'RAD'
p901
tp902
Rp903
sS'AFLCA1AI'
p904
g2
(g3
(S'S4'
p905
I0
I1
tp906
Rp907
(I3
S'|'
p908
NNNI4
I1
I0
tp909
bS'MAMP'
p910
tp911
Rp912
sS'2DCENTRT'
p913
g2
(g3
(S'S4'
p914
I0
I1
tp915
Rp916
(I3
S'|'
p917
NNNI4
I1
I0
tp918
bS'DEGC'
p919
tp920
Rp921
sS'OOBTHR60'
p922
g2
(g3
(S'S4'
p923
I0
I1
tp924
Rp925
(I3
S'|'
p926
NNNI4
I1
I0
tp927
bS'DEGF'
p928
tp929
Rp930
sS'OOBTHR61'
p931
g2
(g3
(S'S4'
p932
I0
I1
tp933
Rp934
(I3
S'|'
p935
NNNI4
I1
I0
tp936
bS'DEGF'
p937
tp938
Rp939
sS'OOBTHR62'
p940
g2
(g3
(S'S4'
p941
I0
I1
tp942
Rp943
(I3
S'|'
p944
NNNI4
I1
I0
tp945
bS'DEGF'
p946
tp947
Rp948
sS'OOBTHR63'
p949
g2
(g3
(S'S4'
p950
I0
I1
tp951
Rp952
(I3
S'|'
p953
NNNI4
I1
I0
tp954
bS'DEGF'
p955
tp956
Rp957
sS'PLINE11T'
p958
g2
(g3
(S'S4'
p959
I0
I1
tp960
Rp961
(I3
S'|'
p962
NNNI4
I1
I0
tp963
bS'DEGF'
p964
tp965
Rp966
sS'EPA15V'
p967
g2
(g3
(S'S1'
p968
I0
I1
tp969
Rp970
(I3
S'|'
p971
NNNI1
I1
I0
tp972
bg45
tp973
Rp974
sS'AOALPANG'
p975
g2
(g3
(S'S3'
p976
I0
I1
tp977
Rp978
(I3
S'|'
p979
NNNI3
I1
I0
tp980
bS'DEG'
p981
tp982
Rp983
sS'TRSPMTPC'
p984
g2
(g3
(S'S4'
p985
I0
I1
tp986
Rp987
(I3
S'|'
p988
NNNI4
I1
I0
tp989
bS'DEGF'
p990
tp991
Rp992
sS'AOSPACS2B'
p993
g2
(g3
(S'S4'
p994
I0
I1
tp995
Rp996
(I3
S'|'
p997
NNNI4
I1
I0
tp998
bS'MAMP'
p999
tp1000
Rp1001
sS'AODVTIME'
p1002
g2
(g3
(S'S3'
p1003
I0
I1
tp1004
Rp1005
(I3
S'|'
p1006
NNNI3
I1
I0
tp1007
bS'SEC'
p1008
tp1009
Rp1010
sS'3FASEAAT'
p1011
g2
(g3
(S'S4'
p1012
I0
I1
tp1013
Rp1014
(I3
S'|'
p1015
NNNI4
I1
I0
tp1016
bS'DEGC'
p1017
tp1018
Rp1019
sS'AODITHR3'
p1020
g2
(g3
(S'S3'
p1021
I0
I1
tp1022
Rp1023
(I3
S'|'
p1024
NNNI3
I1
I0
tp1025
bS'RAD'
p1026
tp1027
Rp1028
sS'AODITHR2'
p1029
g2
(g3
(S'S3'
p1030
I0
I1
tp1031
Rp1032
(I3
S'|'
p1033
NNNI3
I1
I0
tp1034
bS'RAD'
p1035
tp1036
Rp1037
sS'AODITHR1'
p1038
g2
(g3
(S'S3'
p1039
I0
I1
tp1040
Rp1041
(I3
S'|'
p1042
NNNI3
I1
I0
tp1043
bS'RAD'
p1044
tp1045
Rp1046
sS'PLAED1BT'
p1047
g2
(g3
(S'S4'
p1048
I0
I1
tp1049
Rp1050
(I3
S'|'
p1051
NNNI4
I1
I0
tp1052
bS'DEGF'
p1053
tp1054
Rp1055
sS'TCYLPCM'
p1056
g2
(g3
(S'S4'
p1057
I0
I1
tp1058
Rp1059
(I3
S'|'
p1060
NNNI4
I1
I0
tp1061
bS'DEGF'
p1062
tp1063
Rp1064
sS'AFLC12AI'
p1065
g2
(g3
(S'S4'
p1066
I0
I1
tp1067
Rp1068
(I3
S'|'
p1069
NNNI4
I1
I0
tp1070
bS'MAMP'
p1071
tp1072
Rp1073
sS'AOSACMD2'
p1074
g2
(g3
(S'S3'
p1075
I0
I1
tp1076
Rp1077
(I3
S'|'
p1078
NNNI3
I1
I0
tp1079
bS'RAD'
p1080
tp1081
Rp1082
sS'AOADACH1A_PCAD'
p1083
g2
(g3
(S'S3'
p1084
I0
I1
tp1085
Rp1086
(I3
S'|'
p1087
NNNI3
I1
I0
tp1088
bS'DEG'
p1089
tp1090
Rp1091
sS'OOBTHR31'
p1092
g2
(g3
(S'S4'
p1093
I0
I1
tp1094
Rp1095
(I3
S'|'
p1096
NNNI4
I1
I0
tp1097
bS'DEGF'
p1098
tp1099
Rp1100
sS'OHRTHR04'
p1101
g2
(g3
(S'S4'
p1102
I0
I1
tp1103
Rp1104
(I3
S'|'
p1105
NNNI4
I1
I0
tp1106
bS'DEGF'
p1107
tp1108
Rp1109
sS'OOBTHR46'
p1110
g2
(g3
(S'S4'
p1111
I0
I1
tp1112
Rp1113
(I3
S'|'
p1114
NNNI4
I1
I0
tp1115
bS'DEGF'
p1116
tp1117
Rp1118
sS'EPB15V'
p1119
g2
(g3
(S'S1'
p1120
I0
I1
tp1121
Rp1122
(I3
S'|'
p1123
NNNI1
I1
I0
tp1124
bg45
tp1125
Rp1126
sS'2UVLSPXT'
p1127
g2
(g3
(S'S4'
p1128
I0
I1
tp1129
Rp1130
(I3
S'|'
p1131
NNNI4
I1
I0
tp1132
bS'DEGC'
p1133
tp1134
Rp1135
sS'TFSSBKT2'
p1136
g2
(g3
(S'S4'
p1137
I0
I1
tp1138
Rp1139
(I3
S'|'
p1140
NNNI4
I1
I0
tp1141
bS'DEGF'
p1142
tp1143
Rp1144
sS'3FARALAT'
p1145
g2
(g3
(S'S4'
p1146
I0
I1
tp1147
Rp1148
(I3
S'|'
p1149
NNNI4
I1
I0
tp1150
bS'DEGC'
p1151
tp1152
Rp1153
sS'TMP_FEP0_FB'
p1154
g299
sS'4HLL2AT'
p1155
g2
(g3
(S'S4'
p1156
I0
I1
tp1157
Rp1158
(I3
S'|'
p1159
NNNI4
I1
I0
tp1160
bS'DEGF'
p1161
tp1162
Rp1163
sS'TCM_PA2'
p1164
g2
(g3
(S'S4'
p1165
I0
I1
tp1166
Rp1167
(I3
S'|'
p1168
NNNI4
I1
I0
tp1169
bS'DEGF'
p1170
tp1171
Rp1172
sS'OHRTHR58'
p1173
g2
(g3
(S'S4'
p1174
I0
I1
tp1175
Rp1176
(I3
S'|'
p1177
NNNI4
I1
I0
tp1178
bS'DEGF'
p1179
tp1180
Rp1181
sS'TMP_FEP1_RAM'
p1182
g299
sS'3FAPYZAT'
p1183
g2
(g3
(S'S4'
p1184
I0
I1
tp1185
Rp1186
(I3
S'|'
p1187
NNNI4
I1
I0
tp1188
bS'DEGC'
p1189
tp1190
Rp1191
sS'OHRTHR08'
p1192
g2
(g3
(S'S4'
p1193
I0
I1
tp1194
Rp1195
(I3
S'|'
p1196
NNNI4
I1
I0
tp1197
bS'DEGF'
p1198
tp1199
Rp1200
sS'AOSCVEL3'
p1201
g2
(g3
(S'S4'
p1202
I0
I1
tp1203
Rp1204
(I3
S'|'
p1205
NNNI4
I1
I0
tp1206
bS'KMPS'
p1207
tp1208
Rp1209
sS'PLAED3GT'
p1210
g2
(g3
(S'S4'
p1211
I0
I1
tp1212
Rp1213
(I3
S'|'
p1214
NNNI4
I1
I0
tp1215
bS'DEGF'
p1216
tp1217
Rp1218
sS'AORATE1'
p1219
g2
(g3
(S'S5'
p1220
I0
I1
tp1221
Rp1222
(I3
S'|'
p1223
NNNI5
I1
I0
tp1224
bS'RADPS'
p1225
tp1226
Rp1227
sS'AORATE3'
p1228
g2
(g3
(S'S5'
p1229
I0
I1
tp1230
Rp1231
(I3
S'|'
p1232
NNNI5
I1
I0
tp1233
bS'RADPS'
p1234
tp1235
Rp1236
sS'AORATE2'
p1237
g2
(g3
(S'S5'
p1238
I0
I1
tp1239
Rp1240
(I3
S'|'
p1241
NNNI5
I1
I0
tp1242
bS'RADPS'
p1243
tp1244
Rp1245
sS'CRXAV'
p1246
g2
(g3
(S'S1'
p1247
I0
I1
tp1248
Rp1249
(I3
S'|'
p1250
NNNI1
I1
I0
tp1251
bg45
tp1252
Rp1253
sS'EORTDMN12D'
p1254
g2
(g3
(S'S4'
p1255
I0
I1
tp1256
Rp1257
(I3
S'|'
p1258
NNNI4
I1
I0
tp1259
bS'DEGF'
p1260
tp1261
Rp1262
sS'EOECNV3C'
p1263
g2
(g3
(S'S1'
p1264
I0
I1
tp1265
Rp1266
(I3
S'|'
p1267
NNNI1
I1
I0
tp1268
bg45
tp1269
Rp1270
sS'3TTACS2T'
p1271
g2
(g3
(S'S4'
p1272
I0
I1
tp1273
Rp1274
(I3
S'|'
p1275
NNNI4
I1
I0
tp1276
bS'DEGC'
p1277
tp1278
Rp1279
sS'TCM_CTU'
p1280
g2
(g3
(S'S4'
p1281
I0
I1
tp1282
Rp1283
(I3
S'|'
p1284
NNNI4
I1
I0
tp1285
bS'DEGF'
p1286
tp1287
Rp1288
sS'ESAPYI'
p1289
g2
(g3
(S'S3'
p1290
I0
I1
tp1291
Rp1292
(I3
S'|'
p1293
NNNI3
I1
I0
tp1294
bS'AMP'
p1295
tp1296
Rp1297
sS'4HFSPBT'
p1298
g2
(g3
(S'S4'
p1299
I0
I1
tp1300
Rp1301
(I3
S'|'
p1302
NNNI4
I1
I0
tp1303
bS'DEGF'
p1304
tp1305
Rp1306
sS'EEPB5V'
p1307
g2
(g3
(S'S1'
p1308
I0
I1
tp1309
Rp1310
(I3
S'|'
p1311
NNNI1
I1
I0
tp1312
bg45
tp1313
Rp1314
sS'3FAFLAAT'
p1315
g2
(g3
(S'S4'
p1316
I0
I1
tp1317
Rp1318
(I3
S'|'
p1319
NNNI4
I1
I0
tp1320
bS'DEGC'
p1321
tp1322
Rp1323
sS'TSAMYT'
p1324
g2
(g3
(S'S4'
p1325
I0
I1
tp1326
Rp1327
(I3
S'|'
p1328
NNNI4
I1
I0
tp1329
bS'DEGF'
p1330
tp1331
Rp1332
sS'4MP28BV'
p1333
g2
(g3
(S'S3'
p1334
I0
I1
tp1335
Rp1336
(I3
S'|'
p1337
NNNI3
I1
I0
tp1338
bS'VDC'
p1339
tp1340
Rp1341
sS'PFDM101T'
p1342
g2
(g3
(S'S4'
p1343
I0
I1
tp1344
Rp1345
(I3
S'|'
p1346
NNNI4
I1
I0
tp1347
bS'DEGF'
p1348
tp1349
Rp1350
sS'OHRTHR50'
p1351
g2
(g3
(S'S4'
p1352
I0
I1
tp1353
Rp1354
(I3
S'|'
p1355
NNNI4
I1
I0
tp1356
bS'DEGF'
p1357
tp1358
Rp1359
sS'PLAED3DT'
p1360
g2
(g3
(S'S4'
p1361
I0
I1
tp1362
Rp1363
(I3
S'|'
p1364
NNNI4
I1
I0
tp1365
bS'DEGF'
p1366
tp1367
Rp1368
sS'OHRTHR51'
p1369
g2
(g3
(S'S4'
p1370
I0
I1
tp1371
Rp1372
(I3
S'|'
p1373
NNNI4
I1
I0
tp1374
bS'DEGF'
p1375
tp1376
Rp1377
sS'EORTDMN23D'
p1378
g2
(g3
(S'S4'
p1379
I0
I1
tp1380
Rp1381
(I3
S'|'
p1382
NNNI4
I1
I0
tp1383
bS'DEGF'
p1384
tp1385
Rp1386
sS'AWD3CV5V'
p1387
g2
(g3
(S'S1'
p1388
I0
I1
tp1389
Rp1390
(I3
S'|'
p1391
NNNI1
I1
I0
tp1392
bg45
tp1393
Rp1394
sS'PLINE02T'
p1395
g2
(g3
(S'S4'
p1396
I0
I1
tp1397
Rp1398
(I3
S'|'
p1399
NNNI4
I1
I0
tp1400
bS'DEGF'
p1401
tp1402
Rp1403
sS'4RT706T'
p1404
g2
(g3
(S'S4'
p1405
I0
I1
tp1406
Rp1407
(I3
S'|'
p1408
NNNI4
I1
I0
tp1409
bS'DEGF'
p1410
tp1411
Rp1412
sS'TPCM_RW5'
p1413
g2
(g3
(S'S4'
p1414
I0
I1
tp1415
Rp1416
(I3
S'|'
p1417
NNNI4
I1
I0
tp1418
bS'DEGF'
p1419
tp1420
Rp1421
sS'2CEAHVPT'
p1422
g2
(g3
(S'S4'
p1423
I0
I1
tp1424
Rp1425
(I3
S'|'
p1426
NNNI4
I1
I0
tp1427
bS'DEGC'
p1428
tp1429
Rp1430
sS'PLAEV2AT'
p1431
g2
(g3
(S'S4'
p1432
I0
I1
tp1433
Rp1434
(I3
S'|'
p1435
NNNI4
I1
I0
tp1436
bS'DEGF'
p1437
tp1438
Rp1439
sS'EOEB2DIC'
p1440
g2
(g3
(S'S3'
p1441
I0
I1
tp1442
Rp1443
(I3
S'|'
p1444
NNNI3
I1
I0
tp1445
bS'AMP'
p1446
tp1447
Rp1448
sS'AORESZ6_5'
p1449
g2
(g3
(S'S3'
p1450
I0
I1
tp1451
Rp1452
(I3
S'|'
p1453
NNNI3
I1
I0
tp1454
bS'RAD'
p1455
tp1456
Rp1457
sS'AOSUNER1'
p1458
g2
(g3
(S'S3'
p1459
I0
I1
tp1460
Rp1461
(I3
S'|'
p1462
NNNI3
I1
I0
tp1463
bS'RAD'
p1464
tp1465
Rp1466
sS'TRSPRWCM'
p1467
g2
(g3
(S'S4'
p1468
I0
I1
tp1469
Rp1470
(I3
S'|'
p1471
NNNI4
I1
I0
tp1472
bS'DEGF'
p1473
tp1474
Rp1475
sS'AOSUNER3'
p1476
g2
(g3
(S'S3'
p1477
I0
I1
tp1478
Rp1479
(I3
S'|'
p1480
NNNI3
I1
I0
tp1481
bS'RAD'
p1482
tp1483
Rp1484
sS'AOSUNER2'
p1485
g2
(g3
(S'S3'
p1486
I0
I1
tp1487
Rp1488
(I3
S'|'
p1489
NNNI3
I1
I0
tp1490
bS'RAD'
p1491
tp1492
Rp1493
sS'OHRTHR55'
p1494
g2
(g3
(S'S4'
p1495
I0
I1
tp1496
Rp1497
(I3
S'|'
p1498
NNNI4
I1
I0
tp1499
bS'DEGF'
p1500
tp1501
Rp1502
sS'PLAED2DT'
p1503
g2
(g3
(S'S4'
p1504
I0
I1
tp1505
Rp1506
(I3
S'|'
p1507
NNNI4
I1
I0
tp1508
bS'DEGF'
p1509
tp1510
Rp1511
sS'AORESY6_1'
p1512
g2
(g3
(S'S3'
p1513
I0
I1
tp1514
Rp1515
(I3
S'|'
p1516
NNNI3
I1
I0
tp1517
bS'RAD'
p1518
tp1519
Rp1520
sS'TESH2'
p1521
g2
(g3
(S'S4'
p1522
I0
I1
tp1523
Rp1524
(I3
S'|'
p1525
NNNI4
I1
I0
tp1526
bS'DEGF'
p1527
tp1528
Rp1529
sS'CTSA5V'
p1530
g2
(g3
(S'S1'
p1531
I0
I1
tp1532
Rp1533
(I3
S'|'
p1534
NNNI1
I1
I0
tp1535
bg45
tp1536
Rp1537
sS'1DPAMYT'
p1538
g2
(g3
(S'S4'
p1539
I0
I1
tp1540
Rp1541
(I3
S'|'
p1542
NNNI4
I1
I0
tp1543
bS'DEGC'
p1544
tp1545
Rp1546
sS'1DACTBT'
p1547
g2
(g3
(S'S4'
p1548
I0
I1
tp1549
Rp1550
(I3
S'|'
p1551
NNNI4
I1
I0
tp1552
bS'DEGC'
p1553
tp1554
Rp1555
sS'4RT556T'
p1556
g2
(g3
(S'S4'
p1557
I0
I1
tp1558
Rp1559
(I3
S'|'
p1560
NNNI4
I1
I0
tp1561
bS'DEGF'
p1562
tp1563
Rp1564
sS'AFLCA4BI'
p1565
g2
(g3
(S'S4'
p1566
I0
I1
tp1567
Rp1568
(I3
S'|'
p1569
NNNI4
I1
I0
tp1570
bS'MAMP'
p1571
tp1572
Rp1573
sS'AORESZ6_1'
p1574
g2
(g3
(S'S3'
p1575
I0
I1
tp1576
Rp1577
(I3
S'|'
p1578
NNNI3
I1
I0
tp1579
bS'RAD'
p1580
tp1581
Rp1582
sS'PM4THV1T'
p1583
g2
(g3
(S'S4'
p1584
I0
I1
tp1585
Rp1586
(I3
S'|'
p1587
NNNI4
I1
I0
tp1588
bS'DEGF'
p1589
tp1590
Rp1591
sS'CSITA15V'
p1592
g2
(g3
(S'S1'
p1593
I0
I1
tp1594
Rp1595
(I3
S'|'
p1596
NNNI1
I1
I0
tp1597
bg45
tp1598
Rp1599
sS'TPZLGABM'
p1600
g2
(g3
(S'S4'
p1601
I0
I1
tp1602
Rp1603
(I3
S'|'
p1604
NNNI4
I1
I0
tp1605
bS'DEGF'
p1606
tp1607
Rp1608
sS'AFLC13AI'
p1609
g2
(g3
(S'S4'
p1610
I0
I1
tp1611
Rp1612
(I3
S'|'
p1613
NNNI4
I1
I0
tp1614
bS'MAMP'
p1615
tp1616
Rp1617
sS'AORWBTQ1'
p1618
g2
(g3
(S'S4'
p1619
I0
I1
tp1620
Rp1621
(I3
S'|'
p1622
NNNI4
I1
I0
tp1623
bS'FTLB'
p1624
tp1625
Rp1626
sS'AORWBTQ2'
p1627
g2
(g3
(S'S4'
p1628
I0
I1
tp1629
Rp1630
(I3
S'|'
p1631
NNNI4
I1
I0
tp1632
bS'FTLB'
p1633
tp1634
Rp1635
sS'AORWBTQ3'
p1636
g2
(g3
(S'S4'
p1637
I0
I1
tp1638
Rp1639
(I3
S'|'
p1640
NNNI4
I1
I0
tp1641
bS'FTLB'
p1642
tp1643
Rp1644
sS'AORWBTQ4'
p1645
g2
(g3
(S'S4'
p1646
I0
I1
tp1647
Rp1648
(I3
S'|'
p1649
NNNI4
I1
I0
tp1650
bS'FTLB'
p1651
tp1652
Rp1653
sS'AGWS1V'
p1654
g2
(g3
(S'S1'
p1655
I0
I1
tp1656
Rp1657
(I3
S'|'
p1658
NNNI1
I1
I0
tp1659
bg45
tp1660
Rp1661
sS'AORWBTQ6'
p1662
g2
(g3
(S'S4'
p1663
I0
I1
tp1664
Rp1665
(I3
S'|'
p1666
NNNI4
I1
I0
tp1667
bS'FTLB'
p1668
tp1669
Rp1670
sS'AWD6CV5V'
p1671
g2
(g3
(S'S1'
p1672
I0
I1
tp1673
Rp1674
(I3
S'|'
p1675
NNNI1
I1
I0
tp1676
bg45
tp1677
Rp1678
sS'3FABRCAT'
p1679
g2
(g3
(S'S4'
p1680
I0
I1
tp1681
Rp1682
(I3
S'|'
p1683
NNNI4
I1
I0
tp1684
bS'DEGC'
p1685
tp1686
Rp1687
sS'AWD4CV5V'
p1688
g2
(g3
(S'S1'
p1689
I0
I1
tp1690
Rp1691
(I3
S'|'
p1692
NNNI1
I1
I0
tp1693
bg45
tp1694
Rp1695
sS'4RT576T'
p1696
g2
(g3
(S'S4'
p1697
I0
I1
tp1698
Rp1699
(I3
S'|'
p1700
NNNI4
I1
I0
tp1701
bS'DEGF'
p1702
tp1703
Rp1704
sS'AIRU1G1T'
p1705
g2
(g3
(S'S4'
p1706
I0
I1
tp1707
Rp1708
(I3
S'|'
p1709
NNNI4
I1
I0
tp1710
bS'DEGF'
p1711
tp1712
Rp1713
sS'OHRTHR53'
p1714
g2
(g3
(S'S4'
p1715
I0
I1
tp1716
Rp1717
(I3
S'|'
p1718
NNNI4
I1
I0
tp1719
bS'DEGF'
p1720
tp1721
Rp1722
sS'PR2TV02T'
p1723
g2
(g3
(S'S4'
p1724
I0
I1
tp1725
Rp1726
(I3
S'|'
p1727
NNNI4
I1
I0
tp1728
bS'DEGF'
p1729
tp1730
Rp1731
sS'PLAED4AT'
p1732
g2
(g3
(S'S4'
p1733
I0
I1
tp1734
Rp1735
(I3
S'|'
p1736
NNNI4
I1
I0
tp1737
bS'DEGF'
p1738
tp1739
Rp1740
sS'2P05VAVL'
p1741
g2
(g3
(S'S3'
p1742
I0
I1
tp1743
Rp1744
(I3
S'|'
p1745
NNNI3
I1
I0
tp1746
bS'VDC'
p1747
tp1748
Rp1749
sS'PLAEV4AT'
p1750
g2
(g3
(S'S4'
p1751
I0
I1
tp1752
Rp1753
(I3
S'|'
p1754
NNNI4
I1
I0
tp1755
bS'DEGF'
p1756
tp1757
Rp1758
sS'1VAHCBT'
p1759
g2
(g3
(S'S4'
p1760
I0
I1
tp1761
Rp1762
(I3
S'|'
p1763
NNNI4
I1
I0
tp1764
bS'DEGC'
p1765
tp1766
Rp1767
sS'PM2THV1T'
p1768
g2
(g3
(S'S4'
p1769
I0
I1
tp1770
Rp1771
(I3
S'|'
p1772
NNNI4
I1
I0
tp1773
bS'DEGF'
p1774
tp1775
Rp1776
sS'PLINE09T'
p1777
g2
(g3
(S'S4'
p1778
I0
I1
tp1779
Rp1780
(I3
S'|'
p1781
NNNI4
I1
I0
tp1782
bS'DEGF'
p1783
tp1784
Rp1785
sS'1DPP0AVO'
p1786
g2
(g3
(S'S1'
p1787
I0
I1
tp1788
Rp1789
(I3
S'|'
p1790
NNNI1
I1
I0
tp1791
bg45
tp1792
Rp1793
sS'5EIOT'
p1794
g2
(g3
(S'S4'
p1795
I0
I1
tp1796
Rp1797
(I3
S'|'
p1798
NNNI4
I1
I0
tp1799
bS'DEGC'
p1800
tp1801
Rp1802
sS'CPCB5V'
p1803
g2
(g3
(S'S1'
p1804
I0
I1
tp1805
Rp1806
(I3
S'|'
p1807
NNNI1
I1
I0
tp1808
bg45
tp1809
Rp1810
sS'PLAED1IT'
p1811
g2
(g3
(S'S4'
p1812
I0
I1
tp1813
Rp1814
(I3
S'|'
p1815
NNNI4
I1
I0
tp1816
bS'DEGF'
p1817
tp1818
Rp1819
sS'3MRMMXMV'
p1820
S'PWMSTEP'
p1821
sS'CPCA5V'
p1822
g2
(g3
(S'S1'
p1823
I0
I1
tp1824
Rp1825
(I3
S'|'
p1826
NNNI1
I1
I0
tp1827
bg45
tp1828
Rp1829
sS'AFLCA2BI'
p1830
g2
(g3
(S'S4'
p1831
I0
I1
tp1832
Rp1833
(I3
S'|'
p1834
NNNI4
I1
I0
tp1835
bS'MAMP'
p1836
tp1837
Rp1838
sS'TEIO'
p1839
g2
(g3
(S'S4'
p1840
I0
I1
tp1841
Rp1842
(I3
S'|'
p1843
NNNI4
I1
I0
tp1844
bS'DEGF'
p1845
tp1846
Rp1847
sS'AORWMC2_1'
p1848
g2
(g3
(S'S7'
p1849
I0
I1
tp1850
Rp1851
(I3
S'|'
p1852
NNNI7
I1
I0
tp1853
bS'FTLBSEC'
p1854
tp1855
Rp1856
sS'ELBV'
p1857
g2
(g3
(S'S1'
p1858
I0
I1
tp1859
Rp1860
(I3
S'|'
p1861
NNNI1
I1
I0
tp1862
bg45
tp1863
Rp1864
sS'AACBPRT'
p1865
g2
(g3
(S'S4'
p1866
I0
I1
tp1867
Rp1868
(I3
S'|'
p1869
NNNI4
I1
I0
tp1870
bS'DEGF'
p1871
tp1872
Rp1873
sS'PLAED1AT'
p1874
g2
(g3
(S'S4'
p1875
I0
I1
tp1876
Rp1877
(I3
S'|'
p1878
NNNI4
I1
I0
tp1879
bS'DEGF'
p1880
tp1881
Rp1882
sS'PFTANK1T'
p1883
g2
(g3
(S'S4'
p1884
I0
I1
tp1885
Rp1886
(I3
S'|'
p1887
NNNI4
I1
I0
tp1888
bS'DEGF'
p1889
tp1890
Rp1891
sS'TPCM_RW4'
p1892
g2
(g3
(S'S4'
p1893
I0
I1
tp1894
Rp1895
(I3
S'|'
p1896
NNNI4
I1
I0
tp1897
bS'DEGF'
p1898
tp1899
Rp1900
sS'4RT580T'
p1901
g2
(g3
(S'S4'
p1902
I0
I1
tp1903
Rp1904
(I3
S'|'
p1905
NNNI4
I1
I0
tp1906
bS'DEGF'
p1907
tp1908
Rp1909
sS'TEP_PCU'
p1910
g2
(g3
(S'S4'
p1911
I0
I1
tp1912
Rp1913
(I3
S'|'
p1914
NNNI4
I1
I0
tp1915
bS'DEGF'
p1916
tp1917
Rp1918
sS'4VRMHBV'
p1919
g2
(g3
(S'S3'
p1920
I0
I1
tp1921
Rp1922
(I3
S'|'
p1923
NNNI3
I1
I0
tp1924
bS'VDC'
p1925
tp1926
Rp1927
sS'PHETANKT'
p1928
g2
(g3
(S'S4'
p1929
I0
I1
tp1930
Rp1931
(I3
S'|'
p1932
NNNI4
I1
I0
tp1933
bS'DEGF'
p1934
tp1935
Rp1936
sS'TAPE1PST'
p1937
g2
(g3
(S'S4'
p1938
I0
I1
tp1939
Rp1940
(I3
S'|'
p1941
NNNI4
I1
I0
tp1942
bS'DEGF'
p1943
tp1944
Rp1945
sS'4RT558T'
p1946
g2
(g3
(S'S4'
p1947
I0
I1
tp1948
Rp1949
(I3
S'|'
p1950
NNNI4
I1
I0
tp1951
bS'DEGF'
p1952
tp1953
Rp1954
sS'1DEP0BVO'
p1955
g2
(g3
(S'S1'
p1956
I0
I1
tp1957
Rp1958
(I3
S'|'
p1959
NNNI1
I1
I0
tp1960
bg45
tp1961
Rp1962
sS'OOBTHR24'
p1963
g2
(g3
(S'S4'
p1964
I0
I1
tp1965
Rp1966
(I3
S'|'
p1967
NNNI4
I1
I0
tp1968
bS'DEGF'
p1969
tp1970
Rp1971
sS'6TQCMD1'
p1972
g2
(g3
(S'S4'
p1973
I0
I1
tp1974
Rp1975
(I3
S'|'
p1976
NNNI4
I1
I0
tp1977
bS'FTLB'
p1978
tp1979
Rp1980
sS'6TQCMD2'
p1981
g2
(g3
(S'S4'
p1982
I0
I1
tp1983
Rp1984
(I3
S'|'
p1985
NNNI4
I1
I0
tp1986
bS'FTLB'
p1987
tp1988
Rp1989
sS'6TQCMD3'
p1990
g2
(g3
(S'S4'
p1991
I0
I1
tp1992
Rp1993
(I3
S'|'
p1994
NNNI4
I1
I0
tp1995
bS'FTLB'
p1996
tp1997
Rp1998
sS'OOBTHR20'
p1999
g2
(g3
(S'S4'
p2000
I0
I1
tp2001
Rp2002
(I3
S'|'
p2003
NNNI4
I1
I0
tp2004
bS'DEGF'
p2005
tp2006
Rp2007
sS'OOBTHR21'
p2008
g2
(g3
(S'S4'
p2009
I0
I1
tp2010
Rp2011
(I3
S'|'
p2012
NNNI4
I1
I0
tp2013
bS'DEGF'
p2014
tp2015
Rp2016
sS'OOBTHR22'
p2017
g2
(g3
(S'S4'
p2018
I0
I1
tp2019
Rp2020
(I3
S'|'
p2021
NNNI4
I1
I0
tp2022
bS'DEGF'
p2023
tp2024
Rp2025
sS'OOBTHR23'
p2026
g2
(g3
(S'S4'
p2027
I0
I1
tp2028
Rp2029
(I3
S'|'
p2030
NNNI4
I1
I0
tp2031
bS'DEGF'
p2032
tp2033
Rp2034
sS'OHRTHR03'
p2035
g2
(g3
(S'S4'
p2036
I0
I1
tp2037
Rp2038
(I3
S'|'
p2039
NNNI4
I1
I0
tp2040
bS'DEGF'
p2041
tp2042
Rp2043
sS'AVD2CV5V'
p2044
g2
(g3
(S'S1'
p2045
I0
I1
tp2046
Rp2047
(I3
S'|'
p2048
NNNI1
I1
I0
tp2049
bg45
tp2050
Rp2051
sS'OOBTHR28'
p2052
g2
(g3
(S'S4'
p2053
I0
I1
tp2054
Rp2055
(I3
S'|'
p2056
NNNI4
I1
I0
tp2057
bS'DEGF'
p2058
tp2059
Rp2060
sS'OOBTHR29'
p2061
g2
(g3
(S'S4'
p2062
I0
I1
tp2063
Rp2064
(I3
S'|'
p2065
NNNI4
I1
I0
tp2066
bS'DEGF'
p2067
tp2068
Rp2069
sS'TB2T1'
p2070
g2
(g3
(S'S4'
p2071
I0
I1
tp2072
Rp2073
(I3
S'|'
p2074
NNNI4
I1
I0
tp2075
bS'DEGF'
p2076
tp2077
Rp2078
sS'EORTDMN16D'
p2079
g2
(g3
(S'S4'
p2080
I0
I1
tp2081
Rp2082
(I3
S'|'
p2083
NNNI4
I1
I0
tp2084
bS'DEGF'
p2085
tp2086
Rp2087
sS'2FHTRMZT'
p2088
g2
(g3
(S'S4'
p2089
I0
I1
tp2090
Rp2091
(I3
S'|'
p2092
NNNI4
I1
I0
tp2093
bS'DEGC'
p2094
tp2095
Rp2096
sS'AOSAANG1'
p2097
g2
(g3
(S'S3'
p2098
I0
I1
tp2099
Rp2100
(I3
S'|'
p2101
NNNI3
I1
I0
tp2102
bS'RAD'
p2103
tp2104
Rp2105
sS'AOSAANG2'
p2106
g2
(g3
(S'S3'
p2107
I0
I1
tp2108
Rp2109
(I3
S'|'
p2110
NNNI3
I1
I0
tp2111
bS'RAD'
p2112
tp2113
Rp2114
sS'CTSB15V'
p2115
g2
(g3
(S'S1'
p2116
I0
I1
tp2117
Rp2118
(I3
S'|'
p2119
NNNI1
I1
I0
tp2120
bg45
tp2121
Rp2122
sS'6MUPCNT3'
p2123
g2
(g3
(S'S3'
p2124
I0
I1
tp2125
Rp2126
(I3
S'|'
p2127
NNNI3
I1
I0
tp2128
bS'SEC'
p2129
tp2130
Rp2131
sS'6MUPCNT2'
p2132
g2
(g3
(S'S3'
p2133
I0
I1
tp2134
Rp2135
(I3
S'|'
p2136
NNNI3
I1
I0
tp2137
bS'SEC'
p2138
tp2139
Rp2140
sS'6MUPCNT1'
p2141
g2
(g3
(S'S3'
p2142
I0
I1
tp2143
Rp2144
(I3
S'|'
p2145
NNNI3
I1
I0
tp2146
bS'SEC'
p2147
tp2148
Rp2149
sS'4RT561T'
p2150
g2
(g3
(S'S4'
p2151
I0
I1
tp2152
Rp2153
(I3
S'|'
p2154
NNNI4
I1
I0
tp2155
bS'DEGF'
p2156
tp2157
Rp2158
sS'AOSAEST2'
p2159
g2
(g3
(S'S3'
p2160
I0
I1
tp2161
Rp2162
(I3
S'|'
p2163
NNNI3
I1
I0
tp2164
bS'RAD'
p2165
tp2166
Rp2167
sS'6MUPCNT4'
p2168
g2
(g3
(S'S3'
p2169
I0
I1
tp2170
Rp2171
(I3
S'|'
p2172
NNNI3
I1
I0
tp2173
bS'SEC'
p2174
tp2175
Rp2176
sS'OHRTHR57'
p2177
g2
(g3
(S'S4'
p2178
I0
I1
tp2179
Rp2180
(I3
S'|'
p2181
NNNI4
I1
I0
tp2182
bS'DEGF'
p2183
tp2184
Rp2185
sS'AOMANTIM'
p2186
g2
(g3
(S'S3'
p2187
I0
I1
tp2188
Rp2189
(I3
S'|'
p2190
NNNI3
I1
I0
tp2191
bS'SEC'
p2192
tp2193
Rp2194
sS'CTUB5V'
p2195
g2
(g3
(S'S1'
p2196
I0
I1
tp2197
Rp2198
(I3
S'|'
p2199
NNNI1
I1
I0
tp2200
bg45
tp2201
Rp2202
sS'AWD4TQI'
p2203
g2
(g3
(S'S3'
p2204
I0
I1
tp2205
Rp2206
(I3
S'|'
p2207
NNNI3
I1
I0
tp2208
bS'AMP'
p2209
tp2210
Rp2211
sS'4LLL2AT'
p2212
g2
(g3
(S'S4'
p2213
I0
I1
tp2214
Rp2215
(I3
S'|'
p2216
NNNI4
I1
I0
tp2217
bS'DEGF'
p2218
tp2219
Rp2220
sS'AWD5CV5V'
p2221
g2
(g3
(S'S1'
p2222
I0
I1
tp2223
Rp2224
(I3
S'|'
p2225
NNNI1
I1
I0
tp2226
bg45
tp2227
Rp2228
sS'4ALL1BT'
p2229
g2
(g3
(S'S4'
p2230
I0
I1
tp2231
Rp2232
(I3
S'|'
p2233
NNNI4
I1
I0
tp2234
bS'DEGF'
p2235
tp2236
Rp2237
sS'CPCB15V'
p2238
g2
(g3
(S'S1'
p2239
I0
I1
tp2240
Rp2241
(I3
S'|'
p2242
NNNI1
I1
I0
tp2243
bg45
tp2244
Rp2245
sS'4RT711T'
p2246
g2
(g3
(S'S4'
p2247
I0
I1
tp2248
Rp2249
(I3
S'|'
p2250
NNNI4
I1
I0
tp2251
bS'DEGF'
p2252
tp2253
Rp2254
sS'AAOTALT'
p2255
g2
(g3
(S'S4'
p2256
I0
I1
tp2257
Rp2258
(I3
S'|'
p2259
NNNI4
I1
I0
tp2260
bS'DEGF'
p2261
tp2262
Rp2263
sS'AGWS2V'
p2264
g2
(g3
(S'S1'
p2265
I0
I1
tp2266
Rp2267
(I3
S'|'
p2268
NNNI1
I1
I0
tp2269
bg45
tp2270
Rp2271
sS'EORTDMN26D'
p2272
g2
(g3
(S'S4'
p2273
I0
I1
tp2274
Rp2275
(I3
S'|'
p2276
NNNI4
I1
I0
tp2277
bS'DEGF'
p2278
tp2279
Rp2280
sS'EB1V'
p2281
g2
(g3
(S'S1'
p2282
I0
I1
tp2283
Rp2284
(I3
S'|'
p2285
NNNI1
I1
I0
tp2286
bg45
tp2287
Rp2288
sS'AOFFTQ1'
p2289
g2
(g3
(S'S4'
p2290
I0
I1
tp2291
Rp2292
(I3
S'|'
p2293
NNNI4
I1
I0
tp2294
bS'FTLB'
p2295
tp2296
Rp2297
sS'AOFFTQ2'
p2298
g2
(g3
(S'S4'
p2299
I0
I1
tp2300
Rp2301
(I3
S'|'
p2302
NNNI4
I1
I0
tp2303
bS'FTLB'
p2304
tp2305
Rp2306
sS'AOFFTQ3'
p2307
g2
(g3
(S'S4'
p2308
I0
I1
tp2309
Rp2310
(I3
S'|'
p2311
NNNI4
I1
I0
tp2312
bS'FTLB'
p2313
tp2314
Rp2315
sS'OHRTHR05'
p2316
g2
(g3
(S'S4'
p2317
I0
I1
tp2318
Rp2319
(I3
S'|'
p2320
NNNI4
I1
I0
tp2321
bS'DEGF'
p2322
tp2323
Rp2324
sS'3SFLXCST'
p2325
g2
(g3
(S'S4'
p2326
I0
I1
tp2327
Rp2328
(I3
S'|'
p2329
NNNI4
I1
I0
tp2330
bS'DEGC'
p2331
tp2332
Rp2333
sS'PLINE07T'
p2334
g2
(g3
(S'S4'
p2335
I0
I1
tp2336
Rp2337
(I3
S'|'
p2338
NNNI4
I1
I0
tp2339
bS'DEGF'
p2340
tp2341
Rp2342
sS'PLAEV2BT'
p2343
g2
(g3
(S'S4'
p2344
I0
I1
tp2345
Rp2346
(I3
S'|'
p2347
NNNI4
I1
I0
tp2348
bS'DEGF'
p2349
tp2350
Rp2351
sS'AOSCVEL1'
p2352
g2
(g3
(S'S4'
p2353
I0
I1
tp2354
Rp2355
(I3
S'|'
p2356
NNNI4
I1
I0
tp2357
bS'KMPS'
p2358
tp2359
Rp2360
sS'3TSPYFET'
p2361
g2
(g3
(S'S4'
p2362
I0
I1
tp2363
Rp2364
(I3
S'|'
p2365
NNNI4
I1
I0
tp2366
bS'DEGC'
p2367
tp2368
Rp2369
sS'4RT598T'
p2370
g2
(g3
(S'S4'
p2371
I0
I1
tp2372
Rp2373
(I3
S'|'
p2374
NNNI4
I1
I0
tp2375
bS'DEGF'
p2376
tp2377
Rp2378
sS'1DE28AVO'
p2379
g2
(g3
(S'S1'
p2380
I0
I1
tp2381
Rp2382
(I3
S'|'
p2383
NNNI1
I1
I0
tp2384
bg45
tp2385
Rp2386
sS'2N15VBVL'
p2387
g2
(g3
(S'S3'
p2388
I0
I1
tp2389
Rp2390
(I3
S'|'
p2391
NNNI3
I1
I0
tp2392
bS'VDC'
p2393
tp2394
Rp2395
sS'AFLC13BI'
p2396
g2
(g3
(S'S4'
p2397
I0
I1
tp2398
Rp2399
(I3
S'|'
p2400
NNNI4
I1
I0
tp2401
bS'MAMP'
p2402
tp2403
Rp2404
sS'PR4TV02T'
p2405
g2
(g3
(S'S4'
p2406
I0
I1
tp2407
Rp2408
(I3
S'|'
p2409
NNNI4
I1
I0
tp2410
bS'DEGF'
p2411
tp2412
Rp2413
sS'AOGBIAS1'
p2414
g2
(g3
(S'S5'
p2415
I0
I1
tp2416
Rp2417
(I3
S'|'
p2418
NNNI5
I1
I0
tp2419
bS'RADPS'
p2420
tp2421
Rp2422
sS'AOGBIAS2'
p2423
g2
(g3
(S'S5'
p2424
I0
I1
tp2425
Rp2426
(I3
S'|'
p2427
NNNI5
I1
I0
tp2428
bS'RADPS'
p2429
tp2430
Rp2431
sS'AOGBIAS3'
p2432
g2
(g3
(S'S5'
p2433
I0
I1
tp2434
Rp2435
(I3
S'|'
p2436
NNNI5
I1
I0
tp2437
bS'RADPS'
p2438
tp2439
Rp2440
sS'1DEN1AVO'
p2441
g2
(g3
(S'S1'
p2442
I0
I1
tp2443
Rp2444
(I3
S'|'
p2445
NNNI1
I1
I0
tp2446
bg45
tp2447
Rp2448
sS'1DEN0AVO'
p2449
g2
(g3
(S'S1'
p2450
I0
I1
tp2451
Rp2452
(I3
S'|'
p2453
NNNI1
I1
I0
tp2454
bg45
tp2455
Rp2456
sS'1DEP2BVO'
p2457
g2
(g3
(S'S1'
p2458
I0
I1
tp2459
Rp2460
(I3
S'|'
p2461
NNNI1
I1
I0
tp2462
bg45
tp2463
Rp2464
sS'TMP_FEP1_FB'
p2465
g299
sS'1DPICBCU'
p2466
g2
(g3
(S'S3'
p2467
I0
I1
tp2468
Rp2469
(I3
S'|'
p2470
NNNI3
I1
I0
tp2471
bS'AMP'
p2472
tp2473
Rp2474
sS'1DP28AVO'
p2475
g2
(g3
(S'S1'
p2476
I0
I1
tp2477
Rp2478
(I3
S'|'
p2479
NNNI1
I1
I0
tp2480
bg45
tp2481
Rp2482
sS'2CONDMXT'
p2483
g2
(g3
(S'S4'
p2484
I0
I1
tp2485
Rp2486
(I3
S'|'
p2487
NNNI4
I1
I0
tp2488
bS'DEGC'
p2489
tp2490
Rp2491
sS'4CSDHAV'
p2492
g2
(g3
(S'S3'
p2493
I0
I1
tp2494
Rp2495
(I3
S'|'
p2496
NNNI3
I1
I0
tp2497
bS'VDC'
p2498
tp2499
Rp2500
sS'4RT587T'
p2501
g2
(g3
(S'S4'
p2502
I0
I1
tp2503
Rp2504
(I3
S'|'
p2505
NNNI4
I1
I0
tp2506
bS'DEGF'
p2507
tp2508
Rp2509
sS'AI1AX2Y'
p2510
g2
(g3
(S'S5'
p2511
I0
I1
tp2512
Rp2513
(I3
S'|'
p2514
NNNI5
I1
I0
tp2515
bS'DEGPS'
p2516
tp2517
Rp2518
sS'AI1AX2X'
p2519
g2
(g3
(S'S5'
p2520
I0
I1
tp2521
Rp2522
(I3
S'|'
p2523
NNNI5
I1
I0
tp2524
bS'DEGPS'
p2525
tp2526
Rp2527
sS'TEP_PPAN'
p2528
g2
(g3
(S'S4'
p2529
I0
I1
tp2530
Rp2531
(I3
S'|'
p2532
NNNI4
I1
I0
tp2533
bS'DEGF'
p2534
tp2535
Rp2536
sS'AORWCMD5'
p2537
g2
(g3
(S'S4'
p2538
I0
I1
tp2539
Rp2540
(I3
S'|'
p2541
NNNI4
I1
I0
tp2542
bS'FTLB'
p2543
tp2544
Rp2545
sS'AORWCMD4'
p2546
g2
(g3
(S'S4'
p2547
I0
I1
tp2548
Rp2549
(I3
S'|'
p2550
NNNI4
I1
I0
tp2551
bS'FTLB'
p2552
tp2553
Rp2554
sS'OHRTHR29'
p2555
g2
(g3
(S'S4'
p2556
I0
I1
tp2557
Rp2558
(I3
S'|'
p2559
NNNI4
I1
I0
tp2560
bS'DEGF'
p2561
tp2562
Rp2563
sS'AORWCMD6'
p2564
g2
(g3
(S'S4'
p2565
I0
I1
tp2566
Rp2567
(I3
S'|'
p2568
NNNI4
I1
I0
tp2569
bS'FTLB'
p2570
tp2571
Rp2572
sS'AORWCMD1'
p2573
g2
(g3
(S'S4'
p2574
I0
I1
tp2575
Rp2576
(I3
S'|'
p2577
NNNI4
I1
I0
tp2578
bS'FTLB'
p2579
tp2580
Rp2581
sS'AORWCMD3'
p2582
g2
(g3
(S'S4'
p2583
I0
I1
tp2584
Rp2585
(I3
S'|'
p2586
NNNI4
I1
I0
tp2587
bS'FTLB'
p2588
tp2589
Rp2590
sS'AORWCMD2'
p2591
g2
(g3
(S'S4'
p2592
I0
I1
tp2593
Rp2594
(I3
S'|'
p2595
NNNI4
I1
I0
tp2596
bS'FTLB'
p2597
tp2598
Rp2599
sS'OHRTHR23'
p2600
g2
(g3
(S'S4'
p2601
I0
I1
tp2602
Rp2603
(I3
S'|'
p2604
NNNI4
I1
I0
tp2605
bS'DEGF'
p2606
tp2607
Rp2608
sS'OHRTHR22'
p2609
g2
(g3
(S'S4'
p2610
I0
I1
tp2611
Rp2612
(I3
S'|'
p2613
NNNI4
I1
I0
tp2614
bS'DEGF'
p2615
tp2616
Rp2617
sS'OHRTHR21'
p2618
g2
(g3
(S'S4'
p2619
I0
I1
tp2620
Rp2621
(I3
S'|'
p2622
NNNI4
I1
I0
tp2623
bS'DEGF'
p2624
tp2625
Rp2626
sS'OHRTHR20'
p2627
g2
(g3
(S'S4'
p2628
I0
I1
tp2629
Rp2630
(I3
S'|'
p2631
NNNI4
I1
I0
tp2632
bS'DEGF'
p2633
tp2634
Rp2635
sS'OHRTHR27'
p2636
g2
(g3
(S'S4'
p2637
I0
I1
tp2638
Rp2639
(I3
S'|'
p2640
NNNI4
I1
I0
tp2641
bS'DEGF'
p2642
tp2643
Rp2644
sS'AOCMDAC1'
p2645
g2
(g3
(S'S5'
p2646
I0
I1
tp2647
Rp2648
(I3
S'|'
p2649
NNNI5
I1
I0
tp2650
bS'RADSS'
p2651
tp2652
Rp2653
sS'AOCMDAC2'
p2654
g2
(g3
(S'S5'
p2655
I0
I1
tp2656
Rp2657
(I3
S'|'
p2658
NNNI5
I1
I0
tp2659
bS'RADSS'
p2660
tp2661
Rp2662
sS'AOCMDAC3'
p2663
g2
(g3
(S'S5'
p2664
I0
I1
tp2665
Rp2666
(I3
S'|'
p2667
NNNI5
I1
I0
tp2668
bS'RADSS'
p2669
tp2670
Rp2671
sS'4IN15BV'
p2672
g2
(g3
(S'S3'
p2673
I0
I1
tp2674
Rp2675
(I3
S'|'
p2676
NNNI3
I1
I0
tp2677
bS'VDC'
p2678
tp2679
Rp2680
sS'63RCSTMR'
p2681
g2
(g3
(S'S3'
p2682
I0
I1
tp2683
Rp2684
(I3
S'|'
p2685
NNNI3
I1
I0
tp2686
bS'MIN'
p2687
tp2688
Rp2689
sS'TCNR_BRM'
p2690
g2
(g3
(S'S4'
p2691
I0
I1
tp2692
Rp2693
(I3
S'|'
p2694
NNNI4
I1
I0
tp2695
bS'DEGF'
p2696
tp2697
Rp2698
sS'TCM_IFU'
p2699
g2
(g3
(S'S4'
p2700
I0
I1
tp2701
Rp2702
(I3
S'|'
p2703
NNNI4
I1
I0
tp2704
bS'DEGF'
p2705
tp2706
Rp2707
sS'TCYLFMZP'
p2708
g2
(g3
(S'S4'
p2709
I0
I1
tp2710
Rp2711
(I3
S'|'
p2712
NNNI4
I1
I0
tp2713
bS'DEGF'
p2714
tp2715
Rp2716
sS'EOEB1VC'
p2717
g2
(g3
(S'S1'
p2718
I0
I1
tp2719
Rp2720
(I3
S'|'
p2721
NNNI1
I1
I0
tp2722
bg45
tp2723
Rp2724
sS'TCYLFMZM'
p2725
g2
(g3
(S'S4'
p2726
I0
I1
tp2727
Rp2728
(I3
S'|'
p2729
NNNI4
I1
I0
tp2730
bS'DEGF'
p2731
tp2732
Rp2733
sS'4RT597T'
p2734
g2
(g3
(S'S4'
p2735
I0
I1
tp2736
Rp2737
(I3
S'|'
p2738
NNNI4
I1
I0
tp2739
bS'DEGF'
p2740
tp2741
Rp2742
sS'TEP_RCTU'
p2743
g2
(g3
(S'S4'
p2744
I0
I1
tp2745
Rp2746
(I3
S'|'
p2747
NNNI4
I1
I0
tp2748
bS'DEGF'
p2749
tp2750
Rp2751
sS'4RT702T'
p2752
g2
(g3
(S'S4'
p2753
I0
I1
tp2754
Rp2755
(I3
S'|'
p2756
NNNI4
I1
I0
tp2757
bS'DEGF'
p2758
tp2759
Rp2760
sS'AOSPBCS1B'
p2761
g2
(g3
(S'S4'
p2762
I0
I1
tp2763
Rp2764
(I3
S'|'
p2765
NNNI4
I1
I0
tp2766
bS'MAMP'
p2767
tp2768
Rp2769
sS'1VAHOAT'
p2770
g2
(g3
(S'S4'
p2771
I0
I1
tp2772
Rp2773
(I3
S'|'
p2774
NNNI4
I1
I0
tp2775
bS'DEGC'
p2776
tp2777
Rp2778
sS'AACH1T'
p2779
g2
(g3
(S'S4'
p2780
I0
I1
tp2781
Rp2782
(I3
S'|'
p2783
NNNI4
I1
I0
tp2784
bS'DEGF'
p2785
tp2786
Rp2787
sS'4PRT2AT'
p2788
g2
(g3
(S'S4'
p2789
I0
I1
tp2790
Rp2791
(I3
S'|'
p2792
NNNI4
I1
I0
tp2793
bS'DEGF'
p2794
tp2795
Rp2796
sS'TPC_ESE'
p2797
g2
(g3
(S'S4'
p2798
I0
I1
tp2799
Rp2800
(I3
S'|'
p2801
NNNI4
I1
I0
tp2802
bS'DEGF'
p2803
tp2804
Rp2805
sS'EB3V'
p2806
g2
(g3
(S'S1'
p2807
I0
I1
tp2808
Rp2809
(I3
S'|'
p2810
NNNI1
I1
I0
tp2811
bg45
tp2812
Rp2813
sS'AFLCA9AI'
p2814
g2
(g3
(S'S4'
p2815
I0
I1
tp2816
Rp2817
(I3
S'|'
p2818
NNNI4
I1
I0
tp2819
bS'MAMP'
p2820
tp2821
Rp2822
sS'CTSB5V'
p2823
g2
(g3
(S'S1'
p2824
I0
I1
tp2825
Rp2826
(I3
S'|'
p2827
NNNI1
I1
I0
tp2828
bg45
tp2829
Rp2830
sS'AFLCA1BI'
p2831
g2
(g3
(S'S4'
p2832
I0
I1
tp2833
Rp2834
(I3
S'|'
p2835
NNNI4
I1
I0
tp2836
bS'MAMP'
p2837
tp2838
Rp2839
sS'4VRMHAV'
p2840
g2
(g3
(S'S3'
p2841
I0
I1
tp2842
Rp2843
(I3
S'|'
p2844
NNNI3
I1
I0
tp2845
bS'VDC'
p2846
tp2847
Rp2848
sS'PR4TV01T'
p2849
g2
(g3
(S'S4'
p2850
I0
I1
tp2851
Rp2852
(I3
S'|'
p2853
NNNI4
I1
I0
tp2854
bS'DEGF'
p2855
tp2856
Rp2857
sS'PLINE10T'
p2858
g2
(g3
(S'S4'
p2859
I0
I1
tp2860
Rp2861
(I3
S'|'
p2862
NNNI4
I1
I0
tp2863
bS'DEGF'
p2864
tp2865
Rp2866
sS'TPC_RCTU'
p2867
g2
(g3
(S'S4'
p2868
I0
I1
tp2869
Rp2870
(I3
S'|'
p2871
NNNI4
I1
I0
tp2872
bS'DEGF'
p2873
tp2874
Rp2875
sS'TCM_PA1'
p2876
g2
(g3
(S'S4'
p2877
I0
I1
tp2878
Rp2879
(I3
S'|'
p2880
NNNI4
I1
I0
tp2881
bS'DEGF'
p2882
tp2883
Rp2884
sS'EORTDMN27D'
p2885
g2
(g3
(S'S4'
p2886
I0
I1
tp2887
Rp2888
(I3
S'|'
p2889
NNNI4
I1
I0
tp2890
bS'DEGF'
p2891
tp2892
Rp2893
sS'AESAPHA1'
p2894
g2
(g3
(S'S3'
p2895
I0
I1
tp2896
Rp2897
(I3
S'|'
p2898
NNNI3
I1
I0
tp2899
bS'DEG'
p2900
tp2901
Rp2902
sS'AESAPHA2'
p2903
g2
(g3
(S'S3'
p2904
I0
I1
tp2905
Rp2906
(I3
S'|'
p2907
NNNI3
I1
I0
tp2908
bS'DEG'
p2909
tp2910
Rp2911
sS'PLINE03T'
p2912
g2
(g3
(S'S4'
p2913
I0
I1
tp2914
Rp2915
(I3
S'|'
p2916
NNNI4
I1
I0
tp2917
bS'DEGF'
p2918
tp2919
Rp2920
sS'2FRADPYT'
p2921
g2
(g3
(S'S4'
p2922
I0
I1
tp2923
Rp2924
(I3
S'|'
p2925
NNNI4
I1
I0
tp2926
bS'DEGC'
p2927
tp2928
Rp2929
sS'1DE28BVO'
p2930
g2
(g3
(S'S1'
p2931
I0
I1
tp2932
Rp2933
(I3
S'|'
p2934
NNNI1
I1
I0
tp2935
bg45
tp2936
Rp2937
sS'AOADACH2A_NBG'
p2938
g2
(g3
(S'S3'
p2939
I0
I1
tp2940
Rp2941
(I3
S'|'
p2942
NNNI3
I1
I0
tp2943
bS'DEG'
p2944
tp2945
Rp2946
sS'AORWMOM2'
p2947
g2
(g3
(S'S7'
p2948
I0
I1
tp2949
Rp2950
(I3
S'|'
p2951
NNNI7
I1
I0
tp2952
bS'FTLBSEC'
p2953
tp2954
Rp2955
sS'PLAED4FT'
p2956
g2
(g3
(S'S4'
p2957
I0
I1
tp2958
Rp2959
(I3
S'|'
p2960
NNNI4
I1
I0
tp2961
bS'DEGF'
p2962
tp2963
Rp2964
sS'C28VMONA'
p2965
g2
(g3
(S'S1'
p2966
I0
I1
tp2967
Rp2968
(I3
S'|'
p2969
NNNI1
I1
I0
tp2970
bg45
tp2971
Rp2972
sS'4LLL2BT'
p2973
g2
(g3
(S'S4'
p2974
I0
I1
tp2975
Rp2976
(I3
S'|'
p2977
NNNI4
I1
I0
tp2978
bS'DEGF'
p2979
tp2980
Rp2981
sS'1DEP1BVO'
p2982
g2
(g3
(S'S1'
p2983
I0
I1
tp2984
Rp2985
(I3
S'|'
p2986
NNNI1
I1
I0
tp2987
bg45
tp2988
Rp2989
sS'AOSPACS3B'
p2990
g2
(g3
(S'S4'
p2991
I0
I1
tp2992
Rp2993
(I3
S'|'
p2994
NNNI4
I1
I0
tp2995
bS'MAMP'
p2996
tp2997
Rp2998
sS'PLAEV4BT'
p2999
g2
(g3
(S'S4'
p3000
I0
I1
tp3001
Rp3002
(I3
S'|'
p3003
NNNI4
I1
I0
tp3004
bS'DEGF'
p3005
tp3006
Rp3007
sS'ES2P5CV'
p3008
g2
(g3
(S'S1'
p3009
I0
I1
tp3010
Rp3011
(I3
S'|'
p3012
NNNI1
I1
I0
tp3013
bg45
tp3014
Rp3015
sS'AORWPI5B'
p3016
g2
(g3
(S'S4'
p3017
I0
I1
tp3018
Rp3019
(I3
S'|'
p3020
NNNI4
I1
I0
tp3021
bS'MSEC'
p3022
tp3023
Rp3024
sS'4HLL2BT'
p3025
g2
(g3
(S'S4'
p3026
I0
I1
tp3027
Rp3028
(I3
S'|'
p3029
NNNI4
I1
I0
tp3030
bS'DEGF'
p3031
tp3032
Rp3033
sS'TFSPCMM'
p3034
g2
(g3
(S'S4'
p3035
I0
I1
tp3036
Rp3037
(I3
S'|'
p3038
NNNI4
I1
I0
tp3039
bS'DEGF'
p3040
tp3041
Rp3042
sS'EORTDMN19D'
p3043
g2
(g3
(S'S4'
p3044
I0
I1
tp3045
Rp3046
(I3
S'|'
p3047
NNNI4
I1
I0
tp3048
bS'DEGF'
p3049
tp3050
Rp3051
sS'4HFSPAT'
p3052
g2
(g3
(S'S4'
p3053
I0
I1
tp3054
Rp3055
(I3
S'|'
p3056
NNNI4
I1
I0
tp3057
bS'DEGF'
p3058
tp3059
Rp3060
sS'4MP5BV'
p3061
g2
(g3
(S'S3'
p3062
I0
I1
tp3063
Rp3064
(I3
S'|'
p3065
NNNI3
I1
I0
tp3066
bS'VDC'
p3067
tp3068
Rp3069
sS'3TTRALAT'
p3070
g2
(g3
(S'S4'
p3071
I0
I1
tp3072
Rp3073
(I3
S'|'
p3074
NNNI4
I1
I0
tp3075
bS'DEGC'
p3076
tp3077
Rp3078
sS'TFSPCMP'
p3079
g2
(g3
(S'S4'
p3080
I0
I1
tp3081
Rp3082
(I3
S'|'
p3083
NNNI4
I1
I0
tp3084
bS'DEGF'
p3085
tp3086
Rp3087
sS'AOACZAN5'
p3088
g2
(g3
(S'S4'
p3089
I0
I1
tp3090
Rp3091
(I3
S'|'
p3092
NNNI4
I1
I0
tp3093
bS'ASEC'
p3094
tp3095
Rp3096
sS'AOACZAN4'
p3097
g2
(g3
(S'S4'
p3098
I0
I1
tp3099
Rp3100
(I3
S'|'
p3101
NNNI4
I1
I0
tp3102
bS'ASEC'
p3103
tp3104
Rp3105
sS'AOACZAN7'
p3106
g2
(g3
(S'S4'
p3107
I0
I1
tp3108
Rp3109
(I3
S'|'
p3110
NNNI4
I1
I0
tp3111
bS'ASEC'
p3112
tp3113
Rp3114
sS'AOACZAN6'
p3115
g2
(g3
(S'S4'
p3116
I0
I1
tp3117
Rp3118
(I3
S'|'
p3119
NNNI4
I1
I0
tp3120
bS'ASEC'
p3121
tp3122
Rp3123
sS'AOACZAN1'
p3124
g2
(g3
(S'S4'
p3125
I0
I1
tp3126
Rp3127
(I3
S'|'
p3128
NNNI4
I1
I0
tp3129
bS'ASEC'
p3130
tp3131
Rp3132
sS'AOACZAN0'
p3133
g2
(g3
(S'S4'
p3134
I0
I1
tp3135
Rp3136
(I3
S'|'
p3137
NNNI4
I1
I0
tp3138
bS'ASEC'
p3139
tp3140
Rp3141
sS'AOACZAN3'
p3142
g2
(g3
(S'S4'
p3143
I0
I1
tp3144
Rp3145
(I3
S'|'
p3146
NNNI4
I1
I0
tp3147
bS'ASEC'
p3148
tp3149
Rp3150
sS'AOACZAN2'
p3151
g2
(g3
(S'S4'
p3152
I0
I1
tp3153
Rp3154
(I3
S'|'
p3155
NNNI4
I1
I0
tp3156
bS'ASEC'
p3157
tp3158
Rp3159
sS'3TTHRC2T'
p3160
g2
(g3
(S'S4'
p3161
I0
I1
tp3162
Rp3163
(I3
S'|'
p3164
NNNI4
I1
I0
tp3165
bS'DEGC'
p3166
tp3167
Rp3168
sS'EOEBCC'
p3169
g2
(g3
(S'S3'
p3170
I0
I1
tp3171
Rp3172
(I3
S'|'
p3173
NNNI3
I1
I0
tp3174
bS'AMP'
p3175
tp3176
Rp3177
sS'TCYLAFT4'
p3178
g2
(g3
(S'S4'
p3179
I0
I1
tp3180
Rp3181
(I3
S'|'
p3182
NNNI4
I1
I0
tp3183
bS'DEGF'
p3184
tp3185
Rp3186
sS'OOBTHR26'
p3187
g2
(g3
(S'S4'
p3188
I0
I1
tp3189
Rp3190
(I3
S'|'
p3191
NNNI4
I1
I0
tp3192
bS'DEGF'
p3193
tp3194
Rp3195
sS'CRXALS'
p3196
g2
(g3
(S'S3'
p3197
I0
I1
tp3198
Rp3199
(I3
S'|'
p3200
NNNI3
I1
I0
tp3201
bS'KHZ'
p3202
tp3203
Rp3204
sS'AOYABR'
p3205
g2
(g3
(S'S3'
p3206
I0
I1
tp3207
Rp3208
(I3
S'|'
p3209
NNNI3
I1
I0
tp3210
bS'RAD'
p3211
tp3212
Rp3213
sS'AOSRERR1'
p3214
g2
(g3
(S'S5'
p3215
I0
I1
tp3216
Rp3217
(I3
S'|'
p3218
NNNI5
I1
I0
tp3219
bS'RADPS'
p3220
tp3221
Rp3222
sS'AOSRERR2'
p3223
g2
(g3
(S'S5'
p3224
I0
I1
tp3225
Rp3226
(I3
S'|'
p3227
NNNI5
I1
I0
tp3228
bS'RADPS'
p3229
tp3230
Rp3231
sS'AOSRERR3'
p3232
g2
(g3
(S'S5'
p3233
I0
I1
tp3234
Rp3235
(I3
S'|'
p3236
NNNI5
I1
I0
tp3237
bS'RADPS'
p3238
tp3239
Rp3240
sS'PLAED2GT'
p3241
g2
(g3
(S'S4'
p3242
I0
I1
tp3243
Rp3244
(I3
S'|'
p3245
NNNI4
I1
I0
tp3246
bS'DEGF'
p3247
tp3248
Rp3249
sS'CXO5VOBB'
p3250
g2
(g3
(S'S1'
p3251
I0
I1
tp3252
Rp3253
(I3
S'|'
p3254
NNNI1
I1
I0
tp3255
bg45
tp3256
Rp3257
sS'AOSAEST1'
p3258
g2
(g3
(S'S3'
p3259
I0
I1
tp3260
Rp3261
(I3
S'|'
p3262
NNNI3
I1
I0
tp3263
bS'RAD'
p3264
tp3265
Rp3266
sS'1DAHACU'
p3267
g2
(g3
(S'S3'
p3268
I0
I1
tp3269
Rp3270
(I3
S'|'
p3271
NNNI3
I1
I0
tp3272
bS'AMP'
p3273
tp3274
Rp3275
sS'4RT565T'
p3276
g2
(g3
(S'S4'
p3277
I0
I1
tp3278
Rp3279
(I3
S'|'
p3280
NNNI4
I1
I0
tp3281
bS'DEGF'
p3282
tp3283
Rp3284
sS'AORWINT3'
p3285
g2
(g3
(S'S4'
p3286
I0
I1
tp3287
Rp3288
(I3
S'|'
p3289
NNNI4
I1
I0
tp3290
bS'MSEC'
p3291
tp3292
Rp3293
sS'PM3THV1T'
p3294
g2
(g3
(S'S4'
p3295
I0
I1
tp3296
Rp3297
(I3
S'|'
p3298
NNNI4
I1
I0
tp3299
bS'DEGF'
p3300
tp3301
Rp3302
sS'4LPOSBRO'
p3303
g2
(g3
(S'S3'
p3304
I0
I1
tp3305
Rp3306
(I3
S'|'
p3307
NNNI3
I1
I0
tp3308
bS'DEG'
p3309
tp3310
Rp3311
sS'AOETIMEX'
p3312
g2
(g3
(S'S3'
p3313
I0
I1
tp3314
Rp3315
(I3
S'|'
p3316
NNNI3
I1
I0
tp3317
bS'SEC'
p3318
tp3319
Rp3320
sS'4RT594T'
p3321
g2
(g3
(S'S4'
p3322
I0
I1
tp3323
Rp3324
(I3
S'|'
p3325
NNNI4
I1
I0
tp3326
bS'DEGF'
p3327
tp3328
Rp3329
sS'6SARES2'
p3330
g2
(g3
(S'S3'
p3331
I0
I1
tp3332
Rp3333
(I3
S'|'
p3334
NNNI3
I1
I0
tp3335
bS'DEG'
p3336
tp3337
Rp3338
sS'6SARES1'
p3339
g2
(g3
(S'S3'
p3340
I0
I1
tp3341
Rp3342
(I3
S'|'
p3343
NNNI3
I1
I0
tp3344
bS'DEG'
p3345
tp3346
Rp3347
sS'4RT701T'
p3348
g2
(g3
(S'S4'
p3349
I0
I1
tp3350
Rp3351
(I3
S'|'
p3352
NNNI4
I1
I0
tp3353
bS'DEGF'
p3354
tp3355
Rp3356
sS'1DEN0BVO'
p3357
g2
(g3
(S'S1'
p3358
I0
I1
tp3359
Rp3360
(I3
S'|'
p3361
NNNI1
I1
I0
tp3362
bg45
tp3363
Rp3364
sS'4IP15BV'
p3365
g2
(g3
(S'S3'
p3366
I0
I1
tp3367
Rp3368
(I3
S'|'
p3369
NNNI3
I1
I0
tp3370
bS'VDC'
p3371
tp3372
Rp3373
sS'4ALL2BT'
p3374
g2
(g3
(S'S4'
p3375
I0
I1
tp3376
Rp3377
(I3
S'|'
p3378
NNNI4
I1
I0
tp3379
bS'DEGF'
p3380
tp3381
Rp3382
sS'AORWINT6'
p3383
g2
(g3
(S'S4'
p3384
I0
I1
tp3385
Rp3386
(I3
S'|'
p3387
NNNI4
I1
I0
tp3388
bS'MSEC'
p3389
tp3390
Rp3391
sS'CIUB5V'
p3392
g2
(g3
(S'S1'
p3393
I0
I1
tp3394
Rp3395
(I3
S'|'
p3396
NNNI1
I1
I0
tp3397
bg45
tp3398
Rp3399
sS'3FAMTRAT'
p3400
g2
(g3
(S'S4'
p3401
I0
I1
tp3402
Rp3403
(I3
S'|'
p3404
NNNI4
I1
I0
tp3405
bS'DEGC'
p3406
tp3407
Rp3408
sS'OOBTHR19'
p3409
g2
(g3
(S'S4'
p3410
I0
I1
tp3411
Rp3412
(I3
S'|'
p3413
NNNI4
I1
I0
tp3414
bS'DEGF'
p3415
tp3416
Rp3417
sS'CTUA15V'
p3418
g2
(g3
(S'S1'
p3419
I0
I1
tp3420
Rp3421
(I3
S'|'
p3422
NNNI1
I1
I0
tp3423
bg45
tp3424
Rp3425
sS'4CSDHBV'
p3426
g2
(g3
(S'S3'
p3427
I0
I1
tp3428
Rp3429
(I3
S'|'
p3430
NNNI3
I1
I0
tp3431
bS'VDC'
p3432
tp3433
Rp3434
sS'AFLC10BI'
p3435
g2
(g3
(S'S4'
p3436
I0
I1
tp3437
Rp3438
(I3
S'|'
p3439
NNNI4
I1
I0
tp3440
bS'MAMP'
p3441
tp3442
Rp3443
sS'PLAED2ET'
p3444
g2
(g3
(S'S4'
p3445
I0
I1
tp3446
Rp3447
(I3
S'|'
p3448
NNNI4
I1
I0
tp3449
bS'DEGF'
p3450
tp3451
Rp3452
sS'CSSR1CAV'
p3453
g2
(g3
(S'S1'
p3454
I0
I1
tp3455
Rp3456
(I3
S'|'
p3457
NNNI1
I1
I0
tp3458
bg45
tp3459
Rp3460
sS'TMP_BEP_OSC'
p3461
g299
sS'AOINTTIM'
p3462
g2
(g3
(S'S3'
p3463
I0
I1
tp3464
Rp3465
(I3
S'|'
p3466
NNNI3
I1
I0
tp3467
bS'SEC'
p3468
tp3469
Rp3470
sS'3TTBRGBT'
p3471
g2
(g3
(S'S4'
p3472
I0
I1
tp3473
Rp3474
(I3
S'|'
p3475
NNNI4
I1
I0
tp3476
bS'DEGC'
p3477
tp3478
Rp3479
sS'EOESAC2C'
p3480
g2
(g3
(S'S3'
p3481
I0
I1
tp3482
Rp3483
(I3
S'|'
p3484
NNNI3
I1
I0
tp3485
bS'AMP'
p3486
tp3487
Rp3488
sS'AORWINT1'
p3489
g2
(g3
(S'S4'
p3490
I0
I1
tp3491
Rp3492
(I3
S'|'
p3493
NNNI4
I1
I0
tp3494
bS'MSEC'
p3495
tp3496
Rp3497
sS'AORWINT2'
p3498
g2
(g3
(S'S4'
p3499
I0
I1
tp3500
Rp3501
(I3
S'|'
p3502
NNNI4
I1
I0
tp3503
bS'MSEC'
p3504
tp3505
Rp3506
sS'4IP5AV'
p3507
g2
(g3
(S'S3'
p3508
I0
I1
tp3509
Rp3510
(I3
S'|'
p3511
NNNI3
I1
I0
tp3512
bS'VDC'
p3513
tp3514
Rp3515
sS'AORWINT4'
p3516
g2
(g3
(S'S4'
p3517
I0
I1
tp3518
Rp3519
(I3
S'|'
p3520
NNNI4
I1
I0
tp3521
bS'MSEC'
p3522
tp3523
Rp3524
sS'1DACTAT'
p3525
g2
(g3
(S'S3'
p3526
I0
I1
tp3527
Rp3528
(I3
S'|'
p3529
NNNI3
I1
I0
tp3530
bS'DEG'
p3531
tp3532
Rp3533
sS'4RT557T'
p3534
g2
(g3
(S'S4'
p3535
I0
I1
tp3536
Rp3537
(I3
S'|'
p3538
NNNI4
I1
I0
tp3539
bS'DEGF'
p3540
tp3541
Rp3542
sS'AFLCA4AI'
p3543
g2
(g3
(S'S4'
p3544
I0
I1
tp3545
Rp3546
(I3
S'|'
p3547
NNNI4
I1
I0
tp3548
bS'MAMP'
p3549
tp3550
Rp3551
sS'OOBTHR15'
p3552
g2
(g3
(S'S4'
p3553
I0
I1
tp3554
Rp3555
(I3
S'|'
p3556
NNNI4
I1
I0
tp3557
bS'DEGF'
p3558
tp3559
Rp3560
sS'4SP51V'
p3561
g2
(g3
(S'S3'
p3562
I0
I1
tp3563
Rp3564
(I3
S'|'
p3565
NNNI3
I1
I0
tp3566
bS'VDC'
p3567
tp3568
Rp3569
sS'EORTDMN25D'
p3570
g2
(g3
(S'S4'
p3571
I0
I1
tp3572
Rp3573
(I3
S'|'
p3574
NNNI4
I1
I0
tp3575
bS'DEGF'
p3576
tp3577
Rp3578
sS'PLAED2CT'
p3579
g2
(g3
(S'S4'
p3580
I0
I1
tp3581
Rp3582
(I3
S'|'
p3583
NNNI4
I1
I0
tp3584
bS'DEGF'
p3585
tp3586
Rp3587
sS'4RT577T'
p3588
g2
(g3
(S'S4'
p3589
I0
I1
tp3590
Rp3591
(I3
S'|'
p3592
NNNI4
I1
I0
tp3593
bS'DEGF'
p3594
tp3595
Rp3596
sS'4IN15AV'
p3597
g2
(g3
(S'S3'
p3598
I0
I1
tp3599
Rp3600
(I3
S'|'
p3601
NNNI3
I1
I0
tp3602
bS'VDC'
p3603
tp3604
Rp3605
sS'C10VREFA'
p3606
g2
(g3
(S'S3'
p3607
I0
I1
tp3608
Rp3609
(I3
S'|'
p3610
NNNI3
I1
I0
tp3611
bS'VDC'
p3612
tp3613
Rp3614
sS'EOEB2VC'
p3615
g2
(g3
(S'S1'
p3616
I0
I1
tp3617
Rp3618
(I3
S'|'
p3619
NNNI1
I1
I0
tp3620
bg45
tp3621
Rp3622
sS'4PRT3BT'
p3623
g2
(g3
(S'S4'
p3624
I0
I1
tp3625
Rp3626
(I3
S'|'
p3627
NNNI4
I1
I0
tp3628
bS'DEGF'
p3629
tp3630
Rp3631
sS'AWD1CV5V'
p3632
g2
(g3
(S'S1'
p3633
I0
I1
tp3634
Rp3635
(I3
S'|'
p3636
NNNI1
I1
I0
tp3637
bg45
tp3638
Rp3639
sS'PMTANK3T'
p3640
g2
(g3
(S'S4'
p3641
I0
I1
tp3642
Rp3643
(I3
S'|'
p3644
NNNI4
I1
I0
tp3645
bS'DEGF'
p3646
tp3647
Rp3648
sS'AFLCA8BI'
p3649
g2
(g3
(S'S4'
p3650
I0
I1
tp3651
Rp3652
(I3
S'|'
p3653
NNNI4
I1
I0
tp3654
bS'MAMP'
p3655
tp3656
Rp3657
sS'PLAED1DT'
p3658
g2
(g3
(S'S4'
p3659
I0
I1
tp3660
Rp3661
(I3
S'|'
p3662
NNNI4
I1
I0
tp3663
bS'DEGF'
p3664
tp3665
Rp3666
sS'ARWA3BT'
p3667
g2
(g3
(S'S4'
p3668
I0
I1
tp3669
Rp3670
(I3
S'|'
p3671
NNNI4
I1
I0
tp3672
bS'DEGF'
p3673
tp3674
Rp3675
sS'AOACINTT'
p3676
g2
(g3
(S'S4'
p3677
I0
I1
tp3678
Rp3679
(I3
S'|'
p3680
NNNI4
I1
I0
tp3681
bS'MSEC'
p3682
tp3683
Rp3684
sS'OHRTHR63'
p3685
g2
(g3
(S'S4'
p3686
I0
I1
tp3687
Rp3688
(I3
S'|'
p3689
NNNI4
I1
I0
tp3690
bS'DEGF'
p3691
tp3692
Rp3693
sS'3BTU_BPT'
p3694
g2
(g3
(S'S4'
p3695
I0
I1
tp3696
Rp3697
(I3
S'|'
p3698
NNNI4
I1
I0
tp3699
bS'DEGC'
p3700
tp3701
Rp3702
sS'OHRTHR61'
p3703
g2
(g3
(S'S4'
p3704
I0
I1
tp3705
Rp3706
(I3
S'|'
p3707
NNNI4
I1
I0
tp3708
bS'DEGF'
p3709
tp3710
Rp3711
sS'C10VREFB'
p3712
g2
(g3
(S'S3'
p3713
I0
I1
tp3714
Rp3715
(I3
S'|'
p3716
NNNI3
I1
I0
tp3717
bS'VDC'
p3718
tp3719
Rp3720
sS'AOSYMOM3'
p3721
g2
(g3
(S'S7'
p3722
I0
I1
tp3723
Rp3724
(I3
S'|'
p3725
NNNI7
I1
I0
tp3726
bS'FTLBSEC'
p3727
tp3728
Rp3729
sS'AOSYMOM2'
p3730
g2
(g3
(S'S7'
p3731
I0
I1
tp3732
Rp3733
(I3
S'|'
p3734
NNNI7
I1
I0
tp3735
bS'FTLBSEC'
p3736
tp3737
Rp3738
sS'6BETANG'
p3739
g2
(g3
(S'S3'
p3740
I0
I1
tp3741
Rp3742
(I3
S'|'
p3743
NNNI3
I1
I0
tp3744
bS'DEG'
p3745
tp3746
Rp3747
sS'EOEBCC_LOW'
p3748
g2
(g3
(S'S3'
p3749
I0
I1
tp3750
Rp3751
(I3
S'|'
p3752
NNNI3
I1
I0
tp3753
bS'AMP'
p3754
tp3755
Rp3756
sS'AFLCA2AI'
p3757
g2
(g3
(S'S4'
p3758
I0
I1
tp3759
Rp3760
(I3
S'|'
p3761
NNNI4
I1
I0
tp3762
bS'MAMP'
p3763
tp3764
Rp3765
sS'1OAHBT'
p3766
g2
(g3
(S'S4'
p3767
I0
I1
tp3768
Rp3769
(I3
S'|'
p3770
NNNI4
I1
I0
tp3771
bS'DEGC'
p3772
tp3773
Rp3774
sS'TCYLAFT1'
p3775
g2
(g3
(S'S4'
p3776
I0
I1
tp3777
Rp3778
(I3
S'|'
p3779
NNNI4
I1
I0
tp3780
bS'DEGF'
p3781
tp3782
Rp3783
sS'1DAHBCU'
p3784
g2
(g3
(S'S3'
p3785
I0
I1
tp3786
Rp3787
(I3
S'|'
p3788
NNNI3
I1
I0
tp3789
bS'AMP'
p3790
tp3791
Rp3792
sS'PLAEV1AT'
p3793
g2
(g3
(S'S4'
p3794
I0
I1
tp3795
Rp3796
(I3
S'|'
p3797
NNNI4
I1
I0
tp3798
bS'DEGF'
p3799
tp3800
Rp3801
sS'PMFP01T'
p3802
g2
(g3
(S'S4'
p3803
I0
I1
tp3804
Rp3805
(I3
S'|'
p3806
NNNI4
I1
I0
tp3807
bS'DEGF'
p3808
tp3809
Rp3810
sS'AFLCA5BI'
p3811
g2
(g3
(S'S4'
p3812
I0
I1
tp3813
Rp3814
(I3
S'|'
p3815
NNNI4
I1
I0
tp3816
bS'MAMP'
p3817
tp3818
Rp3819
sS'ECNV3V'
p3820
g2
(g3
(S'S1'
p3821
I0
I1
tp3822
Rp3823
(I3
S'|'
p3824
NNNI1
I1
I0
tp3825
bg45
tp3826
Rp3827
sS'PLINE15T'
p3828
g2
(g3
(S'S4'
p3829
I0
I1
tp3830
Rp3831
(I3
S'|'
p3832
NNNI4
I1
I0
tp3833
bS'DEGF'
p3834
tp3835
Rp3836
sS'4RT583T'
p3837
g2
(g3
(S'S4'
p3838
I0
I1
tp3839
Rp3840
(I3
S'|'
p3841
NNNI4
I1
I0
tp3842
bS'DEGF'
p3843
tp3844
Rp3845
sS'AIOAP5CV'
p3846
g2
(g3
(S'S1'
p3847
I0
I1
tp3848
Rp3849
(I3
S'|'
p3850
NNNI1
I1
I0
tp3851
bg45
tp3852
Rp3853
sS'TFSPRWC'
p3854
g2
(g3
(S'S4'
p3855
I0
I1
tp3856
Rp3857
(I3
S'|'
p3858
NNNI4
I1
I0
tp3859
bS'DEGF'
p3860
tp3861
Rp3862
sS'4RT593T'
p3863
g2
(g3
(S'S4'
p3864
I0
I1
tp3865
Rp3866
(I3
S'|'
p3867
NNNI4
I1
I0
tp3868
bS'DEGF'
p3869
tp3870
Rp3871
sS'TATECDRT'
p3872
g2
(g3
(S'S4'
p3873
I0
I1
tp3874
Rp3875
(I3
S'|'
p3876
NNNI4
I1
I0
tp3877
bS'DEGF'
p3878
tp3879
Rp3880
sS'4RT559T'
p3881
g2
(g3
(S'S4'
p3882
I0
I1
tp3883
Rp3884
(I3
S'|'
p3885
NNNI4
I1
I0
tp3886
bS'DEGF'
p3887
tp3888
Rp3889
sS'TSCTSF1'
p3890
g2
(g3
(S'S4'
p3891
I0
I1
tp3892
Rp3893
(I3
S'|'
p3894
NNNI4
I1
I0
tp3895
bS'DEGF'
p3896
tp3897
Rp3898
sS'TSCTSF2'
p3899
g2
(g3
(S'S4'
p3900
I0
I1
tp3901
Rp3902
(I3
S'|'
p3903
NNNI4
I1
I0
tp3904
bS'DEGF'
p3905
tp3906
Rp3907
sS'TSCTSF3'
p3908
g2
(g3
(S'S4'
p3909
I0
I1
tp3910
Rp3911
(I3
S'|'
p3912
NNNI4
I1
I0
tp3913
bS'DEGF'
p3914
tp3915
Rp3916
sS'TSCTSF4'
p3917
g2
(g3
(S'S4'
p3918
I0
I1
tp3919
Rp3920
(I3
S'|'
p3921
NNNI4
I1
I0
tp3922
bS'DEGF'
p3923
tp3924
Rp3925
sS'TSCTSF5'
p3926
g2
(g3
(S'S4'
p3927
I0
I1
tp3928
Rp3929
(I3
S'|'
p3930
NNNI4
I1
I0
tp3931
bS'DEGF'
p3932
tp3933
Rp3934
sS'4PRT5BT'
p3935
g2
(g3
(S'S4'
p3936
I0
I1
tp3937
Rp3938
(I3
S'|'
p3939
NNNI4
I1
I0
tp3940
bS'DEGF'
p3941
tp3942
Rp3943
sS'AFLCA6BI'
p3944
g2
(g3
(S'S4'
p3945
I0
I1
tp3946
Rp3947
(I3
S'|'
p3948
NNNI4
I1
I0
tp3949
bS'MAMP'
p3950
tp3951
Rp3952
sS'TCM_RFAS'
p3953
g2
(g3
(S'S4'
p3954
I0
I1
tp3955
Rp3956
(I3
S'|'
p3957
NNNI4
I1
I0
tp3958
bS'DEGF'
p3959
tp3960
Rp3961
sS'PLAED4ET'
p3962
g2
(g3
(S'S4'
p3963
I0
I1
tp3964
Rp3965
(I3
S'|'
p3966
NNNI4
I1
I0
tp3967
bS'DEGF'
p3968
tp3969
Rp3970
sS'3FAFLBAT'
p3971
g2
(g3
(S'S4'
p3972
I0
I1
tp3973
Rp3974
(I3
S'|'
p3975
NNNI4
I1
I0
tp3976
bS'DEGC'
p3977
tp3978
Rp3979
sS'6SARATC2'
p3980
g2
(g3
(S'S5'
p3981
I0
I1
tp3982
Rp3983
(I3
S'|'
p3984
NNNI5
I1
I0
tp3985
bS'RADPS'
p3986
tp3987
Rp3988
sS'1DEICACU'
p3989
g2
(g3
(S'S3'
p3990
I0
I1
tp3991
Rp3992
(I3
S'|'
p3993
NNNI3
I1
I0
tp3994
bS'AMP'
p3995
tp3996
Rp3997
sS'6SARATC1'
p3998
g2
(g3
(S'S5'
p3999
I0
I1
tp4000
Rp4001
(I3
S'|'
p4002
NNNI5
I1
I0
tp4003
bS'RADPS'
p4004
tp4005
Rp4006
sS'1MAHCAT'
p4007
g2
(g3
(S'S4'
p4008
I0
I1
tp4009
Rp4010
(I3
S'|'
p4011
NNNI4
I1
I0
tp4012
bS'DEGC'
p4013
tp4014
Rp4015
sS'PR3TV02T'
p4016
g2
(g3
(S'S4'
p4017
I0
I1
tp4018
Rp4019
(I3
S'|'
p4020
NNNI4
I1
I0
tp4021
bS'DEGF'
p4022
tp4023
Rp4024
sS'3TSPZSPT'
p4025
g2
(g3
(S'S4'
p4026
I0
I1
tp4027
Rp4028
(I3
S'|'
p4029
NNNI4
I1
I0
tp4030
bS'DEGC'
p4031
tp4032
Rp4033
sS'HKEBOXTEMP'
p4034
S'DEGF'
p4035
sS'1DEP3BVO'
p4036
g2
(g3
(S'S1'
p4037
I0
I1
tp4038
Rp4039
(I3
S'|'
p4040
NNNI1
I1
I0
tp4041
bg45
tp4042
Rp4043
sS'AOAVGDTQ'
p4044
g2
(g3
(S'S4'
p4045
I0
I1
tp4046
Rp4047
(I3
S'|'
p4048
NNNI4
I1
I0
tp4049
bS'FTLB'
p4050
tp4051
Rp4052
sS'CXO5VOBA'
p4053
g2
(g3
(S'S1'
p4054
I0
I1
tp4055
Rp4056
(I3
S'|'
p4057
NNNI1
I1
I0
tp4058
bg45
tp4059
Rp4060
sS'EORTDMN17D'
p4061
g2
(g3
(S'S4'
p4062
I0
I1
tp4063
Rp4064
(I3
S'|'
p4065
NNNI4
I1
I0
tp4066
bS'DEGF'
p4067
tp4068
Rp4069
sS'PLAED4BT'
p4070
g2
(g3
(S'S4'
p4071
I0
I1
tp4072
Rp4073
(I3
S'|'
p4074
NNNI4
I1
I0
tp4075
bS'DEGF'
p4076
tp4077
Rp4078
sS'ADE1P5CV'
p4079
g2
(g3
(S'S1'
p4080
I0
I1
tp4081
Rp4082
(I3
S'|'
p4083
NNNI1
I1
I0
tp4084
bg45
tp4085
Rp4086
sS'TFSPPCU'
p4087
g2
(g3
(S'S4'
p4088
I0
I1
tp4089
Rp4090
(I3
S'|'
p4091
NNNI4
I1
I0
tp4092
bS'DEGF'
p4093
tp4094
Rp4095
sS'4RT560T'
p4096
g2
(g3
(S'S4'
p4097
I0
I1
tp4098
Rp4099
(I3
S'|'
p4100
NNNI4
I1
I0
tp4101
bS'DEGF'
p4102
tp4103
Rp4104
sS'AORESZ7'
p4105
g2
(g3
(S'S3'
p4106
I0
I1
tp4107
Rp4108
(I3
S'|'
p4109
NNNI3
I1
I0
tp4110
bS'RAD'
p4111
tp4112
Rp4113
sS'6RWSPD3'
p4114
g2
(g3
(S'S5'
p4115
I0
I1
tp4116
Rp4117
(I3
S'|'
p4118
NNNI5
I1
I0
tp4119
bS'RADPS'
p4120
tp4121
Rp4122
sS'6RWSPD2'
p4123
g2
(g3
(S'S5'
p4124
I0
I1
tp4125
Rp4126
(I3
S'|'
p4127
NNNI5
I1
I0
tp4128
bS'RADPS'
p4129
tp4130
Rp4131
sS'6RWSPD5'
p4132
g2
(g3
(S'S5'
p4133
I0
I1
tp4134
Rp4135
(I3
S'|'
p4136
NNNI5
I1
I0
tp4137
bS'RADPS'
p4138
tp4139
Rp4140
sS'6RWSPD4'
p4141
g2
(g3
(S'S5'
p4142
I0
I1
tp4143
Rp4144
(I3
S'|'
p4145
NNNI5
I1
I0
tp4146
bS'RADPS'
p4147
tp4148
Rp4149
sS'6RWSPD6'
p4150
g2
(g3
(S'S5'
p4151
I0
I1
tp4152
Rp4153
(I3
S'|'
p4154
NNNI5
I1
I0
tp4155
bS'RADPS'
p4156
tp4157
Rp4158
sS'1MAHOAT'
p4159
g2
(g3
(S'S4'
p4160
I0
I1
tp4161
Rp4162
(I3
S'|'
p4163
NNNI4
I1
I0
tp4164
bS'DEGC'
p4165
tp4166
Rp4167
sS'AFLCA7AI'
p4168
g2
(g3
(S'S4'
p4169
I0
I1
tp4170
Rp4171
(I3
S'|'
p4172
NNNI4
I1
I0
tp4173
bS'MAMP'
p4174
tp4175
Rp4176
sS'EB2DI'
p4177
g2
(g3
(S'S3'
p4178
I0
I1
tp4179
Rp4180
(I3
S'|'
p4181
NNNI3
I1
I0
tp4182
bS'AMP'
p4183
tp4184
Rp4185
sS'EORTDMN24D'
p4186
g2
(g3
(S'S4'
p4187
I0
I1
tp4188
Rp4189
(I3
S'|'
p4190
NNNI4
I1
I0
tp4191
bS'DEGF'
p4192
tp4193
Rp4194
sS'TRSPRWBB'
p4195
g2
(g3
(S'S4'
p4196
I0
I1
tp4197
Rp4198
(I3
S'|'
p4199
NNNI4
I1
I0
tp4200
bS'DEGF'
p4201
tp4202
Rp4203
sS'TRSPRWBC'
p4204
g2
(g3
(S'S4'
p4205
I0
I1
tp4206
Rp4207
(I3
S'|'
p4208
NNNI4
I1
I0
tp4209
bS'DEGF'
p4210
tp4211
Rp4212
sS'FPTEMP_11'
p4213
g299
sS'FPTEMP_12'
p4214
g299
sS'AORWPI1B'
p4215
g2
(g3
(S'S4'
p4216
I0
I1
tp4217
Rp4218
(I3
S'|'
p4219
NNNI4
I1
I0
tp4220
bS'MSEC'
p4221
tp4222
Rp4223
sS'EB1DI'
p4224
g2
(g3
(S'S3'
p4225
I0
I1
tp4226
Rp4227
(I3
S'|'
p4228
NNNI3
I1
I0
tp4229
bS'AMP'
p4230
tp4231
Rp4232
sS'PLAED3FT'
p4233
g2
(g3
(S'S4'
p4234
I0
I1
tp4235
Rp4236
(I3
S'|'
p4237
NNNI4
I1
I0
tp4238
bS'DEGF'
p4239
tp4240
Rp4241
sS'AFLCA3AI'
p4242
g2
(g3
(S'S4'
p4243
I0
I1
tp4244
Rp4245
(I3
S'|'
p4246
NNNI4
I1
I0
tp4247
bS'MAMP'
p4248
tp4249
Rp4250
sS'AFSSPC1V'
p4251
g2
(g3
(S'S1'
p4252
I0
I1
tp4253
Rp4254
(I3
S'|'
p4255
NNNI1
I1
I0
tp4256
bg45
tp4257
Rp4258
sS'TSCIUSF2'
p4259
g2
(g3
(S'S4'
p4260
I0
I1
tp4261
Rp4262
(I3
S'|'
p4263
NNNI4
I1
I0
tp4264
bS'DEGF'
p4265
tp4266
Rp4267
sS'TSCIUSF5'
p4268
g2
(g3
(S'S4'
p4269
I0
I1
tp4270
Rp4271
(I3
S'|'
p4272
NNNI4
I1
I0
tp4273
bS'DEGF'
p4274
tp4275
Rp4276
sS'AVD1CV5V'
p4277
g2
(g3
(S'S1'
p4278
I0
I1
tp4279
Rp4280
(I3
S'|'
p4281
NNNI1
I1
I0
tp4282
bg45
tp4283
Rp4284
sS'TSCIUSF8'
p4285
g2
(g3
(S'S4'
p4286
I0
I1
tp4287
Rp4288
(I3
S'|'
p4289
NNNI4
I1
I0
tp4290
bS'DEGF'
p4291
tp4292
Rp4293
sS'1HOPRAPR'
p4294
g2
(g3
(S'S4'
p4295
I0
I1
tp4296
Rp4297
(I3
S'|'
p4298
NNNI4
I1
I0
tp4299
bS'TORR'
p4300
tp4301
Rp4302
sS'ADE2P5CV'
p4303
g2
(g3
(S'S1'
p4304
I0
I1
tp4305
Rp4306
(I3
S'|'
p4307
NNNI1
I1
I0
tp4308
bg45
tp4309
Rp4310
sS'TASPPCP'
p4311
g2
(g3
(S'S4'
p4312
I0
I1
tp4313
Rp4314
(I3
S'|'
p4315
NNNI4
I1
I0
tp4316
bS'DEGF'
p4317
tp4318
Rp4319
sS'3TTACS3T'
p4320
g2
(g3
(S'S4'
p4321
I0
I1
tp4322
Rp4323
(I3
S'|'
p4324
NNNI4
I1
I0
tp4325
bS'DEGC'
p4326
tp4327
Rp4328
sS'CTSA15V'
p4329
g2
(g3
(S'S1'
p4330
I0
I1
tp4331
Rp4332
(I3
S'|'
p4333
NNNI1
I1
I0
tp4334
bg45
tp4335
Rp4336
sS'PFDM102T'
p4337
g2
(g3
(S'S4'
p4338
I0
I1
tp4339
Rp4340
(I3
S'|'
p4341
NNNI4
I1
I0
tp4342
bS'DEGF'
p4343
tp4344
Rp4345
sS'PFDM202T'
p4346
g2
(g3
(S'S4'
p4347
I0
I1
tp4348
Rp4349
(I3
S'|'
p4350
NNNI4
I1
I0
tp4351
bS'DEGF'
p4352
tp4353
Rp4354
sS'4MP28AV'
p4355
g2
(g3
(S'S3'
p4356
I0
I1
tp4357
Rp4358
(I3
S'|'
p4359
NNNI3
I1
I0
tp4360
bS'VDC'
p4361
tp4362
Rp4363
sS'4RT586T'
p4364
g2
(g3
(S'S4'
p4365
I0
I1
tp4366
Rp4367
(I3
S'|'
p4368
NNNI4
I1
I0
tp4369
bS'DEGF'
p4370
tp4371
Rp4372
sS'TEP_PSU1'
p4373
g2
(g3
(S'S4'
p4374
I0
I1
tp4375
Rp4376
(I3
S'|'
p4377
NNNI4
I1
I0
tp4378
bS'DEGF'
p4379
tp4380
Rp4381
sS'CPA2V'
p4382
g2
(g3
(S'S1'
p4383
I0
I1
tp4384
Rp4385
(I3
S'|'
p4386
NNNI1
I1
I0
tp4387
bg45
tp4388
Rp4389
sS'PXDM01T'
p4390
g2
(g3
(S'S4'
p4391
I0
I1
tp4392
Rp4393
(I3
S'|'
p4394
NNNI4
I1
I0
tp4395
bS'DEGF'
p4396
tp4397
Rp4398
sS'OOBTHR37'
p4399
g2
(g3
(S'S4'
p4400
I0
I1
tp4401
Rp4402
(I3
S'|'
p4403
NNNI4
I1
I0
tp4404
bS'DEGF'
p4405
tp4406
Rp4407
sS'OOBTHR36'
p4408
g2
(g3
(S'S4'
p4409
I0
I1
tp4410
Rp4411
(I3
S'|'
p4412
NNNI4
I1
I0
tp4413
bS'DEGF'
p4414
tp4415
Rp4416
sS'OOBTHR35'
p4417
g2
(g3
(S'S4'
p4418
I0
I1
tp4419
Rp4420
(I3
S'|'
p4421
NNNI4
I1
I0
tp4422
bS'DEGF'
p4423
tp4424
Rp4425
sS'4RT705T'
p4426
g2
(g3
(S'S4'
p4427
I0
I1
tp4428
Rp4429
(I3
S'|'
p4430
NNNI4
I1
I0
tp4431
bS'DEGF'
p4432
tp4433
Rp4434
sS'CUSOBIT'
p4435
g2
(g3
(S'S4'
p4436
I0
I1
tp4437
Rp4438
(I3
S'|'
p4439
NNNI4
I1
I0
tp4440
bS'DEGF'
p4441
tp4442
Rp4443
sS'6SUNER1'
p4444
g2
(g3
(S'S3'
p4445
I0
I1
tp4446
Rp4447
(I3
S'|'
p4448
NNNI3
I1
I0
tp4449
bS'RAD'
p4450
tp4451
Rp4452
sS'6SUNER2'
p4453
g2
(g3
(S'S3'
p4454
I0
I1
tp4455
Rp4456
(I3
S'|'
p4457
NNNI3
I1
I0
tp4458
bS'RAD'
p4459
tp4460
Rp4461
sS'6SUNER3'
p4462
g2
(g3
(S'S3'
p4463
I0
I1
tp4464
Rp4465
(I3
S'|'
p4466
NNNI3
I1
I0
tp4467
bS'RAD'
p4468
tp4469
Rp4470
sS'AOSYMOM1'
p4471
g2
(g3
(S'S7'
p4472
I0
I1
tp4473
Rp4474
(I3
S'|'
p4475
NNNI7
I1
I0
tp4476
bS'FTLBSEC'
p4477
tp4478
Rp4479
sS'OOBTHR39'
p4480
g2
(g3
(S'S4'
p4481
I0
I1
tp4482
Rp4483
(I3
S'|'
p4484
NNNI4
I1
I0
tp4485
bS'DEGF'
p4486
tp4487
Rp4488
sS'OOBTHR38'
p4489
g2
(g3
(S'S4'
p4490
I0
I1
tp4491
Rp4492
(I3
S'|'
p4493
NNNI4
I1
I0
tp4494
bS'DEGF'
p4495
tp4496
Rp4497
sS'2P24VBVL'
p4498
g2
(g3
(S'S3'
p4499
I0
I1
tp4500
Rp4501
(I3
S'|'
p4502
NNNI3
I1
I0
tp4503
bS'VDC'
p4504
tp4505
Rp4506
sS'AIRU2G2T'
p4507
g2
(g3
(S'S4'
p4508
I0
I1
tp4509
Rp4510
(I3
S'|'
p4511
NNNI4
I1
I0
tp4512
bS'DEGF'
p4513
tp4514
Rp4515
sS'AWD3TQI'
p4516
g2
(g3
(S'S3'
p4517
I0
I1
tp4518
Rp4519
(I3
S'|'
p4520
NNNI3
I1
I0
tp4521
bS'AMP'
p4522
tp4523
Rp4524
sS'1DEP3AVO'
p4525
g2
(g3
(S'S1'
p4526
I0
I1
tp4527
Rp4528
(I3
S'|'
p4529
NNNI1
I1
I0
tp4530
bg45
tp4531
Rp4532
sS'AIRU1G2T'
p4533
g2
(g3
(S'S4'
p4534
I0
I1
tp4535
Rp4536
(I3
S'|'
p4537
NNNI4
I1
I0
tp4538
bS'DEGF'
p4539
tp4540
Rp4541
sS'TPC_CEA'
p4542
g2
(g3
(S'S4'
p4543
I0
I1
tp4544
Rp4545
(I3
S'|'
p4546
NNNI4
I1
I0
tp4547
bS'DEGF'
p4548
tp4549
Rp4550
sS'AIRU1G2I'
p4551
g2
(g3
(S'S4'
p4552
I0
I1
tp4553
Rp4554
(I3
S'|'
p4555
NNNI4
I1
I0
tp4556
bS'MAMP'
p4557
tp4558
Rp4559
sS'PM2THV2T'
p4560
g2
(g3
(S'S4'
p4561
I0
I1
tp4562
Rp4563
(I3
S'|'
p4564
NNNI4
I1
I0
tp4565
bS'DEGF'
p4566
tp4567
Rp4568
sS'OOBTHR08'
p4569
g2
(g3
(S'S4'
p4570
I0
I1
tp4571
Rp4572
(I3
S'|'
p4573
NNNI4
I1
I0
tp4574
bS'DEGF'
p4575
tp4576
Rp4577
sS'AVACMONV'
p4578
g2
(g3
(S'S1'
p4579
I0
I1
tp4580
Rp4581
(I3
S'|'
p4582
NNNI1
I1
I0
tp4583
bg45
tp4584
Rp4585
sS'4RT590T'
p4586
g2
(g3
(S'S4'
p4587
I0
I1
tp4588
Rp4589
(I3
S'|'
p4590
NNNI4
I1
I0
tp4591
bS'DEGF'
p4592
tp4593
Rp4594
sS'TCYLAFT6'
p4595
g2
(g3
(S'S4'
p4596
I0
I1
tp4597
Rp4598
(I3
S'|'
p4599
NNNI4
I1
I0
tp4600
bS'DEGF'
p4601
tp4602
Rp4603
sS'TEP_PSU2'
p4604
g2
(g3
(S'S4'
p4605
I0
I1
tp4606
Rp4607
(I3
S'|'
p4608
NNNI4
I1
I0
tp4609
bS'DEGF'
p4610
tp4611
Rp4612
sS'OOBTHR25'
p4613
g2
(g3
(S'S4'
p4614
I0
I1
tp4615
Rp4616
(I3
S'|'
p4617
NNNI4
I1
I0
tp4618
bS'DEGF'
p4619
tp4620
Rp4621
sS'1OAHAT'
p4622
g2
(g3
(S'S4'
p4623
I0
I1
tp4624
Rp4625
(I3
S'|'
p4626
NNNI4
I1
I0
tp4627
bS'DEGC'
p4628
tp4629
Rp4630
sS'AHKNATPR'
p4631
g2
(g3
(S'S1'
p4632
I0
I1
tp4633
Rp4634
(I3
S'|'
p4635
NNNI1
I1
I0
tp4636
bg45
tp4637
Rp4638
sS'ASPEFSW4B'
p4639
g2
(g3
(S'S3'
p4640
I0
I1
tp4641
Rp4642
(I3
S'|'
p4643
NNNI3
I1
I0
tp4644
bS'DEG'
p4645
tp4646
Rp4647
sS'ARWA4BT'
p4648
g2
(g3
(S'S4'
p4649
I0
I1
tp4650
Rp4651
(I3
S'|'
p4652
NNNI4
I1
I0
tp4653
bS'DEGF'
p4654
tp4655
Rp4656
sS'PLAED4IT'
p4657
g2
(g3
(S'S4'
p4658
I0
I1
tp4659
Rp4660
(I3
S'|'
p4661
NNNI4
I1
I0
tp4662
bS'DEGF'
p4663
tp4664
Rp4665
sS'AOMANRT'
p4666
g2
(g3
(S'S5'
p4667
I0
I1
tp4668
Rp4669
(I3
S'|'
p4670
NNNI5
I1
I0
tp4671
bS'RADPS'
p4672
tp4673
Rp4674
sS'AOCSSI1'
p4675
g2
(g3
(S'S4'
p4676
I0
I1
tp4677
Rp4678
(I3
S'|'
p4679
NNNI4
I1
I0
tp4680
bS'MAMP'
p4681
tp4682
Rp4683
sS'TPC_DEA'
p4684
g2
(g3
(S'S4'
p4685
I0
I1
tp4686
Rp4687
(I3
S'|'
p4688
NNNI4
I1
I0
tp4689
bS'DEGF'
p4690
tp4691
Rp4692
sS'AOCSSI3'
p4693
g2
(g3
(S'S4'
p4694
I0
I1
tp4695
Rp4696
(I3
S'|'
p4697
NNNI4
I1
I0
tp4698
bS'MAMP'
p4699
tp4700
Rp4701
sS'AIRU2G1T'
p4702
g2
(g3
(S'S4'
p4703
I0
I1
tp4704
Rp4705
(I3
S'|'
p4706
NNNI4
I1
I0
tp4707
bS'DEGF'
p4708
tp4709
Rp4710
sS'AOCSSI4'
p4711
g2
(g3
(S'S4'
p4712
I0
I1
tp4713
Rp4714
(I3
S'|'
p4715
NNNI4
I1
I0
tp4716
bS'MAMP'
p4717
tp4718
Rp4719
sS'AIRU2G1I'
p4720
g2
(g3
(S'S4'
p4721
I0
I1
tp4722
Rp4723
(I3
S'|'
p4724
NNNI4
I1
I0
tp4725
bS'MAMP'
p4726
tp4727
Rp4728
sS'CTUB15V'
p4729
g2
(g3
(S'S1'
p4730
I0
I1
tp4731
Rp4732
(I3
S'|'
p4733
NNNI1
I1
I0
tp4734
bg45
tp4735
Rp4736
sS'1VAHCAT'
p4737
g2
(g3
(S'S4'
p4738
I0
I1
tp4739
Rp4740
(I3
S'|'
p4741
NNNI4
I1
I0
tp4742
bS'DEGC'
p4743
tp4744
Rp4745
sS'TB3T2'
p4746
g2
(g3
(S'S4'
p4747
I0
I1
tp4748
Rp4749
(I3
S'|'
p4750
NNNI4
I1
I0
tp4751
bS'DEGF'
p4752
tp4753
Rp4754
sS'TB3T3'
p4755
g2
(g3
(S'S4'
p4756
I0
I1
tp4757
Rp4758
(I3
S'|'
p4759
NNNI4
I1
I0
tp4760
bS'DEGF'
p4761
tp4762
Rp4763
sS'TRSPOTPC'
p4764
g2
(g3
(S'S4'
p4765
I0
I1
tp4766
Rp4767
(I3
S'|'
p4768
NNNI4
I1
I0
tp4769
bS'DEGF'
p4770
tp4771
Rp4772
sS'PLAED3CT'
p4773
g2
(g3
(S'S4'
p4774
I0
I1
tp4775
Rp4776
(I3
S'|'
p4777
NNNI4
I1
I0
tp4778
bS'DEGF'
p4779
tp4780
Rp4781
sS'1PIN1AT'
p4782
g2
(g3
(S'S4'
p4783
I0
I1
tp4784
Rp4785
(I3
S'|'
p4786
NNNI4
I1
I0
tp4787
bS'DEGC'
p4788
tp4789
Rp4790
sS'PFTANK2T'
p4791
g2
(g3
(S'S4'
p4792
I0
I1
tp4793
Rp4794
(I3
S'|'
p4795
NNNI4
I1
I0
tp4796
bS'DEGF'
p4797
tp4798
Rp4799
sS'1DP28BVO'
p4800
g2
(g3
(S'S1'
p4801
I0
I1
tp4802
Rp4803
(I3
S'|'
p4804
NNNI1
I1
I0
tp4805
bg45
tp4806
Rp4807
sS'AOIRERL1'
p4808
g2
(g3
(S'S3'
p4809
I0
I1
tp4810
Rp4811
(I3
S'|'
p4812
NNNI3
I1
I0
tp4813
bS'RAD'
p4814
tp4815
Rp4816
sS'PLAEV1BT'
p4817
g2
(g3
(S'S4'
p4818
I0
I1
tp4819
Rp4820
(I3
S'|'
p4821
NNNI4
I1
I0
tp4822
bS'DEGF'
p4823
tp4824
Rp4825
sS'AOIRERL2'
p4826
g2
(g3
(S'S3'
p4827
I0
I1
tp4828
Rp4829
(I3
S'|'
p4830
NNNI3
I1
I0
tp4831
bS'RAD'
p4832
tp4833
Rp4834
sS'PFDM201T'
p4835
g2
(g3
(S'S4'
p4836
I0
I1
tp4837
Rp4838
(I3
S'|'
p4839
NNNI4
I1
I0
tp4840
bS'DEGF'
p4841
tp4842
Rp4843
sS'TCM_OBC'
p4844
g2
(g3
(S'S4'
p4845
I0
I1
tp4846
Rp4847
(I3
S'|'
p4848
NNNI4
I1
I0
tp4849
bS'DEGF'
p4850
tp4851
Rp4852
sS'AOIRERL3'
p4853
g2
(g3
(S'S3'
p4854
I0
I1
tp4855
Rp4856
(I3
S'|'
p4857
NNNI3
I1
I0
tp4858
bS'RAD'
p4859
tp4860
Rp4861
sS'1PDEABT'
p4862
g2
(g3
(S'S4'
p4863
I0
I1
tp4864
Rp4865
(I3
S'|'
p4866
NNNI4
I1
I0
tp4867
bS'DEGC'
p4868
tp4869
Rp4870
sS'TPCP_RW2'
p4871
g2
(g3
(S'S4'
p4872
I0
I1
tp4873
Rp4874
(I3
S'|'
p4875
NNNI4
I1
I0
tp4876
bS'DEGF'
p4877
tp4878
Rp4879
sS'PLAED2HT'
p4880
g2
(g3
(S'S4'
p4881
I0
I1
tp4882
Rp4883
(I3
S'|'
p4884
NNNI4
I1
I0
tp4885
bS'DEGF'
p4886
tp4887
Rp4888
sS'AOADBCH2A_PCAD'
p4889
g2
(g3
(S'S3'
p4890
I0
I1
tp4891
Rp4892
(I3
S'|'
p4893
NNNI3
I1
I0
tp4894
bS'DEG'
p4895
tp4896
Rp4897
sS'TRSPOTEP'
p4898
g2
(g3
(S'S4'
p4899
I0
I1
tp4900
Rp4901
(I3
S'|'
p4902
NNNI4
I1
I0
tp4903
bS'DEGF'
p4904
tp4905
Rp4906
sS'AORWPI6B'
p4907
g2
(g3
(S'S4'
p4908
I0
I1
tp4909
Rp4910
(I3
S'|'
p4911
NNNI4
I1
I0
tp4912
bS'MSEC'
p4913
tp4914
Rp4915
sS'TCM_PAN'
p4916
g2
(g3
(S'S4'
p4917
I0
I1
tp4918
Rp4919
(I3
S'|'
p4920
NNNI4
I1
I0
tp4921
bS'DEGF'
p4922
tp4923
Rp4924
sS'TCM_SSR2'
p4925
g2
(g3
(S'S4'
p4926
I0
I1
tp4927
Rp4928
(I3
S'|'
p4929
NNNI4
I1
I0
tp4930
bS'DEGF'
p4931
tp4932
Rp4933
sS'PMTANKP'
p4934
g2
(g3
(S'S4'
p4935
I0
I1
tp4936
Rp4937
(I3
S'|'
p4938
NNNI4
I1
I0
tp4939
bS'PSIA'
p4940
tp4941
Rp4942
sS'EOECNV1C'
p4943
g2
(g3
(S'S1'
p4944
I0
I1
tp4945
Rp4946
(I3
S'|'
p4947
NNNI1
I1
I0
tp4948
bg45
tp4949
Rp4950
sS'AFLCABH'
p4951
g2
(g3
(S'S1'
p4952
I0
I1
tp4953
Rp4954
(I3
S'|'
p4955
NNNI1
I1
I0
tp4956
bg45
tp4957
Rp4958
sS'3FLCABPT'
p4959
g2
(g3
(S'S4'
p4960
I0
I1
tp4961
Rp4962
(I3
S'|'
p4963
NNNI4
I1
I0
tp4964
bS'DEGC'
p4965
tp4966
Rp4967
sS'OHRTHR18'
p4968
g2
(g3
(S'S4'
p4969
I0
I1
tp4970
Rp4971
(I3
S'|'
p4972
NNNI4
I1
I0
tp4973
bS'DEGF'
p4974
tp4975
Rp4976
sS'OHRTHR19'
p4977
g2
(g3
(S'S4'
p4978
I0
I1
tp4979
Rp4980
(I3
S'|'
p4981
NNNI4
I1
I0
tp4982
bS'DEGF'
p4983
tp4984
Rp4985
sS'AFLCA3BI'
p4986
g2
(g3
(S'S4'
p4987
I0
I1
tp4988
Rp4989
(I3
S'|'
p4990
NNNI4
I1
I0
tp4991
bS'MAMP'
p4992
tp4993
Rp4994
sS'OHRTHR14'
p4995
g2
(g3
(S'S4'
p4996
I0
I1
tp4997
Rp4998
(I3
S'|'
p4999
NNNI4
I1
I0
tp5000
bS'DEGF'
p5001
tp5002
Rp5003
sS'OHRTHR15'
p5004
g2
(g3
(S'S4'
p5005
I0
I1
tp5006
Rp5007
(I3
S'|'
p5008
NNNI4
I1
I0
tp5009
bS'DEGF'
p5010
tp5011
Rp5012
sS'OHRTHR12'
p5013
g2
(g3
(S'S4'
p5014
I0
I1
tp5015
Rp5016
(I3
S'|'
p5017
NNNI4
I1
I0
tp5018
bS'DEGF'
p5019
tp5020
Rp5021
sS'OHRTHR13'
p5022
g2
(g3
(S'S4'
p5023
I0
I1
tp5024
Rp5025
(I3
S'|'
p5026
NNNI4
I1
I0
tp5027
bS'DEGF'
p5028
tp5029
Rp5030
sS'OHRTHR10'
p5031
g2
(g3
(S'S4'
p5032
I0
I1
tp5033
Rp5034
(I3
S'|'
p5035
NNNI4
I1
I0
tp5036
bS'DEGF'
p5037
tp5038
Rp5039
sS'OHRTHR11'
p5040
g2
(g3
(S'S4'
p5041
I0
I1
tp5042
Rp5043
(I3
S'|'
p5044
NNNI4
I1
I0
tp5045
bS'DEGF'
p5046
tp5047
Rp5048
sS'CIUB15V'
p5049
g2
(g3
(S'S1'
p5050
I0
I1
tp5051
Rp5052
(I3
S'|'
p5053
NNNI1
I1
I0
tp5054
bg45
tp5055
Rp5056
sS'3TTHRC3T'
p5057
g2
(g3
(S'S4'
p5058
I0
I1
tp5059
Rp5060
(I3
S'|'
p5061
NNNI4
I1
I0
tp5062
bS'DEGC'
p5063
tp5064
Rp5065
sS'PLAED3HT'
p5066
g2
(g3
(S'S4'
p5067
I0
I1
tp5068
Rp5069
(I3
S'|'
p5070
NNNI4
I1
I0
tp5071
bS'DEGF'
p5072
tp5073
Rp5074
sS'AIRU2BT'
p5075
g2
(g3
(S'S4'
p5076
I0
I1
tp5077
Rp5078
(I3
S'|'
p5079
NNNI4
I1
I0
tp5080
bS'DEGF'
p5081
tp5082
Rp5083
sS'AORWSPD1'
p5084
g2
(g3
(S'S5'
p5085
I0
I1
tp5086
Rp5087
(I3
S'|'
p5088
NNNI5
I1
I0
tp5089
bS'RADPS'
p5090
tp5091
Rp5092
sS'AORWSPD2'
p5093
g2
(g3
(S'S5'
p5094
I0
I1
tp5095
Rp5096
(I3
S'|'
p5097
NNNI5
I1
I0
tp5098
bS'RADPS'
p5099
tp5100
Rp5101
sS'AORWSPD3'
p5102
g2
(g3
(S'S5'
p5103
I0
I1
tp5104
Rp5105
(I3
S'|'
p5106
NNNI5
I1
I0
tp5107
bS'RADPS'
p5108
tp5109
Rp5110
sS'AORWSPD4'
p5111
g2
(g3
(S'S5'
p5112
I0
I1
tp5113
Rp5114
(I3
S'|'
p5115
NNNI5
I1
I0
tp5116
bS'RADPS'
p5117
tp5118
Rp5119
sS'AORWSPD5'
p5120
g2
(g3
(S'S5'
p5121
I0
I1
tp5122
Rp5123
(I3
S'|'
p5124
NNNI5
I1
I0
tp5125
bS'RADPS'
p5126
tp5127
Rp5128
sS'AORWSPD6'
p5129
g2
(g3
(S'S5'
p5130
I0
I1
tp5131
Rp5132
(I3
S'|'
p5133
NNNI5
I1
I0
tp5134
bS'RADPS'
p5135
tp5136
Rp5137
sS'PM1THV1T'
p5138
g2
(g3
(S'S4'
p5139
I0
I1
tp5140
Rp5141
(I3
S'|'
p5142
NNNI4
I1
I0
tp5143
bS'DEGF'
p5144
tp5145
Rp5146
sS'AOCMDRT2'
p5147
g2
(g3
(S'S5'
p5148
I0
I1
tp5149
Rp5150
(I3
S'|'
p5151
NNNI5
I1
I0
tp5152
bS'RADPS'
p5153
tp5154
Rp5155
sS'AOCMDRT3'
p5156
g2
(g3
(S'S5'
p5157
I0
I1
tp5158
Rp5159
(I3
S'|'
p5160
NNNI5
I1
I0
tp5161
bS'RADPS'
p5162
tp5163
Rp5164
sS'AI2AX2X'
p5165
g2
(g3
(S'S5'
p5166
I0
I1
tp5167
Rp5168
(I3
S'|'
p5169
NNNI5
I1
I0
tp5170
bS'DEGPS'
p5171
tp5172
Rp5173
sS'AI2AX2Y'
p5174
g2
(g3
(S'S5'
p5175
I0
I1
tp5176
Rp5177
(I3
S'|'
p5178
NNNI5
I1
I0
tp5179
bS'DEGPS'
p5180
tp5181
Rp5182
sS'4RT564T'
p5183
g2
(g3
(S'S4'
p5184
I0
I1
tp5185
Rp5186
(I3
S'|'
p5187
NNNI4
I1
I0
tp5188
bS'DEGF'
p5189
tp5190
Rp5191
sS'EORTDMN21D'
p5192
g2
(g3
(S'S4'
p5193
I0
I1
tp5194
Rp5195
(I3
S'|'
p5196
NNNI4
I1
I0
tp5197
bS'DEGF'
p5198
tp5199
Rp5200
sS'4RT704T'
p5201
g2
(g3
(S'S4'
p5202
I0
I1
tp5203
Rp5204
(I3
S'|'
p5205
NNNI4
I1
I0
tp5206
bS'DEGF'
p5207
tp5208
Rp5209
sS'EOEBC'
p5210
g2
(g3
(S'S3'
p5211
I0
I1
tp5212
Rp5213
(I3
S'|'
p5214
NNNI3
I1
I0
tp5215
bS'AMP'
p5216
tp5217
Rp5218
sS'PM3THV2T'
p5219
g2
(g3
(S'S4'
p5220
I0
I1
tp5221
Rp5222
(I3
S'|'
p5223
NNNI4
I1
I0
tp5224
bS'DEGF'
p5225
tp5226
Rp5227
sS'1DEN1BVO'
p5228
g2
(g3
(S'S1'
p5229
I0
I1
tp5230
Rp5231
(I3
S'|'
p5232
NNNI1
I1
I0
tp5233
bg45
tp5234
Rp5235
sS'4SP52V'
p5236
g2
(g3
(S'S3'
p5237
I0
I1
tp5238
Rp5239
(I3
S'|'
p5240
NNNI3
I1
I0
tp5241
bS'VDC'
p5242
tp5243
Rp5244
sS'EORTDMN29D'
p5245
g2
(g3
(S'S4'
p5246
I0
I1
tp5247
Rp5248
(I3
S'|'
p5249
NNNI4
I1
I0
tp5250
bS'DEGF'
p5251
tp5252
Rp5253
sS'PLINE04T'
p5254
g2
(g3
(S'S4'
p5255
I0
I1
tp5256
Rp5257
(I3
S'|'
p5258
NNNI4
I1
I0
tp5259
bS'DEGF'
p5260
tp5261
Rp5262
sS'PLAED3BT'
p5263
g2
(g3
(S'S4'
p5264
I0
I1
tp5265
Rp5266
(I3
S'|'
p5267
NNNI4
I1
I0
tp5268
bS'DEGF'
p5269
tp5270
Rp5271
sS'AIOBP5CV'
p5272
g2
(g3
(S'S1'
p5273
I0
I1
tp5274
Rp5275
(I3
S'|'
p5276
NNNI1
I1
I0
tp5277
bg45
tp5278
Rp5279
sS'PXTANKOP'
p5280
g2
(g3
(S'S4'
p5281
I0
I1
tp5282
Rp5283
(I3
S'|'
p5284
NNNI4
I1
I0
tp5285
bS'PSIA'
p5286
tp5287
Rp5288
sS'4OAVHRMT'
p5289
g2
(g3
(S'S4'
p5290
I0
I1
tp5291
Rp5292
(I3
S'|'
p5293
NNNI4
I1
I0
tp5294
bS'DEGF'
p5295
tp5296
Rp5297
sS'EORTDMN28D'
p5298
g2
(g3
(S'S4'
p5299
I0
I1
tp5300
Rp5301
(I3
S'|'
p5302
NNNI4
I1
I0
tp5303
bS'DEGF'
p5304
tp5305
Rp5306
sS'PFFP01T'
p5307
g2
(g3
(S'S4'
p5308
I0
I1
tp5309
Rp5310
(I3
S'|'
p5311
NNNI4
I1
I0
tp5312
bS'DEGF'
p5313
tp5314
Rp5315
sS'2N15VAVL'
p5316
g2
(g3
(S'S3'
p5317
I0
I1
tp5318
Rp5319
(I3
S'|'
p5320
NNNI3
I1
I0
tp5321
bS'VDC'
p5322
tp5323
Rp5324
sS'4RT578T'
p5325
g2
(g3
(S'S4'
p5326
I0
I1
tp5327
Rp5328
(I3
S'|'
p5329
NNNI4
I1
I0
tp5330
bS'DEGF'
p5331
tp5332
Rp5333
sS'4LFSPBT'
p5334
g2
(g3
(S'S4'
p5335
I0
I1
tp5336
Rp5337
(I3
S'|'
p5338
NNNI4
I1
I0
tp5339
bS'DEGF'
p5340
tp5341
Rp5342
sS'TMP_FEP1_PCB'
p5343
g299
sS'AOSPBCS2B'
p5344
g2
(g3
(S'S4'
p5345
I0
I1
tp5346
Rp5347
(I3
S'|'
p5348
NNNI4
I1
I0
tp5349
bS'MAMP'
p5350
tp5351
Rp5352
sS'1DEP0AVO'
p5353
g2
(g3
(S'S1'
p5354
I0
I1
tp5355
Rp5356
(I3
S'|'
p5357
NNNI1
I1
I0
tp5358
bg45
tp5359
Rp5360
sS'4CSDOAV'
p5361
g2
(g3
(S'S3'
p5362
I0
I1
tp5363
Rp5364
(I3
S'|'
p5365
NNNI3
I1
I0
tp5366
bS'VDC'
p5367
tp5368
Rp5369
sS'TEP_BPAN'
p5370
g2
(g3
(S'S4'
p5371
I0
I1
tp5372
Rp5373
(I3
S'|'
p5374
NNNI4
I1
I0
tp5375
bS'DEGF'
p5376
tp5377
Rp5378
sS'1WRAT'
p5379
g2
(g3
(S'S4'
p5380
I0
I1
tp5381
Rp5382
(I3
S'|'
p5383
NNNI4
I1
I0
tp5384
bS'DEGC'
p5385
tp5386
Rp5387
sS'PLAED1GT'
p5388
g2
(g3
(S'S4'
p5389
I0
I1
tp5390
Rp5391
(I3
S'|'
p5392
NNNI4
I1
I0
tp5393
bS'DEGF'
p5394
tp5395
Rp5396
sS'TASPRWC'
p5397
g2
(g3
(S'S4'
p5398
I0
I1
tp5399
Rp5400
(I3
S'|'
p5401
NNNI4
I1
I0
tp5402
bS'DEGF'
p5403
tp5404
Rp5405
sS'4PRT3AT'
p5406
g2
(g3
(S'S4'
p5407
I0
I1
tp5408
Rp5409
(I3
S'|'
p5410
NNNI4
I1
I0
tp5411
bS'DEGF'
p5412
tp5413
Rp5414
sS'PLINE01T'
p5415
g2
(g3
(S'S4'
p5416
I0
I1
tp5417
Rp5418
(I3
S'|'
p5419
NNNI4
I1
I0
tp5420
bS'DEGF'
p5421
tp5422
Rp5423
sS'6RWCMD4'
p5424
g2
(g3
(S'S4'
p5425
I0
I1
tp5426
Rp5427
(I3
S'|'
p5428
NNNI4
I1
I0
tp5429
bS'FTLB'
p5430
tp5431
Rp5432
sS'6RWCMD5'
p5433
g2
(g3
(S'S4'
p5434
I0
I1
tp5435
Rp5436
(I3
S'|'
p5437
NNNI4
I1
I0
tp5438
bS'FTLB'
p5439
tp5440
Rp5441
sS'6RWCMD6'
p5442
g2
(g3
(S'S4'
p5443
I0
I1
tp5444
Rp5445
(I3
S'|'
p5446
NNNI4
I1
I0
tp5447
bS'FTLB'
p5448
tp5449
Rp5450
sS'AFLCA8AI'
p5451
g2
(g3
(S'S4'
p5452
I0
I1
tp5453
Rp5454
(I3
S'|'
p5455
NNNI4
I1
I0
tp5456
bS'MAMP'
p5457
tp5458
Rp5459
sS'AACBPPT'
p5460
g2
(g3
(S'S4'
p5461
I0
I1
tp5462
Rp5463
(I3
S'|'
p5464
NNNI4
I1
I0
tp5465
bS'DEGF'
p5466
tp5467
Rp5468
sS'6RWCMD1'
p5469
g2
(g3
(S'S4'
p5470
I0
I1
tp5471
Rp5472
(I3
S'|'
p5473
NNNI4
I1
I0
tp5474
bS'FTLB'
p5475
tp5476
Rp5477
sS'6RWCMD2'
p5478
g2
(g3
(S'S4'
p5479
I0
I1
tp5480
Rp5481
(I3
S'|'
p5482
NNNI4
I1
I0
tp5483
bS'FTLB'
p5484
tp5485
Rp5486
sS'6RWCMD3'
p5487
g2
(g3
(S'S4'
p5488
I0
I1
tp5489
Rp5490
(I3
S'|'
p5491
NNNI4
I1
I0
tp5492
bS'FTLB'
p5493
tp5494
Rp5495
sS'PCM02T'
p5496
g2
(g3
(S'S4'
p5497
I0
I1
tp5498
Rp5499
(I3
S'|'
p5500
NNNI4
I1
I0
tp5501
bS'DEGF'
p5502
tp5503
Rp5504
sS'TCYLPCP'
p5505
g2
(g3
(S'S4'
p5506
I0
I1
tp5507
Rp5508
(I3
S'|'
p5509
NNNI4
I1
I0
tp5510
bS'DEGF'
p5511
tp5512
Rp5513
sS'3FAMYZAT'
p5514
g2
(g3
(S'S4'
p5515
I0
I1
tp5516
Rp5517
(I3
S'|'
p5518
NNNI4
I1
I0
tp5519
bS'DEGC'
p5520
tp5521
Rp5522
sS'AACCCDPT'
p5523
g2
(g3
(S'S4'
p5524
I0
I1
tp5525
Rp5526
(I3
S'|'
p5527
NNNI4
I1
I0
tp5528
bS'DEGF'
p5529
tp5530
Rp5531
sS'OHRTHR17'
p5532
g2
(g3
(S'S4'
p5533
I0
I1
tp5534
Rp5535
(I3
S'|'
p5536
NNNI4
I1
I0
tp5537
bS'DEGF'
p5538
tp5539
Rp5540
sS'OOBTHR41'
p5541
g2
(g3
(S'S4'
p5542
I0
I1
tp5543
Rp5544
(I3
S'|'
p5545
NNNI4
I1
I0
tp5546
bS'DEGF'
p5547
tp5548
Rp5549
sS'4OAVOBAT'
p5550
g2
(g3
(S'S4'
p5551
I0
I1
tp5552
Rp5553
(I3
S'|'
p5554
NNNI4
I1
I0
tp5555
bS'DEGF'
p5556
tp5557
Rp5558
sS'OOBTHR51'
p5559
g2
(g3
(S'S4'
p5560
I0
I1
tp5561
Rp5562
(I3
S'|'
p5563
NNNI4
I1
I0
tp5564
bS'DEGF'
p5565
tp5566
Rp5567
sS'TPC_WDA'
p5568
g2
(g3
(S'S4'
p5569
I0
I1
tp5570
Rp5571
(I3
S'|'
p5572
NNNI4
I1
I0
tp5573
bS'DEGF'
p5574
tp5575
Rp5576
sS'TSCTSF6'
p5577
g2
(g3
(S'S4'
p5578
I0
I1
tp5579
Rp5580
(I3
S'|'
p5581
NNNI4
I1
I0
tp5582
bS'DEGF'
p5583
tp5584
Rp5585
sS'4RT709T'
p5586
g2
(g3
(S'S4'
p5587
I0
I1
tp5588
Rp5589
(I3
S'|'
p5590
NNNI4
I1
I0
tp5591
bS'DEGF'
p5592
tp5593
Rp5594
sS'AWD1TQI'
p5595
g2
(g3
(S'S3'
p5596
I0
I1
tp5597
Rp5598
(I3
S'|'
p5599
NNNI3
I1
I0
tp5600
bS'AMP'
p5601
tp5602
Rp5603
sS'TCM_TX2'
p5604
g2
(g3
(S'S4'
p5605
I0
I1
tp5606
Rp5607
(I3
S'|'
p5608
NNNI4
I1
I0
tp5609
bS'DEGF'
p5610
tp5611
Rp5612
sS'TCM_TX1'
p5613
g2
(g3
(S'S4'
p5614
I0
I1
tp5615
Rp5616
(I3
S'|'
p5617
NNNI4
I1
I0
tp5618
bS'DEGF'
p5619
tp5620
Rp5621
sS'CTUA5V'
p5622
g2
(g3
(S'S1'
p5623
I0
I1
tp5624
Rp5625
(I3
S'|'
p5626
NNNI1
I1
I0
tp5627
bg45
tp5628
Rp5629
sS'4LLL1BT'
p5630
g2
(g3
(S'S4'
p5631
I0
I1
tp5632
Rp5633
(I3
S'|'
p5634
NNNI4
I1
I0
tp5635
bS'DEGF'
p5636
tp5637
Rp5638
sS'TMZP_CNT'
p5639
g2
(g3
(S'S4'
p5640
I0
I1
tp5641
Rp5642
(I3
S'|'
p5643
NNNI4
I1
I0
tp5644
bS'DEGF'
p5645
tp5646
Rp5647
sS'4RT582T'
p5648
g2
(g3
(S'S4'
p5649
I0
I1
tp5650
Rp5651
(I3
S'|'
p5652
NNNI4
I1
I0
tp5653
bS'DEGF'
p5654
tp5655
Rp5656
sS'TMP_BEP_PCB'
p5657
g299
sS'AHKNATRD'
p5658
g2
(g3
(S'S1'
p5659
I0
I1
tp5660
Rp5661
(I3
S'|'
p5662
NNNI1
I1
I0
tp5663
bg45
tp5664
Rp5665
sS'EOEB3VC'
p5666
g2
(g3
(S'S1'
p5667
I0
I1
tp5668
Rp5669
(I3
S'|'
p5670
NNNI1
I1
I0
tp5671
bg45
tp5672
Rp5673
sS'OOBTHR50'
p5674
g2
(g3
(S'S4'
p5675
I0
I1
tp5676
Rp5677
(I3
S'|'
p5678
NNNI4
I1
I0
tp5679
bS'DEGF'
p5680
tp5681
Rp5682
sS'AFLCA6AI'
p5683
g2
(g3
(S'S4'
p5684
I0
I1
tp5685
Rp5686
(I3
S'|'
p5687
NNNI4
I1
I0
tp5688
bS'MAMP'
p5689
tp5690
Rp5691
sS'4CSDOBV'
p5692
g2
(g3
(S'S3'
p5693
I0
I1
tp5694
Rp5695
(I3
S'|'
p5696
NNNI3
I1
I0
tp5697
bS'VDC'
p5698
tp5699
Rp5700
sS'AFLCA9BI'
p5701
g2
(g3
(S'S4'
p5702
I0
I1
tp5703
Rp5704
(I3
S'|'
p5705
NNNI4
I1
I0
tp5706
bS'MAMP'
p5707
tp5708
Rp5709
sS'1DEP2AVO'
p5710
g2
(g3
(S'S1'
p5711
I0
I1
tp5712
Rp5713
(I3
S'|'
p5714
NNNI1
I1
I0
tp5715
bg45
tp5716
Rp5717
sS'3RCTUBPT'
p5718
g2
(g3
(S'S4'
p5719
I0
I1
tp5720
Rp5721
(I3
S'|'
p5722
NNNI4
I1
I0
tp5723
bS'DEGC'
p5724
tp5725
Rp5726
sS'6SURTER3'
p5727
g2
(g3
(S'S5'
p5728
I0
I1
tp5729
Rp5730
(I3
S'|'
p5731
NNNI5
I1
I0
tp5732
bS'RADPS'
p5733
tp5734
Rp5735
sS'6SURTER2'
p5736
g2
(g3
(S'S5'
p5737
I0
I1
tp5738
Rp5739
(I3
S'|'
p5740
NNNI5
I1
I0
tp5741
bS'RADPS'
p5742
tp5743
Rp5744
sS'6SURTER1'
p5745
g2
(g3
(S'S5'
p5746
I0
I1
tp5747
Rp5748
(I3
S'|'
p5749
NNNI5
I1
I0
tp5750
bS'RADPS'
p5751
tp5752
Rp5753
sS'OHRTHR62'
p5754
g2
(g3
(S'S4'
p5755
I0
I1
tp5756
Rp5757
(I3
S'|'
p5758
NNNI4
I1
I0
tp5759
bS'DEGF'
p5760
tp5761
Rp5762
sS'OOBTHR49'
p5763
g2
(g3
(S'S4'
p5764
I0
I1
tp5765
Rp5766
(I3
S'|'
p5767
NNNI4
I1
I0
tp5768
bS'DEGF'
p5769
tp5770
Rp5771
sS'CRXBV'
p5772
g2
(g3
(S'S1'
p5773
I0
I1
tp5774
Rp5775
(I3
S'|'
p5776
NNNI1
I1
I0
tp5777
bg45
tp5778
Rp5779
sS'OOBTHR47'
p5780
g2
(g3
(S'S4'
p5781
I0
I1
tp5782
Rp5783
(I3
S'|'
p5784
NNNI4
I1
I0
tp5785
bS'DEGF'
p5786
tp5787
Rp5788
sS'OOBTHR44'
p5789
g2
(g3
(S'S4'
p5790
I0
I1
tp5791
Rp5792
(I3
S'|'
p5793
NNNI4
I1
I0
tp5794
bS'DEGF'
p5795
tp5796
Rp5797
sS'OOBTHR45'
p5798
g2
(g3
(S'S4'
p5799
I0
I1
tp5800
Rp5801
(I3
S'|'
p5802
NNNI4
I1
I0
tp5803
bS'DEGF'
p5804
tp5805
Rp5806
sS'OOBTHR42'
p5807
g2
(g3
(S'S4'
p5808
I0
I1
tp5809
Rp5810
(I3
S'|'
p5811
NNNI4
I1
I0
tp5812
bS'DEGF'
p5813
tp5814
Rp5815
sS'OOBTHR43'
p5816
g2
(g3
(S'S4'
p5817
I0
I1
tp5818
Rp5819
(I3
S'|'
p5820
NNNI4
I1
I0
tp5821
bS'DEGF'
p5822
tp5823
Rp5824
sS'OOBTHR40'
p5825
g2
(g3
(S'S4'
p5826
I0
I1
tp5827
Rp5828
(I3
S'|'
p5829
NNNI4
I1
I0
tp5830
bS'DEGF'
p5831
tp5832
Rp5833
sS'4PRT5AT'
p5834
g2
(g3
(S'S4'
p5835
I0
I1
tp5836
Rp5837
(I3
S'|'
p5838
NNNI4
I1
I0
tp5839
bS'DEGF'
p5840
tp5841
Rp5842
sS'AI1AX1X'
p5843
g2
(g3
(S'S5'
p5844
I0
I1
tp5845
Rp5846
(I3
S'|'
p5847
NNNI5
I1
I0
tp5848
bS'DEGPS'
p5849
tp5850
Rp5851
sS'PLAED2IT'
p5852
g2
(g3
(S'S4'
p5853
I0
I1
tp5854
Rp5855
(I3
S'|'
p5856
NNNI4
I1
I0
tp5857
bS'DEGF'
p5858
tp5859
Rp5860
sS'6SINTER2'
p5861
g2
(g3
(S'S3'
p5862
I0
I1
tp5863
Rp5864
(I3
S'|'
p5865
NNNI3
I1
I0
tp5866
bS'RAD'
p5867
tp5868
Rp5869
sS'OOBTHR27'
p5870
g2
(g3
(S'S4'
p5871
I0
I1
tp5872
Rp5873
(I3
S'|'
p5874
NNNI4
I1
I0
tp5875
bS'DEGF'
p5876
tp5877
Rp5878
sS'AWD2CV5V'
p5879
g2
(g3
(S'S1'
p5880
I0
I1
tp5881
Rp5882
(I3
S'|'
p5883
NNNI1
I1
I0
tp5884
bg45
tp5885
Rp5886
sS'OOBTHR53'
p5887
g2
(g3
(S'S4'
p5888
I0
I1
tp5889
Rp5890
(I3
S'|'
p5891
NNNI4
I1
I0
tp5892
bS'DEGF'
p5893
tp5894
Rp5895
sS'EORTDMN14D'
p5896
g2
(g3
(S'S4'
p5897
I0
I1
tp5898
Rp5899
(I3
S'|'
p5900
NNNI4
I1
I0
tp5901
bS'DEGF'
p5902
tp5903
Rp5904
sS'OHRMGRD3'
p5905
g2
(g3
(S'S4'
p5906
I0
I1
tp5907
Rp5908
(I3
S'|'
p5909
NNNI4
I1
I0
tp5910
bS'DEGF'
p5911
tp5912
Rp5913
sS'ARWA1BT'
p5914
g2
(g3
(S'S4'
p5915
I0
I1
tp5916
Rp5917
(I3
S'|'
p5918
NNNI4
I1
I0
tp5919
bS'DEGF'
p5920
tp5921
Rp5922
sS'AFLCA7BI'
p5923
g2
(g3
(S'S4'
p5924
I0
I1
tp5925
Rp5926
(I3
S'|'
p5927
NNNI4
I1
I0
tp5928
bS'MAMP'
p5929
tp5930
Rp5931
sS'PLAED4GT'
p5932
g2
(g3
(S'S4'
p5933
I0
I1
tp5934
Rp5935
(I3
S'|'
p5936
NNNI4
I1
I0
tp5937
bS'DEGF'
p5938
tp5939
Rp5940
sS'PFTANKOP'
p5941
g2
(g3
(S'S4'
p5942
I0
I1
tp5943
Rp5944
(I3
S'|'
p5945
NNNI4
I1
I0
tp5946
bS'PSIA'
p5947
tp5948
Rp5949
sS'TESH1'
p5950
g2
(g3
(S'S4'
p5951
I0
I1
tp5952
Rp5953
(I3
S'|'
p5954
NNNI4
I1
I0
tp5955
bS'DEGF'
p5956
tp5957
Rp5958
sS'AFLC14BI'
p5959
g2
(g3
(S'S4'
p5960
I0
I1
tp5961
Rp5962
(I3
S'|'
p5963
NNNI4
I1
I0
tp5964
bS'MAMP'
p5965
tp5966
Rp5967
sS'AOSPACS4B'
p5968
g2
(g3
(S'S4'
p5969
I0
I1
tp5970
Rp5971
(I3
S'|'
p5972
NNNI4
I1
I0
tp5973
bS'MAMP'
p5974
tp5975
Rp5976
sS'ACPA5CV'
p5977
g2
(g3
(S'S1'
p5978
I0
I1
tp5979
Rp5980
(I3
S'|'
p5981
NNNI1
I1
I0
tp5982
bg45
tp5983
Rp5984
sS'OHRTHR59'
p5985
g2
(g3
(S'S4'
p5986
I0
I1
tp5987
Rp5988
(I3
S'|'
p5989
NNNI4
I1
I0
tp5990
bS'DEGF'
p5991
tp5992
Rp5993
sS'OHRTHR52'
p5994
g2
(g3
(S'S4'
p5995
I0
I1
tp5996
Rp5997
(I3
S'|'
p5998
NNNI4
I1
I0
tp5999
bS'DEGF'
p6000
tp6001
Rp6002
sS'AESACHD2'
p6003
g2
(g3
(S'S3'
p6004
I0
I1
tp6005
Rp6006
(I3
S'|'
p6007
NNNI3
I1
I0
tp6008
bS'DEG'
p6009
tp6010
Rp6011
sS'AESACHD1'
p6012
g2
(g3
(S'S3'
p6013
I0
I1
tp6014
Rp6015
(I3
S'|'
p6016
NNNI3
I1
I0
tp6017
bS'DEG'
p6018
tp6019
Rp6020
sS'4LFSPAT'
p6021
g2
(g3
(S'S4'
p6022
I0
I1
tp6023
Rp6024
(I3
S'|'
p6025
NNNI4
I1
I0
tp6026
bS'DEGF'
p6027
tp6028
Rp6029
sS'OHRTHR56'
p6030
g2
(g3
(S'S4'
p6031
I0
I1
tp6032
Rp6033
(I3
S'|'
p6034
NNNI4
I1
I0
tp6035
bS'DEGF'
p6036
tp6037
Rp6038
sS'2P15VAVL'
p6039
g2
(g3
(S'S3'
p6040
I0
I1
tp6041
Rp6042
(I3
S'|'
p6043
NNNI3
I1
I0
tp6044
bS'VDC'
p6045
tp6046
Rp6047
sS'OHRTHR54'
p6048
g2
(g3
(S'S4'
p6049
I0
I1
tp6050
Rp6051
(I3
S'|'
p6052
NNNI4
I1
I0
tp6053
bS'DEGF'
p6054
tp6055
Rp6056
sS'AAOTAPMT'
p6057
g2
(g3
(S'S4'
p6058
I0
I1
tp6059
Rp6060
(I3
S'|'
p6061
NNNI4
I1
I0
tp6062
bS'DEGF'
p6063
tp6064
Rp6065
sS'AORWPI2B'
p6066
g2
(g3
(S'S4'
p6067
I0
I1
tp6068
Rp6069
(I3
S'|'
p6070
NNNI4
I1
I0
tp6071
bS'MSEC'
p6072
tp6073
Rp6074
sS'TCYZ_RW1'
p6075
g2
(g3
(S'S4'
p6076
I0
I1
tp6077
Rp6078
(I3
S'|'
p6079
NNNI4
I1
I0
tp6080
bS'DEGF'
p6081
tp6082
Rp6083
sS'OHRTHR60'
p6084
g2
(g3
(S'S4'
p6085
I0
I1
tp6086
Rp6087
(I3
S'|'
p6088
NNNI4
I1
I0
tp6089
bS'DEGF'
p6090
tp6091
Rp6092
sS'OOBTHR09'
p6093
g2
(g3
(S'S4'
p6094
I0
I1
tp6095
Rp6096
(I3
S'|'
p6097
NNNI4
I1
I0
tp6098
bS'DEGF'
p6099
tp6100
Rp6101
sS'3TSMXCET'
p6102
g2
(g3
(S'S4'
p6103
I0
I1
tp6104
Rp6105
(I3
S'|'
p6106
NNNI4
I1
I0
tp6107
bS'DEGC'
p6108
tp6109
Rp6110
sS'TCYZ_RW6'
p6111
g2
(g3
(S'S4'
p6112
I0
I1
tp6113
Rp6114
(I3
S'|'
p6115
NNNI4
I1
I0
tp6116
bS'DEGF'
p6117
tp6118
Rp6119
sS'ARWA2BT'
p6120
g2
(g3
(S'S4'
p6121
I0
I1
tp6122
Rp6123
(I3
S'|'
p6124
NNNI4
I1
I0
tp6125
bS'DEGF'
p6126
tp6127
Rp6128
sS'PLAED3ET'
p6129
g2
(g3
(S'S4'
p6130
I0
I1
tp6131
Rp6132
(I3
S'|'
p6133
NNNI4
I1
I0
tp6134
bS'DEGF'
p6135
tp6136
Rp6137
sS'3FAPOS'
p6138
S'FASTEP'
p6139
sS'TSAPYT'
p6140
g2
(g3
(S'S4'
p6141
I0
I1
tp6142
Rp6143
(I3
S'|'
p6144
NNNI4
I1
I0
tp6145
bS'DEGF'
p6146
tp6147
Rp6148
sS'CPA1V'
p6149
g2
(g3
(S'S1'
p6150
I0
I1
tp6151
Rp6152
(I3
S'|'
p6153
NNNI1
I1
I0
tp6154
bg45
tp6155
Rp6156
sS'ASPEA5CV'
p6157
g2
(g3
(S'S1'
p6158
I0
I1
tp6159
Rp6160
(I3
S'|'
p6161
NNNI1
I1
I0
tp6162
bg45
tp6163
Rp6164
sS'PXTANK1T'
p6165
g2
(g3
(S'S4'
p6166
I0
I1
tp6167
Rp6168
(I3
S'|'
p6169
NNNI4
I1
I0
tp6170
bS'DEGF'
p6171
tp6172
Rp6173
sS'4RT568T'
p6174
g2
(g3
(S'S4'
p6175
I0
I1
tp6176
Rp6177
(I3
S'|'
p6178
NNNI4
I1
I0
tp6179
bS'DEGF'
p6180
tp6181
Rp6182
sS'ACPB5CV'
p6183
g2
(g3
(S'S1'
p6184
I0
I1
tp6185
Rp6186
(I3
S'|'
p6187
NNNI1
I1
I0
tp6188
bg45
tp6189
Rp6190
sS'OOBTHR02'
p6191
g2
(g3
(S'S4'
p6192
I0
I1
tp6193
Rp6194
(I3
S'|'
p6195
NNNI4
I1
I0
tp6196
bS'DEGF'
p6197
tp6198
Rp6199
sS'1DPICACU'
p6200
g2
(g3
(S'S3'
p6201
I0
I1
tp6202
Rp6203
(I3
S'|'
p6204
NNNI3
I1
I0
tp6205
bS'AMP'
p6206
tp6207
Rp6208
sS'OOBTHR03'
p6209
g2
(g3
(S'S4'
p6210
I0
I1
tp6211
Rp6212
(I3
S'|'
p6213
NNNI4
I1
I0
tp6214
bS'DEGF'
p6215
tp6216
Rp6217
sS'OOBTHR54'
p6218
g2
(g3
(S'S4'
p6219
I0
I1
tp6220
Rp6221
(I3
S'|'
p6222
NNNI4
I1
I0
tp6223
bS'DEGF'
p6224
tp6225
Rp6226
sS'TOXTSUPN'
p6227
g2
(g3
(S'S4'
p6228
I0
I1
tp6229
Rp6230
(I3
S'|'
p6231
NNNI4
I1
I0
tp6232
bS'DEGF'
p6233
tp6234
Rp6235
sS'AOSACMD1'
p6236
g2
(g3
(S'S3'
p6237
I0
I1
tp6238
Rp6239
(I3
S'|'
p6240
NNNI3
I1
I0
tp6241
bS'RAD'
p6242
tp6243
Rp6244
sS'4RT589T'
p6245
g2
(g3
(S'S4'
p6246
I0
I1
tp6247
Rp6248
(I3
S'|'
p6249
NNNI4
I1
I0
tp6250
bS'DEGF'
p6251
tp6252
Rp6253
sS'ASPEFSW2B'
p6254
g2
(g3
(S'S3'
p6255
I0
I1
tp6256
Rp6257
(I3
S'|'
p6258
NNNI3
I1
I0
tp6259
bS'DEG'
p6260
tp6261
Rp6262
sS'TCYLRWC'
p6263
g2
(g3
(S'S4'
p6264
I0
I1
tp6265
Rp6266
(I3
S'|'
p6267
NNNI4
I1
I0
tp6268
bS'DEGF'
p6269
tp6270
Rp6271
sS'4RT595T'
p6272
g2
(g3
(S'S4'
p6273
I0
I1
tp6274
Rp6275
(I3
S'|'
p6276
NNNI4
I1
I0
tp6277
bS'DEGF'
p6278
tp6279
Rp6280
sS'TCYLAFT5'
p6281
g2
(g3
(S'S4'
p6282
I0
I1
tp6283
Rp6284
(I3
S'|'
p6285
NNNI4
I1
I0
tp6286
bS'DEGF'
p6287
tp6288
Rp6289
sS'3TRMTRAT'
p6290
g2
(g3
(S'S4'
p6291
I0
I1
tp6292
Rp6293
(I3
S'|'
p6294
NNNI4
I1
I0
tp6295
bS'DEGC'
p6296
tp6297
Rp6298
sS'4RT700T'
p6299
g2
(g3
(S'S4'
p6300
I0
I1
tp6301
Rp6302
(I3
S'|'
p6303
NNNI4
I1
I0
tp6304
bS'DEGF'
p6305
tp6306
Rp6307
sS'OOBTHR07'
p6308
g2
(g3
(S'S4'
p6309
I0
I1
tp6310
Rp6311
(I3
S'|'
p6312
NNNI4
I1
I0
tp6313
bS'DEGF'
p6314
tp6315
Rp6316
sS'1CBAT'
p6317
g2
(g3
(S'S4'
p6318
I0
I1
tp6319
Rp6320
(I3
S'|'
p6321
NNNI4
I1
I0
tp6322
bS'DEGC'
p6323
tp6324
Rp6325
sS'CPA2BPT'
p6326
g2
(g3
(S'S4'
p6327
I0
I1
tp6328
Rp6329
(I3
S'|'
p6330
NNNI4
I1
I0
tp6331
bS'DEGF'
p6332
tp6333
Rp6334
sS'4IP15AV'
p6335
g2
(g3
(S'S3'
p6336
I0
I1
tp6337
Rp6338
(I3
S'|'
p6339
NNNI3
I1
I0
tp6340
bS'VDC'
p6341
tp6342
Rp6343
sS'4ALL2AT'
p6344
g2
(g3
(S'S4'
p6345
I0
I1
tp6346
Rp6347
(I3
S'|'
p6348
NNNI4
I1
I0
tp6349
bS'DEGF'
p6350
tp6351
Rp6352
sS'4PRT4AT'
p6353
g2
(g3
(S'S4'
p6354
I0
I1
tp6355
Rp6356
(I3
S'|'
p6357
NNNI4
I1
I0
tp6358
bS'DEGF'
p6359
tp6360
Rp6361
sS'OOBTHR05'
p6362
g2
(g3
(S'S4'
p6363
I0
I1
tp6364
Rp6365
(I3
S'|'
p6366
NNNI4
I1
I0
tp6367
bS'DEGF'
p6368
tp6369
Rp6370
sS'PLAED2AT'
p6371
g2
(g3
(S'S4'
p6372
I0
I1
tp6373
Rp6374
(I3
S'|'
p6375
NNNI4
I1
I0
tp6376
bS'DEGF'
p6377
tp6378
Rp6379
sS'TAPEA2T'
p6380
g2
(g3
(S'S4'
p6381
I0
I1
tp6382
Rp6383
(I3
S'|'
p6384
NNNI4
I1
I0
tp6385
bS'DEGF'
p6386
tp6387
Rp6388
sS'AFLC10AI'
p6389
g2
(g3
(S'S4'
p6390
I0
I1
tp6391
Rp6392
(I3
S'|'
p6393
NNNI4
I1
I0
tp6394
bS'MAMP'
p6395
tp6396
Rp6397
sS'2PMT2T'
p6398
g2
(g3
(S'S4'
p6399
I0
I1
tp6400
Rp6401
(I3
S'|'
p6402
NNNI4
I1
I0
tp6403
bS'DEGC'
p6404
tp6405
Rp6406
sS'EIACVAV'
p6407
g2
(g3
(S'S1'
p6408
I0
I1
tp6409
Rp6410
(I3
S'|'
p6411
NNNI1
I1
I0
tp6412
bg45
tp6413
Rp6414
sS'4IP5BV'
p6415
g2
(g3
(S'S3'
p6416
I0
I1
tp6417
Rp6418
(I3
S'|'
p6419
NNNI3
I1
I0
tp6420
bS'VDC'
p6421
tp6422
Rp6423
sS'6CSSI4'
p6424
g2
(g3
(S'S4'
p6425
I0
I1
tp6426
Rp6427
(I3
S'|'
p6428
NNNI4
I1
I0
tp6429
bS'MAMP'
p6430
tp6431
Rp6432
sS'PLAED1HT'
p6433
g2
(g3
(S'S4'
p6434
I0
I1
tp6435
Rp6436
(I3
S'|'
p6437
NNNI4
I1
I0
tp6438
bS'DEGF'
p6439
tp6440
Rp6441
sS'6CSSI2'
p6442
g2
(g3
(S'S4'
p6443
I0
I1
tp6444
Rp6445
(I3
S'|'
p6446
NNNI4
I1
I0
tp6447
bS'MAMP'
p6448
tp6449
Rp6450
sS'6CSSI3'
p6451
g2
(g3
(S'S4'
p6452
I0
I1
tp6453
Rp6454
(I3
S'|'
p6455
NNNI4
I1
I0
tp6456
bS'MAMP'
p6457
tp6458
Rp6459
sS'3TTVALVT'
p6460
g2
(g3
(S'S4'
p6461
I0
I1
tp6462
Rp6463
(I3
S'|'
p6464
NNNI4
I1
I0
tp6465
bS'DEGC'
p6466
tp6467
Rp6468
sS'6CSSI1'
p6469
g2
(g3
(S'S4'
p6470
I0
I1
tp6471
Rp6472
(I3
S'|'
p6473
NNNI4
I1
I0
tp6474
bS'MAMP'
p6475
tp6476
Rp6477
sS'PXDM02T'
p6478
g2
(g3
(S'S4'
p6479
I0
I1
tp6480
Rp6481
(I3
S'|'
p6482
NNNI4
I1
I0
tp6483
bS'DEGF'
p6484
tp6485
Rp6486
sS'TCYLCMM'
p6487
g2
(g3
(S'S4'
p6488
I0
I1
tp6489
Rp6490
(I3
S'|'
p6491
NNNI4
I1
I0
tp6492
bS'DEGF'
p6493
tp6494
Rp6495
sS'CUSOAIT'
p6496
g2
(g3
(S'S4'
p6497
I0
I1
tp6498
Rp6499
(I3
S'|'
p6500
NNNI4
I1
I0
tp6501
bS'DEGF'
p6502
tp6503
Rp6504
sS'4HPOSARO'
p6505
g2
(g3
(S'S3'
p6506
I0
I1
tp6507
Rp6508
(I3
S'|'
p6509
NNNI3
I1
I0
tp6510
bS'DEG'
p6511
tp6512
Rp6513
sS'OHRMGRD6'
p6514
g2
(g3
(S'S4'
p6515
I0
I1
tp6516
Rp6517
(I3
S'|'
p6518
NNNI4
I1
I0
tp6519
bS'DEGF'
p6520
tp6521
Rp6522
sS'4VRMOAV'
p6523
g2
(g3
(S'S3'
p6524
I0
I1
tp6525
Rp6526
(I3
S'|'
p6527
NNNI3
I1
I0
tp6528
bS'VDC'
p6529
tp6530
Rp6531
sS'EOEB3V'
p6532
g2
(g3
(S'S1'
p6533
I0
I1
tp6534
Rp6535
(I3
S'|'
p6536
NNNI1
I1
I0
tp6537
bg45
tp6538
Rp6539
sS'3FAFLCAT'
p6540
g2
(g3
(S'S4'
p6541
I0
I1
tp6542
Rp6543
(I3
S'|'
p6544
NNNI4
I1
I0
tp6545
bS'DEGC'
p6546
tp6547
Rp6548
sS'EB2V'
p6549
g2
(g3
(S'S1'
p6550
I0
I1
tp6551
Rp6552
(I3
S'|'
p6553
NNNI1
I1
I0
tp6554
bg45
tp6555
Rp6556
sS'AOTQCMD1'
p6557
g2
(g3
(S'S4'
p6558
I0
I1
tp6559
Rp6560
(I3
S'|'
p6561
NNNI4
I1
I0
tp6562
bS'FTLB'
p6563
tp6564
Rp6565
sS'AOTQCMD3'
p6566
g2
(g3
(S'S4'
p6567
I0
I1
tp6568
Rp6569
(I3
S'|'
p6570
NNNI4
I1
I0
tp6571
bS'FTLB'
p6572
tp6573
Rp6574
sS'AOTQCMD2'
p6575
g2
(g3
(S'S4'
p6576
I0
I1
tp6577
Rp6578
(I3
S'|'
p6579
NNNI4
I1
I0
tp6580
bS'FTLB'
p6581
tp6582
Rp6583
sS'CXPNBIT'
p6584
g2
(g3
(S'S4'
p6585
I0
I1
tp6586
Rp6587
(I3
S'|'
p6588
NNNI4
I1
I0
tp6589
bS'DEGF'
p6590
tp6591
Rp6592
sS'OHRTHR25'
p6593
g2
(g3
(S'S4'
p6594
I0
I1
tp6595
Rp6596
(I3
S'|'
p6597
NNNI4
I1
I0
tp6598
bS'DEGF'
p6599
tp6600
Rp6601
sS'AIRU2G2I'
p6602
g2
(g3
(S'S4'
p6603
I0
I1
tp6604
Rp6605
(I3
S'|'
p6606
NNNI4
I1
I0
tp6607
bS'MAMP'
p6608
tp6609
Rp6610
sS'TRSPOTEX'
p6611
g2
(g3
(S'S4'
p6612
I0
I1
tp6613
Rp6614
(I3
S'|'
p6615
NNNI4
I1
I0
tp6616
bS'DEGF'
p6617
tp6618
Rp6619
sS'TFUTSUPN'
p6620
g2
(g3
(S'S4'
p6621
I0
I1
tp6622
Rp6623
(I3
S'|'
p6624
NNNI4
I1
I0
tp6625
bS'DEGF'
p6626
tp6627
Rp6628
sS'AOSPACS1B'
p6629
g2
(g3
(S'S4'
p6630
I0
I1
tp6631
Rp6632
(I3
S'|'
p6633
NNNI4
I1
I0
tp6634
bS'MAMP'
p6635
tp6636
Rp6637
sS'6RWSPD1'
p6638
g2
(g3
(S'S5'
p6639
I0
I1
tp6640
Rp6641
(I3
S'|'
p6642
NNNI5
I1
I0
tp6643
bS'RADPS'
p6644
tp6645
Rp6646
sS'TB1T1'
p6647
g2
(g3
(S'S4'
p6648
I0
I1
tp6649
Rp6650
(I3
S'|'
p6651
NNNI4
I1
I0
tp6652
bS'DEGF'
p6653
tp6654
Rp6655
sS'AOACYAN7'
p6656
g2
(g3
(S'S4'
p6657
I0
I1
tp6658
Rp6659
(I3
S'|'
p6660
NNNI4
I1
I0
tp6661
bS'ASEC'
p6662
tp6663
Rp6664
sS'1CRAT'
p6665
g2
(g3
(S'S4'
p6666
I0
I1
tp6667
Rp6668
(I3
S'|'
p6669
NNNI4
I1
I0
tp6670
bS'DEGC'
p6671
tp6672
Rp6673
sS'AOACYAN0'
p6674
g2
(g3
(S'S4'
p6675
I0
I1
tp6676
Rp6677
(I3
S'|'
p6678
NNNI4
I1
I0
tp6679
bS'ASEC'
p6680
tp6681
Rp6682
sS'PMTANK2T'
p6683
g2
(g3
(S'S4'
p6684
I0
I1
tp6685
Rp6686
(I3
S'|'
p6687
NNNI4
I1
I0
tp6688
bS'DEGF'
p6689
tp6690
Rp6691
sS'AOACYAN1'
p6692
g2
(g3
(S'S4'
p6693
I0
I1
tp6694
Rp6695
(I3
S'|'
p6696
NNNI4
I1
I0
tp6697
bS'ASEC'
p6698
tp6699
Rp6700
sS'TMP_FEP0_PCB'
p6701
g299
sS'1SSPYT'
p6702
g2
(g3
(S'S4'
p6703
I0
I1
tp6704
Rp6705
(I3
S'|'
p6706
NNNI4
I1
I0
tp6707
bS'DEGC'
p6708
tp6709
Rp6710
sS'AOACYAN2'
p6711
g2
(g3
(S'S4'
p6712
I0
I1
tp6713
Rp6714
(I3
S'|'
p6715
NNNI4
I1
I0
tp6716
bS'ASEC'
p6717
tp6718
Rp6719
sS'PLAED1CT'
p6720
g2
(g3
(S'S4'
p6721
I0
I1
tp6722
Rp6723
(I3
S'|'
p6724
NNNI4
I1
I0
tp6725
bS'DEGF'
p6726
tp6727
Rp6728
sS'OHRTHR24'
p6729
g2
(g3
(S'S4'
p6730
I0
I1
tp6731
Rp6732
(I3
S'|'
p6733
NNNI4
I1
I0
tp6734
bS'DEGF'
p6735
tp6736
Rp6737
sS'PLAED4HT'
p6738
g2
(g3
(S'S4'
p6739
I0
I1
tp6740
Rp6741
(I3
S'|'
p6742
NNNI4
I1
I0
tp6743
bS'DEGF'
p6744
tp6745
Rp6746
sS'2DTSTATT'
p6747
g2
(g3
(S'S4'
p6748
I0
I1
tp6749
Rp6750
(I3
S'|'
p6751
NNNI4
I1
I0
tp6752
bS'DEGC'
p6753
tp6754
Rp6755
sS'AI2AX1Y'
p6756
g2
(g3
(S'S5'
p6757
I0
I1
tp6758
Rp6759
(I3
S'|'
p6760
NNNI5
I1
I0
tp6761
bS'DEGPS'
p6762
tp6763
Rp6764
sS'AI2AX1X'
p6765
g2
(g3
(S'S5'
p6766
I0
I1
tp6767
Rp6768
(I3
S'|'
p6769
NNNI5
I1
I0
tp6770
bS'DEGPS'
p6771
tp6772
Rp6773
sS'AAOTASMT'
p6774
g2
(g3
(S'S4'
p6775
I0
I1
tp6776
Rp6777
(I3
S'|'
p6778
NNNI4
I1
I0
tp6779
bS'DEGF'
p6780
tp6781
Rp6782
sS'CSITA5V'
p6783
g2
(g3
(S'S1'
p6784
I0
I1
tp6785
Rp6786
(I3
S'|'
p6787
NNNI1
I1
I0
tp6788
bg45
tp6789
Rp6790
sS'AORTERR1'
p6791
g2
(g3
(S'S5'
p6792
I0
I1
tp6793
Rp6794
(I3
S'|'
p6795
NNNI5
I1
I0
tp6796
bS'RADPS'
p6797
tp6798
Rp6799
sS'TCYLAFT3'
p6800
g2
(g3
(S'S4'
p6801
I0
I1
tp6802
Rp6803
(I3
S'|'
p6804
NNNI4
I1
I0
tp6805
bS'DEGF'
p6806
tp6807
Rp6808
sS'TCYLAFT2'
p6809
g2
(g3
(S'S4'
p6810
I0
I1
tp6811
Rp6812
(I3
S'|'
p6813
NNNI4
I1
I0
tp6814
bS'DEGF'
p6815
tp6816
Rp6817
sS'OOBTHR06'
p6818
g2
(g3
(S'S4'
p6819
I0
I1
tp6820
Rp6821
(I3
S'|'
p6822
NNNI4
I1
I0
tp6823
bS'DEGF'
p6824
tp6825
Rp6826
sS'4LLL1AT'
p6827
g2
(g3
(S'S4'
p6828
I0
I1
tp6829
Rp6830
(I3
S'|'
p6831
NNNI4
I1
I0
tp6832
bS'DEGF'
p6833
tp6834
Rp6835
sS'OOBTHR04'
p6836
g2
(g3
(S'S4'
p6837
I0
I1
tp6838
Rp6839
(I3
S'|'
p6840
NNNI4
I1
I0
tp6841
bS'DEGF'
p6842
tp6843
Rp6844
sS'4HPOSBRO'
p6845
g2
(g3
(S'S3'
p6846
I0
I1
tp6847
Rp6848
(I3
S'|'
p6849
NNNI3
I1
I0
tp6850
bS'DEG'
p6851
tp6852
Rp6853
sS'EOESAT2C'
p6854
g2
(g3
(S'S4'
p6855
I0
I1
tp6856
Rp6857
(I3
S'|'
p6858
NNNI4
I1
I0
tp6859
bS'DEGF'
p6860
tp6861
Rp6862
sS'AORTERR3'
p6863
g2
(g3
(S'S5'
p6864
I0
I1
tp6865
Rp6866
(I3
S'|'
p6867
NNNI5
I1
I0
tp6868
bS'RADPS'
p6869
tp6870
Rp6871
sS'PR3TV01T'
p6872
g2
(g3
(S'S4'
p6873
I0
I1
tp6874
Rp6875
(I3
S'|'
p6876
NNNI4
I1
I0
tp6877
bS'DEGF'
p6878
tp6879
Rp6880
sS'TBOLTCUT'
p6881
g2
(g3
(S'S4'
p6882
I0
I1
tp6883
Rp6884
(I3
S'|'
p6885
NNNI4
I1
I0
tp6886
bS'DEGF'
p6887
tp6888
Rp6889
sS'AOACYAN4'
p6890
g2
(g3
(S'S4'
p6891
I0
I1
tp6892
Rp6893
(I3
S'|'
p6894
NNNI4
I1
I0
tp6895
bS'ASEC'
p6896
tp6897
Rp6898
sS'AOACYAN5'
p6899
g2
(g3
(S'S4'
p6900
I0
I1
tp6901
Rp6902
(I3
S'|'
p6903
NNNI4
I1
I0
tp6904
bS'ASEC'
p6905
tp6906
Rp6907
sS'AOACYAN6'
p6908
g2
(g3
(S'S4'
p6909
I0
I1
tp6910
Rp6911
(I3
S'|'
p6912
NNNI4
I1
I0
tp6913
bS'ASEC'
p6914
tp6915
Rp6916
sS'AFLCAAH'
p6917
g2
(g3
(S'S1'
p6918
I0
I1
tp6919
Rp6920
(I3
S'|'
p6921
NNNI1
I1
I0
tp6922
bg45
tp6923
Rp6924
sS'AFSSPC2V'
p6925
g2
(g3
(S'S1'
p6926
I0
I1
tp6927
Rp6928
(I3
S'|'
p6929
NNNI1
I1
I0
tp6930
bg45
tp6931
Rp6932
sS'1MAHCBT'
p6933
g2
(g3
(S'S4'
p6934
I0
I1
tp6935
Rp6936
(I3
S'|'
p6937
NNNI4
I1
I0
tp6938
bS'DEGC'
p6939
tp6940
Rp6941
sS'AFLC11AI'
p6942
g2
(g3
(S'S4'
p6943
I0
I1
tp6944
Rp6945
(I3
S'|'
p6946
NNNI4
I1
I0
tp6947
bS'MAMP'
p6948
tp6949
Rp6950
sS'AOACYAN3'
p6951
g2
(g3
(S'S4'
p6952
I0
I1
tp6953
Rp6954
(I3
S'|'
p6955
NNNI4
I1
I0
tp6956
bS'ASEC'
p6957
tp6958
Rp6959
sS'TFSSBKT1'
p6960
g2
(g3
(S'S4'
p6961
I0
I1
tp6962
Rp6963
(I3
S'|'
p6964
NNNI4
I1
I0
tp6965
bS'DEGF'
p6966
tp6967
Rp6968
sS'PLAED4CT'
p6969
g2
(g3
(S'S4'
p6970
I0
I1
tp6971
Rp6972
(I3
S'|'
p6973
NNNI4
I1
I0
tp6974
bS'DEGF'
p6975
tp6976
Rp6977
sS'3SFLXAST'
p6978
g2
(g3
(S'S4'
p6979
I0
I1
tp6980
Rp6981
(I3
S'|'
p6982
NNNI4
I1
I0
tp6983
bS'DEGC'
p6984
tp6985
Rp6986
sS'6RWNLTQ1'
p6987
g2
(g3
(S'S4'
p6988
I0
I1
tp6989
Rp6990
(I3
S'|'
p6991
NNNI4
I1
I0
tp6992
bS'FTLB'
p6993
tp6994
Rp6995
sS'6RWNLTQ2'
p6996
g2
(g3
(S'S4'
p6997
I0
I1
tp6998
Rp6999
(I3
S'|'
p7000
NNNI4
I1
I0
tp7001
bS'FTLB'
p7002
tp7003
Rp7004
sS'6RWNLTQ3'
p7005
g2
(g3
(S'S4'
p7006
I0
I1
tp7007
Rp7008
(I3
S'|'
p7009
NNNI4
I1
I0
tp7010
bS'FTLB'
p7011
tp7012
Rp7013
sS'6RWNLTQ4'
p7014
g2
(g3
(S'S4'
p7015
I0
I1
tp7016
Rp7017
(I3
S'|'
p7018
NNNI4
I1
I0
tp7019
bS'FTLB'
p7020
tp7021
Rp7022
sS'4RT563T'
p7023
g2
(g3
(S'S4'
p7024
I0
I1
tp7025
Rp7026
(I3
S'|'
p7027
NNNI4
I1
I0
tp7028
bS'DEGF'
p7029
tp7030
Rp7031
sS'6RWNLTQ6'
p7032
g2
(g3
(S'S4'
p7033
I0
I1
tp7034
Rp7035
(I3
S'|'
p7036
NNNI4
I1
I0
tp7037
bS'FTLB'
p7038
tp7039
Rp7040
sS'CSITB15V'
p7041
g2
(g3
(S'S1'
p7042
I0
I1
tp7043
Rp7044
(I3
S'|'
p7045
NNNI1
I1
I0
tp7046
bg45
tp7047
Rp7048
sS'EB2CI'
p7049
g2
(g3
(S'S3'
p7050
I0
I1
tp7051
Rp7052
(I3
S'|'
p7053
NNNI3
I1
I0
tp7054
bS'AMP'
p7055
tp7056
Rp7057
sS'AORESZ2_1'
p7058
g2
(g3
(S'S3'
p7059
I0
I1
tp7060
Rp7061
(I3
S'|'
p7062
NNNI3
I1
I0
tp7063
bS'RAD'
p7064
tp7065
Rp7066
sS'1DAHBVO'
p7067
g2
(g3
(S'S1'
p7068
I0
I1
tp7069
Rp7070
(I3
S'|'
p7071
NNNI1
I1
I0
tp7072
bg45
tp7073
Rp7074
sS'PLAED1ET'
p7075
g2
(g3
(S'S4'
p7076
I0
I1
tp7077
Rp7078
(I3
S'|'
p7079
NNNI4
I1
I0
tp7080
bS'DEGF'
p7081
tp7082
Rp7083
sS'PR1TV01T'
p7084
g2
(g3
(S'S4'
p7085
I0
I1
tp7086
Rp7087
(I3
S'|'
p7088
NNNI4
I1
I0
tp7089
bS'DEGF'
p7090
tp7091
Rp7092
sS'CSSR2CBV'
p7093
g2
(g3
(S'S1'
p7094
I0
I1
tp7095
Rp7096
(I3
S'|'
p7097
NNNI1
I1
I0
tp7098
bg45
tp7099
Rp7100
sS'4RT707T'
p7101
g2
(g3
(S'S4'
p7102
I0
I1
tp7103
Rp7104
(I3
S'|'
p7105
NNNI4
I1
I0
tp7106
bS'DEGF'
p7107
tp7108
Rp7109
sS'PLINE05T'
p7110
g2
(g3
(S'S4'
p7111
I0
I1
tp7112
Rp7113
(I3
S'|'
p7114
NNNI4
I1
I0
tp7115
bS'DEGF'
p7116
tp7117
Rp7118
sS'PLAED3AT'
p7119
g2
(g3
(S'S4'
p7120
I0
I1
tp7121
Rp7122
(I3
S'|'
p7123
NNNI4
I1
I0
tp7124
bS'DEGF'
p7125
tp7126
Rp7127
sS'TAPE2PST'
p7128
g2
(g3
(S'S4'
p7129
I0
I1
tp7130
Rp7131
(I3
S'|'
p7132
NNNI4
I1
I0
tp7133
bS'DEGF'
p7134
tp7135
Rp7136
sS'4PRT4BT'
p7137
g2
(g3
(S'S4'
p7138
I0
I1
tp7139
Rp7140
(I3
S'|'
p7141
NNNI4
I1
I0
tp7142
bS'DEGF'
p7143
tp7144
Rp7145
sS'1DAHHAVO'
p7146
g2
(g3
(S'S1'
p7147
I0
I1
tp7148
Rp7149
(I3
S'|'
p7150
NNNI1
I1
I0
tp7151
bg45
tp7152
Rp7153
sS'ASPEFSW1B'
p7154
g2
(g3
(S'S3'
p7155
I0
I1
tp7156
Rp7157
(I3
S'|'
p7158
NNNI3
I1
I0
tp7159
bS'DEG'
p7160
tp7161
Rp7162
sS'CUSOB28V'
p7163
g2
(g3
(S'S1'
p7164
I0
I1
tp7165
Rp7166
(I3
S'|'
p7167
NNNI1
I1
I0
tp7168
bg45
tp7169
Rp7170
sS'TMP_FEP1_ACTEL'
p7171
g299
sS'4RT555T'
p7172
g2
(g3
(S'S4'
p7173
I0
I1
tp7174
Rp7175
(I3
S'|'
p7176
NNNI4
I1
I0
tp7177
bS'DEGF'
p7178
tp7179
Rp7180
sS'AORESY7'
p7181
g2
(g3
(S'S3'
p7182
I0
I1
tp7183
Rp7184
(I3
S'|'
p7185
NNNI3
I1
I0
tp7186
bS'RAD'
p7187
tp7188
Rp7189
sS'AOSPBCS3B'
p7190
g2
(g3
(S'S4'
p7191
I0
I1
tp7192
Rp7193
(I3
S'|'
p7194
NNNI4
I1
I0
tp7195
bS'MAMP'
p7196
tp7197
Rp7198
sS'PXTANKIP'
p7199
g2
(g3
(S'S4'
p7200
I0
I1
tp7201
Rp7202
(I3
S'|'
p7203
NNNI4
I1
I0
tp7204
bS'PSIA'
p7205
tp7206
Rp7207
sS'3TSCPOS'
p7208
S'TSCSTEP'
p7209
sS'AORESY4'
p7210
g2
(g3
(S'S3'
p7211
I0
I1
tp7212
Rp7213
(I3
S'|'
p7214
NNNI3
I1
I0
tp7215
bS'RAD'
p7216
tp7217
Rp7218
sS'ARWA5BT'
p7219
g2
(g3
(S'S4'
p7220
I0
I1
tp7221
Rp7222
(I3
S'|'
p7223
NNNI4
I1
I0
tp7224
bS'DEGF'
p7225
tp7226
Rp7227
sS'CSITB5V'
p7228
g2
(g3
(S'S1'
p7229
I0
I1
tp7230
Rp7231
(I3
S'|'
p7232
NNNI1
I1
I0
tp7233
bg45
tp7234
Rp7235
sS'2CHTRPZT'
p7236
g2
(g3
(S'S4'
p7237
I0
I1
tp7238
Rp7239
(I3
S'|'
p7240
NNNI4
I1
I0
tp7241
bS'DEGC'
p7242
tp7243
Rp7244
sS'4RT579T'
p7245
g2
(g3
(S'S4'
p7246
I0
I1
tp7247
Rp7248
(I3
S'|'
p7249
NNNI4
I1
I0
tp7250
bS'DEGF'
p7251
tp7252
Rp7253
sS'TCM_USO'
p7254
g2
(g3
(S'S4'
p7255
I0
I1
tp7256
Rp7257
(I3
S'|'
p7258
NNNI4
I1
I0
tp7259
bS'DEGF'
p7260
tp7261
Rp7262
sS'PLINE13T'
p7263
g2
(g3
(S'S4'
p7264
I0
I1
tp7265
Rp7266
(I3
S'|'
p7267
NNNI4
I1
I0
tp7268
bS'DEGF'
p7269
tp7270
Rp7271
sS'AOATTER1'
p7272
g2
(g3
(S'S3'
p7273
I0
I1
tp7274
Rp7275
(I3
S'|'
p7276
NNNI3
I1
I0
tp7277
bS'RAD'
p7278
tp7279
Rp7280
sS'AOATTER2'
p7281
g2
(g3
(S'S3'
p7282
I0
I1
tp7283
Rp7284
(I3
S'|'
p7285
NNNI3
I1
I0
tp7286
bS'RAD'
p7287
tp7288
Rp7289
sS'6RWNLTQ5'
p7290
g2
(g3
(S'S4'
p7291
I0
I1
tp7292
Rp7293
(I3
S'|'
p7294
NNNI4
I1
I0
tp7295
bS'FTLB'
p7296
tp7297
Rp7298
sS'TMZLGABM'
p7299
g2
(g3
(S'S4'
p7300
I0
I1
tp7301
Rp7302
(I3
S'|'
p7303
NNNI4
I1
I0
tp7304
bS'DEGF'
p7305
tp7306
Rp7307
sS'AOCSSI2'
p7308
g2
(g3
(S'S4'
p7309
I0
I1
tp7310
Rp7311
(I3
S'|'
p7312
NNNI4
I1
I0
tp7313
bS'MAMP'
p7314
tp7315
Rp7316
sS'2P24VAVL'
p7317
g2
(g3
(S'S3'
p7318
I0
I1
tp7319
Rp7320
(I3
S'|'
p7321
NNNI3
I1
I0
tp7322
bS'VDC'
p7323
tp7324
Rp7325
sS'AWD5TQI'
p7326
g2
(g3
(S'S3'
p7327
I0
I1
tp7328
Rp7329
(I3
S'|'
p7330
NNNI3
I1
I0
tp7331
bS'AMP'
p7332
tp7333
Rp7334
sS'AORWBTQ5'
p7335
g2
(g3
(S'S4'
p7336
I0
I1
tp7337
Rp7338
(I3
S'|'
p7339
NNNI4
I1
I0
tp7340
bS'FTLB'
p7341
tp7342
Rp7343
sS'OHRTHR41'
p7344
g2
(g3
(S'S4'
p7345
I0
I1
tp7346
Rp7347
(I3
S'|'
p7348
NNNI4
I1
I0
tp7349
bS'DEGF'
p7350
tp7351
Rp7352
sS'ECNV1V'
p7353
g2
(g3
(S'S1'
p7354
I0
I1
tp7355
Rp7356
(I3
S'|'
p7357
NNNI1
I1
I0
tp7358
bg45
tp7359
Rp7360
sS'EEPA5V'
p7361
g2
(g3
(S'S1'
p7362
I0
I1
tp7363
Rp7364
(I3
S'|'
p7365
NNNI1
I1
I0
tp7366
bg45
tp7367
Rp7368
sS'4RT585T'
p7369
g2
(g3
(S'S4'
p7370
I0
I1
tp7371
Rp7372
(I3
S'|'
p7373
NNNI4
I1
I0
tp7374
bS'DEGF'
p7375
tp7376
Rp7377
sS'PLAED2BT'
p7378
g2
(g3
(S'S4'
p7379
I0
I1
tp7380
Rp7381
(I3
S'|'
p7382
NNNI4
I1
I0
tp7383
bS'DEGF'
p7384
tp7385
Rp7386
sS'AAOTH2MT'
p7387
g2
(g3
(S'S4'
p7388
I0
I1
tp7389
Rp7390
(I3
S'|'
p7391
NNNI4
I1
I0
tp7392
bS'DEGF'
p7393
tp7394
Rp7395
sS'OHRTHR02'
p7396
g2
(g3
(S'S4'
p7397
I0
I1
tp7398
Rp7399
(I3
S'|'
p7400
NNNI4
I1
I0
tp7401
bS'DEGF'
p7402
tp7403
Rp7404
sS'4HLL1BT'
p7405
g2
(g3
(S'S4'
p7406
I0
I1
tp7407
Rp7408
(I3
S'|'
p7409
NNNI4
I1
I0
tp7410
bS'DEGF'
p7411
tp7412
Rp7413
sS'AORESY1_1'
p7414
g2
(g3
(S'S3'
p7415
I0
I1
tp7416
Rp7417
(I3
S'|'
p7418
NNNI3
I1
I0
tp7419
bS'RAD'
p7420
tp7421
Rp7422
sS'OHRTHR07'
p7423
g2
(g3
(S'S4'
p7424
I0
I1
tp7425
Rp7426
(I3
S'|'
p7427
NNNI4
I1
I0
tp7428
bS'DEGF'
p7429
tp7430
Rp7431
sS'OHRTHR06'
p7432
g2
(g3
(S'S4'
p7433
I0
I1
tp7434
Rp7435
(I3
S'|'
p7436
NNNI4
I1
I0
tp7437
bS'DEGF'
p7438
tp7439
Rp7440
sS'OHRTHR09'
p7441
g2
(g3
(S'S4'
p7442
I0
I1
tp7443
Rp7444
(I3
S'|'
p7445
NNNI4
I1
I0
tp7446
bS'DEGF'
p7447
tp7448
Rp7449
sS'1WRBT'
p7450
g2
(g3
(S'S4'
p7451
I0
I1
tp7452
Rp7453
(I3
S'|'
p7454
NNNI4
I1
I0
tp7455
bS'DEGC'
p7456
tp7457
Rp7458
sS'AIRU1VFT'
p7459
g2
(g3
(S'S4'
p7460
I0
I1
tp7461
Rp7462
(I3
S'|'
p7463
NNNI4
I1
I0
tp7464
bS'DEGF'
p7465
tp7466
Rp7467
sS'AORESZ6_6'
p7468
g2
(g3
(S'S3'
p7469
I0
I1
tp7470
Rp7471
(I3
S'|'
p7472
NNNI3
I1
I0
tp7473
bS'RAD'
p7474
tp7475
Rp7476
sS'AORESZ6_7'
p7477
g2
(g3
(S'S3'
p7478
I0
I1
tp7479
Rp7480
(I3
S'|'
p7481
NNNI3
I1
I0
tp7482
bS'RAD'
p7483
tp7484
Rp7485
sS'AORESZ6_4'
p7486
g2
(g3
(S'S3'
p7487
I0
I1
tp7488
Rp7489
(I3
S'|'
p7490
NNNI3
I1
I0
tp7491
bS'RAD'
p7492
tp7493
Rp7494
sS'AOADBCH1A_NBG'
p7495
g2
(g3
(S'S3'
p7496
I0
I1
tp7497
Rp7498
(I3
S'|'
p7499
NNNI3
I1
I0
tp7500
bS'DEG'
p7501
tp7502
Rp7503
sS'AORESZ6_2'
p7504
g2
(g3
(S'S3'
p7505
I0
I1
tp7506
Rp7507
(I3
S'|'
p7508
NNNI3
I1
I0
tp7509
bS'RAD'
p7510
tp7511
Rp7512
sS'AORESZ6_3'
p7513
g2
(g3
(S'S3'
p7514
I0
I1
tp7515
Rp7516
(I3
S'|'
p7517
NNNI3
I1
I0
tp7518
bS'RAD'
p7519
tp7520
Rp7521
sS'AOSCVEL2'
p7522
g2
(g3
(S'S4'
p7523
I0
I1
tp7524
Rp7525
(I3
S'|'
p7526
NNNI4
I1
I0
tp7527
bS'KMPS'
p7528
tp7529
Rp7530
sS'3SFLXBST'
p7531
g2
(g3
(S'S4'
p7532
I0
I1
tp7533
Rp7534
(I3
S'|'
p7535
NNNI4
I1
I0
tp7536
bS'DEGC'
p7537
tp7538
Rp7539
sS'4RT570T'
p7540
g2
(g3
(S'S4'
p7541
I0
I1
tp7542
Rp7543
(I3
S'|'
p7544
NNNI4
I1
I0
tp7545
bS'DEGF'
p7546
tp7547
Rp7548
sS'3FABRAAT'
p7549
g2
(g3
(S'S4'
p7550
I0
I1
tp7551
Rp7552
(I3
S'|'
p7553
NNNI4
I1
I0
tp7554
bS'DEGC'
p7555
tp7556
Rp7557
sS'TASPPCM'
p7558
g2
(g3
(S'S4'
p7559
I0
I1
tp7560
Rp7561
(I3
S'|'
p7562
NNNI4
I1
I0
tp7563
bS'DEGF'
p7564
tp7565
Rp7566
sS'ELBI'
p7567
g2
(g3
(S'S3'
p7568
I0
I1
tp7569
Rp7570
(I3
S'|'
p7571
NNNI3
I1
I0
tp7572
bS'AMP'
p7573
tp7574
Rp7575
sS'1CBBT'
p7576
g2
(g3
(S'S4'
p7577
I0
I1
tp7578
Rp7579
(I3
S'|'
p7580
NNNI4
I1
I0
tp7581
bS'DEGC'
p7582
tp7583
Rp7584
sS'AORESZ6_8'
p7585
g2
(g3
(S'S3'
p7586
I0
I1
tp7587
Rp7588
(I3
S'|'
p7589
NNNI3
I1
I0
tp7590
bS'RAD'
p7591
tp7592
Rp7593
sS'TMP_FEP0_ACTEL'
p7594
g299
sS'AOSARES2'
p7595
g2
(g3
(S'S3'
p7596
I0
I1
tp7597
Rp7598
(I3
S'|'
p7599
NNNI3
I1
I0
tp7600
bS'DEG'
p7601
tp7602
Rp7603
sS'AORESY5_1'
p7604
g2
(g3
(S'S3'
p7605
I0
I1
tp7606
Rp7607
(I3
S'|'
p7608
NNNI3
I1
I0
tp7609
bS'RAD'
p7610
tp7611
Rp7612
sS'AOSARES1'
p7613
g2
(g3
(S'S3'
p7614
I0
I1
tp7615
Rp7616
(I3
S'|'
p7617
NNNI3
I1
I0
tp7618
bS'DEG'
p7619
tp7620
Rp7621
sS'4RT591T'
p7622
g2
(g3
(S'S4'
p7623
I0
I1
tp7624
Rp7625
(I3
S'|'
p7626
NNNI4
I1
I0
tp7627
bS'DEGF'
p7628
tp7629
Rp7630
sS'3LDRTPOS'
p7631
g7209
sS'AIRU1G1I'
p7632
g2
(g3
(S'S4'
p7633
I0
I1
tp7634
Rp7635
(I3
S'|'
p7636
NNNI4
I1
I0
tp7637
bS'MAMP'
p7638
tp7639
Rp7640
sS'4PRTAV'
p7641
g2
(g3
(S'S3'
p7642
I0
I1
tp7643
Rp7644
(I3
S'|'
p7645
NNNI3
I1
I0
tp7646
bS'VDC'
p7647
tp7648
Rp7649
sS'TMZP_MY'
p7650
g2
(g3
(S'S4'
p7651
I0
I1
tp7652
Rp7653
(I3
S'|'
p7654
NNNI4
I1
I0
tp7655
bS'DEGF'
p7656
tp7657
Rp7658
sS'AOCMDRT1'
p7659
g2
(g3
(S'S5'
p7660
I0
I1
tp7661
Rp7662
(I3
S'|'
p7663
NNNI5
I1
I0
tp7664
bS'RADPS'
p7665
tp7666
Rp7667
sS'CPCA15V'
p7668
g2
(g3
(S'S1'
p7669
I0
I1
tp7670
Rp7671
(I3
S'|'
p7672
NNNI1
I1
I0
tp7673
bg45
tp7674
Rp7675
sS'TMYHNG'
p7676
g2
(g3
(S'S4'
p7677
I0
I1
tp7678
Rp7679
(I3
S'|'
p7680
NNNI4
I1
I0
tp7681
bS'DEGF'
p7682
tp7683
Rp7684
sS'PLAEV3BT'
p7685
g2
(g3
(S'S4'
p7686
I0
I1
tp7687
Rp7688
(I3
S'|'
p7689
NNNI4
I1
I0
tp7690
bS'DEGF'
p7691
tp7692
Rp7693
sS'1DEICBCU'
p7694
g2
(g3
(S'S3'
p7695
I0
I1
tp7696
Rp7697
(I3
S'|'
p7698
NNNI3
I1
I0
tp7699
bS'AMP'
p7700
tp7701
Rp7702
sS'PLINE12T'
p7703
g2
(g3
(S'S4'
p7704
I0
I1
tp7705
Rp7706
(I3
S'|'
p7707
NNNI4
I1
I0
tp7708
bS'DEGF'
p7709
tp7710
Rp7711
sS'AIRU2VFT'
p7712
g2
(g3
(S'S4'
p7713
I0
I1
tp7714
Rp7715
(I3
S'|'
p7716
NNNI4
I1
I0
tp7717
bS'DEGF'
p7718
tp7719
Rp7720
sS'EOESAT1C'
p7721
g2
(g3
(S'S4'
p7722
I0
I1
tp7723
Rp7724
(I3
S'|'
p7725
NNNI4
I1
I0
tp7726
bS'DEGF'
p7727
tp7728
Rp7729
sS'C28VMONB'
p7730
g2
(g3
(S'S1'
p7731
I0
I1
tp7732
Rp7733
(I3
S'|'
p7734
NNNI1
I1
I0
tp7735
bg45
tp7736
Rp7737
sS'AOADBCH2A_NBG'
p7738
g2
(g3
(S'S3'
p7739
I0
I1
tp7740
Rp7741
(I3
S'|'
p7742
NNNI3
I1
I0
tp7743
bS'DEG'
p7744
tp7745
Rp7746
sS'AOADACH2A_PCAD'
p7747
g2
(g3
(S'S3'
p7748
I0
I1
tp7749
Rp7750
(I3
S'|'
p7751
NNNI3
I1
I0
tp7752
bS'DEG'
p7753
tp7754
Rp7755
sS'3TSPZDET'
p7756
g2
(g3
(S'S4'
p7757
I0
I1
tp7758
Rp7759
(I3
S'|'
p7760
NNNI4
I1
I0
tp7761
bS'DEGC'
p7762
tp7763
Rp7764
sS'AORWINT5'
p7765
g2
(g3
(S'S4'
p7766
I0
I1
tp7767
Rp7768
(I3
S'|'
p7769
NNNI4
I1
I0
tp7770
bS'MSEC'
p7771
tp7772
Rp7773
sS'TPYSADA'
p7774
g2
(g3
(S'S4'
p7775
I0
I1
tp7776
Rp7777
(I3
S'|'
p7778
NNNI4
I1
I0
tp7779
bS'DEGF'
p7780
tp7781
Rp7782
sS'EORTDMN15D'
p7783
g2
(g3
(S'S4'
p7784
I0
I1
tp7785
Rp7786
(I3
S'|'
p7787
NNNI4
I1
I0
tp7788
bS'DEGF'
p7789
tp7790
Rp7791
sS'PLAED4DT'
p7792
g2
(g3
(S'S4'
p7793
I0
I1
tp7794
Rp7795
(I3
S'|'
p7796
NNNI4
I1
I0
tp7797
bS'DEGF'
p7798
tp7799
Rp7800
sS'PHETANKP'
p7801
g2
(g3
(S'S4'
p7802
I0
I1
tp7803
Rp7804
(I3
S'|'
p7805
NNNI4
I1
I0
tp7806
bS'PSIA'
p7807
tp7808
Rp7809
sS'PLINE08T'
p7810
g2
(g3
(S'S4'
p7811
I0
I1
tp7812
Rp7813
(I3
S'|'
p7814
NNNI4
I1
I0
tp7815
bS'DEGF'
p7816
tp7817
Rp7818
sS'TPC_FSSE'
p7819
g2
(g3
(S'S4'
p7820
I0
I1
tp7821
Rp7822
(I3
S'|'
p7823
NNNI4
I1
I0
tp7824
bS'DEGF'
p7825
tp7826
Rp7827
sS'AFLC12BI'
p7828
g2
(g3
(S'S4'
p7829
I0
I1
tp7830
Rp7831
(I3
S'|'
p7832
NNNI4
I1
I0
tp7833
bS'MAMP'
p7834
tp7835
Rp7836
sS'CIUA5V'
p7837
g2
(g3
(S'S1'
p7838
I0
I1
tp7839
Rp7840
(I3
S'|'
p7841
NNNI1
I1
I0
tp7842
bg45
tp7843
Rp7844
sS'AFLC14AI'
p7845
g2
(g3
(S'S4'
p7846
I0
I1
tp7847
Rp7848
(I3
S'|'
p7849
NNNI4
I1
I0
tp7850
bS'MAMP'
p7851
tp7852
Rp7853
sS'TSCIUSF1'
p7854
g2
(g3
(S'S4'
p7855
I0
I1
tp7856
Rp7857
(I3
S'|'
p7858
NNNI4
I1
I0
tp7859
bS'DEGF'
p7860
tp7861
Rp7862
sS'3FAPSAT'
p7863
g2
(g3
(S'S4'
p7864
I0
I1
tp7865
Rp7866
(I3
S'|'
p7867
NNNI4
I1
I0
tp7868
bS'DEGC'
p7869
tp7870
Rp7871
sS'AOMANANG'
p7872
g2
(g3
(S'S3'
p7873
I0
I1
tp7874
Rp7875
(I3
S'|'
p7876
NNNI3
I1
I0
tp7877
bS'RAD'
p7878
tp7879
Rp7880
sS'3TTRALCT'
p7881
g2
(g3
(S'S4'
p7882
I0
I1
tp7883
Rp7884
(I3
S'|'
p7885
NNNI4
I1
I0
tp7886
bS'DEGC'
p7887
tp7888
Rp7889
sS'2P15VBVL'
p7890
g2
(g3
(S'S3'
p7891
I0
I1
tp7892
Rp7893
(I3
S'|'
p7894
NNNI3
I1
I0
tp7895
bS'VDC'
p7896
tp7897
Rp7898
sS'AORESZ4'
p7899
g2
(g3
(S'S3'
p7900
I0
I1
tp7901
Rp7902
(I3
S'|'
p7903
NNNI3
I1
I0
tp7904
bS'RAD'
p7905
tp7906
Rp7907
sS'AORESZ3'
p7908
g2
(g3
(S'S3'
p7909
I0
I1
tp7910
Rp7911
(I3
S'|'
p7912
NNNI3
I1
I0
tp7913
bS'RAD'
p7914
tp7915
Rp7916
sS'AORESZ0'
p7917
g2
(g3
(S'S3'
p7918
I0
I1
tp7919
Rp7920
(I3
S'|'
p7921
NNNI3
I1
I0
tp7922
bS'RAD'
p7923
tp7924
Rp7925
sS'AORWNTQ4'
p7926
g2
(g3
(S'S4'
p7927
I0
I1
tp7928
Rp7929
(I3
S'|'
p7930
NNNI4
I1
I0
tp7931
bS'FTLB'
p7932
tp7933
Rp7934
sS'AORWNTQ5'
p7935
g2
(g3
(S'S4'
p7936
I0
I1
tp7937
Rp7938
(I3
S'|'
p7939
NNNI4
I1
I0
tp7940
bS'FTLB'
p7941
tp7942
Rp7943
sS'AORWNTQ6'
p7944
g2
(g3
(S'S4'
p7945
I0
I1
tp7946
Rp7947
(I3
S'|'
p7948
NNNI4
I1
I0
tp7949
bS'FTLB'
p7950
tp7951
Rp7952
sS'TMP_FEP1_MONG'
p7953
g299
sS'AORWMC6_1'
p7954
g2
(g3
(S'S7'
p7955
I0
I1
tp7956
Rp7957
(I3
S'|'
p7958
NNNI7
I1
I0
tp7959
bS'FTLBSEC'
p7960
tp7961
Rp7962
sS'AORWNTQ1'
p7963
g2
(g3
(S'S4'
p7964
I0
I1
tp7965
Rp7966
(I3
S'|'
p7967
NNNI4
I1
I0
tp7968
bS'FTLB'
p7969
tp7970
Rp7971
sS'AORWNTQ2'
p7972
g2
(g3
(S'S4'
p7973
I0
I1
tp7974
Rp7975
(I3
S'|'
p7976
NNNI4
I1
I0
tp7977
bS'FTLB'
p7978
tp7979
Rp7980
sS'AORWNTQ3'
p7981
g2
(g3
(S'S4'
p7982
I0
I1
tp7983
Rp7984
(I3
S'|'
p7985
NNNI4
I1
I0
tp7986
bS'FTLB'
p7987
tp7988
Rp7989
sS'AOSPBCS4B'
p7990
g2
(g3
(S'S4'
p7991
I0
I1
tp7992
Rp7993
(I3
S'|'
p7994
NNNI4
I1
I0
tp7995
bS'MAMP'
p7996
tp7997
Rp7998
sS'4RT567T'
p7999
g2
(g3
(S'S4'
p8000
I0
I1
tp8001
Rp8002
(I3
S'|'
p8003
NNNI4
I1
I0
tp8004
bS'DEGF'
p8005
tp8006
Rp8007
sS'4PRT1BT'
p8008
g2
(g3
(S'S4'
p8009
I0
I1
tp8010
Rp8011
(I3
S'|'
p8012
NNNI4
I1
I0
tp8013
bS'DEGF'
p8014
tp8015
Rp8016
sS'6RATE2'
p8017
g2
(g3
(S'S5'
p8018
I0
I1
tp8019
Rp8020
(I3
S'|'
p8021
NNNI5
I1
I0
tp8022
bS'RADPS'
p8023
tp8024
Rp8025
sS'6RATE3'
p8026
g2
(g3
(S'S5'
p8027
I0
I1
tp8028
Rp8029
(I3
S'|'
p8030
NNNI5
I1
I0
tp8031
bS'RADPS'
p8032
tp8033
Rp8034
sS'6RATE1'
p8035
g2
(g3
(S'S5'
p8036
I0
I1
tp8037
Rp8038
(I3
S'|'
p8039
NNNI5
I1
I0
tp8040
bS'RADPS'
p8041
tp8042
Rp8043
sS'6SAEST1'
p8044
g2
(g3
(S'S3'
p8045
I0
I1
tp8046
Rp8047
(I3
S'|'
p8048
NNNI3
I1
I0
tp8049
bS'RAD'
p8050
tp8051
Rp8052
sS'AORWMC1'
p8053
g2
(g3
(S'S7'
p8054
I0
I1
tp8055
Rp8056
(I3
S'|'
p8057
NNNI7
I1
I0
tp8058
bS'FTLBSEC'
p8059
tp8060
Rp8061
sS'6SAEST2'
p8062
g2
(g3
(S'S3'
p8063
I0
I1
tp8064
Rp8065
(I3
S'|'
p8066
NNNI3
I1
I0
tp8067
bS'RAD'
p8068
tp8069
Rp8070
sS'AORWMC4'
p8071
g2
(g3
(S'S7'
p8072
I0
I1
tp8073
Rp8074
(I3
S'|'
p8075
NNNI7
I1
I0
tp8076
bS'FTLBSEC'
p8077
tp8078
Rp8079
sS'AORWMC5'
p8080
g2
(g3
(S'S7'
p8081
I0
I1
tp8082
Rp8083
(I3
S'|'
p8084
NNNI7
I1
I0
tp8085
bS'FTLBSEC'
p8086
tp8087
Rp8088
sS'6ALPANG'
p8089
g2
(g3
(S'S3'
p8090
I0
I1
tp8091
Rp8092
(I3
S'|'
p8093
NNNI3
I1
I0
tp8094
bS'DEG'
p8095
tp8096
Rp8097
sS'TB1T2'
p8098
g2
(g3
(S'S4'
p8099
I0
I1
tp8100
Rp8101
(I3
S'|'
p8102
NNNI4
I1
I0
tp8103
bS'DEGF'
p8104
tp8105
Rp8106
sS'PM1THV2T'
p8107
g2
(g3
(S'S4'
p8108
I0
I1
tp8109
Rp8110
(I3
S'|'
p8111
NNNI4
I1
I0
tp8112
bS'DEGF'
p8113
tp8114
Rp8115
sS'EB3DI'
p8116
g2
(g3
(S'S3'
p8117
I0
I1
tp8118
Rp8119
(I3
S'|'
p8120
NNNI3
I1
I0
tp8121
bS'AMP'
p8122
tp8123
Rp8124
sS'AOSCPOS1'
p8125
g2
(g3
(S'S2'
p8126
I0
I1
tp8127
Rp8128
(I3
S'|'
p8129
NNNI2
I1
I0
tp8130
bS'KM'
p8131
tp8132
Rp8133
sS'AOSCPOS2'
p8134
g2
(g3
(S'S2'
p8135
I0
I1
tp8136
Rp8137
(I3
S'|'
p8138
NNNI2
I1
I0
tp8139
bS'KM'
p8140
tp8141
Rp8142
sS'4RT569T'
p8143
g2
(g3
(S'S4'
p8144
I0
I1
tp8145
Rp8146
(I3
S'|'
p8147
NNNI4
I1
I0
tp8148
bS'DEGF'
p8149
tp8150
Rp8151
sS'4RT588T'
p8152
g2
(g3
(S'S4'
p8153
I0
I1
tp8154
Rp8155
(I3
S'|'
p8156
NNNI4
I1
I0
tp8157
bS'DEGF'
p8158
tp8159
Rp8160
sS'PCM01T'
p8161
g2
(g3
(S'S4'
p8162
I0
I1
tp8163
Rp8164
(I3
S'|'
p8165
NNNI4
I1
I0
tp8166
bS'DEGF'
p8167
tp8168
Rp8169
sS'4RT596T'
p8170
g2
(g3
(S'S4'
p8171
I0
I1
tp8172
Rp8173
(I3
S'|'
p8174
NNNI4
I1
I0
tp8175
bS'DEGF'
p8176
tp8177
Rp8178
sS'6SINTER3'
p8179
g2
(g3
(S'S3'
p8180
I0
I1
tp8181
Rp8182
(I3
S'|'
p8183
NNNI3
I1
I0
tp8184
bS'RAD'
p8185
tp8186
Rp8187
sS'AI1AX1Y'
p8188
g2
(g3
(S'S5'
p8189
I0
I1
tp8190
Rp8191
(I3
S'|'
p8192
NNNI5
I1
I0
tp8193
bS'DEGPS'
p8194
tp8195
Rp8196
sS'6SINTER1'
p8197
g2
(g3
(S'S3'
p8198
I0
I1
tp8199
Rp8200
(I3
S'|'
p8201
NNNI3
I1
I0
tp8202
bS'RAD'
p8203
tp8204
Rp8205
sS'OOBTHR52'
p8206
g2
(g3
(S'S4'
p8207
I0
I1
tp8208
Rp8209
(I3
S'|'
p8210
NNNI4
I1
I0
tp8211
bS'DEGF'
p8212
tp8213
Rp8214
sS'OOBTHR55'
p8215
g2
(g3
(S'S4'
p8216
I0
I1
tp8217
Rp8218
(I3
S'|'
p8219
NNNI4
I1
I0
tp8220
bS'DEGF'
p8221
tp8222
Rp8223
sS'EORTDMN13D'
p8224
g2
(g3
(S'S4'
p8225
I0
I1
tp8226
Rp8227
(I3
S'|'
p8228
NNNI4
I1
I0
tp8229
bS'DEGF'
p8230
tp8231
Rp8232
sS'OOBTHR57'
p8233
g2
(g3
(S'S4'
p8234
I0
I1
tp8235
Rp8236
(I3
S'|'
p8237
NNNI4
I1
I0
tp8238
bS'DEGF'
p8239
tp8240
Rp8241
sS'OOBTHR56'
p8242
g2
(g3
(S'S4'
p8243
I0
I1
tp8244
Rp8245
(I3
S'|'
p8246
NNNI4
I1
I0
tp8247
bS'DEGF'
p8248
tp8249
Rp8250
sS'OOBTHR59'
p8251
g2
(g3
(S'S4'
p8252
I0
I1
tp8253
Rp8254
(I3
S'|'
p8255
NNNI4
I1
I0
tp8256
bS'DEGF'
p8257
tp8258
Rp8259
sS'OOBTHR58'
p8260
g2
(g3
(S'S4'
p8261
I0
I1
tp8262
Rp8263
(I3
S'|'
p8264
NNNI4
I1
I0
tp8265
bS'DEGF'
p8266
tp8267
Rp8268
sS'PLINE14T'
p8269
g2
(g3
(S'S4'
p8270
I0
I1
tp8271
Rp8272
(I3
S'|'
p8273
NNNI4
I1
I0
tp8274
bS'DEGF'
p8275
tp8276
Rp8277
sS'1SSMYT'
p8278
g2
(g3
(S'S4'
p8279
I0
I1
tp8280
Rp8281
(I3
S'|'
p8282
NNNI4
I1
I0
tp8283
bS'DEGC'
p8284
tp8285
Rp8286
sS'CTXBV'
p8287
g2
(g3
(S'S1'
p8288
I0
I1
tp8289
Rp8290
(I3
S'|'
p8291
NNNI1
I1
I0
tp8292
bg45
tp8293
Rp8294
sS'4PRT2BT'
p8295
g2
(g3
(S'S4'
p8296
I0
I1
tp8297
Rp8298
(I3
S'|'
p8299
NNNI4
I1
I0
tp8300
bS'DEGF'
p8301
tp8302
Rp8303
sS'ARWA6BT'
p8304
g2
(g3
(S'S4'
p8305
I0
I1
tp8306
Rp8307
(I3
S'|'
p8308
NNNI4
I1
I0
tp8309
bS'DEGF'
p8310
tp8311
Rp8312
sS'4RT575T'
p8313
g2
(g3
(S'S4'
p8314
I0
I1
tp8315
Rp8316
(I3
S'|'
p8317
NNNI4
I1
I0
tp8318
bS'DEGF'
p8319
tp8320
Rp8321
sS'CPA1BPT'
p8322
g2
(g3
(S'S4'
p8323
I0
I1
tp8324
Rp8325
(I3
S'|'
p8326
NNNI4
I1
I0
tp8327
bS'DEGF'
p8328
tp8329
Rp8330
sS'PM4THV2T'
p8331
g2
(g3
(S'S4'
p8332
I0
I1
tp8333
Rp8334
(I3
S'|'
p8335
NNNI4
I1
I0
tp8336
bS'DEGF'
p8337
tp8338
Rp8339
sS'TPC_PAN'
p8340
g2
(g3
(S'S4'
p8341
I0
I1
tp8342
Rp8343
(I3
S'|'
p8344
NNNI4
I1
I0
tp8345
bS'DEGF'
p8346
tp8347
Rp8348
sS'2PMT1T'
p8349
g2
(g3
(S'S4'
p8350
I0
I1
tp8351
Rp8352
(I3
S'|'
p8353
NNNI4
I1
I0
tp8354
bS'DEGC'
p8355
tp8356
Rp8357
sS'CIUA15V'
p8358
g2
(g3
(S'S1'
p8359
I0
I1
tp8360
Rp8361
(I3
S'|'
p8362
NNNI1
I1
I0
tp8363
bg45
tp8364
Rp8365
sS'1DPAMZT'
p8366
g2
(g3
(S'S4'
p8367
I0
I1
tp8368
Rp8369
(I3
S'|'
p8370
NNNI4
I1
I0
tp8371
bS'DEGC'
p8372
tp8373
Rp8374
sS'EIACVBV'
p8375
g2
(g3
(S'S1'
p8376
I0
I1
tp8377
Rp8378
(I3
S'|'
p8379
NNNI1
I1
I0
tp8380
bg45
tp8381
Rp8382
sS'4PRTBV'
p8383
g2
(g3
(S'S3'
p8384
I0
I1
tp8385
Rp8386
(I3
S'|'
p8387
NNNI3
I1
I0
tp8388
bS'VDC'
p8389
tp8390
Rp8391
sS'4RT703T'
p8392
g2
(g3
(S'S4'
p8393
I0
I1
tp8394
Rp8395
(I3
S'|'
p8396
NNNI4
I1
I0
tp8397
bS'DEGF'
p8398
tp8399
Rp8400
sS'1DAHHBVO'
p8401
g2
(g3
(S'S1'
p8402
I0
I1
tp8403
Rp8404
(I3
S'|'
p8405
NNNI1
I1
I0
tp8406
bg45
tp8407
Rp8408
sS'1DEP1AVO'
p8409
g2
(g3
(S'S1'
p8410
I0
I1
tp8411
Rp8412
(I3
S'|'
p8413
NNNI1
I1
I0
tp8414
bg45
tp8415
Rp8416
sS'1VAHOBT'
p8417
g2
(g3
(S'S4'
p8418
I0
I1
tp8419
Rp8420
(I3
S'|'
p8421
NNNI4
I1
I0
tp8422
bS'DEGC'
p8423
tp8424
Rp8425
sS'1MAHOBT'
p8426
g2
(g3
(S'S4'
p8427
I0
I1
tp8428
Rp8429
(I3
S'|'
p8430
NNNI4
I1
I0
tp8431
bS'DEGC'
p8432
tp8433
Rp8434
sS'CXPNAIT'
p8435
g2
(g3
(S'S4'
p8436
I0
I1
tp8437
Rp8438
(I3
S'|'
p8439
NNNI4
I1
I0
tp8440
bS'DEGF'
p8441
tp8442
Rp8443
sS'4ALL1AT'
p8444
g2
(g3
(S'S4'
p8445
I0
I1
tp8446
Rp8447
(I3
S'|'
p8448
NNNI4
I1
I0
tp8449
bS'DEGF'
p8450
tp8451
Rp8452
sS'CRXBLS'
p8453
g2
(g3
(S'S3'
p8454
I0
I1
tp8455
Rp8456
(I3
S'|'
p8457
NNNI3
I1
I0
tp8458
bS'KHZ'
p8459
tp8460
Rp8461
sS'PMTANK1T'
p8462
g2
(g3
(S'S4'
p8463
I0
I1
tp8464
Rp8465
(I3
S'|'
p8466
NNNI4
I1
I0
tp8467
bS'DEGF'
p8468
tp8469
Rp8470
sS'OHRTHR49'
p8471
g2
(g3
(S'S4'
p8472
I0
I1
tp8473
Rp8474
(I3
S'|'
p8475
NNNI4
I1
I0
tp8476
bS'DEGF'
p8477
tp8478
Rp8479
sS'EOEB3DIC'
p8480
g2
(g3
(S'S3'
p8481
I0
I1
tp8482
Rp8483
(I3
S'|'
p8484
NNNI3
I1
I0
tp8485
bS'AMP'
p8486
tp8487
Rp8488
sS'OHRTHR45'
p8489
g2
(g3
(S'S4'
p8490
I0
I1
tp8491
Rp8492
(I3
S'|'
p8493
NNNI4
I1
I0
tp8494
bS'DEGF'
p8495
tp8496
Rp8497
sS'OHRTHR44'
p8498
g2
(g3
(S'S4'
p8499
I0
I1
tp8500
Rp8501
(I3
S'|'
p8502
NNNI4
I1
I0
tp8503
bS'DEGF'
p8504
tp8505
Rp8506
sS'OHRTHR47'
p8507
g2
(g3
(S'S4'
p8508
I0
I1
tp8509
Rp8510
(I3
S'|'
p8511
NNNI4
I1
I0
tp8512
bS'DEGF'
p8513
tp8514
Rp8515
sS'OHRTHR46'
p8516
g2
(g3
(S'S4'
p8517
I0
I1
tp8518
Rp8519
(I3
S'|'
p8520
NNNI4
I1
I0
tp8521
bS'DEGF'
p8522
tp8523
Rp8524
sS'AOADACH1A_NBG'
p8525
g2
(g3
(S'S3'
p8526
I0
I1
tp8527
Rp8528
(I3
S'|'
p8529
NNNI3
I1
I0
tp8530
bS'DEG'
p8531
tp8532
Rp8533
sS'OHRTHR40'
p8534
g2
(g3
(S'S4'
p8535
I0
I1
tp8536
Rp8537
(I3
S'|'
p8538
NNNI4
I1
I0
tp8539
bS'DEGF'
p8540
tp8541
Rp8542
sS'OHRTHR43'
p8543
g2
(g3
(S'S4'
p8544
I0
I1
tp8545
Rp8546
(I3
S'|'
p8547
NNNI4
I1
I0
tp8548
bS'DEGF'
p8549
tp8550
Rp8551
sS'OHRTHR42'
p8552
g2
(g3
(S'S4'
p8553
I0
I1
tp8554
Rp8555
(I3
S'|'
p8556
NNNI4
I1
I0
tp8557
bS'DEGF'
p8558
tp8559
Rp8560
sS'AWD2TQI'
p8561
g2
(g3
(S'S3'
p8562
I0
I1
tp8563
Rp8564
(I3
S'|'
p8565
NNNI3
I1
I0
tp8566
bS'AMP'
p8567
tp8568
Rp8569
sS'4LPOSARO'
p8570
g2
(g3
(S'S3'
p8571
I0
I1
tp8572
Rp8573
(I3
S'|'
p8574
NNNI3
I1
I0
tp8575
bS'DEG'
p8576
tp8577
Rp8578
sS'PCM03T'
p8579
g2
(g3
(S'S4'
p8580
I0
I1
tp8581
Rp8582
(I3
S'|'
p8583
NNNI4
I1
I0
tp8584
bS'DEGF'
p8585
tp8586
Rp8587
sS'EOEB1DIC'
p8588
g2
(g3
(S'S3'
p8589
I0
I1
tp8590
Rp8591
(I3
S'|'
p8592
NNNI3
I1
I0
tp8593
bS'AMP'
p8594
tp8595
Rp8596
sS'TMP_FEP0_MONG'
p8597
g299
sS'62RCSTMR'
p8598
g2
(g3
(S'S3'
p8599
I0
I1
tp8600
Rp8601
(I3
S'|'
p8602
NNNI3
I1
I0
tp8603
bS'MIN'
p8604
tp8605
Rp8606
sS'TASPPCU'
p8607
g2
(g3
(S'S4'
p8608
I0
I1
tp8609
Rp8610
(I3
S'|'
p8611
NNNI4
I1
I0
tp8612
bS'DEGF'
p8613
tp8614
Rp8615
sS'PCM04T'
p8616
g2
(g3
(S'S4'
p8617
I0
I1
tp8618
Rp8619
(I3
S'|'
p8620
NNNI4
I1
I0
tp8621
bS'DEGF'
p8622
tp8623
Rp8624
sS'64RCSTMR'
p8625
g2
(g3
(S'S3'
p8626
I0
I1
tp8627
Rp8628
(I3
S'|'
p8629
NNNI3
I1
I0
tp8630
bS'MIN'
p8631
tp8632
Rp8633
sS'4RT708T'
p8634
g2
(g3
(S'S4'
p8635
I0
I1
tp8636
Rp8637
(I3
S'|'
p8638
NNNI4
I1
I0
tp8639
bS'DEGF'
p8640
tp8641
Rp8642
sS'OOBAGRD6'
p8643
g2
(g3
(S'S4'
p8644
I0
I1
tp8645
Rp8646
(I3
S'|'
p8647
NNNI4
I1
I0
tp8648
bS'DEGF'
p8649
tp8650
Rp8651
sS'TB1T3'
p8652
g2
(g3
(S'S4'
p8653
I0
I1
tp8654
Rp8655
(I3
S'|'
p8656
NNNI4
I1
I0
tp8657
bS'DEGF'
p8658
tp8659
Rp8660
sS'TEP_EIA'
p8661
g2
(g3
(S'S4'
p8662
I0
I1
tp8663
Rp8664
(I3
S'|'
p8665
NNNI4
I1
I0
tp8666
bS'DEGF'
p8667
tp8668
Rp8669
sS'AOBETANG'
p8670
g2
(g3
(S'S3'
p8671
I0
I1
tp8672
Rp8673
(I3
S'|'
p8674
NNNI3
I1
I0
tp8675
bS'DEG'
p8676
tp8677
Rp8678
sS'OOBAGRD3'
p8679
g2
(g3
(S'S4'
p8680
I0
I1
tp8681
Rp8682
(I3
S'|'
p8683
NNNI4
I1
I0
tp8684
bS'DEGF'
p8685
tp8686
Rp8687
sS'PLAED1FT'
p8688
g2
(g3
(S'S4'
p8689
I0
I1
tp8690
Rp8691
(I3
S'|'
p8692
NNNI4
I1
I0
tp8693
bS'DEGF'
p8694
tp8695
Rp8696
sS'EB3CI'
p8697
g2
(g3
(S'S3'
p8698
I0
I1
tp8699
Rp8700
(I3
S'|'
p8701
NNNI3
I1
I0
tp8702
bS'AMP'
p8703
tp8704
Rp8705
sS'AORESZ1_1'
p8706
g2
(g3
(S'S3'
p8707
I0
I1
tp8708
Rp8709
(I3
S'|'
p8710
NNNI3
I1
I0
tp8711
bS'RAD'
p8712
tp8713
Rp8714
sS'TATECDPT'
p8715
g2
(g3
(S'S4'
p8716
I0
I1
tp8717
Rp8718
(I3
S'|'
p8719
NNNI4
I1
I0
tp8720
bS'DEGF'
p8721
tp8722
Rp8723
sS'4RT581T'
p8724
g2
(g3
(S'S4'
p8725
I0
I1
tp8726
Rp8727
(I3
S'|'
p8728
NNNI4
I1
I0
tp8729
bS'DEGF'
p8730
tp8731
Rp8732
sS'1HOPRBPR'
p8733
g2
(g3
(S'S4'
p8734
I0
I1
tp8735
Rp8736
(I3
S'|'
p8737
NNNI4
I1
I0
tp8738
bS'TORR'
p8739
tp8740
Rp8741
sS'1CRBT'
p8742
g2
(g3
(S'S4'
p8743
I0
I1
tp8744
Rp8745
(I3
S'|'
p8746
NNNI4
I1
I0
tp8747
bS'DEGC'
p8748
tp8749
Rp8750
sS'OHRTHR26'
p8751
g2
(g3
(S'S4'
p8752
I0
I1
tp8753
Rp8754
(I3
S'|'
p8755
NNNI4
I1
I0
tp8756
bS'DEGF'
p8757
tp8758
Rp8759
sS'AWD6TQI'
p8760
g2
(g3
(S'S3'
p8761
I0
I1
tp8762
Rp8763
(I3
S'|'
p8764
NNNI3
I1
I0
tp8765
bS'AMP'
p8766
tp8767
Rp8768
s.